(lp0
ccopy_reg
_reconstructor
p1
(c__main__
BuildResult
p2
c__builtin__
object
p3
Ntp4
Rp5
(dp6
S'id'
p7
V105558
p8
sS'number'
p9
I40
sbag1
(g2
g3
Ntp10
Rp11
(dp12
g7
V105588
p13
sg9
I41
sbag1
(g2
g3
Ntp14
Rp15
(dp16
g7
V105676
p17
sg9
I46
sbag1
(g2
g3
Ntp18
Rp19
(dp20
g7
V105757
p21
sg9
I44
sbag1
(g2
g3
Ntp22
Rp23
(dp24
g7
V105829
p25
sg9
I46
sbag1
(g2
g3
Ntp26
Rp27
(dp28
g7
V105847
p29
sg9
I41
sbag1
(g2
g3
Ntp30
Rp31
(dp32
g7
V105854
p33
sg9
I42
sbag1
(g2
g3
Ntp34
Rp35
(dp36
g7
V105984
p37
sg9
I31
sbag1
(g2
g3
Ntp38
Rp39
(dp40
g7
V106027
p41
sg9
I39
sbag1
(g2
g3
Ntp42
Rp43
(dp44
g7
V106180
p45
sg9
I44
sbag1
(g2
g3
Ntp46
Rp47
(dp48
g7
V106244
p49
sg9
I32
sbag1
(g2
g3
Ntp50
Rp51
(dp52
g7
V106341
p53
sg9
I35
sbag1
(g2
g3
Ntp54
Rp55
(dp56
g7
V106372
p57
sg9
I30
sbag1
(g2
g3
Ntp58
Rp59
(dp60
g7
V106401
p61
sg9
I28
sbag1
(g2
g3
Ntp62
Rp63
(dp64
g7
V106429
p65
sg9
I37
sbag1
(g2
g3
Ntp66
Rp67
(dp68
g7
V106509
p69
sg9
I32
sbag1
(g2
g3
Ntp70
Rp71
(dp72
g7
V106567
p73
sg9
I24
sbag1
(g2
g3
Ntp74
Rp75
(dp76
g7
V106581
p77
sg9
I36
sbag1
(g2
g3
Ntp78
Rp79
(dp80
g7
V106658
p81
sg9
I27
sbag1
(g2
g3
Ntp82
Rp83
(dp84
g7
V106690
p85
sg9
I30
sbag1
(g2
g3
Ntp86
Rp87
(dp88
g7
V106711
p89
sg9
I33
sbag1
(g2
g3
Ntp90
Rp91
(dp92
g7
V106736
p93
sg9
I34
sbag1
(g2
g3
Ntp94
Rp95
(dp96
g7
V106802
p97
sg9
I42
sbag1
(g2
g3
Ntp98
Rp99
(dp100
g7
V106833
p101
sg9
I37
sbag1
(g2
g3
Ntp102
Rp103
(dp104
g7
V107229
p105
sg9
I60
sbag1
(g2
g3
Ntp106
Rp107
(dp108
g7
V107313
p109
sg9
I50
sbag1
(g2
g3
Ntp110
Rp111
(dp112
g7
V107392
p113
sg9
I35
sbag1
(g2
g3
Ntp114
Rp115
(dp116
g7
V107434
p117
sg9
I52
sbag1
(g2
g3
Ntp118
Rp119
(dp120
g7
V107454
p121
sg9
I50
sbag1
(g2
g3
Ntp122
Rp123
(dp124
g7
V107634
p125
sg9
I41
sbag1
(g2
g3
Ntp126
Rp127
(dp128
g7
V107647
p129
sg9
I73
sbag1
(g2
g3
Ntp130
Rp131
(dp132
g7
V107660
p133
sg9
I69
sbag1
(g2
g3
Ntp134
Rp135
(dp136
g7
V107670
p137
sg9
I100
sbag1
(g2
g3
Ntp138
Rp139
(dp140
g7
V107774
p141
sg9
I40
sbag1
(g2
g3
Ntp142
Rp143
(dp144
g7
V107911
p145
sg9
I54
sbag1
(g2
g3
Ntp146
Rp147
(dp148
g7
V108012
p149
sg9
I42
sbag1
(g2
g3
Ntp150
Rp151
(dp152
g7
V108215
p153
sg9
I45
sbag1
(g2
g3
Ntp154
Rp155
(dp156
g7
V108227
p157
sg9
I53
sbag1
(g2
g3
Ntp158
Rp159
(dp160
g7
V108327
p161
sg9
I48
sbag1
(g2
g3
Ntp162
Rp163
(dp164
g7
V108371
p165
sg9
I54
sbag1
(g2
g3
Ntp166
Rp167
(dp168
g7
V108451
p169
sg9
I209
sbag1
(g2
g3
Ntp170
Rp171
(dp172
g7
V108473
p173
sg9
I54
sbag1
(g2
g3
Ntp174
Rp175
(dp176
g7
V108496
p177
sg9
I44
sbag1
(g2
g3
Ntp178
Rp179
(dp180
g7
V108554
p181
sg9
I47
sbag1
(g2
g3
Ntp182
Rp183
(dp184
g7
V108798
p185
sg9
I35
sbag1
(g2
g3
Ntp186
Rp187
(dp188
g7
V108851
p189
sg9
I40
sbag1
(g2
g3
Ntp190
Rp191
(dp192
g7
V108899
p193
sg9
I42
sbag1
(g2
g3
Ntp194
Rp195
(dp196
g7
V109486
p197
sg9
I43
sbag1
(g2
g3
Ntp198
Rp199
(dp200
g7
V109501
p201
sg9
I54
sbag1
(g2
g3
Ntp202
Rp203
(dp204
g7
V109570
p205
sg9
I38
sbag1
(g2
g3
Ntp206
Rp207
(dp208
g7
V109595
p209
sg9
I43
sbag1
(g2
g3
Ntp210
Rp211
(dp212
g7
V109656
p213
sg9
I46
sbag1
(g2
g3
Ntp214
Rp215
(dp216
g7
V109713
p217
sg9
I44
sbag1
(g2
g3
Ntp218
Rp219
(dp220
g7
V109807
p221
sg9
I46
sbag1
(g2
g3
Ntp222
Rp223
(dp224
g7
V109845
p225
sg9
I35
sbag1
(g2
g3
Ntp226
Rp227
(dp228
g7
V109874
p229
sg9
I39
sbag1
(g2
g3
Ntp230
Rp231
(dp232
g7
V109928
p233
sg9
I41
sbag1
(g2
g3
Ntp234
Rp235
(dp236
g7
V109999
p237
sg9
I50
sbag1
(g2
g3
Ntp238
Rp239
(dp240
g7
V110211
p241
sg9
I39
sbag1
(g2
g3
Ntp242
Rp243
(dp244
g7
V110227
p245
sg9
I45
sbag1
(g2
g3
Ntp246
Rp247
(dp248
g7
V110541
p249
sg9
I51
sbag1
(g2
g3
Ntp250
Rp251
(dp252
g7
V110682
p253
sg9
I41
sbag1
(g2
g3
Ntp254
Rp255
(dp256
g7
V110740
p257
sg9
I53
sbag1
(g2
g3
Ntp258
Rp259
(dp260
g7
V110821
p261
sg9
I0
sbag1
(g2
g3
Ntp262
Rp263
(dp264
g7
V110866
p265
sg9
I0
sbag1
(g2
g3
Ntp266
Rp267
(dp268
g7
V110866
p269
sg9
I202
sbag1
(g2
g3
Ntp270
Rp271
(dp272
g7
V110915
p273
sg9
I47
sbag1
(g2
g3
Ntp274
Rp275
(dp276
g7
V110958
p277
sg9
I45
sbag1
(g2
g3
Ntp278
Rp279
(dp280
g7
V110995
p281
sg9
I203
sbag1
(g2
g3
Ntp282
Rp283
(dp284
g7
V111157
p285
sg9
I45
sbag1
(g2
g3
Ntp286
Rp287
(dp288
g7
V111179
p289
sg9
I43
sbag1
(g2
g3
Ntp290
Rp291
(dp292
g7
V111253
p293
sg9
I40
sbag1
(g2
g3
Ntp294
Rp295
(dp296
g7
V111310
p297
sg9
I143
sbag1
(g2
g3
Ntp298
Rp299
(dp300
g7
V111507
p301
sg9
I29
sbag1
(g2
g3
Ntp302
Rp303
(dp304
g7
V111527
p305
sg9
I53
sbag1
(g2
g3
Ntp306
Rp307
(dp308
g7
V111661
p309
sg9
I0
sbag1
(g2
g3
Ntp310
Rp311
(dp312
g7
V111629
p313
sg9
I166
sbag1
(g2
g3
Ntp314
Rp315
(dp316
g7
V111675
p317
sg9
I0
sbag1
(g2
g3
Ntp318
Rp319
(dp320
g7
V111507
p321
sg9
I29
sbag1
(g2
g3
Ntp322
Rp323
(dp324
g7
V111527
p325
sg9
I53
sbag1
(g2
g3
Ntp326
Rp327
(dp328
g7
V111661
p329
sg9
I0
sbag1
(g2
g3
Ntp330
Rp331
(dp332
g7
V111629
p333
sg9
I166
sbag1
(g2
g3
Ntp334
Rp335
(dp336
g7
V111675
p337
sg9
I0
sbag1
(g2
g3
Ntp338
Rp339
(dp340
g7
V111835
p341
sg9
I66
sbag1
(g2
g3
Ntp342
Rp343
(dp344
g7
V111868
p345
sg9
I44
sbag1
(g2
g3
Ntp346
Rp347
(dp348
g7
V111950
p349
sg9
I54
sbag1
(g2
g3
Ntp350
Rp351
(dp352
g7
V111835
p353
sg9
I66
sbag1
(g2
g3
Ntp354
Rp355
(dp356
g7
V111868
p357
sg9
I44
sbag1
(g2
g3
Ntp358
Rp359
(dp360
g7
V111950
p361
sg9
I54
sbag1
(g2
g3
Ntp362
Rp363
(dp364
g7
V111994
p365
sg9
I49
sbag1
(g2
g3
Ntp366
Rp367
(dp368
g7
V112096
p369
sg9
I40
sbag1
(g2
g3
Ntp370
Rp371
(dp372
g7
V112145
p373
sg9
I44
sbag1
(g2
g3
Ntp374
Rp375
(dp376
g7
V112171
p377
sg9
I35
sbag1
(g2
g3
Ntp378
Rp379
(dp380
g7
V111994
p381
sg9
I49
sbag1
(g2
g3
Ntp382
Rp383
(dp384
g7
V112096
p385
sg9
I40
sbag1
(g2
g3
Ntp386
Rp387
(dp388
g7
V112145
p389
sg9
I44
sbag1
(g2
g3
Ntp390
Rp391
(dp392
g7
V112171
p393
sg9
I35
sbag1
(g2
g3
Ntp394
Rp395
(dp396
g7
V111994
p397
sg9
I49
sbag1
(g2
g3
Ntp398
Rp399
(dp400
g7
V112096
p401
sg9
I40
sbag1
(g2
g3
Ntp402
Rp403
(dp404
g7
V112145
p405
sg9
I44
sbag1
(g2
g3
Ntp406
Rp407
(dp408
g7
V112171
p409
sg9
I35
sbag1
(g2
g3
Ntp410
Rp411
(dp412
g7
V111994
p413
sg9
I49
sbag1
(g2
g3
Ntp414
Rp415
(dp416
g7
V112096
p417
sg9
I40
sbag1
(g2
g3
Ntp418
Rp419
(dp420
g7
V112145
p421
sg9
I44
sbag1
(g2
g3
Ntp422
Rp423
(dp424
g7
V112171
p425
sg9
I35
sbag1
(g2
g3
Ntp426
Rp427
(dp428
g7
V111994
p429
sg9
I49
sbag1
(g2
g3
Ntp430
Rp431
(dp432
g7
V112096
p433
sg9
I40
sbag1
(g2
g3
Ntp434
Rp435
(dp436
g7
V112145
p437
sg9
I44
sbag1
(g2
g3
Ntp438
Rp439
(dp440
g7
V112171
p441
sg9
I35
sbag1
(g2
g3
Ntp442
Rp443
(dp444
g7
V111994
p445
sg9
I49
sbag1
(g2
g3
Ntp446
Rp447
(dp448
g7
V112096
p449
sg9
I40
sbag1
(g2
g3
Ntp450
Rp451
(dp452
g7
V112145
p453
sg9
I44
sbag1
(g2
g3
Ntp454
Rp455
(dp456
g7
V112171
p457
sg9
I35
sbag1
(g2
g3
Ntp458
Rp459
(dp460
g7
V111994
p461
sg9
I49
sbag1
(g2
g3
Ntp462
Rp463
(dp464
g7
V112096
p465
sg9
I40
sbag1
(g2
g3
Ntp466
Rp467
(dp468
g7
V112145
p469
sg9
I44
sbag1
(g2
g3
Ntp470
Rp471
(dp472
g7
V112171
p473
sg9
I35
sbag1
(g2
g3
Ntp474
Rp475
(dp476
g7
V111994
p477
sg9
I49
sbag1
(g2
g3
Ntp478
Rp479
(dp480
g7
V112096
p481
sg9
I40
sbag1
(g2
g3
Ntp482
Rp483
(dp484
g7
V112145
p485
sg9
I44
sbag1
(g2
g3
Ntp486
Rp487
(dp488
g7
V112171
p489
sg9
I35
sbag1
(g2
g3
Ntp490
Rp491
(dp492
g7
V111994
p493
sg9
I49
sbag1
(g2
g3
Ntp494
Rp495
(dp496
g7
V112096
p497
sg9
I40
sbag1
(g2
g3
Ntp498
Rp499
(dp500
g7
V112145
p501
sg9
I44
sbag1
(g2
g3
Ntp502
Rp503
(dp504
g7
V112171
p505
sg9
I35
sbag1
(g2
g3
Ntp506
Rp507
(dp508
g7
V111994
p509
sg9
I49
sbag1
(g2
g3
Ntp510
Rp511
(dp512
g7
V112096
p513
sg9
I40
sbag1
(g2
g3
Ntp514
Rp515
(dp516
g7
V112145
p517
sg9
I44
sbag1
(g2
g3
Ntp518
Rp519
(dp520
g7
V112171
p521
sg9
I35
sbag1
(g2
g3
Ntp522
Rp523
(dp524
g7
V111994
p525
sg9
I49
sbag1
(g2
g3
Ntp526
Rp527
(dp528
g7
V112096
p529
sg9
I40
sbag1
(g2
g3
Ntp530
Rp531
(dp532
g7
V112145
p533
sg9
I44
sbag1
(g2
g3
Ntp534
Rp535
(dp536
g7
V112171
p537
sg9
I35
sbag1
(g2
g3
Ntp538
Rp539
(dp540
g7
V111994
p541
sg9
I49
sbag1
(g2
g3
Ntp542
Rp543
(dp544
g7
V112096
p545
sg9
I40
sbag1
(g2
g3
Ntp546
Rp547
(dp548
g7
V112145
p549
sg9
I44
sbag1
(g2
g3
Ntp550
Rp551
(dp552
g7
V112171
p553
sg9
I35
sbag1
(g2
g3
Ntp554
Rp555
(dp556
g7
V112270
p557
sg9
I37
sbag1
(g2
g3
Ntp558
Rp559
(dp560
g7
V112462
p561
sg9
I40
sbag1
(g2
g3
Ntp562
Rp563
(dp564
g7
V112270
p565
sg9
I37
sbag1
(g2
g3
Ntp566
Rp567
(dp568
g7
V112462
p569
sg9
I40
sbag1
(g2
g3
Ntp570
Rp571
(dp572
g7
V112270
p573
sg9
I37
sbag1
(g2
g3
Ntp574
Rp575
(dp576
g7
V112462
p577
sg9
I40
sbag1
(g2
g3
Ntp578
Rp579
(dp580
g7
V112270
p581
sg9
I37
sbag1
(g2
g3
Ntp582
Rp583
(dp584
g7
V112462
p585
sg9
I40
sbag1
(g2
g3
Ntp586
Rp587
(dp588
g7
V112270
p589
sg9
I37
sbag1
(g2
g3
Ntp590
Rp591
(dp592
g7
V112462
p593
sg9
I40
sbag1
(g2
g3
Ntp594
Rp595
(dp596
g7
V112270
p597
sg9
I37
sbag1
(g2
g3
Ntp598
Rp599
(dp600
g7
V112462
p601
sg9
I40
sbag1
(g2
g3
Ntp602
Rp603
(dp604
g7
V112270
p605
sg9
I37
sbag1
(g2
g3
Ntp606
Rp607
(dp608
g7
V112462
p609
sg9
I40
sbag1
(g2
g3
Ntp610
Rp611
(dp612
g7
V112270
p613
sg9
I37
sbag1
(g2
g3
Ntp614
Rp615
(dp616
g7
V112462
p617
sg9
I40
sbag1
(g2
g3
Ntp618
Rp619
(dp620
g7
V112270
p621
sg9
I37
sbag1
(g2
g3
Ntp622
Rp623
(dp624
g7
V112462
p625
sg9
I40
sbag1
(g2
g3
Ntp626
Rp627
(dp628
g7
V112270
p629
sg9
I37
sbag1
(g2
g3
Ntp630
Rp631
(dp632
g7
V112462
p633
sg9
I40
sbag1
(g2
g3
Ntp634
Rp635
(dp636
g7
V112270
p637
sg9
I37
sbag1
(g2
g3
Ntp638
Rp639
(dp640
g7
V112462
p641
sg9
I40
sbag1
(g2
g3
Ntp642
Rp643
(dp644
g7
V112270
p645
sg9
I37
sbag1
(g2
g3
Ntp646
Rp647
(dp648
g7
V112462
p649
sg9
I40
sbag1
(g2
g3
Ntp650
Rp651
(dp652
g7
V112270
p653
sg9
I37
sbag1
(g2
g3
Ntp654
Rp655
(dp656
g7
V112462
p657
sg9
I40
sbag1
(g2
g3
Ntp658
Rp659
(dp660
g7
V112270
p661
sg9
I37
sbag1
(g2
g3
Ntp662
Rp663
(dp664
g7
V112462
p665
sg9
I40
sbag1
(g2
g3
Ntp666
Rp667
(dp668
g7
V112270
p669
sg9
I37
sbag1
(g2
g3
Ntp670
Rp671
(dp672
g7
V112462
p673
sg9
I40
sbag1
(g2
g3
Ntp674
Rp675
(dp676
g7
V112270
p677
sg9
I37
sbag1
(g2
g3
Ntp678
Rp679
(dp680
g7
V112462
p681
sg9
I40
sbag1
(g2
g3
Ntp682
Rp683
(dp684
g7
V112270
p685
sg9
I37
sbag1
(g2
g3
Ntp686
Rp687
(dp688
g7
V112462
p689
sg9
I40
sbag1
(g2
g3
Ntp690
Rp691
(dp692
g7
V112270
p693
sg9
I37
sbag1
(g2
g3
Ntp694
Rp695
(dp696
g7
V112462
p697
sg9
I40
sbag1
(g2
g3
Ntp698
Rp699
(dp700
g7
V112270
p701
sg9
I37
sbag1
(g2
g3
Ntp702
Rp703
(dp704
g7
V112462
p705
sg9
I40
sbag1
(g2
g3
Ntp706
Rp707
(dp708
g7
V112270
p709
sg9
I37
sbag1
(g2
g3
Ntp710
Rp711
(dp712
g7
V112462
p713
sg9
I40
sbag1
(g2
g3
Ntp714
Rp715
(dp716
g7
V112270
p717
sg9
I37
sbag1
(g2
g3
Ntp718
Rp719
(dp720
g7
V112462
p721
sg9
I40
sbag1
(g2
g3
Ntp722
Rp723
(dp724
g7
V112270
p725
sg9
I37
sbag1
(g2
g3
Ntp726
Rp727
(dp728
g7
V112462
p729
sg9
I40
sbag1
(g2
g3
Ntp730
Rp731
(dp732
g7
V112270
p733
sg9
I37
sbag1
(g2
g3
Ntp734
Rp735
(dp736
g7
V112462
p737
sg9
I40
sbag1
(g2
g3
Ntp738
Rp739
(dp740
g7
V112627
p741
sg9
I32
sbag1
(g2
g3
Ntp742
Rp743
(dp744
g7
V112669
p745
sg9
I44
sbag1
(g2
g3
Ntp746
Rp747
(dp748
g7
V112734
p749
sg9
I33
sbag1
(g2
g3
Ntp750
Rp751
(dp752
g7
V112761
p753
sg9
I35
sbag1
(g2
g3
Ntp754
Rp755
(dp756
g7
V112827
p757
sg9
I43
sbag1
(g2
g3
Ntp758
Rp759
(dp760
g7
V112844
p761
sg9
I7
sbag1
(g2
g3
Ntp762
Rp763
(dp764
g7
V112627
p765
sg9
I32
sbag1
(g2
g3
Ntp766
Rp767
(dp768
g7
V112669
p769
sg9
I44
sbag1
(g2
g3
Ntp770
Rp771
(dp772
g7
V112734
p773
sg9
I33
sbag1
(g2
g3
Ntp774
Rp775
(dp776
g7
V112761
p777
sg9
I35
sbag1
(g2
g3
Ntp778
Rp779
(dp780
g7
V112827
p781
sg9
I43
sbag1
(g2
g3
Ntp782
Rp783
(dp784
g7
V112844
p785
sg9
I20
sbag1
(g2
g3
Ntp786
Rp787
(dp788
g7
V112901
p789
sg9
I0
sbag1
(g2
g3
Ntp790
Rp791
(dp792
g7
V112627
p793
sg9
I32
sbag1
(g2
g3
Ntp794
Rp795
(dp796
g7
V112669
p797
sg9
I44
sbag1
(g2
g3
Ntp798
Rp799
(dp800
g7
V112734
p801
sg9
I33
sbag1
(g2
g3
Ntp802
Rp803
(dp804
g7
V112761
p805
sg9
I35
sbag1
(g2
g3
Ntp806
Rp807
(dp808
g7
V112827
p809
sg9
I43
sbag1
(g2
g3
Ntp810
Rp811
(dp812
g7
V112844
p813
sg9
I35
sbag1
(g2
g3
Ntp814
Rp815
(dp816
g7
V112901
p817
sg9
I0
sbag1
(g2
g3
Ntp818
Rp819
(dp820
g7
V112627
p821
sg9
I32
sbag1
(g2
g3
Ntp822
Rp823
(dp824
g7
V112669
p825
sg9
I44
sbag1
(g2
g3
Ntp826
Rp827
(dp828
g7
V112734
p829
sg9
I33
sbag1
(g2
g3
Ntp830
Rp831
(dp832
g7
V112761
p833
sg9
I35
sbag1
(g2
g3
Ntp834
Rp835
(dp836
g7
V112827
p837
sg9
I43
sbag1
(g2
g3
Ntp838
Rp839
(dp840
g7
V112844
p841
sg9
I35
sbag1
(g2
g3
Ntp842
Rp843
(dp844
g7
V112901
p845
sg9
I0
sbag1
(g2
g3
Ntp846
Rp847
(dp848
g7
V112627
p849
sg9
I32
sbag1
(g2
g3
Ntp850
Rp851
(dp852
g7
V112669
p853
sg9
I44
sbag1
(g2
g3
Ntp854
Rp855
(dp856
g7
V112734
p857
sg9
I33
sbag1
(g2
g3
Ntp858
Rp859
(dp860
g7
V112761
p861
sg9
I35
sbag1
(g2
g3
Ntp862
Rp863
(dp864
g7
V112827
p865
sg9
I43
sbag1
(g2
g3
Ntp866
Rp867
(dp868
g7
V112844
p869
sg9
I35
sbag1
(g2
g3
Ntp870
Rp871
(dp872
g7
V112901
p873
sg9
I0
sbag1
(g2
g3
Ntp874
Rp875
(dp876
g7
V112627
p877
sg9
I32
sbag1
(g2
g3
Ntp878
Rp879
(dp880
g7
V112669
p881
sg9
I44
sbag1
(g2
g3
Ntp882
Rp883
(dp884
g7
V112734
p885
sg9
I33
sbag1
(g2
g3
Ntp886
Rp887
(dp888
g7
V112761
p889
sg9
I35
sbag1
(g2
g3
Ntp890
Rp891
(dp892
g7
V112827
p893
sg9
I43
sbag1
(g2
g3
Ntp894
Rp895
(dp896
g7
V112844
p897
sg9
I35
sbag1
(g2
g3
Ntp898
Rp899
(dp900
g7
V112901
p901
sg9
I1
sbag1
(g2
g3
Ntp902
Rp903
(dp904
g7
V112627
p905
sg9
I32
sbag1
(g2
g3
Ntp906
Rp907
(dp908
g7
V112669
p909
sg9
I44
sbag1
(g2
g3
Ntp910
Rp911
(dp912
g7
V112734
p913
sg9
I33
sbag1
(g2
g3
Ntp914
Rp915
(dp916
g7
V112761
p917
sg9
I35
sbag1
(g2
g3
Ntp918
Rp919
(dp920
g7
V112827
p921
sg9
I43
sbag1
(g2
g3
Ntp922
Rp923
(dp924
g7
V112844
p925
sg9
I35
sbag1
(g2
g3
Ntp926
Rp927
(dp928
g7
V112627
p929
sg9
I32
sbag1
(g2
g3
Ntp930
Rp931
(dp932
g7
V112669
p933
sg9
I44
sbag1
(g2
g3
Ntp934
Rp935
(dp936
g7
V112734
p937
sg9
I33
sbag1
(g2
g3
Ntp938
Rp939
(dp940
g7
V112761
p941
sg9
I35
sbag1
(g2
g3
Ntp942
Rp943
(dp944
g7
V112827
p945
sg9
I43
sbag1
(g2
g3
Ntp946
Rp947
(dp948
g7
V112844
p949
sg9
I35
sbag1
(g2
g3
Ntp950
Rp951
(dp952
g7
V112627
p953
sg9
I32
sbag1
(g2
g3
Ntp954
Rp955
(dp956
g7
V112669
p957
sg9
I44
sbag1
(g2
g3
Ntp958
Rp959
(dp960
g7
V112734
p961
sg9
I33
sbag1
(g2
g3
Ntp962
Rp963
(dp964
g7
V112761
p965
sg9
I35
sbag1
(g2
g3
Ntp966
Rp967
(dp968
g7
V112827
p969
sg9
I43
sbag1
(g2
g3
Ntp970
Rp971
(dp972
g7
V112844
p973
sg9
I35
sbag1
(g2
g3
Ntp974
Rp975
(dp976
g7
V112627
p977
sg9
I32
sbag1
(g2
g3
Ntp978
Rp979
(dp980
g7
V112669
p981
sg9
I44
sbag1
(g2
g3
Ntp982
Rp983
(dp984
g7
V112734
p985
sg9
I33
sbag1
(g2
g3
Ntp986
Rp987
(dp988
g7
V112761
p989
sg9
I35
sbag1
(g2
g3
Ntp990
Rp991
(dp992
g7
V112827
p993
sg9
I43
sbag1
(g2
g3
Ntp994
Rp995
(dp996
g7
V112844
p997
sg9
I35
sbag1
(g2
g3
Ntp998
Rp999
(dp1000
g7
V112627
p1001
sg9
I32
sbag1
(g2
g3
Ntp1002
Rp1003
(dp1004
g7
V112669
p1005
sg9
I44
sbag1
(g2
g3
Ntp1006
Rp1007
(dp1008
g7
V112734
p1009
sg9
I33
sbag1
(g2
g3
Ntp1010
Rp1011
(dp1012
g7
V112761
p1013
sg9
I35
sbag1
(g2
g3
Ntp1014
Rp1015
(dp1016
g7
V112827
p1017
sg9
I43
sbag1
(g2
g3
Ntp1018
Rp1019
(dp1020
g7
V112844
p1021
sg9
I35
sbag1
(g2
g3
Ntp1022
Rp1023
(dp1024
g7
V112627
p1025
sg9
I32
sbag1
(g2
g3
Ntp1026
Rp1027
(dp1028
g7
V112669
p1029
sg9
I44
sbag1
(g2
g3
Ntp1030
Rp1031
(dp1032
g7
V112734
p1033
sg9
I33
sbag1
(g2
g3
Ntp1034
Rp1035
(dp1036
g7
V112761
p1037
sg9
I35
sbag1
(g2
g3
Ntp1038
Rp1039
(dp1040
g7
V112827
p1041
sg9
I43
sbag1
(g2
g3
Ntp1042
Rp1043
(dp1044
g7
V112844
p1045
sg9
I35
sbag1
(g2
g3
Ntp1046
Rp1047
(dp1048
g7
V112627
p1049
sg9
I32
sbag1
(g2
g3
Ntp1050
Rp1051
(dp1052
g7
V112669
p1053
sg9
I44
sbag1
(g2
g3
Ntp1054
Rp1055
(dp1056
g7
V112734
p1057
sg9
I33
sbag1
(g2
g3
Ntp1058
Rp1059
(dp1060
g7
V112761
p1061
sg9
I35
sbag1
(g2
g3
Ntp1062
Rp1063
(dp1064
g7
V112827
p1065
sg9
I43
sbag1
(g2
g3
Ntp1066
Rp1067
(dp1068
g7
V112844
p1069
sg9
I35
sbag1
(g2
g3
Ntp1070
Rp1071
(dp1072
g7
V112627
p1073
sg9
I32
sbag1
(g2
g3
Ntp1074
Rp1075
(dp1076
g7
V112669
p1077
sg9
I44
sbag1
(g2
g3
Ntp1078
Rp1079
(dp1080
g7
V112734
p1081
sg9
I33
sbag1
(g2
g3
Ntp1082
Rp1083
(dp1084
g7
V112761
p1085
sg9
I35
sbag1
(g2
g3
Ntp1086
Rp1087
(dp1088
g7
V112827
p1089
sg9
I43
sbag1
(g2
g3
Ntp1090
Rp1091
(dp1092
g7
V112844
p1093
sg9
I35
sbag1
(g2
g3
Ntp1094
Rp1095
(dp1096
g7
V112627
p1097
sg9
I32
sbag1
(g2
g3
Ntp1098
Rp1099
(dp1100
g7
V112669
p1101
sg9
I44
sbag1
(g2
g3
Ntp1102
Rp1103
(dp1104
g7
V112734
p1105
sg9
I33
sbag1
(g2
g3
Ntp1106
Rp1107
(dp1108
g7
V112761
p1109
sg9
I35
sbag1
(g2
g3
Ntp1110
Rp1111
(dp1112
g7
V112827
p1113
sg9
I43
sbag1
(g2
g3
Ntp1114
Rp1115
(dp1116
g7
V112844
p1117
sg9
I35
sbag1
(g2
g3
Ntp1118
Rp1119
(dp1120
g7
V112627
p1121
sg9
I32
sbag1
(g2
g3
Ntp1122
Rp1123
(dp1124
g7
V112669
p1125
sg9
I44
sbag1
(g2
g3
Ntp1126
Rp1127
(dp1128
g7
V112734
p1129
sg9
I33
sbag1
(g2
g3
Ntp1130
Rp1131
(dp1132
g7
V112761
p1133
sg9
I35
sbag1
(g2
g3
Ntp1134
Rp1135
(dp1136
g7
V112827
p1137
sg9
I43
sbag1
(g2
g3
Ntp1138
Rp1139
(dp1140
g7
V112844
p1141
sg9
I35
sbag1
(g2
g3
Ntp1142
Rp1143
(dp1144
g7
V112627
p1145
sg9
I32
sbag1
(g2
g3
Ntp1146
Rp1147
(dp1148
g7
V112669
p1149
sg9
I44
sbag1
(g2
g3
Ntp1150
Rp1151
(dp1152
g7
V112734
p1153
sg9
I33
sbag1
(g2
g3
Ntp1154
Rp1155
(dp1156
g7
V112761
p1157
sg9
I35
sbag1
(g2
g3
Ntp1158
Rp1159
(dp1160
g7
V112827
p1161
sg9
I43
sbag1
(g2
g3
Ntp1162
Rp1163
(dp1164
g7
V112844
p1165
sg9
I35
sbag1
(g2
g3
Ntp1166
Rp1167
(dp1168
g7
V112627
p1169
sg9
I32
sbag1
(g2
g3
Ntp1170
Rp1171
(dp1172
g7
V112669
p1173
sg9
I44
sbag1
(g2
g3
Ntp1174
Rp1175
(dp1176
g7
V112734
p1177
sg9
I33
sbag1
(g2
g3
Ntp1178
Rp1179
(dp1180
g7
V112761
p1181
sg9
I35
sbag1
(g2
g3
Ntp1182
Rp1183
(dp1184
g7
V112827
p1185
sg9
I43
sbag1
(g2
g3
Ntp1186
Rp1187
(dp1188
g7
V112844
p1189
sg9
I35
sbag1
(g2
g3
Ntp1190
Rp1191
(dp1192
g7
V112627
p1193
sg9
I32
sbag1
(g2
g3
Ntp1194
Rp1195
(dp1196
g7
V112669
p1197
sg9
I44
sbag1
(g2
g3
Ntp1198
Rp1199
(dp1200
g7
V112734
p1201
sg9
I33
sbag1
(g2
g3
Ntp1202
Rp1203
(dp1204
g7
V112761
p1205
sg9
I35
sbag1
(g2
g3
Ntp1206
Rp1207
(dp1208
g7
V112827
p1209
sg9
I43
sbag1
(g2
g3
Ntp1210
Rp1211
(dp1212
g7
V112844
p1213
sg9
I35
sbag1
(g2
g3
Ntp1214
Rp1215
(dp1216
g7
V112627
p1217
sg9
I32
sbag1
(g2
g3
Ntp1218
Rp1219
(dp1220
g7
V112669
p1221
sg9
I44
sbag1
(g2
g3
Ntp1222
Rp1223
(dp1224
g7
V112734
p1225
sg9
I33
sbag1
(g2
g3
Ntp1226
Rp1227
(dp1228
g7
V112761
p1229
sg9
I35
sbag1
(g2
g3
Ntp1230
Rp1231
(dp1232
g7
V112827
p1233
sg9
I43
sbag1
(g2
g3
Ntp1234
Rp1235
(dp1236
g7
V112844
p1237
sg9
I35
sbag1
(g2
g3
Ntp1238
Rp1239
(dp1240
g7
V112627
p1241
sg9
I32
sbag1
(g2
g3
Ntp1242
Rp1243
(dp1244
g7
V112669
p1245
sg9
I44
sbag1
(g2
g3
Ntp1246
Rp1247
(dp1248
g7
V112734
p1249
sg9
I33
sbag1
(g2
g3
Ntp1250
Rp1251
(dp1252
g7
V112761
p1253
sg9
I35
sbag1
(g2
g3
Ntp1254
Rp1255
(dp1256
g7
V112827
p1257
sg9
I43
sbag1
(g2
g3
Ntp1258
Rp1259
(dp1260
g7
V112844
p1261
sg9
I35
sbag1
(g2
g3
Ntp1262
Rp1263
(dp1264
g7
V112627
p1265
sg9
I32
sbag1
(g2
g3
Ntp1266
Rp1267
(dp1268
g7
V112669
p1269
sg9
I44
sbag1
(g2
g3
Ntp1270
Rp1271
(dp1272
g7
V112734
p1273
sg9
I33
sbag1
(g2
g3
Ntp1274
Rp1275
(dp1276
g7
V112761
p1277
sg9
I35
sbag1
(g2
g3
Ntp1278
Rp1279
(dp1280
g7
V112827
p1281
sg9
I43
sbag1
(g2
g3
Ntp1282
Rp1283
(dp1284
g7
V112844
p1285
sg9
I35
sbag1
(g2
g3
Ntp1286
Rp1287
(dp1288
g7
V112627
p1289
sg9
I32
sbag1
(g2
g3
Ntp1290
Rp1291
(dp1292
g7
V112669
p1293
sg9
I44
sbag1
(g2
g3
Ntp1294
Rp1295
(dp1296
g7
V112734
p1297
sg9
I33
sbag1
(g2
g3
Ntp1298
Rp1299
(dp1300
g7
V112761
p1301
sg9
I35
sbag1
(g2
g3
Ntp1302
Rp1303
(dp1304
g7
V112827
p1305
sg9
I43
sbag1
(g2
g3
Ntp1306
Rp1307
(dp1308
g7
V112844
p1309
sg9
I35
sbag1
(g2
g3
Ntp1310
Rp1311
(dp1312
g7
V112627
p1313
sg9
I32
sbag1
(g2
g3
Ntp1314
Rp1315
(dp1316
g7
V112669
p1317
sg9
I44
sbag1
(g2
g3
Ntp1318
Rp1319
(dp1320
g7
V112734
p1321
sg9
I33
sbag1
(g2
g3
Ntp1322
Rp1323
(dp1324
g7
V112761
p1325
sg9
I35
sbag1
(g2
g3
Ntp1326
Rp1327
(dp1328
g7
V112827
p1329
sg9
I43
sbag1
(g2
g3
Ntp1330
Rp1331
(dp1332
g7
V112844
p1333
sg9
I35
sbag1
(g2
g3
Ntp1334
Rp1335
(dp1336
g7
V112901
p1337
sg9
I41
sbag1
(g2
g3
Ntp1338
Rp1339
(dp1340
g7
V112944
p1341
sg9
I48
sbag1
(g2
g3
Ntp1342
Rp1343
(dp1344
g7
V112901
p1345
sg9
I41
sbag1
(g2
g3
Ntp1346
Rp1347
(dp1348
g7
V112944
p1349
sg9
I48
sbag1
(g2
g3
Ntp1350
Rp1351
(dp1352
g7
V112901
p1353
sg9
I41
sbag1
(g2
g3
Ntp1354
Rp1355
(dp1356
g7
V112944
p1357
sg9
I48
sbag1
(g2
g3
Ntp1358
Rp1359
(dp1360
g7
V112901
p1361
sg9
I41
sbag1
(g2
g3
Ntp1362
Rp1363
(dp1364
g7
V112944
p1365
sg9
I48
sbag1
(g2
g3
Ntp1366
Rp1367
(dp1368
g7
V112901
p1369
sg9
I41
sbag1
(g2
g3
Ntp1370
Rp1371
(dp1372
g7
V112944
p1373
sg9
I48
sbag1
(g2
g3
Ntp1374
Rp1375
(dp1376
g7
V112901
p1377
sg9
I41
sbag1
(g2
g3
Ntp1378
Rp1379
(dp1380
g7
V112944
p1381
sg9
I48
sbag1
(g2
g3
Ntp1382
Rp1383
(dp1384
g7
V112901
p1385
sg9
I41
sbag1
(g2
g3
Ntp1386
Rp1387
(dp1388
g7
V112944
p1389
sg9
I48
sbag1
(g2
g3
Ntp1390
Rp1391
(dp1392
g7
V112901
p1393
sg9
I41
sbag1
(g2
g3
Ntp1394
Rp1395
(dp1396
g7
V112944
p1397
sg9
I48
sbag1
(g2
g3
Ntp1398
Rp1399
(dp1400
g7
V112901
p1401
sg9
I41
sbag1
(g2
g3
Ntp1402
Rp1403
(dp1404
g7
V112944
p1405
sg9
I48
sbag1
(g2
g3
Ntp1406
Rp1407
(dp1408
g7
V112901
p1409
sg9
I41
sbag1
(g2
g3
Ntp1410
Rp1411
(dp1412
g7
V112944
p1413
sg9
I48
sbag1
(g2
g3
Ntp1414
Rp1415
(dp1416
g7
V112901
p1417
sg9
I41
sbag1
(g2
g3
Ntp1418
Rp1419
(dp1420
g7
V112944
p1421
sg9
I48
sbag1
(g2
g3
Ntp1422
Rp1423
(dp1424
g7
V112901
p1425
sg9
I41
sbag1
(g2
g3
Ntp1426
Rp1427
(dp1428
g7
V112944
p1429
sg9
I48
sbag1
(g2
g3
Ntp1430
Rp1431
(dp1432
g7
V112901
p1433
sg9
I41
sbag1
(g2
g3
Ntp1434
Rp1435
(dp1436
g7
V112944
p1437
sg9
I48
sbag1
(g2
g3
Ntp1438
Rp1439
(dp1440
g7
V112901
p1441
sg9
I41
sbag1
(g2
g3
Ntp1442
Rp1443
(dp1444
g7
V112944
p1445
sg9
I48
sbag1
(g2
g3
Ntp1446
Rp1447
(dp1448
g7
V112901
p1449
sg9
I41
sbag1
(g2
g3
Ntp1450
Rp1451
(dp1452
g7
V112944
p1453
sg9
I48
sbag1
(g2
g3
Ntp1454
Rp1455
(dp1456
g7
V112901
p1457
sg9
I41
sbag1
(g2
g3
Ntp1458
Rp1459
(dp1460
g7
V112944
p1461
sg9
I48
sbag1
(g2
g3
Ntp1462
Rp1463
(dp1464
g7
V112901
p1465
sg9
I41
sbag1
(g2
g3
Ntp1466
Rp1467
(dp1468
g7
V112944
p1469
sg9
I48
sbag1
(g2
g3
Ntp1470
Rp1471
(dp1472
g7
V112901
p1473
sg9
I41
sbag1
(g2
g3
Ntp1474
Rp1475
(dp1476
g7
V112944
p1477
sg9
I48
sbag1
(g2
g3
Ntp1478
Rp1479
(dp1480
g7
V112901
p1481
sg9
I41
sbag1
(g2
g3
Ntp1482
Rp1483
(dp1484
g7
V112944
p1485
sg9
I48
sbag1
(g2
g3
Ntp1486
Rp1487
(dp1488
g7
V112901
p1489
sg9
I41
sbag1
(g2
g3
Ntp1490
Rp1491
(dp1492
g7
V112944
p1493
sg9
I48
sbag1
(g2
g3
Ntp1494
Rp1495
(dp1496
g7
V112901
p1497
sg9
I41
sbag1
(g2
g3
Ntp1498
Rp1499
(dp1500
g7
V112944
p1501
sg9
I48
sbag1
(g2
g3
Ntp1502
Rp1503
(dp1504
g7
V112901
p1505
sg9
I41
sbag1
(g2
g3
Ntp1506
Rp1507
(dp1508
g7
V112944
p1509
sg9
I48
sbag1
(g2
g3
Ntp1510
Rp1511
(dp1512
g7
V112901
p1513
sg9
I41
sbag1
(g2
g3
Ntp1514
Rp1515
(dp1516
g7
V112944
p1517
sg9
I48
sbag1
(g2
g3
Ntp1518
Rp1519
(dp1520
g7
V112901
p1521
sg9
I41
sbag1
(g2
g3
Ntp1522
Rp1523
(dp1524
g7
V112944
p1525
sg9
I48
sbag1
(g2
g3
Ntp1526
Rp1527
(dp1528
g7
V113047
p1529
sg9
I38
sbag1
(g2
g3
Ntp1530
Rp1531
(dp1532
g7
V113096
p1533
sg9
I41
sbag1
(g2
g3
Ntp1534
Rp1535
(dp1536
g7
V113164
p1537
sg9
I45
sbag1
(g2
g3
Ntp1538
Rp1539
(dp1540
g7
V113232
p1541
sg9
I0
sbag1
(g2
g3
Ntp1542
Rp1543
(dp1544
g7
V113193
p1545
sg9
I11
sbag1
(g2
g3
Ntp1546
Rp1547
(dp1548
g7
V113047
p1549
sg9
I38
sbag1
(g2
g3
Ntp1550
Rp1551
(dp1552
g7
V113096
p1553
sg9
I41
sbag1
(g2
g3
Ntp1554
Rp1555
(dp1556
g7
V113164
p1557
sg9
I45
sbag1
(g2
g3
Ntp1558
Rp1559
(dp1560
g7
V113232
p1561
sg9
I0
sbag1
(g2
g3
Ntp1562
Rp1563
(dp1564
g7
V113193
p1565
sg9
I27
sbag1
(g2
g3
Ntp1566
Rp1567
(dp1568
g7
V113047
p1569
sg9
I38
sbag1
(g2
g3
Ntp1570
Rp1571
(dp1572
g7
V113096
p1573
sg9
I41
sbag1
(g2
g3
Ntp1574
Rp1575
(dp1576
g7
V113164
p1577
sg9
I45
sbag1
(g2
g3
Ntp1578
Rp1579
(dp1580
g7
V113232
p1581
sg9
I0
sbag1
(g2
g3
Ntp1582
Rp1583
(dp1584
g7
V113193
p1585
sg9
I35
sbag1
(g2
g3
Ntp1586
Rp1587
(dp1588
g7
V113047
p1589
sg9
I38
sbag1
(g2
g3
Ntp1590
Rp1591
(dp1592
g7
V113096
p1593
sg9
I41
sbag1
(g2
g3
Ntp1594
Rp1595
(dp1596
g7
V113164
p1597
sg9
I45
sbag1
(g2
g3
Ntp1598
Rp1599
(dp1600
g7
V113232
p1601
sg9
I0
sbag1
(g2
g3
Ntp1602
Rp1603
(dp1604
g7
V113193
p1605
sg9
I39
sbag1
(g2
g3
Ntp1606
Rp1607
(dp1608
g7
V113047
p1609
sg9
I38
sbag1
(g2
g3
Ntp1610
Rp1611
(dp1612
g7
V113096
p1613
sg9
I41
sbag1
(g2
g3
Ntp1614
Rp1615
(dp1616
g7
V113164
p1617
sg9
I45
sbag1
(g2
g3
Ntp1618
Rp1619
(dp1620
g7
V113193
p1621
sg9
I39
sbag1
(g2
g3
Ntp1622
Rp1623
(dp1624
g7
V113047
p1625
sg9
I38
sbag1
(g2
g3
Ntp1626
Rp1627
(dp1628
g7
V113096
p1629
sg9
I41
sbag1
(g2
g3
Ntp1630
Rp1631
(dp1632
g7
V113164
p1633
sg9
I45
sbag1
(g2
g3
Ntp1634
Rp1635
(dp1636
g7
V113193
p1637
sg9
I39
sbag1
(g2
g3
Ntp1638
Rp1639
(dp1640
g7
V113047
p1641
sg9
I38
sbag1
(g2
g3
Ntp1642
Rp1643
(dp1644
g7
V113096
p1645
sg9
I41
sbag1
(g2
g3
Ntp1646
Rp1647
(dp1648
g7
V113164
p1649
sg9
I45
sbag1
(g2
g3
Ntp1650
Rp1651
(dp1652
g7
V113193
p1653
sg9
I39
sbag1
(g2
g3
Ntp1654
Rp1655
(dp1656
g7
V113047
p1657
sg9
I38
sbag1
(g2
g3
Ntp1658
Rp1659
(dp1660
g7
V113096
p1661
sg9
I41
sbag1
(g2
g3
Ntp1662
Rp1663
(dp1664
g7
V113164
p1665
sg9
I45
sbag1
(g2
g3
Ntp1666
Rp1667
(dp1668
g7
V113193
p1669
sg9
I39
sbag1
(g2
g3
Ntp1670
Rp1671
(dp1672
g7
V113047
p1673
sg9
I38
sbag1
(g2
g3
Ntp1674
Rp1675
(dp1676
g7
V113096
p1677
sg9
I41
sbag1
(g2
g3
Ntp1678
Rp1679
(dp1680
g7
V113164
p1681
sg9
I45
sbag1
(g2
g3
Ntp1682
Rp1683
(dp1684
g7
V113193
p1685
sg9
I39
sbag1
(g2
g3
Ntp1686
Rp1687
(dp1688
g7
V113047
p1689
sg9
I38
sbag1
(g2
g3
Ntp1690
Rp1691
(dp1692
g7
V113096
p1693
sg9
I41
sbag1
(g2
g3
Ntp1694
Rp1695
(dp1696
g7
V113164
p1697
sg9
I45
sbag1
(g2
g3
Ntp1698
Rp1699
(dp1700
g7
V113193
p1701
sg9
I39
sbag1
(g2
g3
Ntp1702
Rp1703
(dp1704
g7
V113047
p1705
sg9
I38
sbag1
(g2
g3
Ntp1706
Rp1707
(dp1708
g7
V113096
p1709
sg9
I41
sbag1
(g2
g3
Ntp1710
Rp1711
(dp1712
g7
V113164
p1713
sg9
I45
sbag1
(g2
g3
Ntp1714
Rp1715
(dp1716
g7
V113193
p1717
sg9
I39
sbag1
(g2
g3
Ntp1718
Rp1719
(dp1720
g7
V113047
p1721
sg9
I38
sbag1
(g2
g3
Ntp1722
Rp1723
(dp1724
g7
V113096
p1725
sg9
I41
sbag1
(g2
g3
Ntp1726
Rp1727
(dp1728
g7
V113164
p1729
sg9
I45
sbag1
(g2
g3
Ntp1730
Rp1731
(dp1732
g7
V113193
p1733
sg9
I39
sbag1
(g2
g3
Ntp1734
Rp1735
(dp1736
g7
V113047
p1737
sg9
I38
sbag1
(g2
g3
Ntp1738
Rp1739
(dp1740
g7
V113096
p1741
sg9
I41
sbag1
(g2
g3
Ntp1742
Rp1743
(dp1744
g7
V113164
p1745
sg9
I45
sbag1
(g2
g3
Ntp1746
Rp1747
(dp1748
g7
V113193
p1749
sg9
I39
sbag1
(g2
g3
Ntp1750
Rp1751
(dp1752
g7
V113047
p1753
sg9
I38
sbag1
(g2
g3
Ntp1754
Rp1755
(dp1756
g7
V113096
p1757
sg9
I41
sbag1
(g2
g3
Ntp1758
Rp1759
(dp1760
g7
V113164
p1761
sg9
I45
sbag1
(g2
g3
Ntp1762
Rp1763
(dp1764
g7
V113193
p1765
sg9
I39
sbag1
(g2
g3
Ntp1766
Rp1767
(dp1768
g7
V113047
p1769
sg9
I38
sbag1
(g2
g3
Ntp1770
Rp1771
(dp1772
g7
V113096
p1773
sg9
I41
sbag1
(g2
g3
Ntp1774
Rp1775
(dp1776
g7
V113164
p1777
sg9
I45
sbag1
(g2
g3
Ntp1778
Rp1779
(dp1780
g7
V113193
p1781
sg9
I39
sbag1
(g2
g3
Ntp1782
Rp1783
(dp1784
g7
V113047
p1785
sg9
I38
sbag1
(g2
g3
Ntp1786
Rp1787
(dp1788
g7
V113096
p1789
sg9
I41
sbag1
(g2
g3
Ntp1790
Rp1791
(dp1792
g7
V113164
p1793
sg9
I45
sbag1
(g2
g3
Ntp1794
Rp1795
(dp1796
g7
V113193
p1797
sg9
I39
sbag1
(g2
g3
Ntp1798
Rp1799
(dp1800
g7
V113047
p1801
sg9
I38
sbag1
(g2
g3
Ntp1802
Rp1803
(dp1804
g7
V113096
p1805
sg9
I41
sbag1
(g2
g3
Ntp1806
Rp1807
(dp1808
g7
V113164
p1809
sg9
I45
sbag1
(g2
g3
Ntp1810
Rp1811
(dp1812
g7
V113193
p1813
sg9
I39
sbag1
(g2
g3
Ntp1814
Rp1815
(dp1816
g7
V113047
p1817
sg9
I38
sbag1
(g2
g3
Ntp1818
Rp1819
(dp1820
g7
V113096
p1821
sg9
I41
sbag1
(g2
g3
Ntp1822
Rp1823
(dp1824
g7
V113164
p1825
sg9
I45
sbag1
(g2
g3
Ntp1826
Rp1827
(dp1828
g7
V113193
p1829
sg9
I39
sbag1
(g2
g3
Ntp1830
Rp1831
(dp1832
g7
V113047
p1833
sg9
I38
sbag1
(g2
g3
Ntp1834
Rp1835
(dp1836
g7
V113096
p1837
sg9
I41
sbag1
(g2
g3
Ntp1838
Rp1839
(dp1840
g7
V113164
p1841
sg9
I45
sbag1
(g2
g3
Ntp1842
Rp1843
(dp1844
g7
V113193
p1845
sg9
I39
sbag1
(g2
g3
Ntp1846
Rp1847
(dp1848
g7
V113047
p1849
sg9
I38
sbag1
(g2
g3
Ntp1850
Rp1851
(dp1852
g7
V113096
p1853
sg9
I41
sbag1
(g2
g3
Ntp1854
Rp1855
(dp1856
g7
V113164
p1857
sg9
I45
sbag1
(g2
g3
Ntp1858
Rp1859
(dp1860
g7
V113193
p1861
sg9
I39
sbag1
(g2
g3
Ntp1862
Rp1863
(dp1864
g7
V113047
p1865
sg9
I38
sbag1
(g2
g3
Ntp1866
Rp1867
(dp1868
g7
V113096
p1869
sg9
I41
sbag1
(g2
g3
Ntp1870
Rp1871
(dp1872
g7
V113164
p1873
sg9
I45
sbag1
(g2
g3
Ntp1874
Rp1875
(dp1876
g7
V113193
p1877
sg9
I39
sbag1
(g2
g3
Ntp1878
Rp1879
(dp1880
g7
V113047
p1881
sg9
I38
sbag1
(g2
g3
Ntp1882
Rp1883
(dp1884
g7
V113096
p1885
sg9
I41
sbag1
(g2
g3
Ntp1886
Rp1887
(dp1888
g7
V113164
p1889
sg9
I45
sbag1
(g2
g3
Ntp1890
Rp1891
(dp1892
g7
V113193
p1893
sg9
I39
sbag1
(g2
g3
Ntp1894
Rp1895
(dp1896
g7
V113047
p1897
sg9
I38
sbag1
(g2
g3
Ntp1898
Rp1899
(dp1900
g7
V113096
p1901
sg9
I41
sbag1
(g2
g3
Ntp1902
Rp1903
(dp1904
g7
V113164
p1905
sg9
I45
sbag1
(g2
g3
Ntp1906
Rp1907
(dp1908
g7
V113193
p1909
sg9
I39
sbag1
(g2
g3
Ntp1910
Rp1911
(dp1912
g7
V113047
p1913
sg9
I38
sbag1
(g2
g3
Ntp1914
Rp1915
(dp1916
g7
V113096
p1917
sg9
I41
sbag1
(g2
g3
Ntp1918
Rp1919
(dp1920
g7
V113164
p1921
sg9
I45
sbag1
(g2
g3
Ntp1922
Rp1923
(dp1924
g7
V113193
p1925
sg9
I39
sbag1
(g2
g3
Ntp1926
Rp1927
(dp1928
g7
V113232
p1929
sg9
I40
sbag1
(g2
g3
Ntp1930
Rp1931
(dp1932
g7
V113249
p1933
sg9
I37
sbag1
(g2
g3
Ntp1934
Rp1935
(dp1936
g7
V113265
p1937
sg9
I34
sbag1
(g2
g3
Ntp1938
Rp1939
(dp1940
g7
V113280
p1941
sg9
I49
sbag1
(g2
g3
Ntp1942
Rp1943
(dp1944
g7
V113308
p1945
sg9
I33
sbag1
(g2
g3
Ntp1946
Rp1947
(dp1948
g7
V113365
p1949
sg9
I26
sbag1
(g2
g3
Ntp1950
Rp1951
(dp1952
g7
V113444
p1953
sg9
I0
sbag1
(g2
g3
Ntp1954
Rp1955
(dp1956
g7
V113485
p1957
sg9
I39
sbag1
(g2
g3
Ntp1958
Rp1959
(dp1960
g7
V113488
p1961
sg9
I34
sbag1
(g2
g3
Ntp1962
Rp1963
(dp1964
g7
V113232
p1965
sg9
I40
sbag1
(g2
g3
Ntp1966
Rp1967
(dp1968
g7
V113249
p1969
sg9
I37
sbag1
(g2
g3
Ntp1970
Rp1971
(dp1972
g7
V113265
p1973
sg9
I34
sbag1
(g2
g3
Ntp1974
Rp1975
(dp1976
g7
V113280
p1977
sg9
I49
sbag1
(g2
g3
Ntp1978
Rp1979
(dp1980
g7
V113308
p1981
sg9
I33
sbag1
(g2
g3
Ntp1982
Rp1983
(dp1984
g7
V113365
p1985
sg9
I26
sbag1
(g2
g3
Ntp1986
Rp1987
(dp1988
g7
V113444
p1989
sg9
I0
sbag1
(g2
g3
Ntp1990
Rp1991
(dp1992
g7
V113485
p1993
sg9
I39
sbag1
(g2
g3
Ntp1994
Rp1995
(dp1996
g7
V113488
p1997
sg9
I34
sbag1
(g2
g3
Ntp1998
Rp1999
(dp2000
g7
V113232
p2001
sg9
I40
sbag1
(g2
g3
Ntp2002
Rp2003
(dp2004
g7
V113249
p2005
sg9
I37
sbag1
(g2
g3
Ntp2006
Rp2007
(dp2008
g7
V113265
p2009
sg9
I34
sbag1
(g2
g3
Ntp2010
Rp2011
(dp2012
g7
V113280
p2013
sg9
I49
sbag1
(g2
g3
Ntp2014
Rp2015
(dp2016
g7
V113308
p2017
sg9
I33
sbag1
(g2
g3
Ntp2018
Rp2019
(dp2020
g7
V113365
p2021
sg9
I26
sbag1
(g2
g3
Ntp2022
Rp2023
(dp2024
g7
V113444
p2025
sg9
I0
sbag1
(g2
g3
Ntp2026
Rp2027
(dp2028
g7
V113485
p2029
sg9
I39
sbag1
(g2
g3
Ntp2030
Rp2031
(dp2032
g7
V113488
p2033
sg9
I34
sbag1
(g2
g3
Ntp2034
Rp2035
(dp2036
g7
V113232
p2037
sg9
I40
sbag1
(g2
g3
Ntp2038
Rp2039
(dp2040
g7
V113249
p2041
sg9
I37
sbag1
(g2
g3
Ntp2042
Rp2043
(dp2044
g7
V113265
p2045
sg9
I34
sbag1
(g2
g3
Ntp2046
Rp2047
(dp2048
g7
V113280
p2049
sg9
I49
sbag1
(g2
g3
Ntp2050
Rp2051
(dp2052
g7
V113308
p2053
sg9
I33
sbag1
(g2
g3
Ntp2054
Rp2055
(dp2056
g7
V113365
p2057
sg9
I26
sbag1
(g2
g3
Ntp2058
Rp2059
(dp2060
g7
V113444
p2061
sg9
I0
sbag1
(g2
g3
Ntp2062
Rp2063
(dp2064
g7
V113485
p2065
sg9
I39
sbag1
(g2
g3
Ntp2066
Rp2067
(dp2068
g7
V113488
p2069
sg9
I34
sbag1
(g2
g3
Ntp2070
Rp2071
(dp2072
g7
V113232
p2073
sg9
I40
sbag1
(g2
g3
Ntp2074
Rp2075
(dp2076
g7
V113249
p2077
sg9
I37
sbag1
(g2
g3
Ntp2078
Rp2079
(dp2080
g7
V113265
p2081
sg9
I34
sbag1
(g2
g3
Ntp2082
Rp2083
(dp2084
g7
V113280
p2085
sg9
I49
sbag1
(g2
g3
Ntp2086
Rp2087
(dp2088
g7
V113308
p2089
sg9
I33
sbag1
(g2
g3
Ntp2090
Rp2091
(dp2092
g7
V113365
p2093
sg9
I26
sbag1
(g2
g3
Ntp2094
Rp2095
(dp2096
g7
V113444
p2097
sg9
I0
sbag1
(g2
g3
Ntp2098
Rp2099
(dp2100
g7
V113485
p2101
sg9
I39
sbag1
(g2
g3
Ntp2102
Rp2103
(dp2104
g7
V113488
p2105
sg9
I34
sbag1
(g2
g3
Ntp2106
Rp2107
(dp2108
g7
V113232
p2109
sg9
I40
sbag1
(g2
g3
Ntp2110
Rp2111
(dp2112
g7
V113249
p2113
sg9
I37
sbag1
(g2
g3
Ntp2114
Rp2115
(dp2116
g7
V113265
p2117
sg9
I34
sbag1
(g2
g3
Ntp2118
Rp2119
(dp2120
g7
V113280
p2121
sg9
I49
sbag1
(g2
g3
Ntp2122
Rp2123
(dp2124
g7
V113308
p2125
sg9
I33
sbag1
(g2
g3
Ntp2126
Rp2127
(dp2128
g7
V113365
p2129
sg9
I26
sbag1
(g2
g3
Ntp2130
Rp2131
(dp2132
g7
V113444
p2133
sg9
I0
sbag1
(g2
g3
Ntp2134
Rp2135
(dp2136
g7
V113485
p2137
sg9
I39
sbag1
(g2
g3
Ntp2138
Rp2139
(dp2140
g7
V113488
p2141
sg9
I34
sbag1
(g2
g3
Ntp2142
Rp2143
(dp2144
g7
V113232
p2145
sg9
I40
sbag1
(g2
g3
Ntp2146
Rp2147
(dp2148
g7
V113249
p2149
sg9
I37
sbag1
(g2
g3
Ntp2150
Rp2151
(dp2152
g7
V113265
p2153
sg9
I34
sbag1
(g2
g3
Ntp2154
Rp2155
(dp2156
g7
V113280
p2157
sg9
I49
sbag1
(g2
g3
Ntp2158
Rp2159
(dp2160
g7
V113308
p2161
sg9
I33
sbag1
(g2
g3
Ntp2162
Rp2163
(dp2164
g7
V113365
p2165
sg9
I26
sbag1
(g2
g3
Ntp2166
Rp2167
(dp2168
g7
V113444
p2169
sg9
I0
sbag1
(g2
g3
Ntp2170
Rp2171
(dp2172
g7
V113485
p2173
sg9
I39
sbag1
(g2
g3
Ntp2174
Rp2175
(dp2176
g7
V113488
p2177
sg9
I34
sbag1
(g2
g3
Ntp2178
Rp2179
(dp2180
g7
V113232
p2181
sg9
I40
sbag1
(g2
g3
Ntp2182
Rp2183
(dp2184
g7
V113249
p2185
sg9
I37
sbag1
(g2
g3
Ntp2186
Rp2187
(dp2188
g7
V113265
p2189
sg9
I34
sbag1
(g2
g3
Ntp2190
Rp2191
(dp2192
g7
V113280
p2193
sg9
I49
sbag1
(g2
g3
Ntp2194
Rp2195
(dp2196
g7
V113308
p2197
sg9
I33
sbag1
(g2
g3
Ntp2198
Rp2199
(dp2200
g7
V113365
p2201
sg9
I26
sbag1
(g2
g3
Ntp2202
Rp2203
(dp2204
g7
V113444
p2205
sg9
I0
sbag1
(g2
g3
Ntp2206
Rp2207
(dp2208
g7
V113485
p2209
sg9
I39
sbag1
(g2
g3
Ntp2210
Rp2211
(dp2212
g7
V113488
p2213
sg9
I34
sbag1
(g2
g3
Ntp2214
Rp2215
(dp2216
g7
V113232
p2217
sg9
I40
sbag1
(g2
g3
Ntp2218
Rp2219
(dp2220
g7
V113249
p2221
sg9
I37
sbag1
(g2
g3
Ntp2222
Rp2223
(dp2224
g7
V113265
p2225
sg9
I34
sbag1
(g2
g3
Ntp2226
Rp2227
(dp2228
g7
V113280
p2229
sg9
I49
sbag1
(g2
g3
Ntp2230
Rp2231
(dp2232
g7
V113308
p2233
sg9
I33
sbag1
(g2
g3
Ntp2234
Rp2235
(dp2236
g7
V113365
p2237
sg9
I26
sbag1
(g2
g3
Ntp2238
Rp2239
(dp2240
g7
V113444
p2241
sg9
I0
sbag1
(g2
g3
Ntp2242
Rp2243
(dp2244
g7
V113485
p2245
sg9
I39
sbag1
(g2
g3
Ntp2246
Rp2247
(dp2248
g7
V113488
p2249
sg9
I34
sbag1
(g2
g3
Ntp2250
Rp2251
(dp2252
g7
V113232
p2253
sg9
I40
sbag1
(g2
g3
Ntp2254
Rp2255
(dp2256
g7
V113249
p2257
sg9
I37
sbag1
(g2
g3
Ntp2258
Rp2259
(dp2260
g7
V113265
p2261
sg9
I34
sbag1
(g2
g3
Ntp2262
Rp2263
(dp2264
g7
V113280
p2265
sg9
I49
sbag1
(g2
g3
Ntp2266
Rp2267
(dp2268
g7
V113308
p2269
sg9
I33
sbag1
(g2
g3
Ntp2270
Rp2271
(dp2272
g7
V113365
p2273
sg9
I26
sbag1
(g2
g3
Ntp2274
Rp2275
(dp2276
g7
V113444
p2277
sg9
I0
sbag1
(g2
g3
Ntp2278
Rp2279
(dp2280
g7
V113485
p2281
sg9
I39
sbag1
(g2
g3
Ntp2282
Rp2283
(dp2284
g7
V113488
p2285
sg9
I34
sbag1
(g2
g3
Ntp2286
Rp2287
(dp2288
g7
V113232
p2289
sg9
I40
sbag1
(g2
g3
Ntp2290
Rp2291
(dp2292
g7
V113249
p2293
sg9
I37
sbag1
(g2
g3
Ntp2294
Rp2295
(dp2296
g7
V113265
p2297
sg9
I34
sbag1
(g2
g3
Ntp2298
Rp2299
(dp2300
g7
V113280
p2301
sg9
I49
sbag1
(g2
g3
Ntp2302
Rp2303
(dp2304
g7
V113308
p2305
sg9
I33
sbag1
(g2
g3
Ntp2306
Rp2307
(dp2308
g7
V113365
p2309
sg9
I26
sbag1
(g2
g3
Ntp2310
Rp2311
(dp2312
g7
V113444
p2313
sg9
I0
sbag1
(g2
g3
Ntp2314
Rp2315
(dp2316
g7
V113485
p2317
sg9
I39
sbag1
(g2
g3
Ntp2318
Rp2319
(dp2320
g7
V113488
p2321
sg9
I34
sbag1
(g2
g3
Ntp2322
Rp2323
(dp2324
g7
V113232
p2325
sg9
I40
sbag1
(g2
g3
Ntp2326
Rp2327
(dp2328
g7
V113249
p2329
sg9
I37
sbag1
(g2
g3
Ntp2330
Rp2331
(dp2332
g7
V113265
p2333
sg9
I34
sbag1
(g2
g3
Ntp2334
Rp2335
(dp2336
g7
V113280
p2337
sg9
I49
sbag1
(g2
g3
Ntp2338
Rp2339
(dp2340
g7
V113308
p2341
sg9
I33
sbag1
(g2
g3
Ntp2342
Rp2343
(dp2344
g7
V113365
p2345
sg9
I26
sbag1
(g2
g3
Ntp2346
Rp2347
(dp2348
g7
V113444
p2349
sg9
I0
sbag1
(g2
g3
Ntp2350
Rp2351
(dp2352
g7
V113485
p2353
sg9
I39
sbag1
(g2
g3
Ntp2354
Rp2355
(dp2356
g7
V113488
p2357
sg9
I34
sbag1
(g2
g3
Ntp2358
Rp2359
(dp2360
g7
V113232
p2361
sg9
I40
sbag1
(g2
g3
Ntp2362
Rp2363
(dp2364
g7
V113249
p2365
sg9
I37
sbag1
(g2
g3
Ntp2366
Rp2367
(dp2368
g7
V113265
p2369
sg9
I34
sbag1
(g2
g3
Ntp2370
Rp2371
(dp2372
g7
V113280
p2373
sg9
I49
sbag1
(g2
g3
Ntp2374
Rp2375
(dp2376
g7
V113308
p2377
sg9
I33
sbag1
(g2
g3
Ntp2378
Rp2379
(dp2380
g7
V113365
p2381
sg9
I26
sbag1
(g2
g3
Ntp2382
Rp2383
(dp2384
g7
V113444
p2385
sg9
I0
sbag1
(g2
g3
Ntp2386
Rp2387
(dp2388
g7
V113485
p2389
sg9
I39
sbag1
(g2
g3
Ntp2390
Rp2391
(dp2392
g7
V113488
p2393
sg9
I34
sbag1
(g2
g3
Ntp2394
Rp2395
(dp2396
g7
V113232
p2397
sg9
I40
sbag1
(g2
g3
Ntp2398
Rp2399
(dp2400
g7
V113249
p2401
sg9
I37
sbag1
(g2
g3
Ntp2402
Rp2403
(dp2404
g7
V113265
p2405
sg9
I34
sbag1
(g2
g3
Ntp2406
Rp2407
(dp2408
g7
V113280
p2409
sg9
I49
sbag1
(g2
g3
Ntp2410
Rp2411
(dp2412
g7
V113308
p2413
sg9
I33
sbag1
(g2
g3
Ntp2414
Rp2415
(dp2416
g7
V113365
p2417
sg9
I26
sbag1
(g2
g3
Ntp2418
Rp2419
(dp2420
g7
V113444
p2421
sg9
I0
sbag1
(g2
g3
Ntp2422
Rp2423
(dp2424
g7
V113485
p2425
sg9
I39
sbag1
(g2
g3
Ntp2426
Rp2427
(dp2428
g7
V113488
p2429
sg9
I34
sbag1
(g2
g3
Ntp2430
Rp2431
(dp2432
g7
V113232
p2433
sg9
I40
sbag1
(g2
g3
Ntp2434
Rp2435
(dp2436
g7
V113249
p2437
sg9
I37
sbag1
(g2
g3
Ntp2438
Rp2439
(dp2440
g7
V113265
p2441
sg9
I34
sbag1
(g2
g3
Ntp2442
Rp2443
(dp2444
g7
V113280
p2445
sg9
I49
sbag1
(g2
g3
Ntp2446
Rp2447
(dp2448
g7
V113308
p2449
sg9
I33
sbag1
(g2
g3
Ntp2450
Rp2451
(dp2452
g7
V113365
p2453
sg9
I26
sbag1
(g2
g3
Ntp2454
Rp2455
(dp2456
g7
V113444
p2457
sg9
I0
sbag1
(g2
g3
Ntp2458
Rp2459
(dp2460
g7
V113485
p2461
sg9
I39
sbag1
(g2
g3
Ntp2462
Rp2463
(dp2464
g7
V113488
p2465
sg9
I34
sbag1
(g2
g3
Ntp2466
Rp2467
(dp2468
g7
V113232
p2469
sg9
I40
sbag1
(g2
g3
Ntp2470
Rp2471
(dp2472
g7
V113249
p2473
sg9
I37
sbag1
(g2
g3
Ntp2474
Rp2475
(dp2476
g7
V113265
p2477
sg9
I34
sbag1
(g2
g3
Ntp2478
Rp2479
(dp2480
g7
V113280
p2481
sg9
I49
sbag1
(g2
g3
Ntp2482
Rp2483
(dp2484
g7
V113308
p2485
sg9
I33
sbag1
(g2
g3
Ntp2486
Rp2487
(dp2488
g7
V113365
p2489
sg9
I26
sbag1
(g2
g3
Ntp2490
Rp2491
(dp2492
g7
V113444
p2493
sg9
I0
sbag1
(g2
g3
Ntp2494
Rp2495
(dp2496
g7
V113485
p2497
sg9
I39
sbag1
(g2
g3
Ntp2498
Rp2499
(dp2500
g7
V113488
p2501
sg9
I34
sbag1
(g2
g3
Ntp2502
Rp2503
(dp2504
g7
V113232
p2505
sg9
I40
sbag1
(g2
g3
Ntp2506
Rp2507
(dp2508
g7
V113249
p2509
sg9
I37
sbag1
(g2
g3
Ntp2510
Rp2511
(dp2512
g7
V113265
p2513
sg9
I34
sbag1
(g2
g3
Ntp2514
Rp2515
(dp2516
g7
V113280
p2517
sg9
I49
sbag1
(g2
g3
Ntp2518
Rp2519
(dp2520
g7
V113308
p2521
sg9
I33
sbag1
(g2
g3
Ntp2522
Rp2523
(dp2524
g7
V113365
p2525
sg9
I26
sbag1
(g2
g3
Ntp2526
Rp2527
(dp2528
g7
V113444
p2529
sg9
I0
sbag1
(g2
g3
Ntp2530
Rp2531
(dp2532
g7
V113485
p2533
sg9
I39
sbag1
(g2
g3
Ntp2534
Rp2535
(dp2536
g7
V113488
p2537
sg9
I34
sbag1
(g2
g3
Ntp2538
Rp2539
(dp2540
g7
V113232
p2541
sg9
I40
sbag1
(g2
g3
Ntp2542
Rp2543
(dp2544
g7
V113249
p2545
sg9
I37
sbag1
(g2
g3
Ntp2546
Rp2547
(dp2548
g7
V113265
p2549
sg9
I34
sbag1
(g2
g3
Ntp2550
Rp2551
(dp2552
g7
V113280
p2553
sg9
I49
sbag1
(g2
g3
Ntp2554
Rp2555
(dp2556
g7
V113308
p2557
sg9
I33
sbag1
(g2
g3
Ntp2558
Rp2559
(dp2560
g7
V113365
p2561
sg9
I26
sbag1
(g2
g3
Ntp2562
Rp2563
(dp2564
g7
V113444
p2565
sg9
I0
sbag1
(g2
g3
Ntp2566
Rp2567
(dp2568
g7
V113485
p2569
sg9
I39
sbag1
(g2
g3
Ntp2570
Rp2571
(dp2572
g7
V113488
p2573
sg9
I34
sbag1
(g2
g3
Ntp2574
Rp2575
(dp2576
g7
V113232
p2577
sg9
I40
sbag1
(g2
g3
Ntp2578
Rp2579
(dp2580
g7
V113249
p2581
sg9
I37
sbag1
(g2
g3
Ntp2582
Rp2583
(dp2584
g7
V113265
p2585
sg9
I34
sbag1
(g2
g3
Ntp2586
Rp2587
(dp2588
g7
V113280
p2589
sg9
I49
sbag1
(g2
g3
Ntp2590
Rp2591
(dp2592
g7
V113308
p2593
sg9
I33
sbag1
(g2
g3
Ntp2594
Rp2595
(dp2596
g7
V113365
p2597
sg9
I26
sbag1
(g2
g3
Ntp2598
Rp2599
(dp2600
g7
V113444
p2601
sg9
I0
sbag1
(g2
g3
Ntp2602
Rp2603
(dp2604
g7
V113485
p2605
sg9
I39
sbag1
(g2
g3
Ntp2606
Rp2607
(dp2608
g7
V113488
p2609
sg9
I34
sbag1
(g2
g3
Ntp2610
Rp2611
(dp2612
g7
V113232
p2613
sg9
I40
sbag1
(g2
g3
Ntp2614
Rp2615
(dp2616
g7
V113249
p2617
sg9
I37
sbag1
(g2
g3
Ntp2618
Rp2619
(dp2620
g7
V113265
p2621
sg9
I34
sbag1
(g2
g3
Ntp2622
Rp2623
(dp2624
g7
V113280
p2625
sg9
I49
sbag1
(g2
g3
Ntp2626
Rp2627
(dp2628
g7
V113308
p2629
sg9
I33
sbag1
(g2
g3
Ntp2630
Rp2631
(dp2632
g7
V113365
p2633
sg9
I26
sbag1
(g2
g3
Ntp2634
Rp2635
(dp2636
g7
V113444
p2637
sg9
I0
sbag1
(g2
g3
Ntp2638
Rp2639
(dp2640
g7
V113485
p2641
sg9
I39
sbag1
(g2
g3
Ntp2642
Rp2643
(dp2644
g7
V113488
p2645
sg9
I34
sbag1
(g2
g3
Ntp2646
Rp2647
(dp2648
g7
V113232
p2649
sg9
I40
sbag1
(g2
g3
Ntp2650
Rp2651
(dp2652
g7
V113249
p2653
sg9
I37
sbag1
(g2
g3
Ntp2654
Rp2655
(dp2656
g7
V113265
p2657
sg9
I34
sbag1
(g2
g3
Ntp2658
Rp2659
(dp2660
g7
V113280
p2661
sg9
I49
sbag1
(g2
g3
Ntp2662
Rp2663
(dp2664
g7
V113308
p2665
sg9
I33
sbag1
(g2
g3
Ntp2666
Rp2667
(dp2668
g7
V113365
p2669
sg9
I26
sbag1
(g2
g3
Ntp2670
Rp2671
(dp2672
g7
V113444
p2673
sg9
I0
sbag1
(g2
g3
Ntp2674
Rp2675
(dp2676
g7
V113485
p2677
sg9
I39
sbag1
(g2
g3
Ntp2678
Rp2679
(dp2680
g7
V113488
p2681
sg9
I34
sbag1
(g2
g3
Ntp2682
Rp2683
(dp2684
g7
V113232
p2685
sg9
I40
sbag1
(g2
g3
Ntp2686
Rp2687
(dp2688
g7
V113249
p2689
sg9
I37
sbag1
(g2
g3
Ntp2690
Rp2691
(dp2692
g7
V113265
p2693
sg9
I34
sbag1
(g2
g3
Ntp2694
Rp2695
(dp2696
g7
V113280
p2697
sg9
I49
sbag1
(g2
g3
Ntp2698
Rp2699
(dp2700
g7
V113308
p2701
sg9
I33
sbag1
(g2
g3
Ntp2702
Rp2703
(dp2704
g7
V113365
p2705
sg9
I26
sbag1
(g2
g3
Ntp2706
Rp2707
(dp2708
g7
V113444
p2709
sg9
I0
sbag1
(g2
g3
Ntp2710
Rp2711
(dp2712
g7
V113485
p2713
sg9
I39
sbag1
(g2
g3
Ntp2714
Rp2715
(dp2716
g7
V113488
p2717
sg9
I34
sbag1
(g2
g3
Ntp2718
Rp2719
(dp2720
g7
V113232
p2721
sg9
I40
sbag1
(g2
g3
Ntp2722
Rp2723
(dp2724
g7
V113249
p2725
sg9
I37
sbag1
(g2
g3
Ntp2726
Rp2727
(dp2728
g7
V113265
p2729
sg9
I34
sbag1
(g2
g3
Ntp2730
Rp2731
(dp2732
g7
V113280
p2733
sg9
I49
sbag1
(g2
g3
Ntp2734
Rp2735
(dp2736
g7
V113308
p2737
sg9
I33
sbag1
(g2
g3
Ntp2738
Rp2739
(dp2740
g7
V113365
p2741
sg9
I26
sbag1
(g2
g3
Ntp2742
Rp2743
(dp2744
g7
V113444
p2745
sg9
I0
sbag1
(g2
g3
Ntp2746
Rp2747
(dp2748
g7
V113485
p2749
sg9
I39
sbag1
(g2
g3
Ntp2750
Rp2751
(dp2752
g7
V113488
p2753
sg9
I34
sbag1
(g2
g3
Ntp2754
Rp2755
(dp2756
g7
V113232
p2757
sg9
I40
sbag1
(g2
g3
Ntp2758
Rp2759
(dp2760
g7
V113249
p2761
sg9
I37
sbag1
(g2
g3
Ntp2762
Rp2763
(dp2764
g7
V113265
p2765
sg9
I34
sbag1
(g2
g3
Ntp2766
Rp2767
(dp2768
g7
V113280
p2769
sg9
I49
sbag1
(g2
g3
Ntp2770
Rp2771
(dp2772
g7
V113308
p2773
sg9
I33
sbag1
(g2
g3
Ntp2774
Rp2775
(dp2776
g7
V113365
p2777
sg9
I26
sbag1
(g2
g3
Ntp2778
Rp2779
(dp2780
g7
V113444
p2781
sg9
I0
sbag1
(g2
g3
Ntp2782
Rp2783
(dp2784
g7
V113485
p2785
sg9
I39
sbag1
(g2
g3
Ntp2786
Rp2787
(dp2788
g7
V113488
p2789
sg9
I34
sbag1
(g2
g3
Ntp2790
Rp2791
(dp2792
g7
V113613
p2793
sg9
I35
sbag1
(g2
g3
Ntp2794
Rp2795
(dp2796
g7
V113668
p2797
sg9
I29
sbag1
(g2
g3
Ntp2798
Rp2799
(dp2800
g7
V113698
p2801
sg9
I27
sbag1
(g2
g3
Ntp2802
Rp2803
(dp2804
g7
V113753
p2805
sg9
I0
sbag1
(g2
g3
Ntp2806
Rp2807
(dp2808
g7
V113613
p2809
sg9
I35
sbag1
(g2
g3
Ntp2810
Rp2811
(dp2812
g7
V113668
p2813
sg9
I29
sbag1
(g2
g3
Ntp2814
Rp2815
(dp2816
g7
V113698
p2817
sg9
I27
sbag1
(g2
g3
Ntp2818
Rp2819
(dp2820
g7
V113753
p2821
sg9
I1
sbag1
(g2
g3
Ntp2822
Rp2823
(dp2824
g7
V113613
p2825
sg9
I35
sbag1
(g2
g3
Ntp2826
Rp2827
(dp2828
g7
V113668
p2829
sg9
I29
sbag1
(g2
g3
Ntp2830
Rp2831
(dp2832
g7
V113698
p2833
sg9
I27
sbag1
(g2
g3
Ntp2834
Rp2835
(dp2836
g7
V113753
p2837
sg9
I44
sbag1
(g2
g3
Ntp2838
Rp2839
(dp2840
g7
V113613
p2841
sg9
I35
sbag1
(g2
g3
Ntp2842
Rp2843
(dp2844
g7
V113668
p2845
sg9
I29
sbag1
(g2
g3
Ntp2846
Rp2847
(dp2848
g7
V113698
p2849
sg9
I27
sbag1
(g2
g3
Ntp2850
Rp2851
(dp2852
g7
V113753
p2853
sg9
I59
sbag1
(g2
g3
Ntp2854
Rp2855
(dp2856
g7
V113613
p2857
sg9
I35
sbag1
(g2
g3
Ntp2858
Rp2859
(dp2860
g7
V113668
p2861
sg9
I29
sbag1
(g2
g3
Ntp2862
Rp2863
(dp2864
g7
V113698
p2865
sg9
I27
sbag1
(g2
g3
Ntp2866
Rp2867
(dp2868
g7
V113753
p2869
sg9
I63
sbag1
(g2
g3
Ntp2870
Rp2871
(dp2872
g7
V113613
p2873
sg9
I35
sbag1
(g2
g3
Ntp2874
Rp2875
(dp2876
g7
V113668
p2877
sg9
I29
sbag1
(g2
g3
Ntp2878
Rp2879
(dp2880
g7
V113698
p2881
sg9
I27
sbag1
(g2
g3
Ntp2882
Rp2883
(dp2884
g7
V113753
p2885
sg9
I63
sbag1
(g2
g3
Ntp2886
Rp2887
(dp2888
g7
V113613
p2889
sg9
I35
sbag1
(g2
g3
Ntp2890
Rp2891
(dp2892
g7
V113668
p2893
sg9
I29
sbag1
(g2
g3
Ntp2894
Rp2895
(dp2896
g7
V113698
p2897
sg9
I27
sbag1
(g2
g3
Ntp2898
Rp2899
(dp2900
g7
V113753
p2901
sg9
I63
sbag1
(g2
g3
Ntp2902
Rp2903
(dp2904
g7
V113613
p2905
sg9
I35
sbag1
(g2
g3
Ntp2906
Rp2907
(dp2908
g7
V113668
p2909
sg9
I29
sbag1
(g2
g3
Ntp2910
Rp2911
(dp2912
g7
V113698
p2913
sg9
I27
sbag1
(g2
g3
Ntp2914
Rp2915
(dp2916
g7
V113753
p2917
sg9
I63
sbag1
(g2
g3
Ntp2918
Rp2919
(dp2920
g7
V113613
p2921
sg9
I35
sbag1
(g2
g3
Ntp2922
Rp2923
(dp2924
g7
V113668
p2925
sg9
I29
sbag1
(g2
g3
Ntp2926
Rp2927
(dp2928
g7
V113698
p2929
sg9
I27
sbag1
(g2
g3
Ntp2930
Rp2931
(dp2932
g7
V113753
p2933
sg9
I63
sbag1
(g2
g3
Ntp2934
Rp2935
(dp2936
g7
V113613
p2937
sg9
I35
sbag1
(g2
g3
Ntp2938
Rp2939
(dp2940
g7
V113668
p2941
sg9
I29
sbag1
(g2
g3
Ntp2942
Rp2943
(dp2944
g7
V113698
p2945
sg9
I27
sbag1
(g2
g3
Ntp2946
Rp2947
(dp2948
g7
V113753
p2949
sg9
I63
sbag1
(g2
g3
Ntp2950
Rp2951
(dp2952
g7
V113613
p2953
sg9
I35
sbag1
(g2
g3
Ntp2954
Rp2955
(dp2956
g7
V113668
p2957
sg9
I29
sbag1
(g2
g3
Ntp2958
Rp2959
(dp2960
g7
V113698
p2961
sg9
I27
sbag1
(g2
g3
Ntp2962
Rp2963
(dp2964
g7
V113753
p2965
sg9
I63
sbag1
(g2
g3
Ntp2966
Rp2967
(dp2968
g7
V113613
p2969
sg9
I35
sbag1
(g2
g3
Ntp2970
Rp2971
(dp2972
g7
V113668
p2973
sg9
I29
sbag1
(g2
g3
Ntp2974
Rp2975
(dp2976
g7
V113698
p2977
sg9
I27
sbag1
(g2
g3
Ntp2978
Rp2979
(dp2980
g7
V113753
p2981
sg9
I63
sbag1
(g2
g3
Ntp2982
Rp2983
(dp2984
g7
V113613
p2985
sg9
I35
sbag1
(g2
g3
Ntp2986
Rp2987
(dp2988
g7
V113668
p2989
sg9
I29
sbag1
(g2
g3
Ntp2990
Rp2991
(dp2992
g7
V113698
p2993
sg9
I27
sbag1
(g2
g3
Ntp2994
Rp2995
(dp2996
g7
V113753
p2997
sg9
I63
sbag1
(g2
g3
Ntp2998
Rp2999
(dp3000
g7
V113613
p3001
sg9
I35
sbag1
(g2
g3
Ntp3002
Rp3003
(dp3004
g7
V113668
p3005
sg9
I29
sbag1
(g2
g3
Ntp3006
Rp3007
(dp3008
g7
V113698
p3009
sg9
I27
sbag1
(g2
g3
Ntp3010
Rp3011
(dp3012
g7
V113753
p3013
sg9
I63
sbag1
(g2
g3
Ntp3014
Rp3015
(dp3016
g7
V113613
p3017
sg9
I35
sbag1
(g2
g3
Ntp3018
Rp3019
(dp3020
g7
V113668
p3021
sg9
I29
sbag1
(g2
g3
Ntp3022
Rp3023
(dp3024
g7
V113698
p3025
sg9
I27
sbag1
(g2
g3
Ntp3026
Rp3027
(dp3028
g7
V113753
p3029
sg9
I63
sbag1
(g2
g3
Ntp3030
Rp3031
(dp3032
g7
V113613
p3033
sg9
I35
sbag1
(g2
g3
Ntp3034
Rp3035
(dp3036
g7
V113668
p3037
sg9
I29
sbag1
(g2
g3
Ntp3038
Rp3039
(dp3040
g7
V113698
p3041
sg9
I27
sbag1
(g2
g3
Ntp3042
Rp3043
(dp3044
g7
V113753
p3045
sg9
I63
sbag1
(g2
g3
Ntp3046
Rp3047
(dp3048
g7
V113613
p3049
sg9
I35
sbag1
(g2
g3
Ntp3050
Rp3051
(dp3052
g7
V113668
p3053
sg9
I29
sbag1
(g2
g3
Ntp3054
Rp3055
(dp3056
g7
V113698
p3057
sg9
I27
sbag1
(g2
g3
Ntp3058
Rp3059
(dp3060
g7
V113753
p3061
sg9
I63
sbag1
(g2
g3
Ntp3062
Rp3063
(dp3064
g7
V113613
p3065
sg9
I35
sbag1
(g2
g3
Ntp3066
Rp3067
(dp3068
g7
V113668
p3069
sg9
I29
sbag1
(g2
g3
Ntp3070
Rp3071
(dp3072
g7
V113698
p3073
sg9
I27
sbag1
(g2
g3
Ntp3074
Rp3075
(dp3076
g7
V113753
p3077
sg9
I63
sbag1
(g2
g3
Ntp3078
Rp3079
(dp3080
g7
V113613
p3081
sg9
I35
sbag1
(g2
g3
Ntp3082
Rp3083
(dp3084
g7
V113668
p3085
sg9
I29
sbag1
(g2
g3
Ntp3086
Rp3087
(dp3088
g7
V113698
p3089
sg9
I27
sbag1
(g2
g3
Ntp3090
Rp3091
(dp3092
g7
V113753
p3093
sg9
I63
sbag1
(g2
g3
Ntp3094
Rp3095
(dp3096
g7
V113613
p3097
sg9
I35
sbag1
(g2
g3
Ntp3098
Rp3099
(dp3100
g7
V113668
p3101
sg9
I29
sbag1
(g2
g3
Ntp3102
Rp3103
(dp3104
g7
V113698
p3105
sg9
I27
sbag1
(g2
g3
Ntp3106
Rp3107
(dp3108
g7
V113753
p3109
sg9
I63
sbag1
(g2
g3
Ntp3110
Rp3111
(dp3112
g7
V113613
p3113
sg9
I35
sbag1
(g2
g3
Ntp3114
Rp3115
(dp3116
g7
V113668
p3117
sg9
I29
sbag1
(g2
g3
Ntp3118
Rp3119
(dp3120
g7
V113698
p3121
sg9
I27
sbag1
(g2
g3
Ntp3122
Rp3123
(dp3124
g7
V113753
p3125
sg9
I63
sbag1
(g2
g3
Ntp3126
Rp3127
(dp3128
g7
V113613
p3129
sg9
I35
sbag1
(g2
g3
Ntp3130
Rp3131
(dp3132
g7
V113668
p3133
sg9
I29
sbag1
(g2
g3
Ntp3134
Rp3135
(dp3136
g7
V113698
p3137
sg9
I27
sbag1
(g2
g3
Ntp3138
Rp3139
(dp3140
g7
V113753
p3141
sg9
I63
sbag1
(g2
g3
Ntp3142
Rp3143
(dp3144
g7
V113613
p3145
sg9
I35
sbag1
(g2
g3
Ntp3146
Rp3147
(dp3148
g7
V113668
p3149
sg9
I29
sbag1
(g2
g3
Ntp3150
Rp3151
(dp3152
g7
V113698
p3153
sg9
I27
sbag1
(g2
g3
Ntp3154
Rp3155
(dp3156
g7
V113753
p3157
sg9
I63
sbag1
(g2
g3
Ntp3158
Rp3159
(dp3160
g7
V113613
p3161
sg9
I35
sbag1
(g2
g3
Ntp3162
Rp3163
(dp3164
g7
V113668
p3165
sg9
I29
sbag1
(g2
g3
Ntp3166
Rp3167
(dp3168
g7
V113698
p3169
sg9
I27
sbag1
(g2
g3
Ntp3170
Rp3171
(dp3172
g7
V113753
p3173
sg9
I63
sbag1
(g2
g3
Ntp3174
Rp3175
(dp3176
g7
V113793
p3177
sg9
I27
sbag1
(g2
g3
Ntp3178
Rp3179
(dp3180
g7
V113804
p3181
sg9
I24
sbag1
(g2
g3
Ntp3182
Rp3183
(dp3184
g7
V113834
p3185
sg9
I19
sbag1
(g2
g3
Ntp3186
Rp3187
(dp3188
g7
V113865
p3189
sg9
I36
sbag1
(g2
g3
Ntp3190
Rp3191
(dp3192
g7
V113885
p3193
sg9
I32
sbag1
(g2
g3
Ntp3194
Rp3195
(dp3196
g7
V114046
p3197
sg9
I0
sbag1
(g2
g3
Ntp3198
Rp3199
(dp3200
g7
V114032
p3201
sg9
I35
sbag1
(g2
g3
Ntp3202
Rp3203
(dp3204
g7
V113793
p3205
sg9
I27
sbag1
(g2
g3
Ntp3206
Rp3207
(dp3208
g7
V113804
p3209
sg9
I24
sbag1
(g2
g3
Ntp3210
Rp3211
(dp3212
g7
V113834
p3213
sg9
I19
sbag1
(g2
g3
Ntp3214
Rp3215
(dp3216
g7
V113865
p3217
sg9
I36
sbag1
(g2
g3
Ntp3218
Rp3219
(dp3220
g7
V113885
p3221
sg9
I32
sbag1
(g2
g3
Ntp3222
Rp3223
(dp3224
g7
V114046
p3225
sg9
I0
sbag1
(g2
g3
Ntp3226
Rp3227
(dp3228
g7
V114032
p3229
sg9
I35
sbag1
(g2
g3
Ntp3230
Rp3231
(dp3232
g7
V113793
p3233
sg9
I27
sbag1
(g2
g3
Ntp3234
Rp3235
(dp3236
g7
V113804
p3237
sg9
I24
sbag1
(g2
g3
Ntp3238
Rp3239
(dp3240
g7
V113834
p3241
sg9
I19
sbag1
(g2
g3
Ntp3242
Rp3243
(dp3244
g7
V113865
p3245
sg9
I36
sbag1
(g2
g3
Ntp3246
Rp3247
(dp3248
g7
V113885
p3249
sg9
I32
sbag1
(g2
g3
Ntp3250
Rp3251
(dp3252
g7
V114032
p3253
sg9
I35
sbag1
(g2
g3
Ntp3254
Rp3255
(dp3256
g7
V114046
p3257
sg9
I17
sbag1
(g2
g3
Ntp3258
Rp3259
(dp3260
g7
V113793
p3261
sg9
I27
sbag1
(g2
g3
Ntp3262
Rp3263
(dp3264
g7
V113804
p3265
sg9
I24
sbag1
(g2
g3
Ntp3266
Rp3267
(dp3268
g7
V113834
p3269
sg9
I19
sbag1
(g2
g3
Ntp3270
Rp3271
(dp3272
g7
V113865
p3273
sg9
I36
sbag1
(g2
g3
Ntp3274
Rp3275
(dp3276
g7
V113885
p3277
sg9
I32
sbag1
(g2
g3
Ntp3278
Rp3279
(dp3280
g7
V114032
p3281
sg9
I35
sbag1
(g2
g3
Ntp3282
Rp3283
(dp3284
g7
V114046
p3285
sg9
I26
sbag1
(g2
g3
Ntp3286
Rp3287
(dp3288
g7
V113793
p3289
sg9
I27
sbag1
(g2
g3
Ntp3290
Rp3291
(dp3292
g7
V113804
p3293
sg9
I24
sbag1
(g2
g3
Ntp3294
Rp3295
(dp3296
g7
V113834
p3297
sg9
I19
sbag1
(g2
g3
Ntp3298
Rp3299
(dp3300
g7
V113865
p3301
sg9
I36
sbag1
(g2
g3
Ntp3302
Rp3303
(dp3304
g7
V113885
p3305
sg9
I32
sbag1
(g2
g3
Ntp3306
Rp3307
(dp3308
g7
V114032
p3309
sg9
I35
sbag1
(g2
g3
Ntp3310
Rp3311
(dp3312
g7
V114046
p3313
sg9
I26
sbag1
(g2
g3
Ntp3314
Rp3315
(dp3316
g7
V113793
p3317
sg9
I27
sbag1
(g2
g3
Ntp3318
Rp3319
(dp3320
g7
V113804
p3321
sg9
I24
sbag1
(g2
g3
Ntp3322
Rp3323
(dp3324
g7
V113834
p3325
sg9
I19
sbag1
(g2
g3
Ntp3326
Rp3327
(dp3328
g7
V113865
p3329
sg9
I36
sbag1
(g2
g3
Ntp3330
Rp3331
(dp3332
g7
V113885
p3333
sg9
I32
sbag1
(g2
g3
Ntp3334
Rp3335
(dp3336
g7
V114032
p3337
sg9
I35
sbag1
(g2
g3
Ntp3338
Rp3339
(dp3340
g7
V114046
p3341
sg9
I26
sbag1
(g2
g3
Ntp3342
Rp3343
(dp3344
g7
V113793
p3345
sg9
I27
sbag1
(g2
g3
Ntp3346
Rp3347
(dp3348
g7
V113804
p3349
sg9
I24
sbag1
(g2
g3
Ntp3350
Rp3351
(dp3352
g7
V113834
p3353
sg9
I19
sbag1
(g2
g3
Ntp3354
Rp3355
(dp3356
g7
V113865
p3357
sg9
I36
sbag1
(g2
g3
Ntp3358
Rp3359
(dp3360
g7
V113885
p3361
sg9
I32
sbag1
(g2
g3
Ntp3362
Rp3363
(dp3364
g7
V114032
p3365
sg9
I35
sbag1
(g2
g3
Ntp3366
Rp3367
(dp3368
g7
V114046
p3369
sg9
I26
sbag1
(g2
g3
Ntp3370
Rp3371
(dp3372
g7
V113793
p3373
sg9
I27
sbag1
(g2
g3
Ntp3374
Rp3375
(dp3376
g7
V113804
p3377
sg9
I24
sbag1
(g2
g3
Ntp3378
Rp3379
(dp3380
g7
V113834
p3381
sg9
I19
sbag1
(g2
g3
Ntp3382
Rp3383
(dp3384
g7
V113865
p3385
sg9
I36
sbag1
(g2
g3
Ntp3386
Rp3387
(dp3388
g7
V113885
p3389
sg9
I32
sbag1
(g2
g3
Ntp3390
Rp3391
(dp3392
g7
V114032
p3393
sg9
I35
sbag1
(g2
g3
Ntp3394
Rp3395
(dp3396
g7
V114046
p3397
sg9
I26
sbag1
(g2
g3
Ntp3398
Rp3399
(dp3400
g7
V113793
p3401
sg9
I27
sbag1
(g2
g3
Ntp3402
Rp3403
(dp3404
g7
V113804
p3405
sg9
I24
sbag1
(g2
g3
Ntp3406
Rp3407
(dp3408
g7
V113834
p3409
sg9
I19
sbag1
(g2
g3
Ntp3410
Rp3411
(dp3412
g7
V113865
p3413
sg9
I36
sbag1
(g2
g3
Ntp3414
Rp3415
(dp3416
g7
V113885
p3417
sg9
I32
sbag1
(g2
g3
Ntp3418
Rp3419
(dp3420
g7
V114032
p3421
sg9
I35
sbag1
(g2
g3
Ntp3422
Rp3423
(dp3424
g7
V114046
p3425
sg9
I26
sbag1
(g2
g3
Ntp3426
Rp3427
(dp3428
g7
V113793
p3429
sg9
I27
sbag1
(g2
g3
Ntp3430
Rp3431
(dp3432
g7
V113804
p3433
sg9
I24
sbag1
(g2
g3
Ntp3434
Rp3435
(dp3436
g7
V113834
p3437
sg9
I19
sbag1
(g2
g3
Ntp3438
Rp3439
(dp3440
g7
V113865
p3441
sg9
I36
sbag1
(g2
g3
Ntp3442
Rp3443
(dp3444
g7
V113885
p3445
sg9
I32
sbag1
(g2
g3
Ntp3446
Rp3447
(dp3448
g7
V114032
p3449
sg9
I35
sbag1
(g2
g3
Ntp3450
Rp3451
(dp3452
g7
V114046
p3453
sg9
I26
sbag1
(g2
g3
Ntp3454
Rp3455
(dp3456
g7
V113793
p3457
sg9
I27
sbag1
(g2
g3
Ntp3458
Rp3459
(dp3460
g7
V113804
p3461
sg9
I24
sbag1
(g2
g3
Ntp3462
Rp3463
(dp3464
g7
V113834
p3465
sg9
I19
sbag1
(g2
g3
Ntp3466
Rp3467
(dp3468
g7
V113865
p3469
sg9
I36
sbag1
(g2
g3
Ntp3470
Rp3471
(dp3472
g7
V113885
p3473
sg9
I32
sbag1
(g2
g3
Ntp3474
Rp3475
(dp3476
g7
V114032
p3477
sg9
I35
sbag1
(g2
g3
Ntp3478
Rp3479
(dp3480
g7
V114046
p3481
sg9
I26
sbag1
(g2
g3
Ntp3482
Rp3483
(dp3484
g7
V113793
p3485
sg9
I27
sbag1
(g2
g3
Ntp3486
Rp3487
(dp3488
g7
V113804
p3489
sg9
I24
sbag1
(g2
g3
Ntp3490
Rp3491
(dp3492
g7
V113834
p3493
sg9
I19
sbag1
(g2
g3
Ntp3494
Rp3495
(dp3496
g7
V113865
p3497
sg9
I36
sbag1
(g2
g3
Ntp3498
Rp3499
(dp3500
g7
V113885
p3501
sg9
I32
sbag1
(g2
g3
Ntp3502
Rp3503
(dp3504
g7
V114032
p3505
sg9
I35
sbag1
(g2
g3
Ntp3506
Rp3507
(dp3508
g7
V114046
p3509
sg9
I26
sbag1
(g2
g3
Ntp3510
Rp3511
(dp3512
g7
V113793
p3513
sg9
I27
sbag1
(g2
g3
Ntp3514
Rp3515
(dp3516
g7
V113804
p3517
sg9
I24
sbag1
(g2
g3
Ntp3518
Rp3519
(dp3520
g7
V113834
p3521
sg9
I19
sbag1
(g2
g3
Ntp3522
Rp3523
(dp3524
g7
V113865
p3525
sg9
I36
sbag1
(g2
g3
Ntp3526
Rp3527
(dp3528
g7
V113885
p3529
sg9
I32
sbag1
(g2
g3
Ntp3530
Rp3531
(dp3532
g7
V114032
p3533
sg9
I35
sbag1
(g2
g3
Ntp3534
Rp3535
(dp3536
g7
V114046
p3537
sg9
I26
sbag1
(g2
g3
Ntp3538
Rp3539
(dp3540
g7
V113793
p3541
sg9
I27
sbag1
(g2
g3
Ntp3542
Rp3543
(dp3544
g7
V113804
p3545
sg9
I24
sbag1
(g2
g3
Ntp3546
Rp3547
(dp3548
g7
V113834
p3549
sg9
I19
sbag1
(g2
g3
Ntp3550
Rp3551
(dp3552
g7
V113865
p3553
sg9
I36
sbag1
(g2
g3
Ntp3554
Rp3555
(dp3556
g7
V113885
p3557
sg9
I32
sbag1
(g2
g3
Ntp3558
Rp3559
(dp3560
g7
V114032
p3561
sg9
I35
sbag1
(g2
g3
Ntp3562
Rp3563
(dp3564
g7
V114046
p3565
sg9
I26
sbag1
(g2
g3
Ntp3566
Rp3567
(dp3568
g7
V113793
p3569
sg9
I27
sbag1
(g2
g3
Ntp3570
Rp3571
(dp3572
g7
V113804
p3573
sg9
I24
sbag1
(g2
g3
Ntp3574
Rp3575
(dp3576
g7
V113834
p3577
sg9
I19
sbag1
(g2
g3
Ntp3578
Rp3579
(dp3580
g7
V113865
p3581
sg9
I36
sbag1
(g2
g3
Ntp3582
Rp3583
(dp3584
g7
V113885
p3585
sg9
I32
sbag1
(g2
g3
Ntp3586
Rp3587
(dp3588
g7
V114032
p3589
sg9
I35
sbag1
(g2
g3
Ntp3590
Rp3591
(dp3592
g7
V114046
p3593
sg9
I26
sbag1
(g2
g3
Ntp3594
Rp3595
(dp3596
g7
V113793
p3597
sg9
I27
sbag1
(g2
g3
Ntp3598
Rp3599
(dp3600
g7
V113804
p3601
sg9
I24
sbag1
(g2
g3
Ntp3602
Rp3603
(dp3604
g7
V113834
p3605
sg9
I19
sbag1
(g2
g3
Ntp3606
Rp3607
(dp3608
g7
V113865
p3609
sg9
I36
sbag1
(g2
g3
Ntp3610
Rp3611
(dp3612
g7
V113885
p3613
sg9
I32
sbag1
(g2
g3
Ntp3614
Rp3615
(dp3616
g7
V114032
p3617
sg9
I35
sbag1
(g2
g3
Ntp3618
Rp3619
(dp3620
g7
V114046
p3621
sg9
I26
sbag1
(g2
g3
Ntp3622
Rp3623
(dp3624
g7
V113793
p3625
sg9
I27
sbag1
(g2
g3
Ntp3626
Rp3627
(dp3628
g7
V113804
p3629
sg9
I24
sbag1
(g2
g3
Ntp3630
Rp3631
(dp3632
g7
V113834
p3633
sg9
I19
sbag1
(g2
g3
Ntp3634
Rp3635
(dp3636
g7
V113865
p3637
sg9
I36
sbag1
(g2
g3
Ntp3638
Rp3639
(dp3640
g7
V113885
p3641
sg9
I32
sbag1
(g2
g3
Ntp3642
Rp3643
(dp3644
g7
V114032
p3645
sg9
I35
sbag1
(g2
g3
Ntp3646
Rp3647
(dp3648
g7
V114046
p3649
sg9
I26
sbag1
(g2
g3
Ntp3650
Rp3651
(dp3652
g7
V113793
p3653
sg9
I27
sbag1
(g2
g3
Ntp3654
Rp3655
(dp3656
g7
V113804
p3657
sg9
I24
sbag1
(g2
g3
Ntp3658
Rp3659
(dp3660
g7
V113834
p3661
sg9
I19
sbag1
(g2
g3
Ntp3662
Rp3663
(dp3664
g7
V113865
p3665
sg9
I36
sbag1
(g2
g3
Ntp3666
Rp3667
(dp3668
g7
V113885
p3669
sg9
I32
sbag1
(g2
g3
Ntp3670
Rp3671
(dp3672
g7
V114032
p3673
sg9
I35
sbag1
(g2
g3
Ntp3674
Rp3675
(dp3676
g7
V114046
p3677
sg9
I26
sbag1
(g2
g3
Ntp3678
Rp3679
(dp3680
g7
V113793
p3681
sg9
I27
sbag1
(g2
g3
Ntp3682
Rp3683
(dp3684
g7
V113804
p3685
sg9
I24
sbag1
(g2
g3
Ntp3686
Rp3687
(dp3688
g7
V113834
p3689
sg9
I19
sbag1
(g2
g3
Ntp3690
Rp3691
(dp3692
g7
V113865
p3693
sg9
I36
sbag1
(g2
g3
Ntp3694
Rp3695
(dp3696
g7
V113885
p3697
sg9
I32
sbag1
(g2
g3
Ntp3698
Rp3699
(dp3700
g7
V114032
p3701
sg9
I35
sbag1
(g2
g3
Ntp3702
Rp3703
(dp3704
g7
V114046
p3705
sg9
I26
sbag1
(g2
g3
Ntp3706
Rp3707
(dp3708
g7
V113793
p3709
sg9
I27
sbag1
(g2
g3
Ntp3710
Rp3711
(dp3712
g7
V113804
p3713
sg9
I24
sbag1
(g2
g3
Ntp3714
Rp3715
(dp3716
g7
V113834
p3717
sg9
I19
sbag1
(g2
g3
Ntp3718
Rp3719
(dp3720
g7
V113865
p3721
sg9
I36
sbag1
(g2
g3
Ntp3722
Rp3723
(dp3724
g7
V113885
p3725
sg9
I32
sbag1
(g2
g3
Ntp3726
Rp3727
(dp3728
g7
V114032
p3729
sg9
I35
sbag1
(g2
g3
Ntp3730
Rp3731
(dp3732
g7
V114046
p3733
sg9
I26
sbag1
(g2
g3
Ntp3734
Rp3735
(dp3736
g7
V113793
p3737
sg9
I27
sbag1
(g2
g3
Ntp3738
Rp3739
(dp3740
g7
V113804
p3741
sg9
I24
sbag1
(g2
g3
Ntp3742
Rp3743
(dp3744
g7
V113834
p3745
sg9
I19
sbag1
(g2
g3
Ntp3746
Rp3747
(dp3748
g7
V113865
p3749
sg9
I36
sbag1
(g2
g3
Ntp3750
Rp3751
(dp3752
g7
V113885
p3753
sg9
I32
sbag1
(g2
g3
Ntp3754
Rp3755
(dp3756
g7
V114032
p3757
sg9
I35
sbag1
(g2
g3
Ntp3758
Rp3759
(dp3760
g7
V114046
p3761
sg9
I26
sbag1
(g2
g3
Ntp3762
Rp3763
(dp3764
g7
V113793
p3765
sg9
I27
sbag1
(g2
g3
Ntp3766
Rp3767
(dp3768
g7
V113804
p3769
sg9
I24
sbag1
(g2
g3
Ntp3770
Rp3771
(dp3772
g7
V113834
p3773
sg9
I19
sbag1
(g2
g3
Ntp3774
Rp3775
(dp3776
g7
V113865
p3777
sg9
I36
sbag1
(g2
g3
Ntp3778
Rp3779
(dp3780
g7
V113885
p3781
sg9
I32
sbag1
(g2
g3
Ntp3782
Rp3783
(dp3784
g7
V114032
p3785
sg9
I35
sbag1
(g2
g3
Ntp3786
Rp3787
(dp3788
g7
V114046
p3789
sg9
I26
sbag1
(g2
g3
Ntp3790
Rp3791
(dp3792
g7
V113793
p3793
sg9
I27
sbag1
(g2
g3
Ntp3794
Rp3795
(dp3796
g7
V113804
p3797
sg9
I24
sbag1
(g2
g3
Ntp3798
Rp3799
(dp3800
g7
V113834
p3801
sg9
I19
sbag1
(g2
g3
Ntp3802
Rp3803
(dp3804
g7
V113865
p3805
sg9
I36
sbag1
(g2
g3
Ntp3806
Rp3807
(dp3808
g7
V113885
p3809
sg9
I32
sbag1
(g2
g3
Ntp3810
Rp3811
(dp3812
g7
V114032
p3813
sg9
I35
sbag1
(g2
g3
Ntp3814
Rp3815
(dp3816
g7
V114046
p3817
sg9
I26
sbag1
(g2
g3
Ntp3818
Rp3819
(dp3820
g7
V113793
p3821
sg9
I27
sbag1
(g2
g3
Ntp3822
Rp3823
(dp3824
g7
V113804
p3825
sg9
I24
sbag1
(g2
g3
Ntp3826
Rp3827
(dp3828
g7
V113834
p3829
sg9
I19
sbag1
(g2
g3
Ntp3830
Rp3831
(dp3832
g7
V113865
p3833
sg9
I36
sbag1
(g2
g3
Ntp3834
Rp3835
(dp3836
g7
V113885
p3837
sg9
I32
sbag1
(g2
g3
Ntp3838
Rp3839
(dp3840
g7
V114032
p3841
sg9
I35
sbag1
(g2
g3
Ntp3842
Rp3843
(dp3844
g7
V114046
p3845
sg9
I26
sbag1
(g2
g3
Ntp3846
Rp3847
(dp3848
g7
V114212
p3849
sg9
I29
sbag1
(g2
g3
Ntp3850
Rp3851
(dp3852
g7
V114272
p3853
sg9
I26
sbag1
(g2
g3
Ntp3854
Rp3855
(dp3856
g7
V114212
p3857
sg9
I29
sbag1
(g2
g3
Ntp3858
Rp3859
(dp3860
g7
V114272
p3861
sg9
I29
sbag1
(g2
g3
Ntp3862
Rp3863
(dp3864
g7
V114212
p3865
sg9
I29
sbag1
(g2
g3
Ntp3866
Rp3867
(dp3868
g7
V114272
p3869
sg9
I29
sbag1
(g2
g3
Ntp3870
Rp3871
(dp3872
g7
V114212
p3873
sg9
I29
sbag1
(g2
g3
Ntp3874
Rp3875
(dp3876
g7
V114272
p3877
sg9
I29
sbag1
(g2
g3
Ntp3878
Rp3879
(dp3880
g7
V114212
p3881
sg9
I29
sbag1
(g2
g3
Ntp3882
Rp3883
(dp3884
g7
V114272
p3885
sg9
I29
sbag1
(g2
g3
Ntp3886
Rp3887
(dp3888
g7
V114212
p3889
sg9
I29
sbag1
(g2
g3
Ntp3890
Rp3891
(dp3892
g7
V114272
p3893
sg9
I29
sbag1
(g2
g3
Ntp3894
Rp3895
(dp3896
g7
V114212
p3897
sg9
I29
sbag1
(g2
g3
Ntp3898
Rp3899
(dp3900
g7
V114272
p3901
sg9
I29
sbag1
(g2
g3
Ntp3902
Rp3903
(dp3904
g7
V114212
p3905
sg9
I29
sbag1
(g2
g3
Ntp3906
Rp3907
(dp3908
g7
V114272
p3909
sg9
I29
sbag1
(g2
g3
Ntp3910
Rp3911
(dp3912
g7
V114212
p3913
sg9
I29
sbag1
(g2
g3
Ntp3914
Rp3915
(dp3916
g7
V114272
p3917
sg9
I29
sbag1
(g2
g3
Ntp3918
Rp3919
(dp3920
g7
V114212
p3921
sg9
I29
sbag1
(g2
g3
Ntp3922
Rp3923
(dp3924
g7
V114272
p3925
sg9
I29
sbag1
(g2
g3
Ntp3926
Rp3927
(dp3928
g7
V114212
p3929
sg9
I29
sbag1
(g2
g3
Ntp3930
Rp3931
(dp3932
g7
V114272
p3933
sg9
I29
sbag1
(g2
g3
Ntp3934
Rp3935
(dp3936
g7
V114212
p3937
sg9
I29
sbag1
(g2
g3
Ntp3938
Rp3939
(dp3940
g7
V114272
p3941
sg9
I29
sbag1
(g2
g3
Ntp3942
Rp3943
(dp3944
g7
V114212
p3945
sg9
I29
sbag1
(g2
g3
Ntp3946
Rp3947
(dp3948
g7
V114272
p3949
sg9
I29
sbag1
(g2
g3
Ntp3950
Rp3951
(dp3952
g7
V114212
p3953
sg9
I29
sbag1
(g2
g3
Ntp3954
Rp3955
(dp3956
g7
V114272
p3957
sg9
I29
sbag1
(g2
g3
Ntp3958
Rp3959
(dp3960
g7
V114212
p3961
sg9
I29
sbag1
(g2
g3
Ntp3962
Rp3963
(dp3964
g7
V114272
p3965
sg9
I29
sbag1
(g2
g3
Ntp3966
Rp3967
(dp3968
g7
V114212
p3969
sg9
I29
sbag1
(g2
g3
Ntp3970
Rp3971
(dp3972
g7
V114272
p3973
sg9
I29
sbag1
(g2
g3
Ntp3974
Rp3975
(dp3976
g7
V114212
p3977
sg9
I29
sbag1
(g2
g3
Ntp3978
Rp3979
(dp3980
g7
V114272
p3981
sg9
I29
sbag1
(g2
g3
Ntp3982
Rp3983
(dp3984
g7
V114212
p3985
sg9
I29
sbag1
(g2
g3
Ntp3986
Rp3987
(dp3988
g7
V114272
p3989
sg9
I29
sbag1
(g2
g3
Ntp3990
Rp3991
(dp3992
g7
V114212
p3993
sg9
I29
sbag1
(g2
g3
Ntp3994
Rp3995
(dp3996
g7
V114272
p3997
sg9
I29
sbag1
(g2
g3
Ntp3998
Rp3999
(dp4000
g7
V114212
p4001
sg9
I29
sbag1
(g2
g3
Ntp4002
Rp4003
(dp4004
g7
V114272
p4005
sg9
I29
sbag1
(g2
g3
Ntp4006
Rp4007
(dp4008
g7
V114212
p4009
sg9
I29
sbag1
(g2
g3
Ntp4010
Rp4011
(dp4012
g7
V114272
p4013
sg9
I29
sbag1
(g2
g3
Ntp4014
Rp4015
(dp4016
g7
V114212
p4017
sg9
I29
sbag1
(g2
g3
Ntp4018
Rp4019
(dp4020
g7
V114272
p4021
sg9
I29
sbag1
(g2
g3
Ntp4022
Rp4023
(dp4024
g7
V114212
p4025
sg9
I29
sbag1
(g2
g3
Ntp4026
Rp4027
(dp4028
g7
V114272
p4029
sg9
I29
sbag1
(g2
g3
Ntp4030
Rp4031
(dp4032
g7
V114212
p4033
sg9
I29
sbag1
(g2
g3
Ntp4034
Rp4035
(dp4036
g7
V114272
p4037
sg9
I29
sbag1
(g2
g3
Ntp4038
Rp4039
(dp4040
g7
V114529
p4041
sg9
I35
sbag1
(g2
g3
Ntp4042
Rp4043
(dp4044
g7
V114596
p4045
sg9
I29
sbag1
(g2
g3
Ntp4046
Rp4047
(dp4048
g7
V114681
p4049
sg9
I27
sbag1
(g2
g3
Ntp4050
Rp4051
(dp4052
g7
V114718
p4053
sg9
I0
sbag1
(g2
g3
Ntp4054
Rp4055
(dp4056
g7
V114529
p4057
sg9
I35
sbag1
(g2
g3
Ntp4058
Rp4059
(dp4060
g7
V114596
p4061
sg9
I29
sbag1
(g2
g3
Ntp4062
Rp4063
(dp4064
g7
V114681
p4065
sg9
I27
sbag1
(g2
g3
Ntp4066
Rp4067
(dp4068
g7
V114718
p4069
sg9
I0
sbag1
(g2
g3
Ntp4070
Rp4071
(dp4072
g7
V114529
p4073
sg9
I35
sbag1
(g2
g3
Ntp4074
Rp4075
(dp4076
g7
V114596
p4077
sg9
I29
sbag1
(g2
g3
Ntp4078
Rp4079
(dp4080
g7
V114681
p4081
sg9
I27
sbag1
(g2
g3
Ntp4082
Rp4083
(dp4084
g7
V114718
p4085
sg9
I0
sbag1
(g2
g3
Ntp4086
Rp4087
(dp4088
g7
V114529
p4089
sg9
I35
sbag1
(g2
g3
Ntp4090
Rp4091
(dp4092
g7
V114596
p4093
sg9
I29
sbag1
(g2
g3
Ntp4094
Rp4095
(dp4096
g7
V114681
p4097
sg9
I27
sbag1
(g2
g3
Ntp4098
Rp4099
(dp4100
g7
V114718
p4101
sg9
I0
sbag1
(g2
g3
Ntp4102
Rp4103
(dp4104
g7
V114529
p4105
sg9
I35
sbag1
(g2
g3
Ntp4106
Rp4107
(dp4108
g7
V114596
p4109
sg9
I29
sbag1
(g2
g3
Ntp4110
Rp4111
(dp4112
g7
V114681
p4113
sg9
I27
sbag1
(g2
g3
Ntp4114
Rp4115
(dp4116
g7
V114529
p4117
sg9
I35
sbag1
(g2
g3
Ntp4118
Rp4119
(dp4120
g7
V114596
p4121
sg9
I29
sbag1
(g2
g3
Ntp4122
Rp4123
(dp4124
g7
V114681
p4125
sg9
I27
sbag1
(g2
g3
Ntp4126
Rp4127
(dp4128
g7
V114529
p4129
sg9
I35
sbag1
(g2
g3
Ntp4130
Rp4131
(dp4132
g7
V114596
p4133
sg9
I29
sbag1
(g2
g3
Ntp4134
Rp4135
(dp4136
g7
V114681
p4137
sg9
I27
sbag1
(g2
g3
Ntp4138
Rp4139
(dp4140
g7
V114529
p4141
sg9
I35
sbag1
(g2
g3
Ntp4142
Rp4143
(dp4144
g7
V114596
p4145
sg9
I29
sbag1
(g2
g3
Ntp4146
Rp4147
(dp4148
g7
V114681
p4149
sg9
I27
sbag1
(g2
g3
Ntp4150
Rp4151
(dp4152
g7
V114529
p4153
sg9
I35
sbag1
(g2
g3
Ntp4154
Rp4155
(dp4156
g7
V114596
p4157
sg9
I29
sbag1
(g2
g3
Ntp4158
Rp4159
(dp4160
g7
V114681
p4161
sg9
I27
sbag1
(g2
g3
Ntp4162
Rp4163
(dp4164
g7
V114529
p4165
sg9
I35
sbag1
(g2
g3
Ntp4166
Rp4167
(dp4168
g7
V114596
p4169
sg9
I29
sbag1
(g2
g3
Ntp4170
Rp4171
(dp4172
g7
V114681
p4173
sg9
I27
sbag1
(g2
g3
Ntp4174
Rp4175
(dp4176
g7
V114529
p4177
sg9
I35
sbag1
(g2
g3
Ntp4178
Rp4179
(dp4180
g7
V114596
p4181
sg9
I29
sbag1
(g2
g3
Ntp4182
Rp4183
(dp4184
g7
V114681
p4185
sg9
I27
sbag1
(g2
g3
Ntp4186
Rp4187
(dp4188
g7
V114529
p4189
sg9
I35
sbag1
(g2
g3
Ntp4190
Rp4191
(dp4192
g7
V114596
p4193
sg9
I29
sbag1
(g2
g3
Ntp4194
Rp4195
(dp4196
g7
V114681
p4197
sg9
I27
sbag1
(g2
g3
Ntp4198
Rp4199
(dp4200
g7
V114529
p4201
sg9
I35
sbag1
(g2
g3
Ntp4202
Rp4203
(dp4204
g7
V114596
p4205
sg9
I29
sbag1
(g2
g3
Ntp4206
Rp4207
(dp4208
g7
V114681
p4209
sg9
I27
sbag1
(g2
g3
Ntp4210
Rp4211
(dp4212
g7
V114529
p4213
sg9
I35
sbag1
(g2
g3
Ntp4214
Rp4215
(dp4216
g7
V114596
p4217
sg9
I29
sbag1
(g2
g3
Ntp4218
Rp4219
(dp4220
g7
V114681
p4221
sg9
I27
sbag1
(g2
g3
Ntp4222
Rp4223
(dp4224
g7
V114529
p4225
sg9
I35
sbag1
(g2
g3
Ntp4226
Rp4227
(dp4228
g7
V114596
p4229
sg9
I29
sbag1
(g2
g3
Ntp4230
Rp4231
(dp4232
g7
V114681
p4233
sg9
I27
sbag1
(g2
g3
Ntp4234
Rp4235
(dp4236
g7
V114529
p4237
sg9
I35
sbag1
(g2
g3
Ntp4238
Rp4239
(dp4240
g7
V114596
p4241
sg9
I29
sbag1
(g2
g3
Ntp4242
Rp4243
(dp4244
g7
V114681
p4245
sg9
I27
sbag1
(g2
g3
Ntp4246
Rp4247
(dp4248
g7
V114529
p4249
sg9
I35
sbag1
(g2
g3
Ntp4250
Rp4251
(dp4252
g7
V114596
p4253
sg9
I29
sbag1
(g2
g3
Ntp4254
Rp4255
(dp4256
g7
V114681
p4257
sg9
I27
sbag1
(g2
g3
Ntp4258
Rp4259
(dp4260
g7
V114529
p4261
sg9
I35
sbag1
(g2
g3
Ntp4262
Rp4263
(dp4264
g7
V114596
p4265
sg9
I29
sbag1
(g2
g3
Ntp4266
Rp4267
(dp4268
g7
V114681
p4269
sg9
I27
sbag1
(g2
g3
Ntp4270
Rp4271
(dp4272
g7
V114529
p4273
sg9
I35
sbag1
(g2
g3
Ntp4274
Rp4275
(dp4276
g7
V114596
p4277
sg9
I29
sbag1
(g2
g3
Ntp4278
Rp4279
(dp4280
g7
V114681
p4281
sg9
I27
sbag1
(g2
g3
Ntp4282
Rp4283
(dp4284
g7
V114529
p4285
sg9
I35
sbag1
(g2
g3
Ntp4286
Rp4287
(dp4288
g7
V114596
p4289
sg9
I29
sbag1
(g2
g3
Ntp4290
Rp4291
(dp4292
g7
V114681
p4293
sg9
I27
sbag1
(g2
g3
Ntp4294
Rp4295
(dp4296
g7
V114529
p4297
sg9
I35
sbag1
(g2
g3
Ntp4298
Rp4299
(dp4300
g7
V114596
p4301
sg9
I29
sbag1
(g2
g3
Ntp4302
Rp4303
(dp4304
g7
V114681
p4305
sg9
I27
sbag1
(g2
g3
Ntp4306
Rp4307
(dp4308
g7
V114529
p4309
sg9
I35
sbag1
(g2
g3
Ntp4310
Rp4311
(dp4312
g7
V114596
p4313
sg9
I29
sbag1
(g2
g3
Ntp4314
Rp4315
(dp4316
g7
V114681
p4317
sg9
I27
sbag1
(g2
g3
Ntp4318
Rp4319
(dp4320
g7
V114529
p4321
sg9
I35
sbag1
(g2
g3
Ntp4322
Rp4323
(dp4324
g7
V114596
p4325
sg9
I29
sbag1
(g2
g3
Ntp4326
Rp4327
(dp4328
g7
V114681
p4329
sg9
I27
sbag1
(g2
g3
Ntp4330
Rp4331
(dp4332
g7
V114529
p4333
sg9
I35
sbag1
(g2
g3
Ntp4334
Rp4335
(dp4336
g7
V114596
p4337
sg9
I29
sbag1
(g2
g3
Ntp4338
Rp4339
(dp4340
g7
V114681
p4341
sg9
I27
sbag1
(g2
g3
Ntp4342
Rp4343
(dp4344
g7
V114718
p4345
sg9
I30
sbag1
(g2
g3
Ntp4346
Rp4347
(dp4348
g7
V114773
p4349
sg9
I21
sbag1
(g2
g3
Ntp4350
Rp4351
(dp4352
g7
V114834
p4353
sg9
I27
sbag1
(g2
g3
Ntp4354
Rp4355
(dp4356
g7
V114879
p4357
sg9
I27
sbag1
(g2
g3
Ntp4358
Rp4359
(dp4360
g7
V114938
p4361
sg9
I33
sbag1
(g2
g3
Ntp4362
Rp4363
(dp4364
g7
V114967
p4365
sg9
I45
sbag1
(g2
g3
Ntp4366
Rp4367
(dp4368
g7
V114718
p4369
sg9
I30
sbag1
(g2
g3
Ntp4370
Rp4371
(dp4372
g7
V114773
p4373
sg9
I21
sbag1
(g2
g3
Ntp4374
Rp4375
(dp4376
g7
V114834
p4377
sg9
I27
sbag1
(g2
g3
Ntp4378
Rp4379
(dp4380
g7
V114879
p4381
sg9
I27
sbag1
(g2
g3
Ntp4382
Rp4383
(dp4384
g7
V114938
p4385
sg9
I33
sbag1
(g2
g3
Ntp4386
Rp4387
(dp4388
g7
V114967
p4389
sg9
I56
sbag1
(g2
g3
Ntp4390
Rp4391
(dp4392
g7
V114718
p4393
sg9
I30
sbag1
(g2
g3
Ntp4394
Rp4395
(dp4396
g7
V114773
p4397
sg9
I21
sbag1
(g2
g3
Ntp4398
Rp4399
(dp4400
g7
V114834
p4401
sg9
I27
sbag1
(g2
g3
Ntp4402
Rp4403
(dp4404
g7
V114879
p4405
sg9
I27
sbag1
(g2
g3
Ntp4406
Rp4407
(dp4408
g7
V114938
p4409
sg9
I33
sbag1
(g2
g3
Ntp4410
Rp4411
(dp4412
g7
V114967
p4413
sg9
I55
sbag1
(g2
g3
Ntp4414
Rp4415
(dp4416
g7
V114718
p4417
sg9
I30
sbag1
(g2
g3
Ntp4418
Rp4419
(dp4420
g7
V114773
p4421
sg9
I21
sbag1
(g2
g3
Ntp4422
Rp4423
(dp4424
g7
V114834
p4425
sg9
I27
sbag1
(g2
g3
Ntp4426
Rp4427
(dp4428
g7
V114879
p4429
sg9
I27
sbag1
(g2
g3
Ntp4430
Rp4431
(dp4432
g7
V114938
p4433
sg9
I33
sbag1
(g2
g3
Ntp4434
Rp4435
(dp4436
g7
V114967
p4437
sg9
I55
sbag1
(g2
g3
Ntp4438
Rp4439
(dp4440
g7
V114718
p4441
sg9
I30
sbag1
(g2
g3
Ntp4442
Rp4443
(dp4444
g7
V114773
p4445
sg9
I21
sbag1
(g2
g3
Ntp4446
Rp4447
(dp4448
g7
V114834
p4449
sg9
I27
sbag1
(g2
g3
Ntp4450
Rp4451
(dp4452
g7
V114879
p4453
sg9
I27
sbag1
(g2
g3
Ntp4454
Rp4455
(dp4456
g7
V114938
p4457
sg9
I33
sbag1
(g2
g3
Ntp4458
Rp4459
(dp4460
g7
V114967
p4461
sg9
I55
sbag1
(g2
g3
Ntp4462
Rp4463
(dp4464
g7
V114718
p4465
sg9
I30
sbag1
(g2
g3
Ntp4466
Rp4467
(dp4468
g7
V114773
p4469
sg9
I21
sbag1
(g2
g3
Ntp4470
Rp4471
(dp4472
g7
V114834
p4473
sg9
I27
sbag1
(g2
g3
Ntp4474
Rp4475
(dp4476
g7
V114879
p4477
sg9
I27
sbag1
(g2
g3
Ntp4478
Rp4479
(dp4480
g7
V114938
p4481
sg9
I33
sbag1
(g2
g3
Ntp4482
Rp4483
(dp4484
g7
V114967
p4485
sg9
I55
sbag1
(g2
g3
Ntp4486
Rp4487
(dp4488
g7
V114718
p4489
sg9
I30
sbag1
(g2
g3
Ntp4490
Rp4491
(dp4492
g7
V114773
p4493
sg9
I21
sbag1
(g2
g3
Ntp4494
Rp4495
(dp4496
g7
V114834
p4497
sg9
I27
sbag1
(g2
g3
Ntp4498
Rp4499
(dp4500
g7
V114879
p4501
sg9
I27
sbag1
(g2
g3
Ntp4502
Rp4503
(dp4504
g7
V114938
p4505
sg9
I33
sbag1
(g2
g3
Ntp4506
Rp4507
(dp4508
g7
V114967
p4509
sg9
I55
sbag1
(g2
g3
Ntp4510
Rp4511
(dp4512
g7
V114718
p4513
sg9
I30
sbag1
(g2
g3
Ntp4514
Rp4515
(dp4516
g7
V114773
p4517
sg9
I21
sbag1
(g2
g3
Ntp4518
Rp4519
(dp4520
g7
V114834
p4521
sg9
I27
sbag1
(g2
g3
Ntp4522
Rp4523
(dp4524
g7
V114879
p4525
sg9
I27
sbag1
(g2
g3
Ntp4526
Rp4527
(dp4528
g7
V114938
p4529
sg9
I33
sbag1
(g2
g3
Ntp4530
Rp4531
(dp4532
g7
V114967
p4533
sg9
I55
sbag1
(g2
g3
Ntp4534
Rp4535
(dp4536
g7
V114718
p4537
sg9
I30
sbag1
(g2
g3
Ntp4538
Rp4539
(dp4540
g7
V114773
p4541
sg9
I21
sbag1
(g2
g3
Ntp4542
Rp4543
(dp4544
g7
V114834
p4545
sg9
I27
sbag1
(g2
g3
Ntp4546
Rp4547
(dp4548
g7
V114879
p4549
sg9
I27
sbag1
(g2
g3
Ntp4550
Rp4551
(dp4552
g7
V114938
p4553
sg9
I33
sbag1
(g2
g3
Ntp4554
Rp4555
(dp4556
g7
V114967
p4557
sg9
I55
sbag1
(g2
g3
Ntp4558
Rp4559
(dp4560
g7
V114718
p4561
sg9
I30
sbag1
(g2
g3
Ntp4562
Rp4563
(dp4564
g7
V114773
p4565
sg9
I21
sbag1
(g2
g3
Ntp4566
Rp4567
(dp4568
g7
V114834
p4569
sg9
I27
sbag1
(g2
g3
Ntp4570
Rp4571
(dp4572
g7
V114879
p4573
sg9
I27
sbag1
(g2
g3
Ntp4574
Rp4575
(dp4576
g7
V114938
p4577
sg9
I33
sbag1
(g2
g3
Ntp4578
Rp4579
(dp4580
g7
V114967
p4581
sg9
I55
sbag1
(g2
g3
Ntp4582
Rp4583
(dp4584
g7
V114718
p4585
sg9
I30
sbag1
(g2
g3
Ntp4586
Rp4587
(dp4588
g7
V114773
p4589
sg9
I21
sbag1
(g2
g3
Ntp4590
Rp4591
(dp4592
g7
V114834
p4593
sg9
I27
sbag1
(g2
g3
Ntp4594
Rp4595
(dp4596
g7
V114879
p4597
sg9
I27
sbag1
(g2
g3
Ntp4598
Rp4599
(dp4600
g7
V114938
p4601
sg9
I33
sbag1
(g2
g3
Ntp4602
Rp4603
(dp4604
g7
V114967
p4605
sg9
I55
sbag1
(g2
g3
Ntp4606
Rp4607
(dp4608
g7
V114718
p4609
sg9
I30
sbag1
(g2
g3
Ntp4610
Rp4611
(dp4612
g7
V114773
p4613
sg9
I21
sbag1
(g2
g3
Ntp4614
Rp4615
(dp4616
g7
V114834
p4617
sg9
I27
sbag1
(g2
g3
Ntp4618
Rp4619
(dp4620
g7
V114879
p4621
sg9
I27
sbag1
(g2
g3
Ntp4622
Rp4623
(dp4624
g7
V114938
p4625
sg9
I33
sbag1
(g2
g3
Ntp4626
Rp4627
(dp4628
g7
V114967
p4629
sg9
I55
sbag1
(g2
g3
Ntp4630
Rp4631
(dp4632
g7
V114718
p4633
sg9
I30
sbag1
(g2
g3
Ntp4634
Rp4635
(dp4636
g7
V114773
p4637
sg9
I21
sbag1
(g2
g3
Ntp4638
Rp4639
(dp4640
g7
V114834
p4641
sg9
I27
sbag1
(g2
g3
Ntp4642
Rp4643
(dp4644
g7
V114879
p4645
sg9
I27
sbag1
(g2
g3
Ntp4646
Rp4647
(dp4648
g7
V114938
p4649
sg9
I33
sbag1
(g2
g3
Ntp4650
Rp4651
(dp4652
g7
V114967
p4653
sg9
I55
sbag1
(g2
g3
Ntp4654
Rp4655
(dp4656
g7
V114718
p4657
sg9
I30
sbag1
(g2
g3
Ntp4658
Rp4659
(dp4660
g7
V114773
p4661
sg9
I21
sbag1
(g2
g3
Ntp4662
Rp4663
(dp4664
g7
V114834
p4665
sg9
I27
sbag1
(g2
g3
Ntp4666
Rp4667
(dp4668
g7
V114879
p4669
sg9
I27
sbag1
(g2
g3
Ntp4670
Rp4671
(dp4672
g7
V114938
p4673
sg9
I33
sbag1
(g2
g3
Ntp4674
Rp4675
(dp4676
g7
V114967
p4677
sg9
I55
sbag1
(g2
g3
Ntp4678
Rp4679
(dp4680
g7
V114718
p4681
sg9
I30
sbag1
(g2
g3
Ntp4682
Rp4683
(dp4684
g7
V114773
p4685
sg9
I21
sbag1
(g2
g3
Ntp4686
Rp4687
(dp4688
g7
V114834
p4689
sg9
I27
sbag1
(g2
g3
Ntp4690
Rp4691
(dp4692
g7
V114879
p4693
sg9
I27
sbag1
(g2
g3
Ntp4694
Rp4695
(dp4696
g7
V114938
p4697
sg9
I33
sbag1
(g2
g3
Ntp4698
Rp4699
(dp4700
g7
V114967
p4701
sg9
I55
sbag1
(g2
g3
Ntp4702
Rp4703
(dp4704
g7
V114718
p4705
sg9
I30
sbag1
(g2
g3
Ntp4706
Rp4707
(dp4708
g7
V114773
p4709
sg9
I21
sbag1
(g2
g3
Ntp4710
Rp4711
(dp4712
g7
V114834
p4713
sg9
I27
sbag1
(g2
g3
Ntp4714
Rp4715
(dp4716
g7
V114879
p4717
sg9
I27
sbag1
(g2
g3
Ntp4718
Rp4719
(dp4720
g7
V114938
p4721
sg9
I33
sbag1
(g2
g3
Ntp4722
Rp4723
(dp4724
g7
V114967
p4725
sg9
I55
sbag1
(g2
g3
Ntp4726
Rp4727
(dp4728
g7
V114718
p4729
sg9
I30
sbag1
(g2
g3
Ntp4730
Rp4731
(dp4732
g7
V114773
p4733
sg9
I21
sbag1
(g2
g3
Ntp4734
Rp4735
(dp4736
g7
V114834
p4737
sg9
I27
sbag1
(g2
g3
Ntp4738
Rp4739
(dp4740
g7
V114879
p4741
sg9
I27
sbag1
(g2
g3
Ntp4742
Rp4743
(dp4744
g7
V114938
p4745
sg9
I33
sbag1
(g2
g3
Ntp4746
Rp4747
(dp4748
g7
V114967
p4749
sg9
I55
sbag1
(g2
g3
Ntp4750
Rp4751
(dp4752
g7
V114718
p4753
sg9
I30
sbag1
(g2
g3
Ntp4754
Rp4755
(dp4756
g7
V114773
p4757
sg9
I21
sbag1
(g2
g3
Ntp4758
Rp4759
(dp4760
g7
V114834
p4761
sg9
I27
sbag1
(g2
g3
Ntp4762
Rp4763
(dp4764
g7
V114879
p4765
sg9
I27
sbag1
(g2
g3
Ntp4766
Rp4767
(dp4768
g7
V114938
p4769
sg9
I33
sbag1
(g2
g3
Ntp4770
Rp4771
(dp4772
g7
V114967
p4773
sg9
I55
sbag1
(g2
g3
Ntp4774
Rp4775
(dp4776
g7
V114718
p4777
sg9
I30
sbag1
(g2
g3
Ntp4778
Rp4779
(dp4780
g7
V114773
p4781
sg9
I21
sbag1
(g2
g3
Ntp4782
Rp4783
(dp4784
g7
V114834
p4785
sg9
I27
sbag1
(g2
g3
Ntp4786
Rp4787
(dp4788
g7
V114879
p4789
sg9
I27
sbag1
(g2
g3
Ntp4790
Rp4791
(dp4792
g7
V114938
p4793
sg9
I33
sbag1
(g2
g3
Ntp4794
Rp4795
(dp4796
g7
V114967
p4797
sg9
I55
sbag1
(g2
g3
Ntp4798
Rp4799
(dp4800
g7
V114718
p4801
sg9
I30
sbag1
(g2
g3
Ntp4802
Rp4803
(dp4804
g7
V114773
p4805
sg9
I21
sbag1
(g2
g3
Ntp4806
Rp4807
(dp4808
g7
V114834
p4809
sg9
I27
sbag1
(g2
g3
Ntp4810
Rp4811
(dp4812
g7
V114879
p4813
sg9
I27
sbag1
(g2
g3
Ntp4814
Rp4815
(dp4816
g7
V114938
p4817
sg9
I33
sbag1
(g2
g3
Ntp4818
Rp4819
(dp4820
g7
V114967
p4821
sg9
I55
sbag1
(g2
g3
Ntp4822
Rp4823
(dp4824
g7
V114718
p4825
sg9
I30
sbag1
(g2
g3
Ntp4826
Rp4827
(dp4828
g7
V114773
p4829
sg9
I21
sbag1
(g2
g3
Ntp4830
Rp4831
(dp4832
g7
V114834
p4833
sg9
I27
sbag1
(g2
g3
Ntp4834
Rp4835
(dp4836
g7
V114879
p4837
sg9
I27
sbag1
(g2
g3
Ntp4838
Rp4839
(dp4840
g7
V114938
p4841
sg9
I33
sbag1
(g2
g3
Ntp4842
Rp4843
(dp4844
g7
V114967
p4845
sg9
I55
sbag1
(g2
g3
Ntp4846
Rp4847
(dp4848
g7
V114718
p4849
sg9
I30
sbag1
(g2
g3
Ntp4850
Rp4851
(dp4852
g7
V114773
p4853
sg9
I21
sbag1
(g2
g3
Ntp4854
Rp4855
(dp4856
g7
V114834
p4857
sg9
I27
sbag1
(g2
g3
Ntp4858
Rp4859
(dp4860
g7
V114879
p4861
sg9
I27
sbag1
(g2
g3
Ntp4862
Rp4863
(dp4864
g7
V114938
p4865
sg9
I33
sbag1
(g2
g3
Ntp4866
Rp4867
(dp4868
g7
V114967
p4869
sg9
I55
sbag1
(g2
g3
Ntp4870
Rp4871
(dp4872
g7
V114718
p4873
sg9
I30
sbag1
(g2
g3
Ntp4874
Rp4875
(dp4876
g7
V114773
p4877
sg9
I21
sbag1
(g2
g3
Ntp4878
Rp4879
(dp4880
g7
V114834
p4881
sg9
I27
sbag1
(g2
g3
Ntp4882
Rp4883
(dp4884
g7
V114879
p4885
sg9
I27
sbag1
(g2
g3
Ntp4886
Rp4887
(dp4888
g7
V114938
p4889
sg9
I33
sbag1
(g2
g3
Ntp4890
Rp4891
(dp4892
g7
V114967
p4893
sg9
I55
sbag1
(g2
g3
Ntp4894
Rp4895
(dp4896
g7
V114718
p4897
sg9
I30
sbag1
(g2
g3
Ntp4898
Rp4899
(dp4900
g7
V114773
p4901
sg9
I21
sbag1
(g2
g3
Ntp4902
Rp4903
(dp4904
g7
V114834
p4905
sg9
I27
sbag1
(g2
g3
Ntp4906
Rp4907
(dp4908
g7
V114879
p4909
sg9
I27
sbag1
(g2
g3
Ntp4910
Rp4911
(dp4912
g7
V114938
p4913
sg9
I33
sbag1
(g2
g3
Ntp4914
Rp4915
(dp4916
g7
V114967
p4917
sg9
I55
sbag1
(g2
g3
Ntp4918
Rp4919
(dp4920
g7
V115025
p4921
sg9
I42
sbag1
(g2
g3
Ntp4922
Rp4923
(dp4924
g7
V115058
p4925
sg9
I47
sbag1
(g2
g3
Ntp4926
Rp4927
(dp4928
g7
V115122
p4929
sg9
I41
sbag1
(g2
g3
Ntp4930
Rp4931
(dp4932
g7
V115255
p4933
sg9
I0
sbag1
(g2
g3
Ntp4934
Rp4935
(dp4936
g7
V115217
p4937
sg9
I26
sbag1
(g2
g3
Ntp4938
Rp4939
(dp4940
g7
V115272
p4941
sg9
I0
sbag1
(g2
g3
Ntp4942
Rp4943
(dp4944
g7
V115025
p4945
sg9
I42
sbag1
(g2
g3
Ntp4946
Rp4947
(dp4948
g7
V115058
p4949
sg9
I47
sbag1
(g2
g3
Ntp4950
Rp4951
(dp4952
g7
V115122
p4953
sg9
I41
sbag1
(g2
g3
Ntp4954
Rp4955
(dp4956
g7
V115255
p4957
sg9
I0
sbag1
(g2
g3
Ntp4958
Rp4959
(dp4960
g7
V115217
p4961
sg9
I30
sbag1
(g2
g3
Ntp4962
Rp4963
(dp4964
g7
V115272
p4965
sg9
I0
sbag1
(g2
g3
Ntp4966
Rp4967
(dp4968
g7
V115025
p4969
sg9
I42
sbag1
(g2
g3
Ntp4970
Rp4971
(dp4972
g7
V115058
p4973
sg9
I47
sbag1
(g2
g3
Ntp4974
Rp4975
(dp4976
g7
V115122
p4977
sg9
I41
sbag1
(g2
g3
Ntp4978
Rp4979
(dp4980
g7
V115217
p4981
sg9
I30
sbag1
(g2
g3
Ntp4982
Rp4983
(dp4984
g7
V115255
p4985
sg9
I6
sbag1
(g2
g3
Ntp4986
Rp4987
(dp4988
g7
V115272
p4989
sg9
I8
sbag1
(g2
g3
Ntp4990
Rp4991
(dp4992
g7
V115025
p4993
sg9
I42
sbag1
(g2
g3
Ntp4994
Rp4995
(dp4996
g7
V115058
p4997
sg9
I47
sbag1
(g2
g3
Ntp4998
Rp4999
(dp5000
g7
V115122
p5001
sg9
I41
sbag1
(g2
g3
Ntp5002
Rp5003
(dp5004
g7
V115217
p5005
sg9
I30
sbag1
(g2
g3
Ntp5006
Rp5007
(dp5008
g7
V115255
p5009
sg9
I19
sbag1
(g2
g3
Ntp5010
Rp5011
(dp5012
g7
V115272
p5013
sg9
I25
sbag1
(g2
g3
Ntp5014
Rp5015
(dp5016
g7
V115025
p5017
sg9
I42
sbag1
(g2
g3
Ntp5018
Rp5019
(dp5020
g7
V115058
p5021
sg9
I47
sbag1
(g2
g3
Ntp5022
Rp5023
(dp5024
g7
V115122
p5025
sg9
I41
sbag1
(g2
g3
Ntp5026
Rp5027
(dp5028
g7
V115217
p5029
sg9
I30
sbag1
(g2
g3
Ntp5030
Rp5031
(dp5032
g7
V115255
p5033
sg9
I40
sbag1
(g2
g3
Ntp5034
Rp5035
(dp5036
g7
V115272
p5037
sg9
I36
sbag1
(g2
g3
Ntp5038
Rp5039
(dp5040
g7
V115025
p5041
sg9
I42
sbag1
(g2
g3
Ntp5042
Rp5043
(dp5044
g7
V115058
p5045
sg9
I47
sbag1
(g2
g3
Ntp5046
Rp5047
(dp5048
g7
V115122
p5049
sg9
I41
sbag1
(g2
g3
Ntp5050
Rp5051
(dp5052
g7
V115217
p5053
sg9
I30
sbag1
(g2
g3
Ntp5054
Rp5055
(dp5056
g7
V115255
p5057
sg9
I40
sbag1
(g2
g3
Ntp5058
Rp5059
(dp5060
g7
V115272
p5061
sg9
I38
sbag1
(g2
g3
Ntp5062
Rp5063
(dp5064
g7
V115025
p5065
sg9
I42
sbag1
(g2
g3
Ntp5066
Rp5067
(dp5068
g7
V115058
p5069
sg9
I47
sbag1
(g2
g3
Ntp5070
Rp5071
(dp5072
g7
V115122
p5073
sg9
I41
sbag1
(g2
g3
Ntp5074
Rp5075
(dp5076
g7
V115217
p5077
sg9
I30
sbag1
(g2
g3
Ntp5078
Rp5079
(dp5080
g7
V115255
p5081
sg9
I40
sbag1
(g2
g3
Ntp5082
Rp5083
(dp5084
g7
V115272
p5085
sg9
I38
sbag1
(g2
g3
Ntp5086
Rp5087
(dp5088
g7
V115025
p5089
sg9
I42
sbag1
(g2
g3
Ntp5090
Rp5091
(dp5092
g7
V115058
p5093
sg9
I47
sbag1
(g2
g3
Ntp5094
Rp5095
(dp5096
g7
V115122
p5097
sg9
I41
sbag1
(g2
g3
Ntp5098
Rp5099
(dp5100
g7
V115217
p5101
sg9
I30
sbag1
(g2
g3
Ntp5102
Rp5103
(dp5104
g7
V115255
p5105
sg9
I40
sbag1
(g2
g3
Ntp5106
Rp5107
(dp5108
g7
V115272
p5109
sg9
I38
sbag1
(g2
g3
Ntp5110
Rp5111
(dp5112
g7
V115025
p5113
sg9
I42
sbag1
(g2
g3
Ntp5114
Rp5115
(dp5116
g7
V115058
p5117
sg9
I47
sbag1
(g2
g3
Ntp5118
Rp5119
(dp5120
g7
V115122
p5121
sg9
I41
sbag1
(g2
g3
Ntp5122
Rp5123
(dp5124
g7
V115217
p5125
sg9
I30
sbag1
(g2
g3
Ntp5126
Rp5127
(dp5128
g7
V115255
p5129
sg9
I40
sbag1
(g2
g3
Ntp5130
Rp5131
(dp5132
g7
V115272
p5133
sg9
I38
sbag1
(g2
g3
Ntp5134
Rp5135
(dp5136
g7
V115025
p5137
sg9
I42
sbag1
(g2
g3
Ntp5138
Rp5139
(dp5140
g7
V115058
p5141
sg9
I47
sbag1
(g2
g3
Ntp5142
Rp5143
(dp5144
g7
V115122
p5145
sg9
I41
sbag1
(g2
g3
Ntp5146
Rp5147
(dp5148
g7
V115217
p5149
sg9
I30
sbag1
(g2
g3
Ntp5150
Rp5151
(dp5152
g7
V115255
p5153
sg9
I40
sbag1
(g2
g3
Ntp5154
Rp5155
(dp5156
g7
V115272
p5157
sg9
I38
sbag1
(g2
g3
Ntp5158
Rp5159
(dp5160
g7
V115025
p5161
sg9
I42
sbag1
(g2
g3
Ntp5162
Rp5163
(dp5164
g7
V115058
p5165
sg9
I47
sbag1
(g2
g3
Ntp5166
Rp5167
(dp5168
g7
V115122
p5169
sg9
I41
sbag1
(g2
g3
Ntp5170
Rp5171
(dp5172
g7
V115217
p5173
sg9
I30
sbag1
(g2
g3
Ntp5174
Rp5175
(dp5176
g7
V115255
p5177
sg9
I40
sbag1
(g2
g3
Ntp5178
Rp5179
(dp5180
g7
V115272
p5181
sg9
I38
sbag1
(g2
g3
Ntp5182
Rp5183
(dp5184
g7
V115025
p5185
sg9
I42
sbag1
(g2
g3
Ntp5186
Rp5187
(dp5188
g7
V115058
p5189
sg9
I47
sbag1
(g2
g3
Ntp5190
Rp5191
(dp5192
g7
V115122
p5193
sg9
I41
sbag1
(g2
g3
Ntp5194
Rp5195
(dp5196
g7
V115217
p5197
sg9
I30
sbag1
(g2
g3
Ntp5198
Rp5199
(dp5200
g7
V115255
p5201
sg9
I40
sbag1
(g2
g3
Ntp5202
Rp5203
(dp5204
g7
V115272
p5205
sg9
I38
sbag1
(g2
g3
Ntp5206
Rp5207
(dp5208
g7
V115025
p5209
sg9
I42
sbag1
(g2
g3
Ntp5210
Rp5211
(dp5212
g7
V115058
p5213
sg9
I47
sbag1
(g2
g3
Ntp5214
Rp5215
(dp5216
g7
V115122
p5217
sg9
I41
sbag1
(g2
g3
Ntp5218
Rp5219
(dp5220
g7
V115217
p5221
sg9
I30
sbag1
(g2
g3
Ntp5222
Rp5223
(dp5224
g7
V115255
p5225
sg9
I40
sbag1
(g2
g3
Ntp5226
Rp5227
(dp5228
g7
V115272
p5229
sg9
I38
sbag1
(g2
g3
Ntp5230
Rp5231
(dp5232
g7
V115025
p5233
sg9
I42
sbag1
(g2
g3
Ntp5234
Rp5235
(dp5236
g7
V115058
p5237
sg9
I47
sbag1
(g2
g3
Ntp5238
Rp5239
(dp5240
g7
V115122
p5241
sg9
I41
sbag1
(g2
g3
Ntp5242
Rp5243
(dp5244
g7
V115217
p5245
sg9
I30
sbag1
(g2
g3
Ntp5246
Rp5247
(dp5248
g7
V115255
p5249
sg9
I40
sbag1
(g2
g3
Ntp5250
Rp5251
(dp5252
g7
V115272
p5253
sg9
I38
sbag1
(g2
g3
Ntp5254
Rp5255
(dp5256
g7
V115025
p5257
sg9
I42
sbag1
(g2
g3
Ntp5258
Rp5259
(dp5260
g7
V115058
p5261
sg9
I47
sbag1
(g2
g3
Ntp5262
Rp5263
(dp5264
g7
V115122
p5265
sg9
I41
sbag1
(g2
g3
Ntp5266
Rp5267
(dp5268
g7
V115217
p5269
sg9
I30
sbag1
(g2
g3
Ntp5270
Rp5271
(dp5272
g7
V115255
p5273
sg9
I40
sbag1
(g2
g3
Ntp5274
Rp5275
(dp5276
g7
V115272
p5277
sg9
I38
sbag1
(g2
g3
Ntp5278
Rp5279
(dp5280
g7
V115025
p5281
sg9
I42
sbag1
(g2
g3
Ntp5282
Rp5283
(dp5284
g7
V115058
p5285
sg9
I47
sbag1
(g2
g3
Ntp5286
Rp5287
(dp5288
g7
V115122
p5289
sg9
I41
sbag1
(g2
g3
Ntp5290
Rp5291
(dp5292
g7
V115217
p5293
sg9
I30
sbag1
(g2
g3
Ntp5294
Rp5295
(dp5296
g7
V115255
p5297
sg9
I40
sbag1
(g2
g3
Ntp5298
Rp5299
(dp5300
g7
V115272
p5301
sg9
I38
sbag1
(g2
g3
Ntp5302
Rp5303
(dp5304
g7
V115025
p5305
sg9
I42
sbag1
(g2
g3
Ntp5306
Rp5307
(dp5308
g7
V115058
p5309
sg9
I47
sbag1
(g2
g3
Ntp5310
Rp5311
(dp5312
g7
V115122
p5313
sg9
I41
sbag1
(g2
g3
Ntp5314
Rp5315
(dp5316
g7
V115217
p5317
sg9
I30
sbag1
(g2
g3
Ntp5318
Rp5319
(dp5320
g7
V115255
p5321
sg9
I40
sbag1
(g2
g3
Ntp5322
Rp5323
(dp5324
g7
V115272
p5325
sg9
I38
sbag1
(g2
g3
Ntp5326
Rp5327
(dp5328
g7
V115025
p5329
sg9
I42
sbag1
(g2
g3
Ntp5330
Rp5331
(dp5332
g7
V115058
p5333
sg9
I47
sbag1
(g2
g3
Ntp5334
Rp5335
(dp5336
g7
V115122
p5337
sg9
I41
sbag1
(g2
g3
Ntp5338
Rp5339
(dp5340
g7
V115217
p5341
sg9
I30
sbag1
(g2
g3
Ntp5342
Rp5343
(dp5344
g7
V115255
p5345
sg9
I40
sbag1
(g2
g3
Ntp5346
Rp5347
(dp5348
g7
V115272
p5349
sg9
I38
sbag1
(g2
g3
Ntp5350
Rp5351
(dp5352
g7
V115025
p5353
sg9
I42
sbag1
(g2
g3
Ntp5354
Rp5355
(dp5356
g7
V115058
p5357
sg9
I47
sbag1
(g2
g3
Ntp5358
Rp5359
(dp5360
g7
V115122
p5361
sg9
I41
sbag1
(g2
g3
Ntp5362
Rp5363
(dp5364
g7
V115217
p5365
sg9
I30
sbag1
(g2
g3
Ntp5366
Rp5367
(dp5368
g7
V115255
p5369
sg9
I40
sbag1
(g2
g3
Ntp5370
Rp5371
(dp5372
g7
V115272
p5373
sg9
I38
sbag1
(g2
g3
Ntp5374
Rp5375
(dp5376
g7
V115025
p5377
sg9
I42
sbag1
(g2
g3
Ntp5378
Rp5379
(dp5380
g7
V115058
p5381
sg9
I47
sbag1
(g2
g3
Ntp5382
Rp5383
(dp5384
g7
V115122
p5385
sg9
I41
sbag1
(g2
g3
Ntp5386
Rp5387
(dp5388
g7
V115217
p5389
sg9
I30
sbag1
(g2
g3
Ntp5390
Rp5391
(dp5392
g7
V115255
p5393
sg9
I40
sbag1
(g2
g3
Ntp5394
Rp5395
(dp5396
g7
V115272
p5397
sg9
I38
sbag1
(g2
g3
Ntp5398
Rp5399
(dp5400
g7
V115025
p5401
sg9
I42
sbag1
(g2
g3
Ntp5402
Rp5403
(dp5404
g7
V115058
p5405
sg9
I47
sbag1
(g2
g3
Ntp5406
Rp5407
(dp5408
g7
V115122
p5409
sg9
I41
sbag1
(g2
g3
Ntp5410
Rp5411
(dp5412
g7
V115217
p5413
sg9
I30
sbag1
(g2
g3
Ntp5414
Rp5415
(dp5416
g7
V115255
p5417
sg9
I40
sbag1
(g2
g3
Ntp5418
Rp5419
(dp5420
g7
V115272
p5421
sg9
I38
sbag1
(g2
g3
Ntp5422
Rp5423
(dp5424
g7
V115025
p5425
sg9
I42
sbag1
(g2
g3
Ntp5426
Rp5427
(dp5428
g7
V115058
p5429
sg9
I47
sbag1
(g2
g3
Ntp5430
Rp5431
(dp5432
g7
V115122
p5433
sg9
I41
sbag1
(g2
g3
Ntp5434
Rp5435
(dp5436
g7
V115217
p5437
sg9
I30
sbag1
(g2
g3
Ntp5438
Rp5439
(dp5440
g7
V115255
p5441
sg9
I40
sbag1
(g2
g3
Ntp5442
Rp5443
(dp5444
g7
V115272
p5445
sg9
I38
sbag1
(g2
g3
Ntp5446
Rp5447
(dp5448
g7
V115025
p5449
sg9
I42
sbag1
(g2
g3
Ntp5450
Rp5451
(dp5452
g7
V115058
p5453
sg9
I47
sbag1
(g2
g3
Ntp5454
Rp5455
(dp5456
g7
V115122
p5457
sg9
I41
sbag1
(g2
g3
Ntp5458
Rp5459
(dp5460
g7
V115217
p5461
sg9
I30
sbag1
(g2
g3
Ntp5462
Rp5463
(dp5464
g7
V115255
p5465
sg9
I40
sbag1
(g2
g3
Ntp5466
Rp5467
(dp5468
g7
V115272
p5469
sg9
I38
sbag1
(g2
g3
Ntp5470
Rp5471
(dp5472
g7
V115025
p5473
sg9
I42
sbag1
(g2
g3
Ntp5474
Rp5475
(dp5476
g7
V115058
p5477
sg9
I47
sbag1
(g2
g3
Ntp5478
Rp5479
(dp5480
g7
V115122
p5481
sg9
I41
sbag1
(g2
g3
Ntp5482
Rp5483
(dp5484
g7
V115217
p5485
sg9
I30
sbag1
(g2
g3
Ntp5486
Rp5487
(dp5488
g7
V115255
p5489
sg9
I40
sbag1
(g2
g3
Ntp5490
Rp5491
(dp5492
g7
V115272
p5493
sg9
I38
sbag1
(g2
g3
Ntp5494
Rp5495
(dp5496
g7
V115284
p5497
sg9
I58
sbag1
(g2
g3
Ntp5498
Rp5499
(dp5500
g7
V115338
p5501
sg9
I36
sbag1
(g2
g3
Ntp5502
Rp5503
(dp5504
g7
V115405
p5505
sg9
I48
sbag1
(g2
g3
Ntp5506
Rp5507
(dp5508
g7
V115467
p5509
sg9
I0
sbag1
(g2
g3
Ntp5510
Rp5511
(dp5512
g7
V115434
p5513
sg9
I54
sbag1
(g2
g3
Ntp5514
Rp5515
(dp5516
g7
V115284
p5517
sg9
I58
sbag1
(g2
g3
Ntp5518
Rp5519
(dp5520
g7
V115338
p5521
sg9
I36
sbag1
(g2
g3
Ntp5522
Rp5523
(dp5524
g7
V115405
p5525
sg9
I48
sbag1
(g2
g3
Ntp5526
Rp5527
(dp5528
g7
V115434
p5529
sg9
I54
sbag1
(g2
g3
Ntp5530
Rp5531
(dp5532
g7
V115467
p5533
sg9
I5
sbag1
(g2
g3
Ntp5534
Rp5535
(dp5536
g7
V115284
p5537
sg9
I58
sbag1
(g2
g3
Ntp5538
Rp5539
(dp5540
g7
V115338
p5541
sg9
I36
sbag1
(g2
g3
Ntp5542
Rp5543
(dp5544
g7
V115405
p5545
sg9
I48
sbag1
(g2
g3
Ntp5546
Rp5547
(dp5548
g7
V115434
p5549
sg9
I54
sbag1
(g2
g3
Ntp5550
Rp5551
(dp5552
g7
V115467
p5553
sg9
I39
sbag1
(g2
g3
Ntp5554
Rp5555
(dp5556
g7
V115284
p5557
sg9
I58
sbag1
(g2
g3
Ntp5558
Rp5559
(dp5560
g7
V115338
p5561
sg9
I36
sbag1
(g2
g3
Ntp5562
Rp5563
(dp5564
g7
V115405
p5565
sg9
I48
sbag1
(g2
g3
Ntp5566
Rp5567
(dp5568
g7
V115434
p5569
sg9
I54
sbag1
(g2
g3
Ntp5570
Rp5571
(dp5572
g7
V115467
p5573
sg9
I44
sbag1
(g2
g3
Ntp5574
Rp5575
(dp5576
g7
V115284
p5577
sg9
I58
sbag1
(g2
g3
Ntp5578
Rp5579
(dp5580
g7
V115338
p5581
sg9
I36
sbag1
(g2
g3
Ntp5582
Rp5583
(dp5584
g7
V115405
p5585
sg9
I48
sbag1
(g2
g3
Ntp5586
Rp5587
(dp5588
g7
V115434
p5589
sg9
I54
sbag1
(g2
g3
Ntp5590
Rp5591
(dp5592
g7
V115467
p5593
sg9
I44
sbag1
(g2
g3
Ntp5594
Rp5595
(dp5596
g7
V115284
p5597
sg9
I58
sbag1
(g2
g3
Ntp5598
Rp5599
(dp5600
g7
V115338
p5601
sg9
I36
sbag1
(g2
g3
Ntp5602
Rp5603
(dp5604
g7
V115405
p5605
sg9
I48
sbag1
(g2
g3
Ntp5606
Rp5607
(dp5608
g7
V115434
p5609
sg9
I54
sbag1
(g2
g3
Ntp5610
Rp5611
(dp5612
g7
V115467
p5613
sg9
I44
sbag1
(g2
g3
Ntp5614
Rp5615
(dp5616
g7
V115284
p5617
sg9
I58
sbag1
(g2
g3
Ntp5618
Rp5619
(dp5620
g7
V115338
p5621
sg9
I36
sbag1
(g2
g3
Ntp5622
Rp5623
(dp5624
g7
V115405
p5625
sg9
I48
sbag1
(g2
g3
Ntp5626
Rp5627
(dp5628
g7
V115434
p5629
sg9
I54
sbag1
(g2
g3
Ntp5630
Rp5631
(dp5632
g7
V115467
p5633
sg9
I44
sbag1
(g2
g3
Ntp5634
Rp5635
(dp5636
g7
V115284
p5637
sg9
I58
sbag1
(g2
g3
Ntp5638
Rp5639
(dp5640
g7
V115338
p5641
sg9
I36
sbag1
(g2
g3
Ntp5642
Rp5643
(dp5644
g7
V115405
p5645
sg9
I48
sbag1
(g2
g3
Ntp5646
Rp5647
(dp5648
g7
V115434
p5649
sg9
I54
sbag1
(g2
g3
Ntp5650
Rp5651
(dp5652
g7
V115467
p5653
sg9
I44
sbag1
(g2
g3
Ntp5654
Rp5655
(dp5656
g7
V115284
p5657
sg9
I58
sbag1
(g2
g3
Ntp5658
Rp5659
(dp5660
g7
V115338
p5661
sg9
I36
sbag1
(g2
g3
Ntp5662
Rp5663
(dp5664
g7
V115405
p5665
sg9
I48
sbag1
(g2
g3
Ntp5666
Rp5667
(dp5668
g7
V115434
p5669
sg9
I54
sbag1
(g2
g3
Ntp5670
Rp5671
(dp5672
g7
V115467
p5673
sg9
I44
sbag1
(g2
g3
Ntp5674
Rp5675
(dp5676
g7
V115284
p5677
sg9
I58
sbag1
(g2
g3
Ntp5678
Rp5679
(dp5680
g7
V115338
p5681
sg9
I36
sbag1
(g2
g3
Ntp5682
Rp5683
(dp5684
g7
V115405
p5685
sg9
I48
sbag1
(g2
g3
Ntp5686
Rp5687
(dp5688
g7
V115434
p5689
sg9
I54
sbag1
(g2
g3
Ntp5690
Rp5691
(dp5692
g7
V115467
p5693
sg9
I44
sbag1
(g2
g3
Ntp5694
Rp5695
(dp5696
g7
V115284
p5697
sg9
I58
sbag1
(g2
g3
Ntp5698
Rp5699
(dp5700
g7
V115338
p5701
sg9
I36
sbag1
(g2
g3
Ntp5702
Rp5703
(dp5704
g7
V115405
p5705
sg9
I48
sbag1
(g2
g3
Ntp5706
Rp5707
(dp5708
g7
V115434
p5709
sg9
I54
sbag1
(g2
g3
Ntp5710
Rp5711
(dp5712
g7
V115467
p5713
sg9
I44
sbag1
(g2
g3
Ntp5714
Rp5715
(dp5716
g7
V115284
p5717
sg9
I58
sbag1
(g2
g3
Ntp5718
Rp5719
(dp5720
g7
V115338
p5721
sg9
I36
sbag1
(g2
g3
Ntp5722
Rp5723
(dp5724
g7
V115405
p5725
sg9
I48
sbag1
(g2
g3
Ntp5726
Rp5727
(dp5728
g7
V115434
p5729
sg9
I54
sbag1
(g2
g3
Ntp5730
Rp5731
(dp5732
g7
V115467
p5733
sg9
I44
sbag1
(g2
g3
Ntp5734
Rp5735
(dp5736
g7
V115284
p5737
sg9
I58
sbag1
(g2
g3
Ntp5738
Rp5739
(dp5740
g7
V115338
p5741
sg9
I36
sbag1
(g2
g3
Ntp5742
Rp5743
(dp5744
g7
V115405
p5745
sg9
I48
sbag1
(g2
g3
Ntp5746
Rp5747
(dp5748
g7
V115434
p5749
sg9
I54
sbag1
(g2
g3
Ntp5750
Rp5751
(dp5752
g7
V115467
p5753
sg9
I44
sbag1
(g2
g3
Ntp5754
Rp5755
(dp5756
g7
V115284
p5757
sg9
I58
sbag1
(g2
g3
Ntp5758
Rp5759
(dp5760
g7
V115338
p5761
sg9
I36
sbag1
(g2
g3
Ntp5762
Rp5763
(dp5764
g7
V115405
p5765
sg9
I48
sbag1
(g2
g3
Ntp5766
Rp5767
(dp5768
g7
V115434
p5769
sg9
I54
sbag1
(g2
g3
Ntp5770
Rp5771
(dp5772
g7
V115467
p5773
sg9
I44
sbag1
(g2
g3
Ntp5774
Rp5775
(dp5776
g7
V115284
p5777
sg9
I58
sbag1
(g2
g3
Ntp5778
Rp5779
(dp5780
g7
V115338
p5781
sg9
I36
sbag1
(g2
g3
Ntp5782
Rp5783
(dp5784
g7
V115405
p5785
sg9
I48
sbag1
(g2
g3
Ntp5786
Rp5787
(dp5788
g7
V115434
p5789
sg9
I54
sbag1
(g2
g3
Ntp5790
Rp5791
(dp5792
g7
V115467
p5793
sg9
I44
sbag1
(g2
g3
Ntp5794
Rp5795
(dp5796
g7
V115284
p5797
sg9
I58
sbag1
(g2
g3
Ntp5798
Rp5799
(dp5800
g7
V115338
p5801
sg9
I36
sbag1
(g2
g3
Ntp5802
Rp5803
(dp5804
g7
V115405
p5805
sg9
I48
sbag1
(g2
g3
Ntp5806
Rp5807
(dp5808
g7
V115434
p5809
sg9
I54
sbag1
(g2
g3
Ntp5810
Rp5811
(dp5812
g7
V115467
p5813
sg9
I44
sbag1
(g2
g3
Ntp5814
Rp5815
(dp5816
g7
V115284
p5817
sg9
I58
sbag1
(g2
g3
Ntp5818
Rp5819
(dp5820
g7
V115338
p5821
sg9
I36
sbag1
(g2
g3
Ntp5822
Rp5823
(dp5824
g7
V115405
p5825
sg9
I48
sbag1
(g2
g3
Ntp5826
Rp5827
(dp5828
g7
V115434
p5829
sg9
I54
sbag1
(g2
g3
Ntp5830
Rp5831
(dp5832
g7
V115467
p5833
sg9
I44
sbag1
(g2
g3
Ntp5834
Rp5835
(dp5836
g7
V115284
p5837
sg9
I58
sbag1
(g2
g3
Ntp5838
Rp5839
(dp5840
g7
V115338
p5841
sg9
I36
sbag1
(g2
g3
Ntp5842
Rp5843
(dp5844
g7
V115405
p5845
sg9
I48
sbag1
(g2
g3
Ntp5846
Rp5847
(dp5848
g7
V115434
p5849
sg9
I54
sbag1
(g2
g3
Ntp5850
Rp5851
(dp5852
g7
V115467
p5853
sg9
I44
sbag1
(g2
g3
Ntp5854
Rp5855
(dp5856
g7
V115284
p5857
sg9
I58
sbag1
(g2
g3
Ntp5858
Rp5859
(dp5860
g7
V115338
p5861
sg9
I36
sbag1
(g2
g3
Ntp5862
Rp5863
(dp5864
g7
V115405
p5865
sg9
I48
sbag1
(g2
g3
Ntp5866
Rp5867
(dp5868
g7
V115434
p5869
sg9
I54
sbag1
(g2
g3
Ntp5870
Rp5871
(dp5872
g7
V115467
p5873
sg9
I44
sbag1
(g2
g3
Ntp5874
Rp5875
(dp5876
g7
V115284
p5877
sg9
I58
sbag1
(g2
g3
Ntp5878
Rp5879
(dp5880
g7
V115338
p5881
sg9
I36
sbag1
(g2
g3
Ntp5882
Rp5883
(dp5884
g7
V115405
p5885
sg9
I48
sbag1
(g2
g3
Ntp5886
Rp5887
(dp5888
g7
V115434
p5889
sg9
I54
sbag1
(g2
g3
Ntp5890
Rp5891
(dp5892
g7
V115467
p5893
sg9
I44
sbag1
(g2
g3
Ntp5894
Rp5895
(dp5896
g7
V115284
p5897
sg9
I58
sbag1
(g2
g3
Ntp5898
Rp5899
(dp5900
g7
V115338
p5901
sg9
I36
sbag1
(g2
g3
Ntp5902
Rp5903
(dp5904
g7
V115405
p5905
sg9
I48
sbag1
(g2
g3
Ntp5906
Rp5907
(dp5908
g7
V115434
p5909
sg9
I54
sbag1
(g2
g3
Ntp5910
Rp5911
(dp5912
g7
V115467
p5913
sg9
I44
sbag1
(g2
g3
Ntp5914
Rp5915
(dp5916
g7
V115284
p5917
sg9
I58
sbag1
(g2
g3
Ntp5918
Rp5919
(dp5920
g7
V115338
p5921
sg9
I36
sbag1
(g2
g3
Ntp5922
Rp5923
(dp5924
g7
V115405
p5925
sg9
I48
sbag1
(g2
g3
Ntp5926
Rp5927
(dp5928
g7
V115434
p5929
sg9
I54
sbag1
(g2
g3
Ntp5930
Rp5931
(dp5932
g7
V115467
p5933
sg9
I44
sbag1
(g2
g3
Ntp5934
Rp5935
(dp5936
g7
V115284
p5937
sg9
I58
sbag1
(g2
g3
Ntp5938
Rp5939
(dp5940
g7
V115338
p5941
sg9
I36
sbag1
(g2
g3
Ntp5942
Rp5943
(dp5944
g7
V115405
p5945
sg9
I48
sbag1
(g2
g3
Ntp5946
Rp5947
(dp5948
g7
V115434
p5949
sg9
I54
sbag1
(g2
g3
Ntp5950
Rp5951
(dp5952
g7
V115467
p5953
sg9
I44
sbag1
(g2
g3
Ntp5954
Rp5955
(dp5956
g7
V115284
p5957
sg9
I58
sbag1
(g2
g3
Ntp5958
Rp5959
(dp5960
g7
V115338
p5961
sg9
I36
sbag1
(g2
g3
Ntp5962
Rp5963
(dp5964
g7
V115405
p5965
sg9
I48
sbag1
(g2
g3
Ntp5966
Rp5967
(dp5968
g7
V115434
p5969
sg9
I54
sbag1
(g2
g3
Ntp5970
Rp5971
(dp5972
g7
V115467
p5973
sg9
I44
sbag1
(g2
g3
Ntp5974
Rp5975
(dp5976
g7
V115515
p5977
sg9
I41
sbag1
(g2
g3
Ntp5978
Rp5979
(dp5980
g7
V115535
p5981
sg9
I41
sbag1
(g2
g3
Ntp5982
Rp5983
(dp5984
g7
V115551
p5985
sg9
I64
sbag1
(g2
g3
Ntp5986
Rp5987
(dp5988
g7
V115572
p5989
sg9
I54
sbag1
(g2
g3
Ntp5990
Rp5991
(dp5992
g7
V115671
p5993
sg9
I30
sbag1
(g2
g3
Ntp5994
Rp5995
(dp5996
g7
V115756
p5997
sg9
I37
sbag1
(g2
g3
Ntp5998
Rp5999
(dp6000
g7
V115515
p6001
sg9
I41
sbag1
(g2
g3
Ntp6002
Rp6003
(dp6004
g7
V115535
p6005
sg9
I41
sbag1
(g2
g3
Ntp6006
Rp6007
(dp6008
g7
V115551
p6009
sg9
I64
sbag1
(g2
g3
Ntp6010
Rp6011
(dp6012
g7
V115572
p6013
sg9
I54
sbag1
(g2
g3
Ntp6014
Rp6015
(dp6016
g7
V115671
p6017
sg9
I30
sbag1
(g2
g3
Ntp6018
Rp6019
(dp6020
g7
V115756
p6021
sg9
I37
sbag1
(g2
g3
Ntp6022
Rp6023
(dp6024
g7
V115515
p6025
sg9
I41
sbag1
(g2
g3
Ntp6026
Rp6027
(dp6028
g7
V115535
p6029
sg9
I41
sbag1
(g2
g3
Ntp6030
Rp6031
(dp6032
g7
V115551
p6033
sg9
I64
sbag1
(g2
g3
Ntp6034
Rp6035
(dp6036
g7
V115572
p6037
sg9
I54
sbag1
(g2
g3
Ntp6038
Rp6039
(dp6040
g7
V115671
p6041
sg9
I30
sbag1
(g2
g3
Ntp6042
Rp6043
(dp6044
g7
V115756
p6045
sg9
I37
sbag1
(g2
g3
Ntp6046
Rp6047
(dp6048
g7
V115515
p6049
sg9
I41
sbag1
(g2
g3
Ntp6050
Rp6051
(dp6052
g7
V115535
p6053
sg9
I41
sbag1
(g2
g3
Ntp6054
Rp6055
(dp6056
g7
V115551
p6057
sg9
I64
sbag1
(g2
g3
Ntp6058
Rp6059
(dp6060
g7
V115572
p6061
sg9
I54
sbag1
(g2
g3
Ntp6062
Rp6063
(dp6064
g7
V115671
p6065
sg9
I30
sbag1
(g2
g3
Ntp6066
Rp6067
(dp6068
g7
V115756
p6069
sg9
I37
sbag1
(g2
g3
Ntp6070
Rp6071
(dp6072
g7
V115515
p6073
sg9
I41
sbag1
(g2
g3
Ntp6074
Rp6075
(dp6076
g7
V115535
p6077
sg9
I41
sbag1
(g2
g3
Ntp6078
Rp6079
(dp6080
g7
V115551
p6081
sg9
I64
sbag1
(g2
g3
Ntp6082
Rp6083
(dp6084
g7
V115572
p6085
sg9
I54
sbag1
(g2
g3
Ntp6086
Rp6087
(dp6088
g7
V115671
p6089
sg9
I30
sbag1
(g2
g3
Ntp6090
Rp6091
(dp6092
g7
V115756
p6093
sg9
I37
sbag1
(g2
g3
Ntp6094
Rp6095
(dp6096
g7
V115515
p6097
sg9
I41
sbag1
(g2
g3
Ntp6098
Rp6099
(dp6100
g7
V115535
p6101
sg9
I41
sbag1
(g2
g3
Ntp6102
Rp6103
(dp6104
g7
V115551
p6105
sg9
I64
sbag1
(g2
g3
Ntp6106
Rp6107
(dp6108
g7
V115572
p6109
sg9
I54
sbag1
(g2
g3
Ntp6110
Rp6111
(dp6112
g7
V115671
p6113
sg9
I30
sbag1
(g2
g3
Ntp6114
Rp6115
(dp6116
g7
V115756
p6117
sg9
I37
sbag1
(g2
g3
Ntp6118
Rp6119
(dp6120
g7
V115515
p6121
sg9
I41
sbag1
(g2
g3
Ntp6122
Rp6123
(dp6124
g7
V115535
p6125
sg9
I41
sbag1
(g2
g3
Ntp6126
Rp6127
(dp6128
g7
V115551
p6129
sg9
I64
sbag1
(g2
g3
Ntp6130
Rp6131
(dp6132
g7
V115572
p6133
sg9
I54
sbag1
(g2
g3
Ntp6134
Rp6135
(dp6136
g7
V115671
p6137
sg9
I30
sbag1
(g2
g3
Ntp6138
Rp6139
(dp6140
g7
V115756
p6141
sg9
I37
sbag1
(g2
g3
Ntp6142
Rp6143
(dp6144
g7
V115515
p6145
sg9
I41
sbag1
(g2
g3
Ntp6146
Rp6147
(dp6148
g7
V115535
p6149
sg9
I41
sbag1
(g2
g3
Ntp6150
Rp6151
(dp6152
g7
V115551
p6153
sg9
I64
sbag1
(g2
g3
Ntp6154
Rp6155
(dp6156
g7
V115572
p6157
sg9
I54
sbag1
(g2
g3
Ntp6158
Rp6159
(dp6160
g7
V115671
p6161
sg9
I30
sbag1
(g2
g3
Ntp6162
Rp6163
(dp6164
g7
V115756
p6165
sg9
I37
sbag1
(g2
g3
Ntp6166
Rp6167
(dp6168
g7
V115515
p6169
sg9
I41
sbag1
(g2
g3
Ntp6170
Rp6171
(dp6172
g7
V115535
p6173
sg9
I41
sbag1
(g2
g3
Ntp6174
Rp6175
(dp6176
g7
V115551
p6177
sg9
I64
sbag1
(g2
g3
Ntp6178
Rp6179
(dp6180
g7
V115572
p6181
sg9
I54
sbag1
(g2
g3
Ntp6182
Rp6183
(dp6184
g7
V115671
p6185
sg9
I30
sbag1
(g2
g3
Ntp6186
Rp6187
(dp6188
g7
V115756
p6189
sg9
I37
sbag1
(g2
g3
Ntp6190
Rp6191
(dp6192
g7
V115515
p6193
sg9
I41
sbag1
(g2
g3
Ntp6194
Rp6195
(dp6196
g7
V115535
p6197
sg9
I41
sbag1
(g2
g3
Ntp6198
Rp6199
(dp6200
g7
V115551
p6201
sg9
I64
sbag1
(g2
g3
Ntp6202
Rp6203
(dp6204
g7
V115572
p6205
sg9
I54
sbag1
(g2
g3
Ntp6206
Rp6207
(dp6208
g7
V115671
p6209
sg9
I30
sbag1
(g2
g3
Ntp6210
Rp6211
(dp6212
g7
V115756
p6213
sg9
I37
sbag1
(g2
g3
Ntp6214
Rp6215
(dp6216
g7
V115515
p6217
sg9
I41
sbag1
(g2
g3
Ntp6218
Rp6219
(dp6220
g7
V115535
p6221
sg9
I41
sbag1
(g2
g3
Ntp6222
Rp6223
(dp6224
g7
V115551
p6225
sg9
I64
sbag1
(g2
g3
Ntp6226
Rp6227
(dp6228
g7
V115572
p6229
sg9
I54
sbag1
(g2
g3
Ntp6230
Rp6231
(dp6232
g7
V115671
p6233
sg9
I30
sbag1
(g2
g3
Ntp6234
Rp6235
(dp6236
g7
V115756
p6237
sg9
I37
sbag1
(g2
g3
Ntp6238
Rp6239
(dp6240
g7
V115515
p6241
sg9
I41
sbag1
(g2
g3
Ntp6242
Rp6243
(dp6244
g7
V115535
p6245
sg9
I41
sbag1
(g2
g3
Ntp6246
Rp6247
(dp6248
g7
V115551
p6249
sg9
I64
sbag1
(g2
g3
Ntp6250
Rp6251
(dp6252
g7
V115572
p6253
sg9
I54
sbag1
(g2
g3
Ntp6254
Rp6255
(dp6256
g7
V115671
p6257
sg9
I30
sbag1
(g2
g3
Ntp6258
Rp6259
(dp6260
g7
V115756
p6261
sg9
I37
sbag1
(g2
g3
Ntp6262
Rp6263
(dp6264
g7
V115515
p6265
sg9
I41
sbag1
(g2
g3
Ntp6266
Rp6267
(dp6268
g7
V115535
p6269
sg9
I41
sbag1
(g2
g3
Ntp6270
Rp6271
(dp6272
g7
V115551
p6273
sg9
I64
sbag1
(g2
g3
Ntp6274
Rp6275
(dp6276
g7
V115572
p6277
sg9
I54
sbag1
(g2
g3
Ntp6278
Rp6279
(dp6280
g7
V115671
p6281
sg9
I30
sbag1
(g2
g3
Ntp6282
Rp6283
(dp6284
g7
V115756
p6285
sg9
I37
sbag1
(g2
g3
Ntp6286
Rp6287
(dp6288
g7
V115515
p6289
sg9
I41
sbag1
(g2
g3
Ntp6290
Rp6291
(dp6292
g7
V115535
p6293
sg9
I41
sbag1
(g2
g3
Ntp6294
Rp6295
(dp6296
g7
V115551
p6297
sg9
I64
sbag1
(g2
g3
Ntp6298
Rp6299
(dp6300
g7
V115572
p6301
sg9
I54
sbag1
(g2
g3
Ntp6302
Rp6303
(dp6304
g7
V115671
p6305
sg9
I30
sbag1
(g2
g3
Ntp6306
Rp6307
(dp6308
g7
V115756
p6309
sg9
I37
sbag1
(g2
g3
Ntp6310
Rp6311
(dp6312
g7
V115515
p6313
sg9
I41
sbag1
(g2
g3
Ntp6314
Rp6315
(dp6316
g7
V115535
p6317
sg9
I41
sbag1
(g2
g3
Ntp6318
Rp6319
(dp6320
g7
V115551
p6321
sg9
I64
sbag1
(g2
g3
Ntp6322
Rp6323
(dp6324
g7
V115572
p6325
sg9
I54
sbag1
(g2
g3
Ntp6326
Rp6327
(dp6328
g7
V115671
p6329
sg9
I30
sbag1
(g2
g3
Ntp6330
Rp6331
(dp6332
g7
V115756
p6333
sg9
I37
sbag1
(g2
g3
Ntp6334
Rp6335
(dp6336
g7
V115515
p6337
sg9
I41
sbag1
(g2
g3
Ntp6338
Rp6339
(dp6340
g7
V115535
p6341
sg9
I41
sbag1
(g2
g3
Ntp6342
Rp6343
(dp6344
g7
V115551
p6345
sg9
I64
sbag1
(g2
g3
Ntp6346
Rp6347
(dp6348
g7
V115572
p6349
sg9
I54
sbag1
(g2
g3
Ntp6350
Rp6351
(dp6352
g7
V115671
p6353
sg9
I30
sbag1
(g2
g3
Ntp6354
Rp6355
(dp6356
g7
V115756
p6357
sg9
I37
sbag1
(g2
g3
Ntp6358
Rp6359
(dp6360
g7
V115515
p6361
sg9
I41
sbag1
(g2
g3
Ntp6362
Rp6363
(dp6364
g7
V115535
p6365
sg9
I41
sbag1
(g2
g3
Ntp6366
Rp6367
(dp6368
g7
V115551
p6369
sg9
I64
sbag1
(g2
g3
Ntp6370
Rp6371
(dp6372
g7
V115572
p6373
sg9
I54
sbag1
(g2
g3
Ntp6374
Rp6375
(dp6376
g7
V115671
p6377
sg9
I30
sbag1
(g2
g3
Ntp6378
Rp6379
(dp6380
g7
V115756
p6381
sg9
I37
sbag1
(g2
g3
Ntp6382
Rp6383
(dp6384
g7
V115515
p6385
sg9
I41
sbag1
(g2
g3
Ntp6386
Rp6387
(dp6388
g7
V115535
p6389
sg9
I41
sbag1
(g2
g3
Ntp6390
Rp6391
(dp6392
g7
V115551
p6393
sg9
I64
sbag1
(g2
g3
Ntp6394
Rp6395
(dp6396
g7
V115572
p6397
sg9
I54
sbag1
(g2
g3
Ntp6398
Rp6399
(dp6400
g7
V115671
p6401
sg9
I30
sbag1
(g2
g3
Ntp6402
Rp6403
(dp6404
g7
V115756
p6405
sg9
I37
sbag1
(g2
g3
Ntp6406
Rp6407
(dp6408
g7
V115515
p6409
sg9
I41
sbag1
(g2
g3
Ntp6410
Rp6411
(dp6412
g7
V115535
p6413
sg9
I41
sbag1
(g2
g3
Ntp6414
Rp6415
(dp6416
g7
V115551
p6417
sg9
I64
sbag1
(g2
g3
Ntp6418
Rp6419
(dp6420
g7
V115572
p6421
sg9
I54
sbag1
(g2
g3
Ntp6422
Rp6423
(dp6424
g7
V115671
p6425
sg9
I30
sbag1
(g2
g3
Ntp6426
Rp6427
(dp6428
g7
V115756
p6429
sg9
I37
sbag1
(g2
g3
Ntp6430
Rp6431
(dp6432
g7
V115515
p6433
sg9
I41
sbag1
(g2
g3
Ntp6434
Rp6435
(dp6436
g7
V115535
p6437
sg9
I41
sbag1
(g2
g3
Ntp6438
Rp6439
(dp6440
g7
V115551
p6441
sg9
I64
sbag1
(g2
g3
Ntp6442
Rp6443
(dp6444
g7
V115572
p6445
sg9
I54
sbag1
(g2
g3
Ntp6446
Rp6447
(dp6448
g7
V115671
p6449
sg9
I30
sbag1
(g2
g3
Ntp6450
Rp6451
(dp6452
g7
V115756
p6453
sg9
I37
sbag1
(g2
g3
Ntp6454
Rp6455
(dp6456
g7
V115515
p6457
sg9
I41
sbag1
(g2
g3
Ntp6458
Rp6459
(dp6460
g7
V115535
p6461
sg9
I41
sbag1
(g2
g3
Ntp6462
Rp6463
(dp6464
g7
V115551
p6465
sg9
I64
sbag1
(g2
g3
Ntp6466
Rp6467
(dp6468
g7
V115572
p6469
sg9
I54
sbag1
(g2
g3
Ntp6470
Rp6471
(dp6472
g7
V115671
p6473
sg9
I30
sbag1
(g2
g3
Ntp6474
Rp6475
(dp6476
g7
V115756
p6477
sg9
I37
sbag1
(g2
g3
Ntp6478
Rp6479
(dp6480
g7
V115515
p6481
sg9
I41
sbag1
(g2
g3
Ntp6482
Rp6483
(dp6484
g7
V115535
p6485
sg9
I41
sbag1
(g2
g3
Ntp6486
Rp6487
(dp6488
g7
V115551
p6489
sg9
I64
sbag1
(g2
g3
Ntp6490
Rp6491
(dp6492
g7
V115572
p6493
sg9
I54
sbag1
(g2
g3
Ntp6494
Rp6495
(dp6496
g7
V115671
p6497
sg9
I30
sbag1
(g2
g3
Ntp6498
Rp6499
(dp6500
g7
V115756
p6501
sg9
I37
sbag1
(g2
g3
Ntp6502
Rp6503
(dp6504
g7
V115515
p6505
sg9
I41
sbag1
(g2
g3
Ntp6506
Rp6507
(dp6508
g7
V115535
p6509
sg9
I41
sbag1
(g2
g3
Ntp6510
Rp6511
(dp6512
g7
V115551
p6513
sg9
I64
sbag1
(g2
g3
Ntp6514
Rp6515
(dp6516
g7
V115572
p6517
sg9
I54
sbag1
(g2
g3
Ntp6518
Rp6519
(dp6520
g7
V115671
p6521
sg9
I30
sbag1
(g2
g3
Ntp6522
Rp6523
(dp6524
g7
V115756
p6525
sg9
I37
sbag1
(g2
g3
Ntp6526
Rp6527
(dp6528
g7
V115515
p6529
sg9
I41
sbag1
(g2
g3
Ntp6530
Rp6531
(dp6532
g7
V115535
p6533
sg9
I41
sbag1
(g2
g3
Ntp6534
Rp6535
(dp6536
g7
V115551
p6537
sg9
I64
sbag1
(g2
g3
Ntp6538
Rp6539
(dp6540
g7
V115572
p6541
sg9
I54
sbag1
(g2
g3
Ntp6542
Rp6543
(dp6544
g7
V115671
p6545
sg9
I30
sbag1
(g2
g3
Ntp6546
Rp6547
(dp6548
g7
V115756
p6549
sg9
I37
sbag1
(g2
g3
Ntp6550
Rp6551
(dp6552
g7
V115857
p6553
sg9
I40
sbag1
(g2
g3
Ntp6554
Rp6555
(dp6556
g7
V115857
p6557
sg9
I40
sbag1
(g2
g3
Ntp6558
Rp6559
(dp6560
g7
V115857
p6561
sg9
I40
sbag1
(g2
g3
Ntp6562
Rp6563
(dp6564
g7
V115857
p6565
sg9
I40
sbag1
(g2
g3
Ntp6566
Rp6567
(dp6568
g7
V115857
p6569
sg9
I40
sbag1
(g2
g3
Ntp6570
Rp6571
(dp6572
g7
V115857
p6573
sg9
I40
sbag1
(g2
g3
Ntp6574
Rp6575
(dp6576
g7
V115857
p6577
sg9
I40
sbag1
(g2
g3
Ntp6578
Rp6579
(dp6580
g7
V115857
p6581
sg9
I40
sbag1
(g2
g3
Ntp6582
Rp6583
(dp6584
g7
V115857
p6585
sg9
I40
sbag1
(g2
g3
Ntp6586
Rp6587
(dp6588
g7
V115857
p6589
sg9
I40
sbag1
(g2
g3
Ntp6590
Rp6591
(dp6592
g7
V115857
p6593
sg9
I40
sbag1
(g2
g3
Ntp6594
Rp6595
(dp6596
g7
V115857
p6597
sg9
I40
sbag1
(g2
g3
Ntp6598
Rp6599
(dp6600
g7
V115857
p6601
sg9
I40
sbag1
(g2
g3
Ntp6602
Rp6603
(dp6604
g7
V115857
p6605
sg9
I40
sbag1
(g2
g3
Ntp6606
Rp6607
(dp6608
g7
V115857
p6609
sg9
I40
sbag1
(g2
g3
Ntp6610
Rp6611
(dp6612
g7
V115857
p6613
sg9
I40
sbag1
(g2
g3
Ntp6614
Rp6615
(dp6616
g7
V115857
p6617
sg9
I40
sbag1
(g2
g3
Ntp6618
Rp6619
(dp6620
g7
V115857
p6621
sg9
I40
sbag1
(g2
g3
Ntp6622
Rp6623
(dp6624
g7
V115857
p6625
sg9
I40
sbag1
(g2
g3
Ntp6626
Rp6627
(dp6628
g7
V115857
p6629
sg9
I40
sbag1
(g2
g3
Ntp6630
Rp6631
(dp6632
g7
V115857
p6633
sg9
I40
sbag1
(g2
g3
Ntp6634
Rp6635
(dp6636
g7
V115857
p6637
sg9
I40
sbag1
(g2
g3
Ntp6638
Rp6639
(dp6640
g7
V115857
p6641
sg9
I40
sbag1
(g2
g3
Ntp6642
Rp6643
(dp6644
g7
V115857
p6645
sg9
I40
sbag1
(g2
g3
Ntp6646
Rp6647
(dp6648
g7
V115910
p6649
sg9
I43
sbag1
(g2
g3
Ntp6650
Rp6651
(dp6652
g7
V115910
p6653
sg9
I43
sbag1
(g2
g3
Ntp6654
Rp6655
(dp6656
g7
V115910
p6657
sg9
I43
sbag1
(g2
g3
Ntp6658
Rp6659
(dp6660
g7
V115910
p6661
sg9
I43
sbag1
(g2
g3
Ntp6662
Rp6663
(dp6664
g7
V115910
p6665
sg9
I43
sbag1
(g2
g3
Ntp6666
Rp6667
(dp6668
g7
V115910
p6669
sg9
I43
sbag1
(g2
g3
Ntp6670
Rp6671
(dp6672
g7
V115910
p6673
sg9
I43
sbag1
(g2
g3
Ntp6674
Rp6675
(dp6676
g7
V115910
p6677
sg9
I43
sbag1
(g2
g3
Ntp6678
Rp6679
(dp6680
g7
V115910
p6681
sg9
I43
sbag1
(g2
g3
Ntp6682
Rp6683
(dp6684
g7
V115910
p6685
sg9
I43
sbag1
(g2
g3
Ntp6686
Rp6687
(dp6688
g7
V115910
p6689
sg9
I43
sbag1
(g2
g3
Ntp6690
Rp6691
(dp6692
g7
V115910
p6693
sg9
I43
sbag1
(g2
g3
Ntp6694
Rp6695
(dp6696
g7
V115910
p6697
sg9
I43
sbag1
(g2
g3
Ntp6698
Rp6699
(dp6700
g7
V115910
p6701
sg9
I43
sbag1
(g2
g3
Ntp6702
Rp6703
(dp6704
g7
V115910
p6705
sg9
I43
sbag1
(g2
g3
Ntp6706
Rp6707
(dp6708
g7
V115910
p6709
sg9
I43
sbag1
(g2
g3
Ntp6710
Rp6711
(dp6712
g7
V115910
p6713
sg9
I43
sbag1
(g2
g3
Ntp6714
Rp6715
(dp6716
g7
V115910
p6717
sg9
I43
sbag1
(g2
g3
Ntp6718
Rp6719
(dp6720
g7
V115910
p6721
sg9
I43
sbag1
(g2
g3
Ntp6722
Rp6723
(dp6724
g7
V115910
p6725
sg9
I43
sbag1
(g2
g3
Ntp6726
Rp6727
(dp6728
g7
V115910
p6729
sg9
I43
sbag1
(g2
g3
Ntp6730
Rp6731
(dp6732
g7
V115910
p6733
sg9
I43
sbag1
(g2
g3
Ntp6734
Rp6735
(dp6736
g7
V115910
p6737
sg9
I43
sbag1
(g2
g3
Ntp6738
Rp6739
(dp6740
g7
V115910
p6741
sg9
I43
sbag1
(g2
g3
Ntp6742
Rp6743
(dp6744
g7
V116170
p6745
sg9
I39
sbag1
(g2
g3
Ntp6746
Rp6747
(dp6748
g7
V116270
p6749
sg9
I51
sbag1
(g2
g3
Ntp6750
Rp6751
(dp6752
g7
V116170
p6753
sg9
I39
sbag1
(g2
g3
Ntp6754
Rp6755
(dp6756
g7
V116270
p6757
sg9
I51
sbag1
(g2
g3
Ntp6758
Rp6759
(dp6760
g7
V116170
p6761
sg9
I39
sbag1
(g2
g3
Ntp6762
Rp6763
(dp6764
g7
V116270
p6765
sg9
I51
sbag1
(g2
g3
Ntp6766
Rp6767
(dp6768
g7
V116170
p6769
sg9
I39
sbag1
(g2
g3
Ntp6770
Rp6771
(dp6772
g7
V116270
p6773
sg9
I51
sbag1
(g2
g3
Ntp6774
Rp6775
(dp6776
g7
V116170
p6777
sg9
I39
sbag1
(g2
g3
Ntp6778
Rp6779
(dp6780
g7
V116270
p6781
sg9
I51
sbag1
(g2
g3
Ntp6782
Rp6783
(dp6784
g7
V116170
p6785
sg9
I39
sbag1
(g2
g3
Ntp6786
Rp6787
(dp6788
g7
V116270
p6789
sg9
I51
sbag1
(g2
g3
Ntp6790
Rp6791
(dp6792
g7
V116170
p6793
sg9
I39
sbag1
(g2
g3
Ntp6794
Rp6795
(dp6796
g7
V116270
p6797
sg9
I51
sbag1
(g2
g3
Ntp6798
Rp6799
(dp6800
g7
V116170
p6801
sg9
I39
sbag1
(g2
g3
Ntp6802
Rp6803
(dp6804
g7
V116270
p6805
sg9
I51
sbag1
(g2
g3
Ntp6806
Rp6807
(dp6808
g7
V116170
p6809
sg9
I39
sbag1
(g2
g3
Ntp6810
Rp6811
(dp6812
g7
V116270
p6813
sg9
I51
sbag1
(g2
g3
Ntp6814
Rp6815
(dp6816
g7
V116170
p6817
sg9
I39
sbag1
(g2
g3
Ntp6818
Rp6819
(dp6820
g7
V116270
p6821
sg9
I51
sbag1
(g2
g3
Ntp6822
Rp6823
(dp6824
g7
V116170
p6825
sg9
I39
sbag1
(g2
g3
Ntp6826
Rp6827
(dp6828
g7
V116270
p6829
sg9
I51
sbag1
(g2
g3
Ntp6830
Rp6831
(dp6832
g7
V116170
p6833
sg9
I39
sbag1
(g2
g3
Ntp6834
Rp6835
(dp6836
g7
V116270
p6837
sg9
I51
sbag1
(g2
g3
Ntp6838
Rp6839
(dp6840
g7
V116170
p6841
sg9
I39
sbag1
(g2
g3
Ntp6842
Rp6843
(dp6844
g7
V116270
p6845
sg9
I51
sbag1
(g2
g3
Ntp6846
Rp6847
(dp6848
g7
V116170
p6849
sg9
I39
sbag1
(g2
g3
Ntp6850
Rp6851
(dp6852
g7
V116270
p6853
sg9
I51
sbag1
(g2
g3
Ntp6854
Rp6855
(dp6856
g7
V116170
p6857
sg9
I39
sbag1
(g2
g3
Ntp6858
Rp6859
(dp6860
g7
V116270
p6861
sg9
I51
sbag1
(g2
g3
Ntp6862
Rp6863
(dp6864
g7
V116170
p6865
sg9
I39
sbag1
(g2
g3
Ntp6866
Rp6867
(dp6868
g7
V116270
p6869
sg9
I51
sbag1
(g2
g3
Ntp6870
Rp6871
(dp6872
g7
V116170
p6873
sg9
I39
sbag1
(g2
g3
Ntp6874
Rp6875
(dp6876
g7
V116270
p6877
sg9
I51
sbag1
(g2
g3
Ntp6878
Rp6879
(dp6880
g7
V116170
p6881
sg9
I39
sbag1
(g2
g3
Ntp6882
Rp6883
(dp6884
g7
V116270
p6885
sg9
I51
sbag1
(g2
g3
Ntp6886
Rp6887
(dp6888
g7
V116170
p6889
sg9
I39
sbag1
(g2
g3
Ntp6890
Rp6891
(dp6892
g7
V116270
p6893
sg9
I51
sbag1
(g2
g3
Ntp6894
Rp6895
(dp6896
g7
V116170
p6897
sg9
I39
sbag1
(g2
g3
Ntp6898
Rp6899
(dp6900
g7
V116270
p6901
sg9
I51
sbag1
(g2
g3
Ntp6902
Rp6903
(dp6904
g7
V116170
p6905
sg9
I39
sbag1
(g2
g3
Ntp6906
Rp6907
(dp6908
g7
V116270
p6909
sg9
I51
sbag1
(g2
g3
Ntp6910
Rp6911
(dp6912
g7
V116170
p6913
sg9
I39
sbag1
(g2
g3
Ntp6914
Rp6915
(dp6916
g7
V116270
p6917
sg9
I51
sbag1
(g2
g3
Ntp6918
Rp6919
(dp6920
g7
V116170
p6921
sg9
I39
sbag1
(g2
g3
Ntp6922
Rp6923
(dp6924
g7
V116270
p6925
sg9
I51
sbag1
(g2
g3
Ntp6926
Rp6927
(dp6928
g7
V116170
p6929
sg9
I39
sbag1
(g2
g3
Ntp6930
Rp6931
(dp6932
g7
V116270
p6933
sg9
I51
sbag1
(g2
g3
Ntp6934
Rp6935
(dp6936
g7
V116296
p6937
sg9
I35
sbag1
(g2
g3
Ntp6938
Rp6939
(dp6940
g7
V116310
p6941
sg9
I31
sbag1
(g2
g3
Ntp6942
Rp6943
(dp6944
g7
V116367
p6945
sg9
I30
sbag1
(g2
g3
Ntp6946
Rp6947
(dp6948
g7
V116432
p6949
sg9
I35
sbag1
(g2
g3
Ntp6950
Rp6951
(dp6952
g7
V116521
p6953
sg9
I0
sbag1
(g2
g3
Ntp6954
Rp6955
(dp6956
g7
V116474
p6957
sg9
I110
sbag1
(g2
g3
Ntp6958
Rp6959
(dp6960
g7
V116296
p6961
sg9
I35
sbag1
(g2
g3
Ntp6962
Rp6963
(dp6964
g7
V116310
p6965
sg9
I31
sbag1
(g2
g3
Ntp6966
Rp6967
(dp6968
g7
V116367
p6969
sg9
I30
sbag1
(g2
g3
Ntp6970
Rp6971
(dp6972
g7
V116432
p6973
sg9
I35
sbag1
(g2
g3
Ntp6974
Rp6975
(dp6976
g7
V116521
p6977
sg9
I0
sbag1
(g2
g3
Ntp6978
Rp6979
(dp6980
g7
V116474
p6981
sg9
I110
sbag1
(g2
g3
Ntp6982
Rp6983
(dp6984
g7
V116296
p6985
sg9
I35
sbag1
(g2
g3
Ntp6986
Rp6987
(dp6988
g7
V116310
p6989
sg9
I31
sbag1
(g2
g3
Ntp6990
Rp6991
(dp6992
g7
V116367
p6993
sg9
I30
sbag1
(g2
g3
Ntp6994
Rp6995
(dp6996
g7
V116432
p6997
sg9
I35
sbag1
(g2
g3
Ntp6998
Rp6999
(dp7000
g7
V116474
p7001
sg9
I110
sbag1
(g2
g3
Ntp7002
Rp7003
(dp7004
g7
V116521
p7005
sg9
I5
sbag1
(g2
g3
Ntp7006
Rp7007
(dp7008
g7
V116296
p7009
sg9
I35
sbag1
(g2
g3
Ntp7010
Rp7011
(dp7012
g7
V116310
p7013
sg9
I31
sbag1
(g2
g3
Ntp7014
Rp7015
(dp7016
g7
V116367
p7017
sg9
I30
sbag1
(g2
g3
Ntp7018
Rp7019
(dp7020
g7
V116432
p7021
sg9
I35
sbag1
(g2
g3
Ntp7022
Rp7023
(dp7024
g7
V116474
p7025
sg9
I110
sbag1
(g2
g3
Ntp7026
Rp7027
(dp7028
g7
V116521
p7029
sg9
I21
sbag1
(g2
g3
Ntp7030
Rp7031
(dp7032
g7
V116296
p7033
sg9
I35
sbag1
(g2
g3
Ntp7034
Rp7035
(dp7036
g7
V116310
p7037
sg9
I31
sbag1
(g2
g3
Ntp7038
Rp7039
(dp7040
g7
V116367
p7041
sg9
I30
sbag1
(g2
g3
Ntp7042
Rp7043
(dp7044
g7
V116432
p7045
sg9
I35
sbag1
(g2
g3
Ntp7046
Rp7047
(dp7048
g7
V116474
p7049
sg9
I110
sbag1
(g2
g3
Ntp7050
Rp7051
(dp7052
g7
V116521
p7053
sg9
I31
sbag1
(g2
g3
Ntp7054
Rp7055
(dp7056
g7
V116296
p7057
sg9
I35
sbag1
(g2
g3
Ntp7058
Rp7059
(dp7060
g7
V116310
p7061
sg9
I31
sbag1
(g2
g3
Ntp7062
Rp7063
(dp7064
g7
V116367
p7065
sg9
I30
sbag1
(g2
g3
Ntp7066
Rp7067
(dp7068
g7
V116432
p7069
sg9
I35
sbag1
(g2
g3
Ntp7070
Rp7071
(dp7072
g7
V116474
p7073
sg9
I110
sbag1
(g2
g3
Ntp7074
Rp7075
(dp7076
g7
V116521
p7077
sg9
I31
sbag1
(g2
g3
Ntp7078
Rp7079
(dp7080
g7
V116296
p7081
sg9
I35
sbag1
(g2
g3
Ntp7082
Rp7083
(dp7084
g7
V116310
p7085
sg9
I31
sbag1
(g2
g3
Ntp7086
Rp7087
(dp7088
g7
V116367
p7089
sg9
I30
sbag1
(g2
g3
Ntp7090
Rp7091
(dp7092
g7
V116432
p7093
sg9
I35
sbag1
(g2
g3
Ntp7094
Rp7095
(dp7096
g7
V116474
p7097
sg9
I110
sbag1
(g2
g3
Ntp7098
Rp7099
(dp7100
g7
V116521
p7101
sg9
I31
sbag1
(g2
g3
Ntp7102
Rp7103
(dp7104
g7
V116296
p7105
sg9
I35
sbag1
(g2
g3
Ntp7106
Rp7107
(dp7108
g7
V116310
p7109
sg9
I31
sbag1
(g2
g3
Ntp7110
Rp7111
(dp7112
g7
V116367
p7113
sg9
I30
sbag1
(g2
g3
Ntp7114
Rp7115
(dp7116
g7
V116432
p7117
sg9
I35
sbag1
(g2
g3
Ntp7118
Rp7119
(dp7120
g7
V116474
p7121
sg9
I110
sbag1
(g2
g3
Ntp7122
Rp7123
(dp7124
g7
V116521
p7125
sg9
I31
sbag1
(g2
g3
Ntp7126
Rp7127
(dp7128
g7
V116296
p7129
sg9
I35
sbag1
(g2
g3
Ntp7130
Rp7131
(dp7132
g7
V116310
p7133
sg9
I31
sbag1
(g2
g3
Ntp7134
Rp7135
(dp7136
g7
V116367
p7137
sg9
I30
sbag1
(g2
g3
Ntp7138
Rp7139
(dp7140
g7
V116432
p7141
sg9
I35
sbag1
(g2
g3
Ntp7142
Rp7143
(dp7144
g7
V116474
p7145
sg9
I110
sbag1
(g2
g3
Ntp7146
Rp7147
(dp7148
g7
V116521
p7149
sg9
I31
sbag1
(g2
g3
Ntp7150
Rp7151
(dp7152
g7
V116296
p7153
sg9
I35
sbag1
(g2
g3
Ntp7154
Rp7155
(dp7156
g7
V116310
p7157
sg9
I31
sbag1
(g2
g3
Ntp7158
Rp7159
(dp7160
g7
V116367
p7161
sg9
I30
sbag1
(g2
g3
Ntp7162
Rp7163
(dp7164
g7
V116432
p7165
sg9
I35
sbag1
(g2
g3
Ntp7166
Rp7167
(dp7168
g7
V116474
p7169
sg9
I110
sbag1
(g2
g3
Ntp7170
Rp7171
(dp7172
g7
V116521
p7173
sg9
I31
sbag1
(g2
g3
Ntp7174
Rp7175
(dp7176
g7
V116296
p7177
sg9
I35
sbag1
(g2
g3
Ntp7178
Rp7179
(dp7180
g7
V116310
p7181
sg9
I31
sbag1
(g2
g3
Ntp7182
Rp7183
(dp7184
g7
V116367
p7185
sg9
I30
sbag1
(g2
g3
Ntp7186
Rp7187
(dp7188
g7
V116432
p7189
sg9
I35
sbag1
(g2
g3
Ntp7190
Rp7191
(dp7192
g7
V116474
p7193
sg9
I110
sbag1
(g2
g3
Ntp7194
Rp7195
(dp7196
g7
V116521
p7197
sg9
I31
sbag1
(g2
g3
Ntp7198
Rp7199
(dp7200
g7
V116296
p7201
sg9
I35
sbag1
(g2
g3
Ntp7202
Rp7203
(dp7204
g7
V116310
p7205
sg9
I31
sbag1
(g2
g3
Ntp7206
Rp7207
(dp7208
g7
V116367
p7209
sg9
I30
sbag1
(g2
g3
Ntp7210
Rp7211
(dp7212
g7
V116432
p7213
sg9
I35
sbag1
(g2
g3
Ntp7214
Rp7215
(dp7216
g7
V116474
p7217
sg9
I110
sbag1
(g2
g3
Ntp7218
Rp7219
(dp7220
g7
V116521
p7221
sg9
I31
sbag1
(g2
g3
Ntp7222
Rp7223
(dp7224
g7
V116296
p7225
sg9
I35
sbag1
(g2
g3
Ntp7226
Rp7227
(dp7228
g7
V116310
p7229
sg9
I31
sbag1
(g2
g3
Ntp7230
Rp7231
(dp7232
g7
V116367
p7233
sg9
I30
sbag1
(g2
g3
Ntp7234
Rp7235
(dp7236
g7
V116432
p7237
sg9
I35
sbag1
(g2
g3
Ntp7238
Rp7239
(dp7240
g7
V116474
p7241
sg9
I110
sbag1
(g2
g3
Ntp7242
Rp7243
(dp7244
g7
V116521
p7245
sg9
I31
sbag1
(g2
g3
Ntp7246
Rp7247
(dp7248
g7
V116296
p7249
sg9
I35
sbag1
(g2
g3
Ntp7250
Rp7251
(dp7252
g7
V116310
p7253
sg9
I31
sbag1
(g2
g3
Ntp7254
Rp7255
(dp7256
g7
V116367
p7257
sg9
I30
sbag1
(g2
g3
Ntp7258
Rp7259
(dp7260
g7
V116432
p7261
sg9
I35
sbag1
(g2
g3
Ntp7262
Rp7263
(dp7264
g7
V116474
p7265
sg9
I110
sbag1
(g2
g3
Ntp7266
Rp7267
(dp7268
g7
V116521
p7269
sg9
I31
sbag1
(g2
g3
Ntp7270
Rp7271
(dp7272
g7
V116296
p7273
sg9
I35
sbag1
(g2
g3
Ntp7274
Rp7275
(dp7276
g7
V116310
p7277
sg9
I31
sbag1
(g2
g3
Ntp7278
Rp7279
(dp7280
g7
V116367
p7281
sg9
I30
sbag1
(g2
g3
Ntp7282
Rp7283
(dp7284
g7
V116432
p7285
sg9
I35
sbag1
(g2
g3
Ntp7286
Rp7287
(dp7288
g7
V116474
p7289
sg9
I110
sbag1
(g2
g3
Ntp7290
Rp7291
(dp7292
g7
V116521
p7293
sg9
I31
sbag1
(g2
g3
Ntp7294
Rp7295
(dp7296
g7
V116296
p7297
sg9
I35
sbag1
(g2
g3
Ntp7298
Rp7299
(dp7300
g7
V116310
p7301
sg9
I31
sbag1
(g2
g3
Ntp7302
Rp7303
(dp7304
g7
V116367
p7305
sg9
I30
sbag1
(g2
g3
Ntp7306
Rp7307
(dp7308
g7
V116432
p7309
sg9
I35
sbag1
(g2
g3
Ntp7310
Rp7311
(dp7312
g7
V116474
p7313
sg9
I110
sbag1
(g2
g3
Ntp7314
Rp7315
(dp7316
g7
V116521
p7317
sg9
I31
sbag1
(g2
g3
Ntp7318
Rp7319
(dp7320
g7
V116296
p7321
sg9
I35
sbag1
(g2
g3
Ntp7322
Rp7323
(dp7324
g7
V116310
p7325
sg9
I31
sbag1
(g2
g3
Ntp7326
Rp7327
(dp7328
g7
V116367
p7329
sg9
I30
sbag1
(g2
g3
Ntp7330
Rp7331
(dp7332
g7
V116432
p7333
sg9
I35
sbag1
(g2
g3
Ntp7334
Rp7335
(dp7336
g7
V116474
p7337
sg9
I110
sbag1
(g2
g3
Ntp7338
Rp7339
(dp7340
g7
V116521
p7341
sg9
I31
sbag1
(g2
g3
Ntp7342
Rp7343
(dp7344
g7
V116296
p7345
sg9
I35
sbag1
(g2
g3
Ntp7346
Rp7347
(dp7348
g7
V116310
p7349
sg9
I31
sbag1
(g2
g3
Ntp7350
Rp7351
(dp7352
g7
V116367
p7353
sg9
I30
sbag1
(g2
g3
Ntp7354
Rp7355
(dp7356
g7
V116432
p7357
sg9
I35
sbag1
(g2
g3
Ntp7358
Rp7359
(dp7360
g7
V116474
p7361
sg9
I110
sbag1
(g2
g3
Ntp7362
Rp7363
(dp7364
g7
V116521
p7365
sg9
I31
sbag1
(g2
g3
Ntp7366
Rp7367
(dp7368
g7
V116296
p7369
sg9
I35
sbag1
(g2
g3
Ntp7370
Rp7371
(dp7372
g7
V116310
p7373
sg9
I31
sbag1
(g2
g3
Ntp7374
Rp7375
(dp7376
g7
V116367
p7377
sg9
I30
sbag1
(g2
g3
Ntp7378
Rp7379
(dp7380
g7
V116432
p7381
sg9
I35
sbag1
(g2
g3
Ntp7382
Rp7383
(dp7384
g7
V116474
p7385
sg9
I110
sbag1
(g2
g3
Ntp7386
Rp7387
(dp7388
g7
V116521
p7389
sg9
I31
sbag1
(g2
g3
Ntp7390
Rp7391
(dp7392
g7
V116296
p7393
sg9
I35
sbag1
(g2
g3
Ntp7394
Rp7395
(dp7396
g7
V116310
p7397
sg9
I31
sbag1
(g2
g3
Ntp7398
Rp7399
(dp7400
g7
V116367
p7401
sg9
I30
sbag1
(g2
g3
Ntp7402
Rp7403
(dp7404
g7
V116432
p7405
sg9
I35
sbag1
(g2
g3
Ntp7406
Rp7407
(dp7408
g7
V116474
p7409
sg9
I110
sbag1
(g2
g3
Ntp7410
Rp7411
(dp7412
g7
V116521
p7413
sg9
I31
sbag1
(g2
g3
Ntp7414
Rp7415
(dp7416
g7
V116296
p7417
sg9
I35
sbag1
(g2
g3
Ntp7418
Rp7419
(dp7420
g7
V116310
p7421
sg9
I31
sbag1
(g2
g3
Ntp7422
Rp7423
(dp7424
g7
V116367
p7425
sg9
I30
sbag1
(g2
g3
Ntp7426
Rp7427
(dp7428
g7
V116432
p7429
sg9
I35
sbag1
(g2
g3
Ntp7430
Rp7431
(dp7432
g7
V116474
p7433
sg9
I110
sbag1
(g2
g3
Ntp7434
Rp7435
(dp7436
g7
V116521
p7437
sg9
I31
sbag1
(g2
g3
Ntp7438
Rp7439
(dp7440
g7
V116296
p7441
sg9
I35
sbag1
(g2
g3
Ntp7442
Rp7443
(dp7444
g7
V116310
p7445
sg9
I31
sbag1
(g2
g3
Ntp7446
Rp7447
(dp7448
g7
V116367
p7449
sg9
I30
sbag1
(g2
g3
Ntp7450
Rp7451
(dp7452
g7
V116432
p7453
sg9
I35
sbag1
(g2
g3
Ntp7454
Rp7455
(dp7456
g7
V116474
p7457
sg9
I110
sbag1
(g2
g3
Ntp7458
Rp7459
(dp7460
g7
V116521
p7461
sg9
I31
sbag1
(g2
g3
Ntp7462
Rp7463
(dp7464
g7
V116296
p7465
sg9
I35
sbag1
(g2
g3
Ntp7466
Rp7467
(dp7468
g7
V116310
p7469
sg9
I31
sbag1
(g2
g3
Ntp7470
Rp7471
(dp7472
g7
V116367
p7473
sg9
I30
sbag1
(g2
g3
Ntp7474
Rp7475
(dp7476
g7
V116432
p7477
sg9
I35
sbag1
(g2
g3
Ntp7478
Rp7479
(dp7480
g7
V116474
p7481
sg9
I110
sbag1
(g2
g3
Ntp7482
Rp7483
(dp7484
g7
V116521
p7485
sg9
I31
sbag1
(g2
g3
Ntp7486
Rp7487
(dp7488
g7
V116296
p7489
sg9
I35
sbag1
(g2
g3
Ntp7490
Rp7491
(dp7492
g7
V116310
p7493
sg9
I31
sbag1
(g2
g3
Ntp7494
Rp7495
(dp7496
g7
V116367
p7497
sg9
I30
sbag1
(g2
g3
Ntp7498
Rp7499
(dp7500
g7
V116432
p7501
sg9
I35
sbag1
(g2
g3
Ntp7502
Rp7503
(dp7504
g7
V116474
p7505
sg9
I110
sbag1
(g2
g3
Ntp7506
Rp7507
(dp7508
g7
V116521
p7509
sg9
I31
sbag1
(g2
g3
Ntp7510
Rp7511
(dp7512
g7
V116584
p7513
sg9
I32
sbag1
(g2
g3
Ntp7514
Rp7515
(dp7516
g7
V116620
p7517
sg9
I36
sbag1
(g2
g3
Ntp7518
Rp7519
(dp7520
g7
V116644
p7521
sg9
I36
sbag1
(g2
g3
Ntp7522
Rp7523
(dp7524
g7
V116747
p7525
sg9
I24
sbag1
(g2
g3
Ntp7526
Rp7527
(dp7528
g7
V116584
p7529
sg9
I32
sbag1
(g2
g3
Ntp7530
Rp7531
(dp7532
g7
V116620
p7533
sg9
I36
sbag1
(g2
g3
Ntp7534
Rp7535
(dp7536
g7
V116644
p7537
sg9
I36
sbag1
(g2
g3
Ntp7538
Rp7539
(dp7540
g7
V116747
p7541
sg9
I39
sbag1
(g2
g3
Ntp7542
Rp7543
(dp7544
g7
V116584
p7545
sg9
I32
sbag1
(g2
g3
Ntp7546
Rp7547
(dp7548
g7
V116620
p7549
sg9
I36
sbag1
(g2
g3
Ntp7550
Rp7551
(dp7552
g7
V116644
p7553
sg9
I36
sbag1
(g2
g3
Ntp7554
Rp7555
(dp7556
g7
V116747
p7557
sg9
I46
sbag1
(g2
g3
Ntp7558
Rp7559
(dp7560
g7
V116584
p7561
sg9
I32
sbag1
(g2
g3
Ntp7562
Rp7563
(dp7564
g7
V116620
p7565
sg9
I36
sbag1
(g2
g3
Ntp7566
Rp7567
(dp7568
g7
V116644
p7569
sg9
I36
sbag1
(g2
g3
Ntp7570
Rp7571
(dp7572
g7
V116747
p7573
sg9
I50
sbag1
(g2
g3
Ntp7574
Rp7575
(dp7576
g7
V116584
p7577
sg9
I32
sbag1
(g2
g3
Ntp7578
Rp7579
(dp7580
g7
V116620
p7581
sg9
I36
sbag1
(g2
g3
Ntp7582
Rp7583
(dp7584
g7
V116644
p7585
sg9
I36
sbag1
(g2
g3
Ntp7586
Rp7587
(dp7588
g7
V116747
p7589
sg9
I50
sbag1
(g2
g3
Ntp7590
Rp7591
(dp7592
g7
V116584
p7593
sg9
I32
sbag1
(g2
g3
Ntp7594
Rp7595
(dp7596
g7
V116620
p7597
sg9
I36
sbag1
(g2
g3
Ntp7598
Rp7599
(dp7600
g7
V116644
p7601
sg9
I36
sbag1
(g2
g3
Ntp7602
Rp7603
(dp7604
g7
V116747
p7605
sg9
I50
sbag1
(g2
g3
Ntp7606
Rp7607
(dp7608
g7
V116584
p7609
sg9
I32
sbag1
(g2
g3
Ntp7610
Rp7611
(dp7612
g7
V116620
p7613
sg9
I36
sbag1
(g2
g3
Ntp7614
Rp7615
(dp7616
g7
V116644
p7617
sg9
I36
sbag1
(g2
g3
Ntp7618
Rp7619
(dp7620
g7
V116747
p7621
sg9
I50
sbag1
(g2
g3
Ntp7622
Rp7623
(dp7624
g7
V116584
p7625
sg9
I32
sbag1
(g2
g3
Ntp7626
Rp7627
(dp7628
g7
V116620
p7629
sg9
I36
sbag1
(g2
g3
Ntp7630
Rp7631
(dp7632
g7
V116644
p7633
sg9
I36
sbag1
(g2
g3
Ntp7634
Rp7635
(dp7636
g7
V116747
p7637
sg9
I50
sbag1
(g2
g3
Ntp7638
Rp7639
(dp7640
g7
V116584
p7641
sg9
I32
sbag1
(g2
g3
Ntp7642
Rp7643
(dp7644
g7
V116620
p7645
sg9
I36
sbag1
(g2
g3
Ntp7646
Rp7647
(dp7648
g7
V116644
p7649
sg9
I36
sbag1
(g2
g3
Ntp7650
Rp7651
(dp7652
g7
V116747
p7653
sg9
I50
sbag1
(g2
g3
Ntp7654
Rp7655
(dp7656
g7
V116584
p7657
sg9
I32
sbag1
(g2
g3
Ntp7658
Rp7659
(dp7660
g7
V116620
p7661
sg9
I36
sbag1
(g2
g3
Ntp7662
Rp7663
(dp7664
g7
V116644
p7665
sg9
I36
sbag1
(g2
g3
Ntp7666
Rp7667
(dp7668
g7
V116747
p7669
sg9
I50
sbag1
(g2
g3
Ntp7670
Rp7671
(dp7672
g7
V116584
p7673
sg9
I32
sbag1
(g2
g3
Ntp7674
Rp7675
(dp7676
g7
V116620
p7677
sg9
I36
sbag1
(g2
g3
Ntp7678
Rp7679
(dp7680
g7
V116644
p7681
sg9
I36
sbag1
(g2
g3
Ntp7682
Rp7683
(dp7684
g7
V116747
p7685
sg9
I50
sbag1
(g2
g3
Ntp7686
Rp7687
(dp7688
g7
V116584
p7689
sg9
I32
sbag1
(g2
g3
Ntp7690
Rp7691
(dp7692
g7
V116620
p7693
sg9
I36
sbag1
(g2
g3
Ntp7694
Rp7695
(dp7696
g7
V116644
p7697
sg9
I36
sbag1
(g2
g3
Ntp7698
Rp7699
(dp7700
g7
V116747
p7701
sg9
I50
sbag1
(g2
g3
Ntp7702
Rp7703
(dp7704
g7
V116584
p7705
sg9
I32
sbag1
(g2
g3
Ntp7706
Rp7707
(dp7708
g7
V116620
p7709
sg9
I36
sbag1
(g2
g3
Ntp7710
Rp7711
(dp7712
g7
V116644
p7713
sg9
I36
sbag1
(g2
g3
Ntp7714
Rp7715
(dp7716
g7
V116747
p7717
sg9
I50
sbag1
(g2
g3
Ntp7718
Rp7719
(dp7720
g7
V116584
p7721
sg9
I32
sbag1
(g2
g3
Ntp7722
Rp7723
(dp7724
g7
V116620
p7725
sg9
I36
sbag1
(g2
g3
Ntp7726
Rp7727
(dp7728
g7
V116644
p7729
sg9
I36
sbag1
(g2
g3
Ntp7730
Rp7731
(dp7732
g7
V116747
p7733
sg9
I50
sbag1
(g2
g3
Ntp7734
Rp7735
(dp7736
g7
V116584
p7737
sg9
I32
sbag1
(g2
g3
Ntp7738
Rp7739
(dp7740
g7
V116620
p7741
sg9
I36
sbag1
(g2
g3
Ntp7742
Rp7743
(dp7744
g7
V116644
p7745
sg9
I36
sbag1
(g2
g3
Ntp7746
Rp7747
(dp7748
g7
V116747
p7749
sg9
I50
sbag1
(g2
g3
Ntp7750
Rp7751
(dp7752
g7
V116584
p7753
sg9
I32
sbag1
(g2
g3
Ntp7754
Rp7755
(dp7756
g7
V116620
p7757
sg9
I36
sbag1
(g2
g3
Ntp7758
Rp7759
(dp7760
g7
V116644
p7761
sg9
I36
sbag1
(g2
g3
Ntp7762
Rp7763
(dp7764
g7
V116747
p7765
sg9
I50
sbag1
(g2
g3
Ntp7766
Rp7767
(dp7768
g7
V116584
p7769
sg9
I32
sbag1
(g2
g3
Ntp7770
Rp7771
(dp7772
g7
V116620
p7773
sg9
I36
sbag1
(g2
g3
Ntp7774
Rp7775
(dp7776
g7
V116644
p7777
sg9
I36
sbag1
(g2
g3
Ntp7778
Rp7779
(dp7780
g7
V116747
p7781
sg9
I50
sbag1
(g2
g3
Ntp7782
Rp7783
(dp7784
g7
V116584
p7785
sg9
I32
sbag1
(g2
g3
Ntp7786
Rp7787
(dp7788
g7
V116620
p7789
sg9
I36
sbag1
(g2
g3
Ntp7790
Rp7791
(dp7792
g7
V116644
p7793
sg9
I36
sbag1
(g2
g3
Ntp7794
Rp7795
(dp7796
g7
V116747
p7797
sg9
I50
sbag1
(g2
g3
Ntp7798
Rp7799
(dp7800
g7
V116584
p7801
sg9
I32
sbag1
(g2
g3
Ntp7802
Rp7803
(dp7804
g7
V116620
p7805
sg9
I36
sbag1
(g2
g3
Ntp7806
Rp7807
(dp7808
g7
V116644
p7809
sg9
I36
sbag1
(g2
g3
Ntp7810
Rp7811
(dp7812
g7
V116747
p7813
sg9
I50
sbag1
(g2
g3
Ntp7814
Rp7815
(dp7816
g7
V116584
p7817
sg9
I32
sbag1
(g2
g3
Ntp7818
Rp7819
(dp7820
g7
V116620
p7821
sg9
I36
sbag1
(g2
g3
Ntp7822
Rp7823
(dp7824
g7
V116644
p7825
sg9
I36
sbag1
(g2
g3
Ntp7826
Rp7827
(dp7828
g7
V116747
p7829
sg9
I50
sbag1
(g2
g3
Ntp7830
Rp7831
(dp7832
g7
V116584
p7833
sg9
I32
sbag1
(g2
g3
Ntp7834
Rp7835
(dp7836
g7
V116620
p7837
sg9
I36
sbag1
(g2
g3
Ntp7838
Rp7839
(dp7840
g7
V116644
p7841
sg9
I36
sbag1
(g2
g3
Ntp7842
Rp7843
(dp7844
g7
V116747
p7845
sg9
I50
sbag1
(g2
g3
Ntp7846
Rp7847
(dp7848
g7
V116584
p7849
sg9
I32
sbag1
(g2
g3
Ntp7850
Rp7851
(dp7852
g7
V116620
p7853
sg9
I36
sbag1
(g2
g3
Ntp7854
Rp7855
(dp7856
g7
V116644
p7857
sg9
I36
sbag1
(g2
g3
Ntp7858
Rp7859
(dp7860
g7
V116747
p7861
sg9
I50
sbag1
(g2
g3
Ntp7862
Rp7863
(dp7864
g7
V116584
p7865
sg9
I32
sbag1
(g2
g3
Ntp7866
Rp7867
(dp7868
g7
V116620
p7869
sg9
I36
sbag1
(g2
g3
Ntp7870
Rp7871
(dp7872
g7
V116644
p7873
sg9
I36
sbag1
(g2
g3
Ntp7874
Rp7875
(dp7876
g7
V116747
p7877
sg9
I50
sbag1
(g2
g3
Ntp7878
Rp7879
(dp7880
g7
V116584
p7881
sg9
I32
sbag1
(g2
g3
Ntp7882
Rp7883
(dp7884
g7
V116620
p7885
sg9
I36
sbag1
(g2
g3
Ntp7886
Rp7887
(dp7888
g7
V116644
p7889
sg9
I36
sbag1
(g2
g3
Ntp7890
Rp7891
(dp7892
g7
V116747
p7893
sg9
I50
sba.