(lp0
Vtc_197_802_optimized_gw_selection_attach_pgw_selected_by_sapc.LWG
p1
aVtc_267_734_Service_Request__CS_paging_while_waiting_for_Modify_Bearer_Response_S1_Reset_wf_extended_service_req.LW
p2
aVtc_262_1103_imsi_attach_volte_bearer_gauge_create_session_response_with_new_qci.LW
p3
aVtc_320_074_attach_ptmsi_inter_sgsn_with_imsi.LWG
p4
aVtc_278_450_Inter_TAU_Old_MME__Ecm_Idle_Sgs_CS_Paging_Call_while_wait_for_context_ack.LW
p5
aVtc_367_001_pgw_reselection_tau_inter_new_without_qci_1_bearer_reactivate.LW
p6
aVtc_263_532_ReAttach_Flow_mt_sms_while_waiting_for_attach_complete.LWG
p7
aVtc_284_328_deactivate_1_default_bearer_of_last_active_pdn_while_1_pdn_is_creating_and_wf_modify_bearer_response.LWG
p8
aVtc_92_05_50_pm_job_all_counters.LWG
p9
aVtc_364_203_af_duration_expires_for_ue_trace_session.LWG
p10
aVtc_196_182_nrspca_during_the_same_nsapi_sgsn_initiate_pdp_deactivation_rab_release.LW
p11
aVtc_298_442_ms_init_deact_ef_delicated_bearer_deact_rab_release_interfered_by_nrspca_with_same_nsapi.LW
p12
aVtc_358_041_lte_iterator_EF_Erab_Release_Indication_wf_delete_session_response.LWG
p13
aVtc_96_067_intra_sgsn_intra_psho_wf_ho_complete_interfered_by_camel_release.LWG
p14
aVtc_218_354_tau_from_sgsn__mt_call_while_wf_ue_contexte_release_complete.LWG
p15
aVtc_367_105_pgw_reselection_ho_no_ims_pdn.LWG
p16
aVtc_241_1691_intra_rau_with_sgw_change_interferred_by_Iu_release_before_create_rsp.LWG
p17
aVtc_225_920_mt_sms_idle_mode__sgs_sms_paging_wf_service_request.LWG
p18
aVtc_310_333_ef_dbr_wf_srvcc_ps_to_cs_response_and_forward_relocation_response.LWG
p19
aVtc_278_450_Inter_TAU_Old_MME__Ecm_Idle_Sgs_CS_Paging_Call_while_wait_for_context_ack.LWG
p20
aVtc_310_335_ef_dbr_non_voice_bearer_wf_forward_relocation_complete_and_forward_relocation_complete_ack.LWG
p21
aVtc_367_152_pgw_reselection_irat_Gn_ho_with_qci_1_delete_session_response_error_reattach_required.LWG
p22
aVtc_358_121_lte_international_roaming_user_reject_intra_handover_unrestricted_ip_area_to_irr_nrr_ip_area.LW
p23
aVtc_357_330_gsm_local_user_intra_rau_non_ip_area_to_ip_area_with_one_pdp_activated_in_target_ip_area.LWG
p24
aVtc_283_065_MME_Deactivate_Bearer__Delete_Bearer_Request_while_wf_Delete_Bearer_Request_two_pdn_one_bearer_same.LW
p25
aVtc_12_18_combined_attach_ptmsi_ciphering_timeout.LWG
p26
aVtc_578_49_check_parse_ebm_with_filter.LWG
p27
aVtc_369_010_ecm_idle__notification_reachability_userstate_locationinfo_timezone__idr_flags.LWG
p28
aVtc_217_200_rau_to_sgsn__mt_call_wf_sgsn_context_ack.LWG
p29
aVtc_262_932_attach_reject_with_cc27__attach_req_with_apn_and_esm_infor_no_apn.LWG
p30
aVtc_314_046_sgsn_init_qos_modification_handover_l_to_w_interrupt_by_reset_no_UBR.LW
p31
aVtc_357_428_wcdma_international_roaming_user_inter_relocation_target_in_irr_ip_area_reject.LW
p32
aVtc_96_068_intra_sgsn_intra_psho_wf_ho_complete_timeout_interfered_by_camel_release.LWG
p33
aVtc_92_06_10_pm_job_log_content.LWG
p34
aVtc_26_180_israu_upgrade_negotiated_to_requested_and_update_payload_not_save_action.LWG
p35
aVtc_202_610_3gpp_move__job_stopped_before_ue_moved.LWG
p36
aVtc_256_410_mme_eps_srvcc_ho_source_cs_only__mt_sms_wf_srvcc_ps_to_cs_response_ignore_downlink_unit_data.LW
p37
aVtc_214_1234_sgsap_alert_then_s1_release_interferred_by_sgsap_paging_sms_then_interferred_by_combined_tau.LW
p38
aVtc_369_008_ecm_idle__userstate__mobile_reachable_timer_expired__idr_flags.LWG
p39
aVtc_369_073_update_bearer_request_during_waiting_location_report__idr_flags_ef.LW
p40
aVtc_367_158_pgw_reselection_ho_with_qci_1_erab_release_failed_reactivate_requested.LW
p41
aVtc_357_440_wcdma_local_user_attach_to_ip_area_without_pdp.LW
p42
aVtc_218_551_tau_from_sgsn_combined__subscription_cancelled_with_subscription_withdrawn_wf_location_update_response.LW
p43
aVtc_203_453_mme_eps_handover_source__sms_paging_wf_forward_relocation_response.LWG
p44
aVtc_367_117_pgw_reselection_ho_2_ims_pdn_all_qci_1_sgw_send_dbr.LW
p45
aVtc_369_003_notification_during_intra_mme_tau__idr_flags.LWG
p46
aVtc_367_104_pgw_reselection_ho_pgw_not_change.LWG
p47
aVtc_263_530_ReAttach_Flow_mt_sms_while_waiting_for_create_session_response.LW
p48
aVtc_202_51_3gpp_move_cs_paging_wf_release_access_bearer_response.LW
p49
aVtc_262_933_attach_reject_with_cc33__attach_req_and_esm_infor_both_without_apn.LW
p50
aVtc_26_225_downlink_paging_interfered_by_delete_subscriber_data.LW
p51
aVtc_358_043_lte_iterator_EF_Service_Request_wf_delete_session_response.LW
p52
aVtc_578_10_01_check_ss7_status.LWG
p53
aVtc_11_761_dualstack_apn_redirect_requested_ipv4v6_subscribed_ipv4v6_dsg_true.LW
p54
aVtc_306_1106_ef_seamless_move_target_ecm_connected_receive_sgs_paging_with_sms_indicator_wf_paging_hold.LWG
p55
aVtc_203_452_mme_eps_handover_source_inter__cancell_type_imsi_attach_with_combined_attach.LW
p56
aVtc_369_116_HSS_based_PCSCF_restoration_ecm_idle_feature_off.LWG
p57
aVtc_263_414_Attach_Flow_in_ecm_connected__HSS_Init_QoS_Modification_wf_Initial_Context_Setup_Response.LWG
p58
aVtc_364_215_af_imei_attach_reject.LWG
p59
aVtc_284_337_deactivate_1_default_bearer_of_last_active_pdn_while_2_pdn_is_creating.LW
p60
aVtc_26_229_iu_release_when_waiting_for_rab_assignment_response_gn.LW
p61
aVtc_366_025_intra_ISC_G2L_tau_national_roaming_user_reject_ip_area_to_irr_nrr_ip_area.LWG
p62
aVtc_358_024_lte_add_source_tai_into_ip_area_when_x2_handover_ongoing.LW
p63
aVtc_197_806_optimized_gw_selection_attach_wcdma.LWG
p64
aVtc_280_032_create_dedicated_bearers_qci_counters__qci10_and_qci254.LWG
p65
aVtc_196_180_nrspca_during_the_same_nsapi_ms_initiate_pdp_deactivation_rab_release.LW
p66
aVtc_263_510_Attach_Flow__mt_sms_while_waiting_for_create_session_response.LW
p67
aVtc_237_420_mme_af_eps_irat_ho_source__cs_paging_wf_forward_relocation_response.LW
p68
aVtc_369_054_detach_request_with_switch_off_during_waitng_for_location_report__idr_flags_ef.LWG
p69
aVtc_295_302_Intra_S1_HO_MT_SMS_while_wf_Handover_Notify.LWG
p70
aVtc_364_214_af_trigger_hits_before_UE_id_is_known_wcdma.LW
p71
aVtc_284_334_deactivate_1_default_bearer_of_not_last_active_pdn_while_1_pdn_is_creating_and_wf_modify_bearer_response.LWG
p72
aVtc_306_723_ef_seamless_move_by_mme_ue_ecm_connected_wf_forward_relocation_response_interfered_by_sms_paging.LW
p73
aVtc_241_1686_intra_rau_with_sgw_change_interferred_by_reset_before_create_rsp_paging_fail.LW
p74
aVtc_358_108_lte_international_roaming_user_reject_intra_tau_ip_area_to_another_irr_nrr_ip_area.LW
p75
aVtc_320_077_attach_imsi_rau_ptmsi.LWG
p76
aVtc_358_046_lte_iterator_EF_Attach_Request_wf_delete_session_response.LWG
p77
aVtc_335_48_wifi_to_mobility_in_ecm_idle_unknown_user_af__more_than_1_cell_infos_from_wic__one_timeout_from_eNB.LW
p78
aVtc_358_107_lte_international_roaming_user_intra_tau_normally_between_same_ip_area.LW
p79
aVtc_214_631_combined_attach_MSC_selection_in_pool_then_paging_delete_MSC_La.LW
p80
aVtc_358_135_lte_local_user_inter_tau_old_in_ip_area_goto_stable_after_tau_fail.LWG
p81
aVtc_256_420_mme_eps_srvcc_ho_source_cs_only_ue_release_request_and_then_detach_request_wf_srvcc_ps_to_cs_response.LW
p82
aVtc_295_306_Intra_S1_HO_MT_SMS_while_wf_Handover_Notify_MO_SMS_wf_tau_after_handover_Downlink_unit_data_after_release_request_off.LWG
p83
aVtc_283_061_MME_Deactivate_Bearer__Delete_Bearer_Request_while_wf_Delete_Bearer_Request_same_bearer.LW
p84
aVtc_369_060_ue_pdn_disconnect_request_during_waiting_for_location_report__idr_flags_ef.LWG
p85
aVtc_263_511_Attach_Flow__mt_sms_while_waiting_for_location_update_accept.LWG
p86
aVtc_292_201_X2_based_ho_main_flow_volte_bearer_gauge.LW
p87
aVtc_237_420_mme_af_eps_irat_ho_source__cs_paging_wf_forward_relocation_response.LWG
p88
aVtc_263_411_Attach_Flow_in_ecm_idle__HSS_Init_QoS_Modification_wf_Authentication_Information_Answer.LW
p89
aVtc_358_120_lte_international_roaming_user_reject_intra_handover_ip_area_to_another_irr_ip_area.LW
p90
aVtc_369_067_cancel_location_subscription_withdrawn_from_hss_during_waiting_location_report__idr_flags_ef.LW
p91
aVtc_369_011_combined_sgsn_mme__idr_over_s6d_interface__idr_flags.LWG
p92
aVtc_263_454_Attach_Flow__S1_Reset_then_Emergency_Attach_while_waiting_for_Create_Session_Response_Error_Cause.LWG
p93
aVtc_369_059_uplink_generic_nas_transport_during_waiting_for_location_report__idr_flags_ef.LW
p94
aVtc_11_582_israu_new_old_pdp_with_fqdn_then_activate_one_pdp_under_nevertrypgw_with_sogt_false.LW
p95
aVtc_310_269__ef__Initial_UE_Service_Request_wf_PS_to_CS_Response_and_FR_Response_STI_false.LW
p96
aVtc_218_352_tau_from_sgsn__mt_call_while_wf_modify_bearer_response.LW
p97
aVtc_369_083_mme_initiated_detach_during_waiting_location_report__idr_flags_ef.LWG
p98
aVtc_306_721_ef_seamless_move_by_mme_ue_ecm_idle_wf_forward_relocation_response_interfered_by_sms_paging.LW
p99
aVtc_225_902_mt_call_active_mode_while_la_updating_ptpi_true_tamr_false.LW
p100
aVtc_358_034_lte_iterator_explicit_detach_wf_delete_session_response_timeout.LWG
p101
aVtc_242_800_rau_to_sgsn_s3_keep_sgw_ddn_while_received_context_request.LW
p102
aVtc_369_063_ue_release_request_other_than_user_inactivity_during_waiting_for_location_report__idr_flags_ef.LW
p103
aVtc_320_064_mt_sms.LWG
p104
aVtc_358_023_lte_iterator_talist_isomerous_connected_state.LW
p105
aVtc_357_117_wcdma_remove_ra_from_ip_area_with_ipAddressReset_irrEnabled_nrrEnabled_false_while_one_pdp_in_white_area.LW
p106
aVtc_369_100_HSS_based_PCSCF_restoration_ecm_connected_no_ims_PDN.LW
p107
aVtc_364_209_af_trigger_hits_before_UE_id_is_known.LW
p108
aVtc_358_009_lte_iterator_turn_on_feature_with_irrEnabled_false_ipAddressReset_nrrEnabled_true.LWG
p109
aVtc_194_1600__HSS_initiated_ISD_in_Connected_mode_when_current_CSG_Id_removed_Intefered_by_MT_Call_wf_ue_context_modify_response.LWG
p110
aVtc_366_019_intra_ISC_W2L_tau_local_user_reject_ip_area_to_another_ip_area.LWG
p111
aVtc_357_439_wcdma_local_user_without_pdp_intra_rau_non_ip_area_to_ip_area.LW
p112
aVtc_310_334_ef_dbr_wf_srvcc_ps_to_cs_complete_and_dbr_after_handover_cancelled.LWG
p113
aVtc_358_015_lte_remove_ga_from_ip_area_with_ipAddressReset_irrEnabled_nrrEnabled_false.LWG
p114
aVtc_218_519_combined_tau_from_sgsn_cs_failure.LWG
p115
aVtc_367_153_pgw_reselection_ho_without_qci_1_detach_timeout.LWG
p116
aVtc_276_455_Inter_TAU_New_MME__Sgs_Paging_SMS_while_wait_for_initial_context_setup_response.LW
p117
aVtc_369_077_downlink_data_notification_with_cause_during_waiting_location_report__idr_flags_ef.LW
p118
aVtc_92_09_20_autoupdate.LWG
p119
aVtc_237_410_mme_eps_irat_ho_source__cs_paging_wf_forward_relocation_response.LWG
p120
aVtc_357_414_wcdma_local_user_inter_rau_new_in_ip_area_reactivate_pdp.LW
p121
aVtc_278_454_Inter_TAU_Old_MME_Intra_TAU_while_waiting_for_context_ack__Sgs_Paging_Call_while_waiting_for_ue_context_release_complete.LW
p122
aVtc_369_079_s10_identification_request_during_waiting_location_report__idr_flags_ef.LWG
p123
aVtc_357_017_gsm_remove_ra_from_ip_area_with_ipAddressReset_irrEnabled_nrrEnabled_false_while_one_pdp_in_white_area.LWG
p124
aVtc_367_107_pgw_reselection_ho_with_qci_1_sgw_dbr_reactivate_requested.LWG
p125
aVtc_369_105_HSS_based_PCSCF_restoration_ecm_connected_detach_request_no_response.LW
p126
aVtc_241_1695_intra_rau_without_sgw_change_interferred_by_Iu_release_after_modify_bearer_request.LW
p127
aVtc_218_551_tau_from_sgsn_combined__subscription_cancelled_with_subscription_withdrawn_wf_location_update_response.LWG
p128
aVtc_320_079_attach_imsi_implicit_detach_ptmsi_attach.LWG
p129
aVtc_358_008_lte_iterator_nrrEnabled_modify_to_true_with_ipAddressReset_true_irrEnabled_false.LW
p130
aVtc_364_100_mf_trigger_match.LW
p131
aVtc_358_111_lte_national_roaming_user_reject_intra_tau_unrestricted_ip_area_to_nrr_ip_area.LW
p132
aVtc_274_601_combined_TAU_CS_Call_Paging_request_while_waiting_for_initial_context_response.LWG
p133
aVtc_357_305_gsm_local_user_reactivate_pdp_intra_rau_ip_area_to_another_irr_nrr_ip_area.LWG
p134
aVtc_277_110_tau_inter_old_ddn_while_received_context_request.LWG
p135
aVtc_11_762_dualstack_apn_redirect_requested_ipv4v6_subscribed_ipv4v6_dsg_false_spt_ipv4.LW
p136
aVtc_357_422_wcdma_international_roaming_user_reject_intra_relocation_ip_area_to_non_ip_area.LWG
p137
aVtc_319_204_unavailable_to_block_before_path_detection_interval.LWG
p138
aVtc_357_402_wcdma_allowed_international_roaming_user_attach_from_non_irr_ip_area.LW
p139
aVtc_196_180_nrspca_during_the_same_nsapi_ms_initiate_pdp_deactivation_rab_release.LWG
p140
aVtc_214_630_combined_attach_MSC_selection_in_pool_then_paging_MSC_pool_feature_off.LWG
p141
aVtc_358_011_lte_iterator_ipAllocEnabled_modify_to_false_irrEnabled_modify_to_true_with_ipAddressReset_true_nrrEnabled_false.LW
p142
aVtc_274_614_combined_TAU_MT_Call_while_waiting_for_AIA_MO_SMS_wf_initial_context_setup_resp_detach_wf_modify_beare_response.LW
p143
aVtc_288_364_pgw_init_bearer_mod_qci_counters__qci3_7_69_70_71_127_0.LW
p144
aVtc_214_1231_sgsap_alert_then_sgsap_paging_csfb_interferred_by_combined_tau.LW
p145
aVtc_214_1243_combined_attach_mo_sms_wf_location_update_response_mt_call_wf_initial_context_setup_response.LWG
p146
aVtc_202_55_3gpp_move_cs_paging_wf_cancel_location.LWG
p147
aVtc_357_107_wcdma_iterator_irrEnabled_modify_to_true_with_ipAddressReset_nrrEnabled_false.LWG
p148
aVtc_267_730_Service_Request__CS_paging_while_waiting_for_Modify_Bearer_Response.LW
p149
aVtc_238_422_mme_eps_irat_Gn_ho_target__volte_bearer_gauge_create_session_response_with_new_qci.LWG
p150
aVtc_237_413_mme_eps_irat_ho_source__sms_paging_wf_delete_session_response.LW
p151
aVtc_358_037_lte_iterator_implicit_detach_and_deactivate_af.LW
p152
aVtc_241_1694_intra_rau_without_sgw_change_interferred_by_reset_resource_after_modify_bearer_request.LWG
p153
aVtc_367_114_pgw_reselection_irat_Gn_ho_without_qci_1_no_initial_ip_current_ip_in_new_pgw_list.LW
p154
aVtc_26_226_downlink_paging_interfered_by_insert_subscriber_data.LWG
p155
aVtc_262_931_attach_reject_with_cc27__attach_req_no_apn_and_esm_infor_with_apn.LW
p156
aVtc_327_192_recovery_intra_TAU_MT_CALL_while_waiting_for_Location_Update_Response.LWG
p157
aVtc_288_363_pgw_init_bearer_mod_qci_counters__qci2_6_64_65_66_67_68.LW
p158
aVtc_369_082_gn_identification_request_during_waiting_location_report__idr_flags_ef.LW
p159
aVtc_578_54_check_test_pra.LWG
p160
aVtc_202_53_3gpp_move_cs_paging_wf_context_request.LW
p161
aVtc_274_605_combined_TAU_two_CS_Call_Paging_request_while_waiting_for_AIA.LWG
p162
aVtc_357_328_gsm_international_roaming_user_inter_ps_handover_target_in_irr_ip_area_reject.LWG
p163
aVtc_92_03_20_pm_group.LWG
p164
aVtc_357_416_wcdma_international_roaming_user_inter_rau_new_in_irr_nrr_ip_area_reject.LWG
p165
aVtc_367_108_pgw_reselection_ho_with_qci_1_s1_release_reactivate_requested.LW
p166
aVtc_358_127_lte_local_user_inter_handover_source_in_ip_area_reject.LWG
p167
aVtc_194_110_cli_get_subscriber_combined_attach_when_turn_on_sms_over_sgs.LW
p168
aVtc_357_425_wcdma_national_roaming_user_reject_intra_relocation_non_ip_area_to_irr_nrr_ip_area.LWG
p169
aVtc_320_058_modify_pdp_context_reject_from_sgsn.LWG
p170
aVtc_357_109_wcdma_iterator_turn_on_feature_switch_with_irrEnabled_false_ipAddressReset_nrrEnabled_true.LWG
p171
aVtc_218_351_tau_from_sgsn__mt_sms_while_wf_initial_context_setup_response.LWG
p172
aVtc_357_112_wcdma_iterator_ipAllocEnabled_modify_to_false_ipAddressReset_modify_to_true_while_one_pdp_in_white_area.LWG
p173
aVtc_241_1688_intra_rau_with_sgw_change_interferred_by_reset_resource_before_create_rsp_no_create_rsp_paging_succ.LWG
p174
aVtc_283_064_MME_Deactivate_Bearer__Delete_Bearer_Request_while_wf_Delete_Bearer_Request_two_pdn.LWG
p175
aVtc_364_104_mf_include_pre_imsi_messages_in_ue_tracer_log_trigger.LW
p176
aVtc_357_415_wcdma_local_user_inter_rau_new_in_irr_nrr_ip_area_reactivate_pdp.LW
p177
aVtc_276_454_Inter_TAU_New_MME__Sgs_Paging_SMS_while_wait_for_location_update_accept.LW
p178
aVtc_26_180_israu_upgrade_negotiated_to_requested_and_update_payload_not_save_action.LW
p179
aVtc_322_162_smooth_move_ef_deac_after_paging_response_ignore.LW
p180
aVtc_276_450_Inter_TAU_New_MME__Sgs_Paging_CS_Call_while_wait_for_initial_context_setup_response.LWG
p181
aVtc_320_068_ue_trace_after_parking_one_of_ue_ids.LWG
p182
aVtc_12_19_attach_ptmsi_collision_rai_config_wrong.LW
p183
aVtc_204_1361_mme_eps_ho__sgs_cs_paging_wf_handover_request_acknowledge.LW
p184
aVtc_194_1601__HSS_initiated_ISD_in_Connected_mode_when_current_CSG_Id_removed_Intefered_by_MT_SMS_wf_ue_context_modify_response.LW
p185
aVtc_278_451_Inter_TAU_Old_MME__Ecm_Idle_Sgs_CS_Paging_SMS_while_wait_for_context_ack.LW
p186
aVtc_369_064_s1_reset_from_enb_during_waiting_location_report__idr_flags_ef.LW
p187
aVtc_367_150_pgw_reselection_ho_without_qci_1_erab_release_timeout_reactivate_request.LWG
p188
aVtc_358_042_lte_iterator_EF_Downlink_Data_Notification_wf_delete_session_response.LWG
p189
aVtc_292_115_x2_based_ho_roaming_restricted_service_request_old_ta.LWG
p190
aVtc_327_620_Inter_TAU_Recovery__MT_CALL__while_waiting_for_Update_location_answer.LWG
p191
aVtc_357_102_wcdma_iterator_ipAddressReset_modify_to_true_while_all_pdp_already_in_target_area.LW
p192
aVtc_369_088_reset_from_msc_during_waiting_location_report__idr_flags_ef.LWG
p193
aVtc_263_451_Attach_Flow__ME_Identity_Check_Answer_Blacklisted_while_waiting_for_Create_Session_Response_Time_Out.LW
p194
aVtc_274_613_combined_TAU_MT_Call_while_waiting_for_AIA_Detach_while_waiting_for_initial_context_response.LW
p195
aVtc_264_123_HSS_Initiated_Detach__Volte_Bearer_Gauge.LW
p196
aVtc_358_031_lte_iterator_multi_pdn_wf_one_delete_session_response_timeout.LW
p197
aVtc_364_214_af_trigger_hits_before_UE_id_is_known_wcdma.LWG
p198
aVtc_364_211_3_af_buffered_signalling_history_at_transfer_wcdma_attach.LW
p199
aVtc_11_760_dualstack_apn_redirect_requested_ipv4v6_subscribed_ipv4v6.LW
p200
aVtc_274_612_combined_TAU_MT_Call_while_waiting_for_AIA_MO_SMS_wf_modify_beare_response.LW
p201
aVtc_369_084_me_identity_check_answer_during_waiting_location_report__idr_flags_ef.LWG
p202
aVtc_284_334_deactivate_1_default_bearer_of_not_last_active_pdn_while_1_pdn_is_creating_and_wf_modify_bearer_response.LW
p203
aVtc_92_05_20_pm_job.LWG
p204
aVtc_11_580_israu_new_old_pdp_with_fqdn_then_activate_one_pdp_under_nevertrypgw_sogt_true_initiate_naptr_query.LWG
p205
aVtc_366_022_intra_ISC_W2L_tau_local_user_with_one_white_pdp_ip_area_to_unrestricted_ip_area.LWG
p206
aVtc_357_018_gsm_iterator_turn_off_feature_with_ipAddressReset_irrEnabled_nrrEnabled_false.LWG
p207
aVtc_284_328_deactivate_1_default_bearer_of_last_active_pdn_while_1_pdn_is_creating_and_wf_modify_bearer_response.LW
p208
aVtc_357_439_wcdma_local_user_without_pdp_intra_rau_non_ip_area_to_ip_area.LWG
p209
aVtc_295_302_Intra_S1_HO_MT_SMS_while_wf_Handover_Notify.LW
p210
aVtc_364_054_no_duration_if_not_auto_delete_ue_trace_session.LWG
p211
aVtc_274_616_combined_TAU_Alert_Request_CS_Call_Paging_request_while_waiting_for_AIA.LWG
p212
aVtc_357_318_gsm_local_user_reject_intra_ps_handover_ip_area_to_another_ip_area.LWG
p213
aVtc_282_006_1_mme_initiated_deactivate_bearer_qci_1_and_10.LW
p214
aVtc_357_313_gsm_local_user_inter_rau_old_in_ip_area_response_not_contain_pdp.LWG
p215
aVtc_319_202_pdn_connectivity_fail_again_before_path_detection_interval.LWG
p216
aVtc_283_067_MME_Deactivate_Bearer__Delete_Bearer_Request_2_bearer_while_wf_Delete_Bearer_Request_1_bearer_same_partially.LWG
p217
aVtc_320_083_attach_imsi_implicit_detach_ul_payload.LWG
p218
aVtc_231_761_dualstack_apn_redirect_requested_ipv4v6_subscribed_ipv4_or_ipv6_spt_ipv6.LW
p219
aVtc_280_039_create_dedicated_bearers_qci_counters__qci1_and_qci0.LWG
p220
aVtc_369_093_connection_oriented_information_LPP_during_waiting_location_report__idr_flags_ef.LWG
p221
aVtc_357_301_gsm_reject_international_roaming_user_attach_from_irr_ip_area.LWG
p222
aVtc_194_828_normal_attach_set_odb_attach_reject_cc15.LWG
p223
aVtc_357_117_wcdma_remove_ra_from_ip_area_with_ipAddressReset_irrEnabled_nrrEnabled_false_while_one_pdp_in_white_area.LWG
p224
aVtc_22_065_wcdma_activate_secondary_reject_due_to_camel_release.LW
p225
aVtc_214_633_combined_attach_MSC_selection_in_pool_then_paging_MSC_pool_feature_off_when_waiting_for_modify_bearer_response_failed.LW
p226
aVtc_274_611_combined_TAU_MT_SMS_while_waiting_for_AIA_MO_SMS_wf_initial_context_response.LW
p227
aVtc_369_016_ecm_connected__notification_reachability_userstate_locationinfo_currentinfo_timezone__idr_flags.LW
p228
aVtc_364_051_cause_code_needed_if_cause_prot_type_specified.LWG
p229
aVtc_267_734_Service_Request__CS_paging_while_waiting_for_Modify_Bearer_Response_S1_Reset_wf_extended_service_req.LWG
p230
aVtc_358_007_lte_iterator_irrEnabled_modify_to_true_with_ipAddressReset_nrrEnabled_false.LW
p231
aVtc_92_07_50_supervision.LWG
p232
aVtc_357_115_wcdma_remove_ip_area_with_ipAddressReset_irrEnabled_nrrEnabled_false_while_all_pdps_in_white_area.LWG
p233
aVtc_56_21_sending_recognized_information_in_log.LWG
p234
aVtc_194_1600__HSS_initiated_ISD_in_Connected_mode_when_current_CSG_Id_removed_Intefered_by_MT_Call_wf_ue_context_modify_response.LW
p235
aVtc_335_46_wifi_to_mobility_in_ecm_idle_unknown_user_af__estimation_response_from_eNB_after_timeout.LW
p236
aVtc_366_009_intra_ISC_L2W_rau_local_user_deactivate_pdp_implicitly_between_same_ip_area.LWG
p237
aVtc_277_111_tau_inter_old_ddn_while_received_context_ack.LWG
p238
aVtc_225_901_mt_call_active_mode_while_la_updating_ptpi_false_tamr_true.LWG
p239
aVtc_263_456_Attach_Flow__Cancel_Location_Update_Procedure_then_Attach_again_while_waiting_for_Create_Session_Response.LWG
p240
aVtc_306_722_ef_seamless_move_by_mme_ue_ecm_connected_wf_forward_relocation_response_interfered_by_cs_paging.LWG
p241
aVtc_364_203_af_duration_expires_for_ue_trace_session.LW
p242
aVtc_44_072_s1ap_mdholpap_counters_attach.LWG
p243
aVtc_280_037_create_dedicated_bearers_qci_counters__qci9_and_qci255.LWG
p244
aVtc_357_111_wcdma_iterator_ipAllocEnabled_modify_to_false_irrEnabled_modify_to_true_with_ipAddressReset_true_nrrEnabled_false.LW
p245
aVtc_225_925_mt_sms_active_mode_resend_paging_request_with_cs_call_indicator.LWG
p246
aVtc_358_124_national_roaming_user_reject_intra_handover_ip_area_to_another_nrr_ip_area.LWG
p247
aVtc_346_734_pra_cn_predefined_lrc_optimization__s1_ho_then_x2_ho__2nd_and_last_enb_lrc_needed.LWG
p248
aVtc_06_651_dualstack_activate_ipv4v6_requested_ipv4v6_subscribed_ipv4v6_dsg_true_daf_off_preferPgwForLteUe_no_epc.LWG
p249
aVtc_357_500_gsm_iterator_EF_RAU_Request_WF_deactivate_pdp_context_accept.LWG
p250
aVtc_369_075_delete_bearer_request_change_to_non3GPP_during_waiting_location_report__idr_flags_ef.LW
p251
aVtc_214_1230_sgsap_alert_then_sgsap_paging_sms_interferred_by_combined_tau.LWG
p252
aVtc_218_350_tau_from_sgsn__mt_call_while_wf_initial_context_setup_response.LWG
p253
aVtc_231_520_PGW_init_modification_EF_ms_activation_at_rab_setup_and_then_rnc_reset_resource.LW
p254
aVtc_225_924_mt_sms_active_mode_resend_paging_request_with_sms_indicator.LWG
p255
aVtc_277_112_tau_inter_old_ddn_with_imsi_while_received_context_request.LW
p256
aVtc_357_303_gsm_reject_national_roaming_user_attach_from_nrr_ip_area.LWG
p257
aVtc_274_603_combined_TAU_CS_Call_Paging_request_while_waiting_for_AIA.LWG
p258
aVtc_263_502_Attach_Flow__mt_cs_call_while_waiting_for_ics_response.LW
p259
aVtc_214_1232_hss_reset_then_sgsap_paging_sms_interferred_by_combined_tau.LW
p260
aVtc_369_124_HSS_based_PCSCF_restoration_ecm_idle_uereachability_userstate_locationinfo_timezone_paging_failed.LWG
p261
aVtc_369_006_emm_deregistered__userstate_locationinfo__idr_flags.LW
p262
aVtc_194_153_cli_get_subscriber_normal_attach_when_turn_on_csfb_to_1xrtt.LWG
p263
aVtc_231_762_dualstack_apn_redirect_requested_ipv4v6_subscribed_ipv4v6_ipv6up_off.LW
p264
aVtc_263_452_Attach_Flow__S1_Reset_while_waiting_for_Create_Session_Response.LW
p265
aVtc_369_014_ecm_idle__notification_reachability_userstate_locationfinfo_currentinfo__idr_flags.LWG
p266
aVtc_276_448_Inter_TAU_New_MME__Sgs_Paging_CS_Call_while_wait_for_modify_bearer_response.LW
p267
aVtc_369_074_delete_bearer_request_during_waiting_location_report__idr_flags_ef.LW
p268
aVtc_162_1608_Ccheck_sctp_assrtx_pathrtx_ip.LWG
p269
aVtc_214_632_combined_attach_MSC_selection_in_pool_then_paging_MSC_pool_feature_off_when_waiting_for_modify_bearer_response.LW
p270
aVtc_358_129_lte_international_roaming_user_inter_handover_target_in_irr_nrr_ip_area_reject.LW
p271
aVtc_214_1242_combined_attach_mo_sms_wf_location_update_response_mt_sms_wf_initial_context_setup_response.LWG
p272
aVtc_225_820_mt_csfb_idle_mode_normal_tau_as_paging_response.LW
p273
aVtc_231_761_dualstack_apn_redirect_requested_ipv4v6_subscribed_ipv4_or_ipv6_spt_ipv6.LWG
p274
aVtc_194_195_hss_reset_visited_network_id_missed_in_specific_apn_info_when_dyn_pgw_assignment.LW
p275
aVtc_263_500_Attach_Flow__mt_cs_call_while_waiting_for_create_session_response.LWG
p276
aVtc_11_759_dualstack_activate_ipv6_requested_ipv4v6_subscribed_ipv4v6_dsg_false_spt_ipv6_fallback_to_plain_ggsn.LW
p277
aVtc_263_420_Attach_Flow__Attach_Request_while_waiting_for_Authentication_Response.LW
p278
aVtc_367_109_pgw_reselection_irat_Gn_ho_without_qci_1_reactivate_requested.LW
p279
aVtc_225_913_mo_call_active_mode__sgs_cs_paging_wf_Release_Access_Bearer_Response_from_SGW.LWG
p280
aVtc_263_531_ReAttach_Flow_mt_sms_while_waiting_for_location_update_accept.LW
p281
aVtc_314_048_sgsn_init_qos_modification_handover_l_to_w_interrupt_by_reset_paging_fail.LW
p282
aVtc_310_012_mf__S3_same_SGW_1_voice_bearer_1_PDN_no_emergency_PDN_combined_attach.LW
p283
aVtc_364_056_mcc_mnc_needed_in_area_related_trigger_condition.LWG
p284
aVtc_357_434_wcdma_local_user_inter_rau_old_in_ip_area_goto_stable_after_rau_fail.LW
p285
aVtc_358_021_lte_iterator_turn_off_feature_with_ipAddressReset_irrEnabled_nrrEnabled_false.LW
p286
aVtc_357_400_wcdma_allowed_local_user_attach_from_irr_nrr_ip_area.LWG
p287
aVtc_12_18_combined_attach_ptmsi_ciphering_timeout.LW
p288
aVtc_218_518_combined_tau_from_sgsn.LW
p289
aVtc_320_076_attach_imsi_attach_ptmsi.LWG
p290
aVtc_292_012_x2_based_ho_with_emergency_pdn_and_tai_list.LW
p291
aVtc_241_1696_intra_rau_with_sgw_change_interferred_by_reset_before_create_rsp_then_detach_before_create_rsp.LWG
p292
aVtc_276_457_Inter_TAU_New_MME__Sgs_Paging_SMS_while_wait_for_modify_bearer_response_failed.LW
p293
aVtc_202_54_3gpp_move_cs_paging_wf_context_ack.LWG
p294
aVtc_265_251_Detach_Flow_UE_init__Sgs_SMS_Paging_while_wf_delete_session_response.LWG
p295
aVtc_263_533_Attach_Flow__mt_cs_call_while_waiting_for_ics_response.LWG
p296
aVtc_278_457_Inter_TAU_Old_MME_Intra_TAU_while_waiting_for_cancel_location__Sgs_Paging_SMS_while_waiting_for_ue_context_release_complete.LW
p297
aVtc_276_447_Inter_TAU_New_MME__Sgs_Paging_CS_Call_while_wait_for_context_response.LWG
p298
aVtc_366_054_intra_ISC_L2W_reloaction_national_roaming_user_reject_ip_area_to_unrestricted_ip_area.LWG
p299
aVtc_11_582_israu_new_old_pdp_with_fqdn_then_activate_one_pdp_under_nevertrypgw_with_sogt_false.LWG
p300
aVtc_367_101_pgw_reselection_ho_without_qci_1_reattach_required.LW
p301
aVtc_369_071_reset_from_hss_during_waiting_location_report__idr_flags_ef.LW
p302
aVtc_358_010_lte_iterator_ipAddressReset_nrrEnabled_modify_to_true_while_one_pdn_already_in_target_area.LW
p303
aVtc_202_62_3gpp_move_mt_sms_wf_ue_context_release_complete.LW
p304
aVtc_358_037_lte_iterator_implicit_detach_and_deactivate_af.LWG
p305
aVtc_358_022_lte_iterator_talist_isomerous_idle_state.LW
p306
aVtc_06_652_dualstack_activate_ipv4v6_requested_ipv4v6_subscribed_ipv4v6_dsg_true_with_preferPgwForLteUe_daf_on.LWG
p307
aVtc_295_305_Intra_S1_HO_MT_SMS_while_wf_Handover_Notify_MO_SMS_wf_tau_after_handover_Downlink_unit_data_after_release_request.LW
p308
aVtc_367_123_pgw_reselection_irat_Gn_ho_with_qci_1_s1_release_reattach_required.LWG
p309
aVtc_202_51_3gpp_move_cs_paging_wf_release_access_bearer_response.LWG
p310
aVtc_276_455_Inter_TAU_New_MME__Sgs_Paging_SMS_while_wait_for_initial_context_setup_response.LWG
p311
aVtc_322_161_smooth_move_ef_mbr_after_paging_response_ignore.LW
p312
aVtc_310_333_ef_dbr_wf_srvcc_ps_to_cs_response_and_forward_relocation_response.LW
p313
aVtc_369_058_uplink_nas_transport_during_waiting_for_location_report__idr_flags_ef.LW
p314
aVtc_358_017_lte_iterator_ipAllocEnabled_modify_to_false_ipAddressReset_modify_to_true_while_one_pdn_in_unrestricted_ip_area.LWG
p315
aVtc_225_119_mo_call_active_mode_ho_not_supported_with_msc_change_ps_not_available.LWG
p316
aVtc_358_125_lte_national_roaming_user_reject_intra_handover_unrestricted_ip_area_to_irr_nrr_ip_area.LW
p317
aVtc_358_045_lte_iterator_EF_Update_Bearer_Request_wf_delete_session_response.LWG
p318
aVtc_364_210_af_match_of_several_triggers.LW
p319
aVtc_320_039_flow_control_with_pfc_ms.LWG
p320
aVtc_319_203_feature_off_before_path_detection_interval.LWG
p321
aVtc_369_102_HSS_based_PCSCF_restoration_ecm_connected_two_ims_pdns_detach.LWG
p322
aVtc_369_056_service_request_during_waiting_for_location_report__idr_flags_ef.LW
p323
aVtc_369_019_ecm_idle__paging_failure__userstate_locationinfo_currentinfo__idr_flags.LW
p324
aVtc_238_427_mme_eps_irat_ho_target__cs_paging_wf_forward_relocation_complete_acknowledge.LWG
p325
aVtc_357_306_gsm_local_user_reactivate_pdp_intra_rau_non_ip_area_to_ip_area.LWG
p326
aVtc_245_325_israu_new_l_to_w_with_sgw_unchange_2_pdn_service_request_intefered_by_deactivate_pdp_req_with_tdi.LW
p327
aVtc_225_902_mt_call_active_mode_while_la_updating_ptpi_true_tamr_false.LWG
p328
aVtc_245_328_israu_new_l_to_w_with_sgw_unchange_2_pdn_downlink_data_notification_intefered_by_deactivate_pdp_req.LWG
p329
aVtc_263_457_Attach_Flow__Cancel_Location_Initial_Attach_Procedure_while_waiting_for_Create_Session_Response.LWG
p330
aVtc_358_120_lte_international_roaming_user_reject_intra_handover_ip_area_to_another_irr_ip_area.LWG
p331
aVtc_369_016_ecm_connected__notification_reachability_userstate_locationinfo_currentinfo_timezone__idr_flags.LWG
p332
aVtc_358_034_lte_iterator_explicit_detach_wf_delete_session_response_timeout.LW
p333
aVtc_306_1105_ef_seamless_move_target_ecm_connected_receive_sgs_paging_with_sms_indicator_wf_icsr.LW
p334
aVtc_357_108_wcdma_iterator_nrrEnabled_modify_to_true_with_ipAddressReset_true_irrEnabled_false.LWG
p335
aVtc_241_689_israu_new_sgw_change_1_pdn_service_request_si_by_deactivate_pdp_req_without_tdi_default_bearer.LWG
p336
aVtc_358_046_lte_iterator_EF_Attach_Request_wf_delete_session_response.LW
p337
aVtc_366_056_intra_ISC_W2L_handover_local_user_reject_unrestricted_ip_area_to_ip_area.LWG
p338
aVtc_369_094_connection_oriented_information_LPPa_during_waiting_location_report__idr_flags_ef.LW
p339
aVtc_245_328_israu_new_l_to_w_with_sgw_unchange_2_pdn_downlink_data_notification_intefered_by_deactivate_pdp_req.LW
p340
aVtc_262_1103_imsi_attach_volte_bearer_gauge_create_session_response_with_new_qci.LWG
p341
aVtc_358_011_lte_iterator_ipAllocEnabled_modify_to_false_irrEnabled_modify_to_true_with_ipAddressReset_true_nrrEnabled_false.LWG
p342
aVtc_276_448_Inter_TAU_New_MME__Sgs_Paging_CS_Call_while_wait_for_modify_bearer_response.LWG
p343
aVtc_225_917_mt_call_idle_mode__sgs_cs_paging_wf_extended_service_request.LW
p344
aVtc_12_2_attach_imsi_rai_config_wrong.LW
p345
aVtc_346_733_pra_cn_predefined_lrc_optimization__s1_ho_then_x2_ho__1st_and_last_enb_lrc_needed.LWG
p346
aVtc_276_452_Inter_TAU_New_MME__Sgs_Paging_CS_Call_while_wait_for_modify_bearer_response_failed.LW
p347
aVtc_357_438_wcdma_local_3gdt_user_activated_one_pdp_then_intra_rau_non_ip_area_to_ip_area.LW
p348
aVtc_295_301_Intra_S1_HO_MT_CALL_while_wf_Handover_Notify.LW
p349
aVtc_280_042_create_dedicated_bearers_qci_counters__qci_10_64_67_68_71_127.LWG
p350
aVtc_263_450_Attach_Flow__ME_Identity_Check_Answer_Blacklisted_then_Attach_again_while_waiting_for_Create_Session_Response.LW
p351
aVtc_274_610_combined_TAU_MT_Call_while_waiting_for_AIA_MO_SMS_wf_initial_context_response.LWG
p352
aVtc_241_250_inter_rau_pdp_status_check_failed_with_sgw_unchange_cause_decicated_bearer_deactivating.LW
p353
aVtc_280_033_create_dedicated_bearers_qci_counters__qci10.LW
p354
aVtc_26_228_downlink_paging_interfered_by_insert_subscriber_data_rab_assignment_response_with_decreased_qos_GnOverrideSubscribedQos.LW
p355
aVtc_285_035_PDN_Connectivity__TAU_request_while_wf_activate_default_bearer_context_response.LWG
p356
aVtc_276_447_Inter_TAU_New_MME__Sgs_Paging_CS_Call_while_wait_for_context_response.LW
p357
aVtc_358_139_lte_local_user_reject_x2_handover_and_detach_restricted_area_to_unrestricted_area.LW
p358
aVtc_231_520_PGW_init_modification_EF_ms_activation_at_rab_setup_and_then_rnc_reset_resource.LWG
p359
aVtc_327_620_Inter_TAU_Recovery__MT_CALL__while_waiting_for_Update_location_answer.LW
p360
aVtc_238_428_mme_eps_irat_ho_target__cs_paging_wf_modify_bearer_response.LWG
p361
aVtc_358_129_lte_international_roaming_user_inter_handover_target_in_irr_nrr_ip_area_reject.LWG
p362
aVtc_292_114_x2_based_ho_roaming_restricted_tau_old_ta.LW
p363
aVtc_284_326_deactivate_1_default_bearer_2_dedicated_bearers_of_last_active_pdn_while_1_pdn_is_creating_and_wf_erab_setup_response.LW
p364
aVtc_357_105_wcdma_iterator_ipAllocEnabled_modify_to_true_with_ipAddressReset_irrEnabled_true_nrrEnabled_false.LWG
p365
aVtc_225_901_mt_call_active_mode_while_la_updating_ptpi_false_tamr_true.LW
p366
aVtc_367_153_pgw_reselection_ho_without_qci_1_detach_timeout.LW
p367
aVtc_197_821_optimized_gw_selection_handover_from_non3gpp_static_gw_selection_enabled.LWG
p368
aVtc_358_003_lte_iterator_add_tai_into_ip_alloc_area_with_ipAddressReset_true_irrEnabled_nrrEnabled_false.LWG
p369
aVtc_369_020_ecm_connected__no_location_report__userstate_locationinfo_currentinfo__idr_flags.LW
p370
aVtc_320_086_inter_sgsn_new_psho_main_flow.LWG
p371
aVtc_368_001_PDN_disconnect_after_tau_without_qci_1_bearer_erab_release_indication_default_bearer_wf_delete_session_resp.LW
p372
aVtc_292_116_x2_based_ho_roaming_restricted_paging_time_out.LWG
p373
aVtc_369_126_HSS_based_PCSCF_restoration_ecm_connected_with_locationinfo_currentinfo.LWG
p374
aVtc_283_063_MME_Deactivate_Bearer__Delete_Bearer_Request_while_wf_Delete_Bearer_Request_diff_bearer.LWG
p375
aVtc_367_160_pgw_reselection_ho_with_qci_1_sgw_dbr_reattach_required_ecm_idle_paging_timeout.LWG
p376
aVtc_364_050_cause_prot_type_needed_if_cause_code_specified.LWG
p377
aVtc_357_430_wcdma_local_user_intra_rau_non_ip_area_to_ip_area_with_one_pdp_activated_in_target_ip_area.LWG
p378
aVtc_194_195_hss_reset_visited_network_id_missed_in_specific_apn_info_when_dyn_pgw_assignment.LWG
p379
aVtc_276_452_Inter_TAU_New_MME__Sgs_Paging_CS_Call_while_wait_for_modify_bearer_response_failed.LWG
p380
aVtc_202_60_3gpp_move_mt_sms_wf_service_request.LW
p381
aVtc_231_062_activate_2nd_pdn_and_try_next_pgw.LWG
p382
aVtc_266_616_Service_Request_Alert_Request__CS_Call_Paging_request_while_waiting_for_AIA.LWG
p383
aVtc_280_040_create_dedicated_bearers_qci_counters__qci1_and_qci9.LW
p384
aVtc_358_012_lte_iterator_turn_off_feature_with_ipAddressReset_true_irrEnabled_nrrEnabled_false.LW
p385
aVtc_364_200_af_match_trigger_when_ebm_feature_off.LWG
p386
aVtc_214_630_combined_attach_MSC_selection_in_pool_then_paging_MSC_pool_feature_off.LW
p387
aVtc_306_725_ef_seamless_move_by_mme_ue_ecm_idle_wf_forward_relocation_response_failed_interfered_by_sms_paging.LWG
p388
aVtc_11_586_dual_stack_israu_two_existing_pdp_one_with_fqdn_gst_nevertrypgw_sogt_true_activate_ipv4v6.LWG
p389
aVtc_357_001_gsm_iterator_caused_by_config_creation_with_ipAddressReset_true_irrEnabled_nrrEnabled_false.LWG
p390
aVtc_369_069_insert_subscription_data_from_hss_during_waiting_location_report__idr_flags_ef.LW
p391
aVtc_288_364_pgw_init_bearer_mod_qci_counters__qci3_7_69_70_71_127_0.LWG
p392
aVtc_320_057_activate_secondary_pdp_context_reject_from_sgsn.LWG
p393
aVtc_358_024_lte_add_source_tai_into_ip_area_when_x2_handover_ongoing.LWG
p394
aVtc_357_104_wcdma_iterator_ipAddressReset_modify_to_true_while_one_pdp_already_in_target_area.LWG
p395
aVtc_320_070_ms_attach_with_mocn.LWG
p396
aVtc_357_403_wcdma_reject_national_roaming_user_attach_from_nrr_ip_area.LWG
p397
aVtc_369_051_reset_from_hss_during_waiting_for_paging_response__idr_flags_ef.LWG
p398
aVtc_306_2710_ef_seamless_move_target_receive_mt_call_af_lua_mt_sms_wf_service_request.LWG
p399
aVtc_369_111_HSS_based_PCSCF_restoration_ecm_idle_roaming_ue_only_one_ims_pdn_detach.LWG
p400
aVtc_358_107_lte_international_roaming_user_intra_tau_normally_between_same_ip_area.LWG
p401
aVtc_284_325_deactivate_1_default_bearer_of_last_active_pdn_while_1_pdn_is_creating_and_wf_create_session_response.LWG
p402
aVtc_92_08_10_cc_rpGpJobgroup.LWG
p403
aVtc_364_057_rac_tac_needed_if_ci_eci_specified.LW
p404
aVtc_367_155_pgw_reselection_irat_Gn_ho_without_qci_1_deactivate_timeout.LWG
p405
aVtc_366_024_intra_ISC_W2L_tau_international_roaming_user_reject_unrestricted_ip_area_to_irr_ip_area.LWG
p406
aVtc_92_02_10_meas_type.LWG
p407
aVtc_231_764_dualstack_apn_redirect_to_multiple_apn_requested_ipv4v6_subscribed_ipv4_and_ipv6_spt_ipv4.LW
p408
aVtc_364_205_af_maximum_nr_of_buffering_UEs_reached.LW
p409
aVtc_237_422_mme_af_eps_irat_ho_source__two_CS_paging_sent_to_mme_wf_forward_relocation_response.LWG
p410
aVtc_364_057_rac_tac_needed_if_ci_eci_specified.LWG
p411
aVtc_306_722_ef_seamless_move_by_mme_ue_ecm_connected_wf_forward_relocation_response_interfered_by_cs_paging.LW
p412
aVtc_369_104_HSS_based_PCSCF_restoration_ecm_connected_two_pdns_one_ims_one_emergency_deactivation.LWG
p413
aVtc_283_064_MME_Deactivate_Bearer__Delete_Bearer_Request_while_wf_Delete_Bearer_Request_two_pdn.LW
p414
aVtc_288_365_pgw_init_bearer_mod_qci_counters__qci4_8_128_129_254_255.LWG
p415
aVtc_320_061_sm_status_from_sgsn.LWG
p416
aVtc_225_923_mt_sms_idle_mode__sgs_cs_paging_wf_service_request_ext_service_request.LW
p417
aVtc_256_145_mme_eps_srvcc_ho_source_cs_only_initial_ue_tau_request_wf_srvcc_ps_to_cs_complete_notification_sti_true.LWG
p418
aVtc_369_064_s1_reset_from_enb_during_waiting_location_report__idr_flags_ef.LWG
p419
aVtc_284_611_pdn_connectivity_with_empty_apn_rejected_with_cause_33.LWG
p420
aVtc_225_115_mo_call_emergency_active_mode_ho_not_supported_with_msc_change.LWG
p421
aVtc_364_204_af_delete_trigger_where_resulting_ue_trace_session_exists.LW
p422
aVtc_357_417_wcdma_national_roaming_user_inter_rau_new_in_irr_nrr_ip_area_reject.LW
p423
aVtc_369_068_cancel_location_update_procedure_from_hss_during_waiting_location_report__idr_flags_ef.LW
p424
aVtc_231_522_PGW_init_modification_EF_ms_activation_at_rab_setup_and_then_iu_release.LWG
p425
aVtc_367_113_pgw_reselection_irat_Gn_ho_without_qci_1_no_initial_ip_current_ip_notin_new_pgw_list.LW
p426
aVtc_369_103_HSS_based_PCSCF_restoration_ecm_connected_feature_off.LW
p427
aVtc_357_437_wcdma_local_user_inter_relocation_with_one_pdp_activated_in_no_ip_area_and_one_not.LW
p428
aVtc_358_043_lte_iterator_EF_Service_Request_wf_delete_session_response.LWG
p429
aVtc_44_075_s1ap_mdholpap_counters_tau.LW
p430
aVtc_357_338_gsm_local_user_intra_tau_without_pdp_from_no_ip_area_to_ip_area.LWG
p431
aVtc_225_919_mt_call_idle_mode__sgs_sms_paging_wf_extended_service_request.LW
p432
aVtc_367_118_pgw_reselection_ho_without_qci_1_buffered_ubr_reject_then_reactivate_requested.LW
p433
aVtc_358_114_lte_local_user_inter_tau_new_in_ip_area_reactivate_pdn.LWG
p434
aVtc_367_161_pgw_reselection_ho_with_qci_1_sgw_dbr_reactivate_requested_ecm_idle_paging_timeout.LW
p435
aVtc_284_332_deactivate_1_default_bearer_2_dedicated_bearers_of_not_last_active_pdn_while_1_pdn_is_creating_and_wf_erab_setup_response.LW
p436
aVtc_357_101_wcdma_iterator_caused_by_config_creation_with_ipAddressReset_true_irrEnabled_nrrEnabled_false.LWG
p437
aVtc_283_070_1_MME_Deactivate_Bearer__Delete_Bearer_Request_for_PDN1_while_wf_Delete_Bearer_Request_for_PDN2.LWG
p438
aVtc_367_150_pgw_reselection_ho_without_qci_1_erab_release_timeout_reactivate_request.LW
p439
aVtc_369_069_insert_subscription_data_from_hss_during_waiting_location_report__idr_flags_ef.LWG
p440
aVtc_364_051_cause_code_needed_if_cause_prot_type_specified.LW
p441
aVtc_358_004_lte_iterator_ipAddressReset_modify_to_true_while_one_pdn_already_in_target_area.LW
p442
aVtc_06_675_dualstack_israu_two_existing_pdp_one_with_fqdn_then_activate_ipv4v6_pdp_under_nevertrypgw_with_sogt_true.LWG
p443
aVtc_06_655_dualstack_activate_ipv4_requested_ipv4v6_subscribed_ipv4v6_dsg_false_spt_ipv4_fallback_to_plain_ggsn.LWG
p444
aVtc_369_062_ue_release_request_user_inactivity_during_waiting_for_location_report__idr_flags_ef.LW
p445
aVtc_366_002_intra_ISC_L2G_rau_local_user_reject_ip_area_to_another_ip_area.LWG
p446
aVtc_284_610_pdn_connectivity_with_empty_apn_rejected_with_cause_27.LW
p447
aVtc_320_035_gsm_paging_cs.LWG
p448
aVtc_358_105_lte_local_user_reactivate_pdn_intra_tau_ip_area_to_another_irr_nrr_ip_area.LW
p449
aVtc_369_072_create_bearer_request_during_waiting_location_report__idr_flags_ef.LWG
p450
aVtc_320_089_ue_trace_after_ap_crash.LWG
p451
aVtc_358_113_lte_local_user_inter_tau_old_in_ip_area_response_imsi_unknown.LWG
p452
aVtc_357_400_wcdma_allowed_local_user_attach_from_irr_nrr_ip_area.LW
p453
aVtc_306_728_ef_seamless_move_by_mme_ue_ecm_idle_wf_forward_relocation_response_failed_interfered_by_cs_paging_receive_service_request.LWG
p454
aVtc_295_301_Intra_S1_HO_MT_CALL_while_wf_Handover_Notify.LWG
p455
aVtc_06_654_dualstack_activate_ipv4v6_requested_ipv4v6_subscribed_ipv4v6_dsg_true_fallback_to_plain_ggsn.LWG
p456
aVtc_288_365_pgw_init_bearer_mod_qci_counters__qci4_8_128_129_254_255.LW
p457
aVtc_202_54_3gpp_move_cs_paging_wf_context_ack.LW
p458
aVtc_241_1689_intra_rau_with_sgw_change_interferred_by_reset_before_create_rsp_no_create_rsp_paging_fail.LW
p459
aVtc_367_120_pgw_reselection_ho_without_qci_1_buffered_dbr_then_sgw_dbr_reactivate_requested.LW
p460
aVtc_320_063_mo_sms.LWG
p461
aVtc_364_003_output_from_list_ue_trace_for_triggered_trace_session.LWG
p462
aVtc_357_426_wcdma_local_user_inter_relocation_source_in_ip_area_reject.LW
p463
aVtc_288_362_pgw_init_bearer_mod_qci_counters__qci1_4_5_9_10_254.LW
p464
aVtc_265_253_Detach_Flow_NW_init__Sgs_CS_Paging_while_wf_detach_accept.LWG
p465
aVtc_367_152_pgw_reselection_irat_Gn_ho_with_qci_1_delete_session_response_error_reattach_required.LW
p466
aVtc_369_083_mme_initiated_detach_during_waiting_location_report__idr_flags_ef.LW
p467
aVtc_369_107_HSS_based_PCSCF_restoration_ecm_connected_erab_release_command_no_response.LWG
p468
aVtc_357_321_gsm_international_roaming_user_reject_intra_ps_handover_non_ip_area_to_irr_nrr_ip_area.LWG
p469
aVtc_214_1241_mo_sms_active_nas_non_delivery_x2_handover_triggered_mt_sms_intefering_x2_ho.LW
p470
aVtc_369_115_HSS_based_PCSCF_restoration_ecm_idle_only_one_ims_pdn_paging_failed.LW
p471
aVtc_367_118_pgw_reselection_ho_without_qci_1_buffered_ubr_reject_then_reactivate_requested.LWG
p472
aVtc_238_421_mme_eps_irat_ho_target__volte_bearer_gauge_create_session_response_with_new_qci.LWG
p473
aVtc_357_413_wcdma_local_user_inter_rau_old_in_ip_area_response_not_contain_pdp.LWG
p474
aVtc_320_071_ms_attach_auth_cipher_resp_with_imeisv.LWG
p475
aVtc_225_915_mo_call_active_mode__sgs_cs_paging_wf_suspend_acknowledge.LW
p476
aVtc_262_1104_imsi_attach_volte_bearer_gauge_piggyback_dedicated_bearer.LW
p477
aVtc_357_440_wcdma_local_user_attach_to_ip_area_without_pdp.LWG
p478
aVtc_295_303_Intra_S1_HO_MT_SMS_while_wf_tau_after_handover.LWG
p479
aVtc_278_452_Inter_TAU_Old_MME__Ecm_Connected_Sgs_CS_Paging_Call_while_wait_for_context_ack.LW
p480
aVtc_295_303_Intra_S1_HO_MT_SMS_while_wf_tau_after_handover.LW
p481
aVtc_358_035_lte_iterator_explicit_detach_wf_detach_accept_timeout.LW
p482
aVtc_280_037_create_dedicated_bearers_qci_counters__qci9_and_qci255.LW
p483
aVtc_367_121_pgw_reselection_ho_with_qci_1_2_only_qci_2_bearer_not_setup_sgw_dbr_reactivate_requested.LW
p484
aVtc_241_1694_intra_rau_without_sgw_change_interferred_by_reset_resource_after_modify_bearer_request.LW
p485
aVtc_320_052_authentication_ciphering_failure.LWG
p486
aVtc_367_116_pgw_reselection_ho_2_ims_pdn_diff_qci_sgw_send_dbr_both_reactivate_requested.LWG
p487
aVtc_263_454_Attach_Flow__S1_Reset_then_Emergency_Attach_while_waiting_for_Create_Session_Response_Error_Cause.LW
p488
aVtc_280_044_create_dedicated_bearers_qci_counters__qci1_7_8_9_10_69_70.LW
p489
aVtc_283_067_MME_Deactivate_Bearer__Delete_Bearer_Request_2_bearer_while_wf_Delete_Bearer_Request_1_bearer_same_partially.LW
p490
aVtc_358_021_lte_iterator_turn_off_feature_with_ipAddressReset_irrEnabled_nrrEnabled_false.LWG
p491
aVtc_26_228_downlink_paging_interfered_by_insert_subscriber_data_rab_assignment_response_with_decreased_qos_GnOverrideSubscribedQos.LWG
p492
aVtc_357_429_wcdma_national_roaming_user_inter_relocation_target_in_nrr_ip_area_reject.LWG
p493
aVtc_197_821_optimized_gw_selection_handover_from_non3gpp_static_gw_selection_enabled.LW
p494
aVtc_357_431_wcdma_local_user_intra_rau_normally_between_white_area.LWG
p495
aVtc_369_121_HSS_based_PCSCF_restoration_ecm_connected_subscribered_ambr_update.LW
p496
aVtc_276_451_Inter_TAU_New_MME__Sgs_Paging_CS_Call_while_wait_for_modify_bearer_response.LW
p497
aVtc_357_010_gsm_iterator_ipAddressReset_nrrEnabled_modify_to_true_while_one_pdp_already_in_target_area.LWG
p498
aVtc_44_075_s1ap_mdholpap_counters_tau.LWG
p499
aVtc_202_62_3gpp_move_mt_sms_wf_ue_context_release_complete.LWG
p500
aVtc_310_401_srvcc_ps_cs_mt_csfb_wf_delete_bearer_request.LWG
p501
aVtc_203_451_mme_eps_handover_source__sms_paging_wf_forward_relocation_complete_notification.LW
p502
aVtc_274_616_combined_TAU_Alert_Request_CS_Call_Paging_request_while_waiting_for_AIA.LW
p503
aVtc_203_451_mme_eps_handover_source_inter__no_cancel_location_with_combined_attach.LW
p504
aVtc_194_112_cli_get_subscriber_combined_attach_when_turn_on_sms_over_sgs_and_csfb_to_1xrtt.LWG
p505
aVtc_357_432_wcdma_local_user_inter_rau_old_in_ip_area_response_only_contain_white_pdp.LWG
p506
aVtc_197_820_optimized_gw_selection_handover_from_non3gpp.LWG
p507
aVtc_357_009_gsm_iterator_turn_on_feature_switch_with_irrEnabled_false_ipAddressReset_nrrEnabled_true.LWG
p508
aVtc_278_453_Inter_TAU_Old_MME__Ecm_Connected_Sgs_CS_Paging_SMS_while_wait_for_context_ack.LW
p509
aVtc_263_413_Attach_Flow_in_ecm_connected__HSS_Init_QoS_Modification_Delete_Session_Response.LW
p510
aVtc_44_076_s1ap_mdholpap_counters_detach.LWG
p511
aVtc_203_450_mme_eps_handover_source__cs_paging_wf_forward_relocation_complete_notification.LWG
p512
aVtc_578_55_check_test_gw_selection_l_sx_feature_on.LW
p513
aVtc_202_611_mf_seamless_move_by_mme__job_stopped_new_move_to_different_target.LW
p514
aVtc_263_512_Attach_Flow__mt_sms_while_waiting_for_ics_response.LW
p515
aVtc_241_1689_intra_rau_with_sgw_change_interferred_by_reset_before_create_rsp_no_create_rsp_paging_fail.LWG
p516
aVtc_277_112_tau_inter_old_ddn_with_imsi_while_received_context_request.LWG
p517
aVtc_369_084_me_identity_check_answer_during_waiting_location_report__idr_flags_ef.LW
p518
aVtc_369_072_create_bearer_request_during_waiting_location_report__idr_flags_ef.LW
p519
aVtc_358_045_lte_iterator_EF_Update_Bearer_Request_wf_delete_session_response.LW
p520
aVtc_280_042_create_dedicated_bearers_qci_counters__qci_10_64_67_68_71_127.LW
p521
aVtc_322_163_smooth_move_ef_other_nas_after_paging_response_ignore.LW
p522
aVtc_238_421_mme_eps_irat_ho_target__volte_bearer_gauge_create_session_response_with_new_qci.LW
p523
aVtc_194_829_normal_attach_set_odb_data_attach_reject_for_visitor.LWG
p524
aVtc_369_056_service_request_during_waiting_for_location_report__idr_flags_ef.LWG
p525
aVtc_364_211_2_af_buffered_signalling_history_at_transfer_lte_tau.LWG
p526
aVtc_320_075_inter_rau_with_imsi_imei.LWG
p527
aVtc_357_416_wcdma_international_roaming_user_inter_rau_new_in_irr_nrr_ip_area_reject.LW
p528
aVtc_225_921_mt_sms_idle_mode__sgs_cs_paging_wf_service_request.LW
p529
aVtc_310_351__ef__tau_wf_ps_to_cs_response_and_foraward_relocation_response_sti_false.LW
p530
aVtc_263_451_Attach_Flow__ME_Identity_Check_Answer_Blacklisted_while_waiting_for_Create_Session_Response_Time_Out.LWG
p531
aVtc_357_103_wcdma_iterator_add_rai_into_ip_alloc_area_with_ipAddressReset_true_irrEnabled_nrrEnabled_false.LWG
p532
aVtc_202_53_3gpp_move_cs_paging_wf_context_request.LWG
p533
aVtc_282_160_pgw_init_deactivate_bearer_indexed_counter_qci128_qci255.LWG
p534
aVtc_238_427_mme_eps_irat_ho_target__cs_paging_wf_forward_relocation_complete_acknowledge.LW
p535
aVtc_346_649_pra_cn_predefined_all_list__seamless_move_2pdns__service_request.LW
p536
aVtc_203_453_mme_eps_handover_source__sms_paging_wf_forward_relocation_response.LW
p537
aVtc_320_053_authentication_ciphering_reject.LWG
p538
aVtc_218_353_tau_from_sgsn__mt_sms_while_wf_modify_bearer_response.LW
p539
aVtc_256_395_mme_eps_srvcc_ho_source_cs_only_ef_dbr_for_voice_bearer_wf_srvcc_ps_to_cs_complete_notification.LW
p540
aVtc_367_111_pgw_reselection_irat_Gn_ho_pgw_not_change.LWG
p541
aVtc_237_412_mme_eps_irat_ho_source__sms_paging_wf_cancel_location.LW
p542
aVtc_367_108_pgw_reselection_ho_with_qci_1_s1_release_reactivate_requested.LWG
p543
aVtc_357_436_wcdma_local_user_inter_relocation_source_in_ip_area_with_one_pdp_activated_in_non_ip_area.LW
p544
aVtc_367_110_pgw_reselection_irat_Gn_ho_without_qci_1_reattach_required.LW
p545
aVtc_214_632_combined_attach_MSC_selection_in_pool_then_paging_MSC_pool_feature_off_when_waiting_for_modify_bearer_response.LWG
p546
aVtc_256_395_mme_eps_srvcc_ho_source_cs_only_ef_dbr_for_voice_bearer_wf_srvcc_ps_to_cs_complete_notification.LWG
p547
aVtc_06_674_dualstack_israu_two_existing_pdp_one_with_fqdn_then_activate_pdp_under_nevertrypgw_with_sogt_true.LWG
p548
aVtc_369_021_ecm_connected_ccr_feature_on__locationinfo_currentinfo__idr_flags.LW
p549
aVtc_280_039_create_dedicated_bearers_qci_counters__qci1_and_qci0.LW
p550
aVtc_225_910_mo_call_idle_mode__sgs_cs_paging_wf_Initial_Context_Setup_Response.LWG
p551
aVtc_238_428_mme_eps_irat_ho_target__cs_paging_wf_modify_bearer_response.LW
p552
aVtc_92_02_30_meas_type.LWG
p553
aVtc_263_458_Attach_Flow__Cancel_Location_Initial_Attach_then_Attach_again_while_waiting_for_Create_Session_Response.LW
p554
aVtc_241_250_inter_rau_pdp_status_check_failed_with_sgw_unchange_cause_decicated_bearer_deactivating.LWG
p555
aVtc_06_673_dualstack_israu_one_existing_pdp_with_fqdn_then_activate_pdp_under_preferpgwforlteue_with_sogt_false.LWG
p556
aVtc_217_130_rau_to_sgsn_cancel_location_initial_attach_when_wf_20s_timeout.LW
p557
aVtc_26_225_downlink_paging_interfered_by_delete_subscriber_data.LWG
p558
aVtc_276_457_Inter_TAU_New_MME__Sgs_Paging_SMS_while_wait_for_modify_bearer_response_failed.LWG
p559
aVtc_276_446_Inter_TAU_New_MME__Sgs_Paging_CS_Call_while_wait_for_context_response.LW
p560
aVtc_265_127_Detach_Flow_NW_init__Cancel_Location_Initial_Attach_while_waiting_for_Detach_Accept.LW
p561
aVtc_369_101_HSS_based_PCSCF_restoration_ecm_connected_roaming_ue_two_pdns_one_ims_deactivation.LWG
p562
aVtc_357_309_gsm_international_roaming_user_reject_intra_rau_non_ip_area_to_irr_ip_area.LWG
p563
aVtc_92_02_40_meas_type_info.LWG
p564
aVtc_357_431_wcdma_local_user_intra_rau_normally_between_white_area.LW
p565
aVtc_225_914_mo_call_idle_mode__sgs_cs_paging_wf_UE_Context_Release_Complete.LW
p566
aVtc_369_001_notification_during_attach__idr_flags.LW
p567
aVtc_357_120_wcdma_add_source_rai_into_ip_area_when_intra_rau_ongoing.LWG
p568
aVtc_320_045_source_bsc_initiate_ps_handover_request_nack.LWG
p569
aVtc_366_018_intra_ISC_G2L_tau_local_user_reject_between_same_ip_area.LWG
p570
aVtc_364_101_mf_trigger_match_dont_create_ue_trace_session.LW
p571
aVtc_320_038_suspend_resume_procedure.LWG
p572
aVtc_231_762_dualstack_apn_redirect_requested_ipv4v6_subscribed_ipv4v6_ipv6up_off.LWG
p573
aVtc_369_005_ecm_connected__timezone__idr_flags.LW
p574
aVtc_357_401_wcdma_reject_international_roaming_user_attach_from_irr_ip_area.LW
p575
aVtc_263_532_ReAttach_Flow_mt_sms_while_waiting_for_attach_complete.LW
p576
aVtc_92_03_10_pm_group.LWG
p577
aVtc_368_001_PDN_disconnect_after_tau_without_qci_1_bearer_erab_release_indication_default_bearer_wf_delete_session_resp.LWG
p578
aVtc_231_766_dualstack_apn_redirect_requested_ipv4v6_subscribed_ipv4_or_ipv6_spt_ipv6_ipv6up_off.LWG
p579
aVtc_357_418_wcdma_local_user_reject_intra_relocation_ip_area_to_another_ip_area.LW
p580
aVtc_357_307_gsm_international_roaming_user_intra_rau_normally_between_same_ip_area.LWG
p581
aVtc_369_014_ecm_idle__notification_reachability_userstate_locationfinfo_currentinfo__idr_flags.LW
p582
aVtc_358_032_lte_iterator_multi_pdn_wf_one_deactivate_eps_bearer_context_accept_timeout.LWG
p583
aVtc_369_087_uplink_ue_associated_LPPa_transport_during_waiting_location_report__idr_flags_ef.LWG
p584
aVtc_262_931_attach_reject_with_cc27__attach_req_no_apn_and_esm_infor_with_apn.LWG
p585
aVtc_357_013_gsm_iterator_turn_off_feature_with_ipAddressReset_true_irrEnabled_nrrEnabled_false.LWG
p586
aVtc_369_009_ecm_connected__notification_reachability_userstate_locationinfo__idr_flags.LWG
p587
aVtc_358_117_lte_national_roaming_user_inter_tau_new_in_irr_nrr_ip_area_reject.LWG
p588
aVtc_245_326_israu_new_l_to_w_with_sgw_unchange_2_pdn_service_request_intefered_by_deactivate_pdp_req_without_tdi_delicated_bearer.LW
p589
aVtc_320_062_sm_status_from_ms.LWG
p590
aVtc_197_820_optimized_gw_selection_handover_from_non3gpp.LW
p591
aVtc_278_456_Inter_TAU_Old_MME_Intra_TAU_while_waiting_for_cancel_location__Sgs_Paging_Call_while_waiting_for_ue_context_release_complete.LW
p592
aVtc_357_406_wcdma_local_user_reactivate_pdp_intra_rau_non_ip_area_to_ip_area.LWG
p593
aVtc_231_521_PGW_init_modification_EF_ms_activation_at_rab_setup_and_then_rnc_reset.LW
p594
aVtc_320_049_ggsn_initiate_secondary_pdp_activation.LWG
p595
aVtc_369_051_reset_from_hss_during_waiting_for_paging_response__idr_flags_ef.LW
p596
aVtc_320_060_gmm_status_from_sgsn.LWG
p597
aVtc_358_104_lte_local_user_reactivate_pdn_intra_tau_ip_area_to_another_ip_area.LW
p598
aVtc_364_211_1_af_buffered_signalling_history_at_transfer_lte_attach.LW
p599
aVtc_369_057_extended_service_request_during_waiting_for_location_report__idr_flags_ef.LW
p600
aVtc_197_805_optimized_gw_selection_attach_static_gw_seleciton_enable.LW
p601
aVtc_314_048_sgsn_init_qos_modification_handover_l_to_w_interrupt_by_reset_paging_fail.LWG
p602
aVtc_367_106_pgw_reselection_ho_with_qci_1_bearer_not_setup_reattach_required.LW
p603
aVtc_369_015_ecm_connected__notification_reachability_userstate_locationinfo_currentinfo__idr_flags.LW
p604
aVtc_364_055_no_auto_delete_if_not_create_ue_trace_session.LW
p605
aVtc_369_106_HSS_based_PCSCF_restoration_ecm_connected_two_pdns_one_ims_no_delete_session_response.LWG
p606
aVtc_357_312_gsm_national_roaming_user_reactivate_pdp_intra_rau_ip_area_to_non_ip_area.LWG
p607
aVtc_357_421_wcdma_international_roaming_user_reject_intra_relocation_non_ip_area_to_irr_nrr_ip_area.LWG
p608
aVtc_284_310_1_mme_initiated_deactivate_bearer_on_def_with_4_ded_of_2_def_different_qcis.LWG
p609
aVtc_367_103_pgw_reselection_ho_with_qci_1_erab_release_reattach_required.LW
p610
aVtc_320_056_request_secondary_pdp_context_activation_reject_from_ms.LWG
p611
aVtc_276_449_Inter_TAU_New_MME__Sgs_Paging_CS_Call_while_wait_for_location_update_accept.LW
p612
aVtc_357_300_gsm_allowed_local_user_attach_from_irr_nrr_ip_area.LWG
p613
aVtc_06_671_dualstack_israu_two_existing_pdp_one_with_fqdn_then_activate_pdp_under_nevertrypgw_with_sogt_false.LWG
p614
aVtc_357_325_gsm_national_roaming_user_reject_intra_ps_handover_non_ip_area_to_irr_nrr_ip_area.LWG
p615
aVtc_340_140_validation_move_l_job_stopped_new_move_with_different_filter.LWG
p616
aVtc_369_059_uplink_generic_nas_transport_during_waiting_for_location_report__idr_flags_ef.LWG
p617
aVtc_218_552_tau_from_sgsn_combined__subscription_deleted_wf_location_update_response.LW
p618
aVtc_218_350_tau_from_sgsn__mt_call_while_wf_initial_context_setup_response.LW
p619
aVtc_367_107_pgw_reselection_ho_with_qci_1_sgw_dbr_reactivate_requested.LW
p620
aVtc_367_122_pgw_reselection_ho_with_qci_1_s1_release_reattach_required.LWG
p621
aVtc_218_553_tau_from_sgsn__subscription_cancelled_wf_initial_context_setup_response.LWG
p622
aVtc_358_001_lte_iterator_caused_by_config_creation_with_ipAddressReset_true_irrEnabled_nrrEnabled_false.LW
p623
aVtc_366_026_intra_ISC_W2L_tau_national_roaming_user_reject_unrestricted_ip_area_to_nrr_ip_area.LWG
p624
aVtc_358_119_lte_local_user_reject_intra_handover_unrestricted_ip_area_to_ip_area.LWG
p625
aVtc_357_331_gsm_local_user_intra_rau_normally_between_white_area.LWG
p626
aVtc_369_123_HSS_based_PCSCF_restoration_ecm_connected_uereachability_userstate_locationinfo_currentinfo_timezone.LW
p627
aVtc_357_314_gsm_national_roaming_user_inter_rau_new_in_ip_area_reactivate_pdp.LWG
p628
aVtc_369_067_cancel_location_subscription_withdrawn_from_hss_during_waiting_location_report__idr_flags_ef.LWG
p629
aVtc_369_018_ecm_connected__notification_reachability_tads_userstate_locationinfo_currentinfo_timezone__idr_flags.LWG
p630
aVtc_284_337_deactivate_1_default_bearer_of_last_active_pdn_while_2_pdn_is_creating.LWG
p631
aVtc_366_013_intra_ISC_L2W_rau_local_user_deactivate_pdp_implicitly_ip_area_to_unrestricted_ip_area.LWG
p632
aVtc_237_421_mme_af_eps_irat_ho_source__sms_paging_wf_forward_relocation_response.LW
p633
aVtc_263_455_Attach_Flow__Cancel_Location_Update_Procedure_while_waiting_for_Create_Session_Response.LWG
p634
aVtc_263_511_Attach_Flow__mt_sms_while_waiting_for_location_update_accept.LW
p635
aVtc_367_100_pgw_reselection_ho_without_qci_1_reactivation_requested.LW
p636
aVtc_578_10_02_check_ss7_status_multiple_dpc_for_same_ssn_name_net.LWG
p637
aVtc_369_009_ecm_connected__notification_reachability_userstate_locationinfo__idr_flags.LW
p638
aVtc_284_331_deactivate_1_default_bearer_of_not_last_active_pdn_while_1_pdn_is_creating_and_wf_create_session_response.LW
p639
aVtc_364_202_af_trigger_hits_when_max_ue_trace_sessions_reached.LW
p640
aVtc_357_304_gsm_local_user_reactivate_pdp_intra_rau_ip_area_to_another_ip_area.LWG
p641
aVtc_367_112_pgw_reselection_irat_Gn_ho_without_qci_1_feature_off.LWG
p642
aVtc_263_455_Attach_Flow__Cancel_Location_Update_Procedure_while_waiting_for_Create_Session_Response.LW
p643
aVtc_218_353_tau_from_sgsn__mt_sms_while_wf_modify_bearer_response.LWG
p644
aVtc_280_034_create_dedicated_bearers_qci_counters__qci0.LW
p645
aVtc_44_076_s1ap_mdholpap_counters_detach.LW
p646
aVtc_358_023_lte_iterator_talist_isomerous_connected_state.LWG
p647
aVtc_197_800_optimized_gw_selection_attach_main_flow.LWG
p648
aVtc_314_120_HSS_based_PCSCF_restoration_one_ims_pdn_idr_with_bit8.LWG
p649
aVtc_364_053_duration_needed_if_auto_delete_ue_trace_session.LWG
p650
aVtc_225_116_mo_call_emergency_active_mode_ho_not_supported_with_msc_unchange.LWG
p651
aVtc_357_429_wcdma_national_roaming_user_inter_relocation_target_in_nrr_ip_area_reject.LW
p652
aVtc_92_04_10_meas_reader.LWG
p653
aVtc_212_0256_Ccheck_pgw_reselection_ue_selection_profile_check_apn_list.LWG
p654
aVtc_06_660_dualstack_apn_redirect_requested_ipv4v6_subscribed_ipv4v6.LWG
p655
aVtc_225_912_mo_call_idle_mode__sgs_sms_paging_wf_UE_Context_Release_Request.LWG
p656
aVtc_283_068_MME_Deactivate_Bearer__Delete_Bearer_Request_2_bearer_while_wf_Delete_Bearer_Request_2_bearer_same_partially.LWG
p657
aVtc_225_903_mt_call_active_mode_while_la_updating_ptpi_true_tamr_true.LWG
p658
aVtc_358_026_lte_iterator_no_action.LW
p659
aVtc_194_149_cli_get_subscriber_combined_tau_when_turn_on_sms_over_sgs_and_csfb_to_wg.LWG
p660
aVtc_314_019_hss_init_qos_modification_apn_ambr_higher_interrupt_by_reset_no_UBR.LWG
p661
aVtc_256_400_mme_eps_srvcc_ho_source_cs_only__cs_paging_wf_srvcc_ps_to_cs_response.LW
p662
aVtc_357_110_wcdma_iterator_ipAddressReset_nrrEnabled_modify_to_true_while_one_pdp_already_in_target_area.LWG
p663
aVtc_225_417_mt_call_idle_mode__detach_request_while_wf_s1_connection.LW
p664
aVtc_358_121_lte_international_roaming_user_reject_intra_handover_unrestricted_ip_area_to_irr_nrr_ip_area.LWG
p665
aVtc_320_065_cp_error_from_sgsn.LWG
p666
aVtc_284_338_deactivate_2_default_bearer_continuously_while_1_pdn_is_creating_and_wf_create_session_response.LWG
p667
aVtc_358_133_lte_local_user_inter_tau_old_in_ip_area_response_only_contain_unrestricted_ip_pdn.LWG
p668
aVtc_306_720_ef_seamless_move_by_mme_ue_ecm_idle_wf_forward_relocation_response_interfered_by_cs_paging.LW
p669
aVtc_199_120_s11_path_management_small_restarted.LWG
p670
aVtc_364_206_af_maximum_nr_of_trigger_matching_UEs_reached.LWG
p671
aVtc_358_005_lte_iterator_ipAllocEnabled_modify_to_true_with_ipAddressReset_irrEnabled_true_nrrEnabled_false.LWG
p672
aVtc_218_354_tau_from_sgsn__mt_call_while_wf_ue_contexte_release_complete.LW
p673
aVtc_358_102_lte_allowed_international_roaming_user_attach_from_non_irr_ip_area.LWG
p674
aVtc_225_821_mt_csfb_idle_mode_combined_tau_as_paging_response_with_location_update.LW
p675
aVtc_367_106_pgw_reselection_ho_with_qci_1_bearer_not_setup_reattach_required.LWG
p676
aVtc_202_60_3gpp_move_mt_sms_wf_service_request.LWG
p677
aVtc_256_145_mme_eps_srvcc_ho_source_cs_only_initial_ue_tau_request_wf_srvcc_ps_to_cs_complete_notification_sti_true.LW
p678
aVtc_369_066_path_switch_request_during_waiting_location_report__idr_flags_ef.LWG
p679
aVtc_263_530_ReAttach_Flow_mt_sms_while_waiting_for_create_session_response.LWG
p680
aVtc_274_602_combined_TAU_SMS_Paging_request_while_waiting_for_initial_context_response.LW
p681
aVtc_320_054_rau_reject_from_sgsn.LWG
p682
aVtc_274_604_combined_TAU_SMS_Paging_request_while_waiting_for_AIA_wf_downlink_unitdata_timeout.LWG
p683
aVtc_357_412_wcdma_national_roaming_user_reactivate_pdp_intra_rau_ip_area_to_non_ip_area.LWG
p684
aVtc_214_1240_mo_sms_active_nas_non_delivery_x2_handover_triggered_mt_call_intefering_x2_ho.LW
p685
aVtc_256_401_mme_eps_srvcc_ho_source_cs_only__cs_paging_wf_delete_bearer_request.LW
p686
aVtc_11_763_dualstack_apn_redirect_requested_ipv4v6_subscribed_ipv4v6_dsg_false_spt_ipv4_fallback_to_plain_ggsn.LW
p687
aVtc_263_413_Attach_Flow_in_ecm_connected__HSS_Init_QoS_Modification_Delete_Session_Response.LWG
p688
aVtc_214_1235_hss_reset_then_s1_release_interferred_by_sgsap_paging_csfb_then_interferred_by_combined_tau.LWG
p689
aVtc_276_451_Inter_TAU_New_MME__Sgs_Paging_CS_Call_while_wait_for_modify_bearer_response.LWG
p690
aVtc_225_911_mo_call_active_mode__sgs_sms_paging_wf_Modify_Context_Response_from_eNodeB.LWG
p691
aVtc_320_033_llc_discard.LWG
p692
aVtc_256_397_mme_eps_srvcc_ho_source_cs_only_ef_dbr_for_non_voice_bearer_wf_srvcc_ps_to_cs_response.LW
p693
aVtc_276_446_Inter_TAU_New_MME__Sgs_Paging_CS_Call_while_wait_for_context_response.LWG
p694
aVtc_369_091_downlink_A21_AIS_during_waiting_location_report__idr_flags_ef.LW
p695
aVtc_369_125_HSS_based_PCSCF_restoration_ecm_idle_with_locationinfo_currentinfo.LWG
p696
aVtc_357_410_wcdma_national_roaming_user_reject_intra_rau_ip_area_to_another_irr_nrr_ip_area.LW
p697
aVtc_369_086_ERAB_release_indication_during_waiting_location_report__idr_flags_ef.LW
p698
aVtc_197_806_optimized_gw_selection_attach_wcdma.LW
p699
aVtc_283_062_MME_Deactivate_Bearer__Delete_Bearer_Request_while_wf_Delete_Bearer_Request_same_2_bearers.LWG
p700
aVtc_225_922_mt_sms_idle_mode__sgs_cs_paging_wf_service_request_timeout.LW
p701
aVtc_357_401_wcdma_reject_international_roaming_user_attach_from_irr_ip_area.LWG
p702
aVtc_358_016_lte_remove_ra_from_ip_area_with_ipAddressReset_irrEnabled_nrrEnabled_false_while_one_pdn_in_unrestricted_ip_area.LWG
p703
aVtc_357_005_gsm_iterator_ipAllocEnabled_modify_to_true_with_ipAddressReset_irrEnabled_true_nrrEnabled_false.LWG
p704
aVtc_364_104_mf_include_pre_imsi_messages_in_ue_tracer_log_trigger.LWG
p705
aVtc_203_451_mme_eps_handover_source__sms_paging_wf_forward_relocation_complete_notification.LWG
p706
aVtc_197_800_optimized_gw_selection_attach_main_flow.LW
p707
aVtc_358_108_lte_international_roaming_user_reject_intra_tau_ip_area_to_another_irr_nrr_ip_area.LWG
p708
aVtc_274_601_combined_TAU_CS_Call_Paging_request_while_waiting_for_initial_context_response.LW
p709
aVtc_358_100_lte_allowed_local_user_attach_from_irr_nrr_ip_area.LWG
p710
aVtc_274_610_combined_TAU_MT_Call_while_waiting_for_AIA_MO_SMS_wf_initial_context_response.LW
p711
aVtc_267_740_Service_Request__SMS_Paging_wf_ics_response_then_CS_paging_while_waiting_for_Modify_Bearer_Response.LWG
p712
aVtc_369_075_delete_bearer_request_change_to_non3GPP_during_waiting_location_report__idr_flags_ef.LWG
p713
aVtc_237_414_mme_eps_irat_ho_source__cs_paging_wf_delete_session_response.LW
p714
aVtc_357_111_wcdma_iterator_ipAllocEnabled_modify_to_false_irrEnabled_modify_to_true_with_ipAddressReset_true_nrrEnabled_false.LWG
p715
aVtc_326_822_IRAT_Tau_as_response_to_recovery_paging.LWG
p716
aVtc_358_138_lte_local_user_inter_handover_with_one_pdn_activated_in_no_ip_area_and_one_not.LW
p717
aVtc_265_252_Detach_Flow_NW_init__Sgs_CS_Paging_while_wf_delete_session_response.LWG
p718
aVtc_284_333_deactivate_1_default_bearer_of_not_last_active_pdn_while_1_pdn_is_creating_and_wf_activate_default_eps_bearer_context_accept.LWG
p719
aVtc_358_016_lte_remove_ra_from_ip_area_with_ipAddressReset_irrEnabled_nrrEnabled_false_while_one_pdn_in_unrestricted_ip_area.LW
p720
aVtc_367_159_pgw_reselection_irat_Gn_ho_with_qci_1_bearer_deactivate_timeout_reactivate_requested.LWG
p721
aVtc_357_021_gsm_add_target_rai_into_ip_area_when_intra_rau_ongoing.LWG
p722
aVtc_369_118_HSS_based_PCSCF_restoration_ecm_idle_deactivate_bearer_failed.LW
p723
aVtc_225_118_mo_call_emergency_active_mode_ho_not_supported_with_msc_unchange_ps_avaliable.LW
p724
aVtc_358_026_lte_iterator_no_action.LWG
p725
aVtc_278_452_Inter_TAU_Old_MME__Ecm_Connected_Sgs_CS_Paging_Call_while_wait_for_context_ack.LWG
p726
aVtc_357_006_gsm_iterator_ipAddressReset_irrEnabled_modify_to_true_while_one_pdp_already_in_target_area.LWG
p727
aVtc_367_113_pgw_reselection_irat_Gn_ho_without_qci_1_no_initial_ip_current_ip_notin_new_pgw_list.LWG
p728
aVtc_26_230_iu_release_request_while_waiting_for_rab_assignment_response_after_move_gn.LWG
p729
aVtc_225_117_mo_call_emergency_active_mode_ho_not_supported_with_msc_change_ps_available.LWG
p730
aVtc_202_55_3gpp_move_cs_paging_wf_cancel_location.LW
p731
aVtc_358_103_lte_reject_national_roaming_user_attach_from_nrr_ip_area.LWG
p732
aVtc_366_052_intra_ISC_L2W_reloaction_international_roaming_user_reject_between_same_ip_area.LWG
p733
aVtc_241_1695_intra_rau_without_sgw_change_interferred_by_Iu_release_after_modify_bearer_request.LWG
p734
aVtc_92_07_10_supervision.LWG
p735
aVtc_225_660_mt_call_active_mode_with_lai_in_paging_req_from_other_msc.LWG
p736
aVtc_364_055_no_auto_delete_if_not_create_ue_trace_session.LWG
p737
aVtc_256_410_mme_eps_srvcc_ho_source_cs_only__mt_sms_wf_srvcc_ps_to_cs_response_ignore_downlink_unit_data.LWG
p738
aVtc_357_418_wcdma_local_user_reject_intra_relocation_ip_area_to_another_ip_area.LWG
p739
aVtc_225_917_mt_call_idle_mode__sgs_cs_paging_wf_extended_service_request.LWG
p740
aVtc_357_407_wcdma_international_roaming_user_intra_rau_normally_between_same_ip_area.LWG
p741
aVtc_367_117_pgw_reselection_ho_2_ims_pdn_all_qci_1_sgw_send_dbr.LWG
p742
aVtc_369_013_ecm_connected__roamer__userstate_locationinfo_currentinfo__idr_flags.LW
p743
aVtc_241_1685_intra_rau_with_sgw_change_interferred_by_reset_before_create_rsp.LW
p744
aVtc_358_114_lte_local_user_inter_tau_new_in_ip_area_reactivate_pdn.LW
p745
aVtc_284_325_deactivate_1_default_bearer_of_last_active_pdn_while_1_pdn_is_creating_and_wf_create_session_response.LW
p746
aVtc_293_250_X2_Based_HO_IMSI_Detach_wf_imsi_detach_accept_aborted_by_Path_Switch_Request.LW
p747
aVtc_369_091_downlink_A21_AIS_during_waiting_location_report__idr_flags_ef.LWG
p748
aVtc_288_360_pgw_init_bearer_mod_qci_counters__qci1_and_10.LWG
p749
aVtc_358_131_lte_local_user_intra_tau_unrestricted_ip_area_to_ip_area_with_one_pdn_activated_in_target_ip_area.LW
p750
aVtc_357_335_gsm_local_user_intra_ps_handover_ip_area_to_non_ip_area_with_one_pdp_activated_in_non_ip_area.LWG
p751
aVtc_263_453_Attach_Flow__S1_Reset_then_Attach_again_while_waiting_for_Create_Session_Response.LW
p752
aVtc_367_151_pgw_reselection_ho_dns_query_return_empty.LW
p753
aVtc_369_108_HSS_based_PCSCF_restoration_ecm_connected_isc_tau_from_w_to_l.LW
p754
aVtc_214_633_combined_attach_MSC_selection_in_pool_then_paging_MSC_pool_feature_off_when_waiting_for_modify_bearer_response_failed.LWG
p755
aVtc_358_109_lte_international_roaming_user_reject_intra_tau_ip_area_to_irr_ip_area.LW
p756
aVtc_369_111_HSS_based_PCSCF_restoration_ecm_idle_roaming_ue_only_one_ims_pdn_detach.LW
p757
aVtc_266_616_Service_Request_Alert_Request__CS_Call_Paging_request_while_waiting_for_AIA.LW
p758
aVtc_358_105_lte_local_user_reactivate_pdn_intra_tau_ip_area_to_another_irr_nrr_ip_area.LWG
p759
aVtc_231_297_service_request_data_only_one_rab_response_si_rnc_reset_then_server_request_data_again.LW
p760
aVtc_256_396_mme_eps_srvcc_ho_source_cs_only_ef_dbr_for_non_voice_bearer_wf_delete_bearer_request_for_voice_bearer.LWG
p761
aVtc_197_822_optimized_gw_selection_s4_handover_from_non3gpp.LWG
p762
aVtc_367_121_pgw_reselection_ho_with_qci_1_2_only_qci_2_bearer_not_setup_sgw_dbr_reactivate_requested.LWG
p763
aVtc_96_065_intra_sgsn_intra_psho_wf_cell_update_interfered_by_camel_release.LWG
p764
aVtc_358_101_lte_reject_international_roaming_user_attach_from_irr_ip_area.LWG
p765
aVtc_214_1231_sgsap_alert_then_sgsap_paging_csfb_interferred_by_combined_tau.LWG
p766
aVtc_280_030_create_dedicated_bearers_qci_counters__qci1_and_qci10.LWG
p767
aVtc_263_412_Attach_Flow_in_ecm_idle__HSS_Init_QoS_Modification_wf_Initial_Context_Setup_Response.LWG
p768
aVtc_369_015_ecm_connected__notification_reachability_userstate_locationinfo_currentinfo__idr_flags.LWG
p769
aVtc_578_53_check_test_lrc.LWG
p770
aVtc_358_133_lte_local_user_inter_tau_old_in_ip_area_response_only_contain_unrestricted_ip_pdn.LW
p771
aVtc_258_320_location_reporting_control_after_x2_handover.LWG
p772
aVtc_357_114_wcdma_remove_ip_area_with_ipAddressReset_true_and_irrEnabled_nrrEnabled_false.LW
p773
aVtc_92_06_20_pm_job_log_content.LWG
p774
aVtc_578_49_check_parse_ebm_with_filter.LW
p775
aVtc_369_002_no_notification_during_attach__idr_flags.LW
p776
aVtc_204_1363_mme_eps_ho__sgs_cs_paging_wf_location_update_accept.LWG
p777
aVtc_225_915_mo_call_active_mode__sgs_cs_paging_wf_suspend_acknowledge.LWG
p778
aVtc_46_113_Ccheck_imMMEC_Check_config.LW
p779
aVtc_277_113_tau_inter_old_ddn_with_imsi_while_received_context_ack.LWG
p780
aVtc_369_081_sgsn_context_request_during_waiting_location_report__idr_flags_ef.LW
p781
aVtc_263_521_ReAttach_Flow_mt_cs_call_while_waiting_for_location_update_accept.LW
p782
aVtc_314_047_sgsn_init_qos_modification_handover_l_to_w_interrupt_by_reset_wrong_UBR.LW
p783
aVtc_357_322_gsm_international_roaming_user_reject_intra_ps_handover_ip_area_to_non_ip_area.LWG
p784
aVtc_369_060_ue_pdn_disconnect_request_during_waiting_for_location_report__idr_flags_ef.LW
p785
aVtc_369_078_context_request_during_waiting_location_report__idr_flags_ef.LW
p786
aVtc_369_085_location_response_during_waiting_location_report__idr_flags_ef.LW
p787
aVtc_357_122_wcdma_iterator_add_ga_into_ip_alloc_area_idle_no_paging_response.LWG
p788
aVtc_214_1242_combined_attach_mo_sms_wf_location_update_response_mt_sms_wf_initial_context_setup_response.LW
p789
aVtc_369_058_uplink_nas_transport_during_waiting_for_location_report__idr_flags_ef.LWG
p790
aVtc_242_800_rau_to_sgsn_s3_keep_sgw_ddn_while_received_context_request.LWG
p791
aVtc_204_1351_handover_target_inter_sgw_relocation_volte_bearer_gauge.LWG
p792
aVtc_217_130_rau_to_sgsn_cancel_location_initial_attach_when_wf_20s_timeout.LWG
p793
aVtc_196_020_ms_init_secondary_pdp_context_activation_reject_CC33.LWG
p794
aVtc_306_1106_ef_seamless_move_target_ecm_connected_receive_sgs_paging_with_sms_indicator_wf_paging_hold.LW
p795
aVtc_11_583_israu_new_only_one_old_pdp_with_fqdn_then_activate_one_pdp_under_nevertrypgw_with_sogt_false.LWG
p796
aVtc_369_125_HSS_based_PCSCF_restoration_ecm_idle_with_locationinfo_currentinfo.LW
p797
aVtc_218_348_tau_from_sgsn__mt_sms_while_wf_location_update_accept.LW
p798
aVtc_251_67_l_to_w_to_l_gnsgsn.LWG
p799
aVtc_369_090_all_other_SGs_message_during_waiting_location_report__idr_flags_ef.LWG
p800
aVtc_357_101_wcdma_iterator_caused_by_config_creation_with_ipAddressReset_true_irrEnabled_nrrEnabled_false.LW
p801
aVtc_194_196_hss_reset_visited_network_id_missed_in_apn_configuration_when_dyn_pgw_assignment.LW
p802
aVtc_358_109_lte_international_roaming_user_reject_intra_tau_ip_area_to_irr_ip_area.LWG
p803
aVtc_196_181_nrspca_during_the_same_nsapi_ggsn_initiate_pdp_deactivation_rab_release.LW
p804
aVtc_578_52_check_uetracer_parser.LW
p805
aVtc_358_009_lte_iterator_turn_on_feature_with_irrEnabled_false_ipAddressReset_nrrEnabled_true.LW
p806
aVtc_92_07_40_supervision.LWG
p807
aVtc_369_105_HSS_based_PCSCF_restoration_ecm_connected_detach_request_no_response.LWG
p808
aVtc_357_023_gsm_iterator_move_ra_from_one_area_to_another.LWG
p809
aVtc_197_801_optimized_gw_selection_attach_subscribed_static_pgw.LWG
p810
aVtc_256_400_mme_eps_srvcc_ho_source_cs_only__cs_paging_wf_srvcc_ps_to_cs_response.LWG
p811
aVtc_284_610_pdn_connectivity_with_empty_apn_rejected_with_cause_27.LWG
p812
aVtc_231_297_service_request_data_only_one_rab_response_si_rnc_reset_then_server_request_data_again.LWG
p813
aVtc_293_260__X2_Based_HO__MT_Call_while_wf_Modify_Bearer_Response.LW
p814
aVtc_369_088_reset_from_msc_during_waiting_location_report__idr_flags_ef.LW
p815
aVtc_357_103_wcdma_iterator_add_rai_into_ip_alloc_area_with_ipAddressReset_true_irrEnabled_nrrEnabled_false.LW
p816
aVtc_369_122_HSS_based_PCSCF_restoration_ecm_connected_pdn_type_change_for_ims_pdn.LWG
p817
aVtc_11_759_dualstack_activate_ipv6_requested_ipv4v6_subscribed_ipv4v6_dsg_false_spt_ipv6_fallback_to_plain_ggsn.LWG
p818
aVtc_327_192_recovery_intra_TAU_MT_CALL_while_waiting_for_Location_Update_Response.LW
p819
aVtc_11_580_israu_new_old_pdp_with_fqdn_then_activate_one_pdp_under_nevertrypgw_sogt_true_initiate_naptr_query.LW
p820
aVtc_319_169_ho_mf_gw_blacklisting_available_to_blocked_l_to_w.LWG
p821
aVtc_366_021_intra_ISC_G2L_tau_local_user_reject_unrestricted_ip_area_to_irr_nrr_ip_area.LWG
p822
aVtc_268_106_ue_release__cs_paging_sms_wf_ue_release_complete.LWG
p823
aVtc_358_106_lte_local_user_reactivate_pdn_intra_tau_unrestricted_ip_area_to_ip_area.LW
p824
aVtc_284_612_emergency_pdn_connectivity_with_empty_apn_rejected_with_cause_33.LWG
p825
aVtc_295_305_Intra_S1_HO_MT_SMS_while_wf_Handover_Notify_MO_SMS_wf_tau_after_handover_Downlink_unit_data_after_release_request.LWG
p826
aVtc_263_412_Attach_Flow_in_ecm_idle__HSS_Init_QoS_Modification_wf_Initial_Context_Setup_Response.LW
p827
aVtc_369_092_provide_location_request_during_waiting_location_report__idr_flags_ef.LW
p828
aVtc_310_012_mf__S3_same_SGW_1_voice_bearer_1_PDN_no_emergency_PDN_combined_attach.LWG
p829
aVtc_262_932_attach_reject_with_cc27__attach_req_with_apn_and_esm_infor_no_apn.LW
p830
aVtc_298_530_pgw_init_dedicated_deletion_ef_nrspca_with_same_nsapi_wf_rab_release_resp.LWG
p831
aVtc_357_435_wcdma_local_user_intra_relocation_ip_area_to_non_ip_area_with_one_pdp_activated_in_non_ip_area.LW
p832
aVtc_314_019_hss_init_qos_modification_apn_ambr_higher_interrupt_by_reset_no_UBR.LW
p833
aVtc_292_201_X2_based_ho_main_flow_volte_bearer_gauge.LWG
p834
aVtc_364_212_af_sms_end_user_data_never_in_ue_tracer_log.LWG
p835
aVtc_357_105_wcdma_iterator_ipAllocEnabled_modify_to_true_with_ipAddressReset_irrEnabled_true_nrrEnabled_false.LW
p836
aVtc_11_584_israu_new_only_one_old_pdp_with_fqdn_then_activate_one_pdp_under_preferPgwForLteUe_with_sogt_false.LWG
p837
aVtc_367_123_pgw_reselection_irat_Gn_ho_with_qci_1_s1_release_reattach_required.LW
p838
aVtc_369_127_HSS_based_PCSCF_restoration_ecm_connected_odb_disconnect_ims_pdn.LWG
p839
aVtc_322_163_smooth_move_ef_other_nas_after_paging_response_ignore.LWG
p840
aVtc_358_122_lte_international_roaming_user_reject_intra_handover_ip_area_to_unrestricted_ip_area.LW
p841
aVtc_11_667_activation_empty_apn_ApnRedirectToSubscribedApn_false.LWG
p842
aVtc_358_048_lte_iterator_EF_Erab_Release_Indication_dedicate_bearer_wf_delete_session_response.LWG
p843
aVtc_306_726_ef_seamless_move_by_mme_ue_ecm_connected_wf_forward_relocation_response_failed_interfered_by_cs_paging.LW
p844
aVtc_263_533_Attach_Flow__mt_cs_call_while_waiting_for_ics_response.LW
p845
aVtc_306_1105_ef_seamless_move_target_ecm_connected_receive_sgs_paging_with_sms_indicator_wf_icsr.LWG
p846
aVtc_357_409_wcdma_international_roaming_user_reject_intra_rau_non_ip_area_to_irr_ip_area.LWG
p847
aVtc_369_061_handover_required_during_waiting_for_location_report__idr_flags_ef.LW
p848
aVtc_358_003_lte_iterator_add_tai_into_ip_alloc_area_with_ipAddressReset_true_irrEnabled_nrrEnabled_false.LW
p849
aVtc_358_002_lte_iterator_ipAddressReset_modify_to_true_while_all_pdns_already_in_target_area.LWG
p850
aVtc_364_101_mf_trigger_match_dont_create_ue_trace_session.LWG
p851
aVtc_214_1241_mo_sms_active_nas_non_delivery_x2_handover_triggered_mt_sms_intefering_x2_ho.LWG
p852
aVtc_263_411_Attach_Flow_in_ecm_idle__HSS_Init_QoS_Modification_wf_Authentication_Information_Answer.LWG
p853
aVtc_238_426_mme_eps_irat_ho_target__sms_paging_wf_handover_request_acknowledge.LWG
p854
aVtc_92_07_20_supervision.LWG
p855
aVtc_358_014_lte_remove_ip_area_with_ipAddressReset_true_and_irrEnabled_nrrEnabled_false_while_all_pdns_in_unrestricted_ip_area.LW
p856
aVtc_367_158_pgw_reselection_ho_with_qci_1_erab_release_failed_reactivate_requested.LWG
p857
aVtc_194_120_cli_get_subscriber_normal_attach_when_turn_on_sms_over_sgs_and_csfb_to_1xrtt.LWG
p858
aVtc_204_1362_mme_eps_ho__sgs_cs_paging_wf_location_update_answer.LW
p859
aVtc_194_110_cli_get_subscriber_combined_attach_when_turn_on_sms_over_sgs.LWG
p860
aVtc_358_008_lte_iterator_nrrEnabled_modify_to_true_with_ipAddressReset_true_irrEnabled_false.LWG
p861
aVtc_218_355_tau_from_sgsn__mt_sms_while_wf_ue_contexte_release_complete.LWG
p862
aVtc_358_115_lte_local_user_inter_tau_new_in_irr_nrr_ip_area_reactivate_pdn.LWG
p863
aVtc_26_227_downlink_paging_interfered_by_insert_subscriber_data_rab_assignment_response_with_decreased_qos.LW
p864
aVtc_241_1688_intra_rau_with_sgw_change_interferred_by_reset_resource_before_create_rsp_no_create_rsp_paging_succ.LW
p865
aVtc_357_012_gsm_iterator_ipAllocEnabled_modify_to_false_ipAddressReset_modify_to_true_while_one_pdp_in_white_area.LWG
p866
aVtc_12_19_attach_ptmsi_collision_rai_config_wrong.LWG
p867
aVtc_367_119_pgw_reselection_ho_without_qci_1_buffered_cbr_reject_then_reactivate_requested.LW
p868
aVtc_357_106_wcdma_iterator_ipAddressReset_irrEnabled_modify_to_true_while_one_pdp_already_in_target_area.LWG
p869
aVtc_256_207_mme_eps_srvcc_ho_source_cs_only_service_request_wf_srvcc_ps_to_cs_response_sti_true.LWG
p870
aVtc_369_127_HSS_based_PCSCF_restoration_ecm_connected_odb_disconnect_ims_pdn.LW
p871
aVtc_364_208_af_matching_triggers_when_ue_trace_feature_off.LWG
p872
aVtc_358_013_lte_remove_ip_area_with_ipAddressReset_true_and_irrEnabled_nrrEnabled_false.LWG
p873
aVtc_278_456_Inter_TAU_Old_MME_Intra_TAU_while_waiting_for_cancel_location__Sgs_Paging_Call_while_waiting_for_ue_context_release_complete.LWG
p874
aVtc_357_421_wcdma_international_roaming_user_reject_intra_relocation_non_ip_area_to_irr_nrr_ip_area.LW
p875
aVtc_358_048_lte_iterator_EF_Erab_Release_Indication_dedicate_bearer_wf_delete_session_response.LW
p876
aVtc_263_523_ReAttach_Flow_mt_cs_call_while_waiting_for_create_session_response_with_msc_change.LWG
p877
aVtc_320_084_attach_imsi_implicit_detach_ms_detach.LWG
p878
aVtc_245_327_israu_new_l_to_w_with_sgw_unchange_2_pdn_service_request_intefered_by_deactivate_pdp_req_without_tdi_default_bearer.LWG
p879
aVtc_197_499_tau_from_gnsgsn_dns_srv_timeout.LWG
p880
aVtc_204_1363_mme_eps_ho__sgs_cs_paging_wf_location_update_accept.LW
p881
aVtc_369_100_HSS_based_PCSCF_restoration_ecm_connected_no_ims_PDN.LWG
p882
aVtc_262_934_attach_reject_with_cc33__attach_req_and_esm_infor_with_diff_apn.LW
p883
aVtc_12_2_attach_imsi_rai_config_wrong.LWG
p884
aVtc_364_003_output_from_list_ue_trace_for_triggered_trace_session.LW
p885
aVtc_263_501_Attach_Flow__mt_cs_call_while_waiting_for_location_update_accept.LW
p886
aVtc_369_055_tau_request_during_waiting_for_location_report__idr_flags_ef.LW
p887
aVtc_357_427_wcdma_local_user_inter_relocation_target_in_ip_area_reject.LW
p888
aVtc_367_159_pgw_reselection_irat_Gn_ho_with_qci_1_bearer_deactivate_timeout_reactivate_requested.LW
p889
aVtc_218_351_tau_from_sgsn__mt_sms_while_wf_initial_context_setup_response.LW
p890
aVtc_357_428_wcdma_international_roaming_user_inter_relocation_target_in_irr_ip_area_reject.LWG
p891
aVtc_263_458_Attach_Flow__Cancel_Location_Initial_Attach_then_Attach_again_while_waiting_for_Create_Session_Response.LWG
p892
aVtc_314_120_HSS_based_PCSCF_restoration_one_ims_pdn_idr_with_bit8.LW
p893
aVtc_320_043_delete_bss_pfc_req_from_bsc.LWG
p894
aVtc_357_121_wcdma_add_target_rai_into_ip_area_when_intra_rau_ongoing.LWG
p895
aVtc_358_141_lte_local_user_x2_handover_restricted_area_to_unrestricted_area_with_one_pdn_activated_in_unrestricted_ip_area.LW
p896
aVtc_369_076_downlink_data_notification_during_waiting_location_report__idr_flags_ef.LW
p897
aVtc_256_207_mme_eps_srvcc_ho_source_cs_only_service_request_wf_srvcc_ps_to_cs_response_sti_true.LW
p898
aVtc_230_572_dualstack_apn_redirect_requested_ipv4v6_subscribed_ipv4v6.LWG
p899
aVtc_06_670_dualstack_israu_one_existing_pdp_with_fqdn_then_activate_pdp_under_nevertrypgw_with_sogt_false.LWG
p900
aVtc_231_062_activate_2nd_pdn_and_try_next_pgw.LW
p901
aVtc_11_587_dual_stack_israu_two_existing_pdp_one_with_fqdn_gst_preferlteue_no_epc_capability_sogt_true_activate_ipv4v6.LWG
p902
aVtc_357_024_gsm_iterator_add_ra_area_ue_without_pdp.LWG
p903
aVtc_320_055_activate_pdp_context_reject_from_sgsn.LWG
p904
aVtc_263_420_Attach_Flow__Attach_Request_while_waiting_for_Authentication_Response.LWG
p905
aVtc_346_733_pra_cn_predefined_lrc_optimization__s1_ho_then_x2_ho__1st_and_last_enb_lrc_needed.LW
p906
aVtc_92_05_10_pm_job.LWG
p907
aVtc_203_450_mme_eps_handover_source__cs_paging_wf_forward_relocation_complete_notification.LW
p908
aVtc_06_666_dualstack_apn_redirect_requested_ipv4v6_subscribed_ipv4_and_ipv6_spt_ipv6_ipv6up_off.LWG
p909
aVtc_276_456_Inter_TAU_New_MME__Sgs_Paging_SMS_while_wait_for_modify_bearer_response.LWG
p910
aVtc_364_052_at_least_one_trigger_condition_needs_to_be_specified.LW
p911
aVtc_282_110_3_mme_initiated_deactivate_bearer_delete_request_some_failed_different_qcis.LWG
p912
aVtc_225_418_sms__idle_mode__sms_while_wf_s1_connection.LWG
p913
aVtc_578_55_check_test_gw_selection_l_sx_feature_on.LWG
p914
aVtc_320_088_combined_attach_imei_traced_only.LWG
p915
aVtc_263_522_ReAttach_Flow_mt_cs_call_while_waiting_for_attach_complete.LW
p916
aVtc_276_456_Inter_TAU_New_MME__Sgs_Paging_SMS_while_wait_for_modify_bearer_response.LW
p917
aVtc_357_419_wcdma_local_user_reject_intra_relocation_non_ip_area_to_ip_area.LWG
p918
aVtc_218_355_tau_from_sgsn__mt_sms_while_wf_ue_contexte_release_complete.LW
p919
aVtc_225_919_mt_call_idle_mode__sgs_sms_paging_wf_extended_service_request.LWG
p920
aVtc_364_058_trace_session_stuff_only_if_create_ue_trace_session.LWG
p921
aVtc_367_156_pgw_reselection_ho_without_qci_1_bearer_erab_release_failed_reactivate_requested.LW
p922
aVtc_358_123_lte_national_roaming_user_intra_handover_normally_between_same_ip_area.LWG
p923
aVtc_320_073_intra_rau_suspend_and_cell_update_llc_length_zero.LWG
p924
aVtc_38_661_israu_new_sgsn_two_pdp_context__create_pdp_fails_due_to_context_limit.LW
p925
aVtc_241_1696_intra_rau_with_sgw_change_interferred_by_reset_before_create_rsp_then_detach_before_create_rsp.LW
p926
aVtc_284_331_deactivate_1_default_bearer_of_not_last_active_pdn_while_1_pdn_is_creating_and_wf_create_session_response.LWG
p927
aVtc_357_411_wcdma_national_roaming_user_reject_intra_rau_non_ip_area_to_nrr_ip_area.LW
p928
aVtc_256_402_mme_eps_srvcc_ho_source_cs_only__cs_paging_wf_suspend_ack.LWG
p929
aVtc_225_914_mo_call_idle_mode__sgs_cs_paging_wf_UE_Context_Release_Complete.LWG
p930
aVtc_11_758_dualstack_activate_ipv4v6_requested_ipv4v6_subscribed_ipv4v6_dsg_true_fallback_to_plain_ggsn.LW
p931
aVtc_274_612_combined_TAU_MT_Call_while_waiting_for_AIA_MO_SMS_wf_modify_beare_response.LWG
p932
aVtc_284_310_1_mme_initiated_deactivate_bearer_on_def_with_4_ded_of_2_def_different_qcis.LW
p933
aVtc_241_1690_intra_rau_with_sgw_change_interferred_by_reset_before_create_rsp_failed_create_rsp_paging_succeeds.LW
p934
aVtc_308_050_HSS_Init_QoS_Modification__Authentication_failed_when_service_request.LWG
p935
aVtc_283_070_1_MME_Deactivate_Bearer__Delete_Bearer_Request_for_PDN1_while_wf_Delete_Bearer_Request_for_PDN2.LW
p936
aVtc_364_211_3_af_buffered_signalling_history_at_transfer_wcdma_attach.LWG
p937
aVtc_357_116_wcdma_remove_ga_from_ip_area_with_ipAddressReset_irrEnabled_nrrEnabled_false.LWG
p938
aVtc_320_072_ue_trace_ptmsi_conflict_with_another_ms.LWG
p939
aVtc_256_397_mme_eps_srvcc_ho_source_cs_only_ef_dbr_for_non_voice_bearer_wf_srvcc_ps_to_cs_response.LWG
p940
aVtc_274_603_combined_TAU_CS_Call_Paging_request_while_waiting_for_AIA.LW
p941
aVtc_283_065_MME_Deactivate_Bearer__Delete_Bearer_Request_while_wf_Delete_Bearer_Request_two_pdn_one_bearer_same.LWG
p942
aVtc_262_930_attach_reject_with_cc27__attach_request_without_apn.LW
p943
aVtc_263_523_ReAttach_Flow_mt_cs_call_while_waiting_for_create_session_response_with_msc_change.LW
p944
aVtc_578_54_check_test_pra.LW
p945
aVtc_369_082_gn_identification_request_during_waiting_location_report__idr_flags_ef.LWG
p946
aVtc_358_118_lte_local_user_reject_intra_handover_ip_area_to_another_ip_area.LW
p947
aVtc_320_051_attach_reject_from_sgsn.LWG
p948
aVtc_367_103_pgw_reselection_ho_with_qci_1_erab_release_reattach_required.LWG
p949
aVtc_314_049_sgsn_init_qos_modification_handover_l_to_w_interrupt_by_reset_paging_succ.LWG
p950
aVtc_202_61_3gpp_move_mt_sms_wf_release_access_bearer_response.LWG
p951
aVtc_357_411_wcdma_national_roaming_user_reject_intra_rau_non_ip_area_to_nrr_ip_area.LWG
p952
aVtc_306_720_ef_seamless_move_by_mme_ue_ecm_idle_wf_forward_relocation_response_interfered_by_cs_paging.LWG
p953
aVtc_231_767_dualstack_apn_redirect_requested_ipv4v6_subscribed_ipv4_and_ipv6_spt_ipv6_ipv6up_off.LW
p954
aVtc_357_113_wcdma_iterator_turn_off_feature_with_ipAddressReset_true_irrEnabled_nrrEnabled_false.LW
p955
aVtc_367_157_pgw_reselection_irat_Gn_ho_without_qci_1_delete_session_timeout_reactivate_requested.LW
p956
aVtc_357_326_gsm_local_user_inter_ps_handover_source_in_ip_area_reject.LWG
p957
aVtc_367_100_pgw_reselection_ho_without_qci_1_reactivation_requested.LWG
p958
aVtc_283_063_MME_Deactivate_Bearer__Delete_Bearer_Request_while_wf_Delete_Bearer_Request_diff_bearer.LW
p959
aVtc_237_421_mme_af_eps_irat_ho_source__sms_paging_wf_forward_relocation_response.LWG
p960
aVtc_369_118_HSS_based_PCSCF_restoration_ecm_idle_deactivate_bearer_failed.LWG
p961
aVtc_203_450_mme_eps_handover_source_inter__main_flow_with_combined_attach.LW
p962
aVtc_237_412_mme_eps_irat_ho_source__sms_paging_wf_cancel_location.LWG
p963
aVtc_203_450_mme_eps_handover_source_inter__main_flow_with_combined_attach.LWG
p964
aVtc_231_522_PGW_init_modification_EF_ms_activation_at_rab_setup_and_then_iu_release.LW
p965
aVtc_369_063_ue_release_request_other_than_user_inactivity_during_waiting_for_location_report__idr_flags_ef.LWG
p966
aVtc_212_0257_Ccheck_pgw_reselection_whiteuspid.LWG
p967
aVtc_237_414_mme_eps_irat_ho_source__cs_paging_wf_delete_session_response.LWG
p968
aVtc_367_001_pgw_reselection_tau_inter_new_without_qci_1_bearer_reactivate.LWG
p969
aVtc_284_336_deactivate_1_default_bearer_of_last_active_pdn_while_1_pdn_is_creating_and_wf_create_session_response_and_finally_create_fail.LW
p970
aVtc_358_025_lte_add_target_tai_into_ip_area_when_x2_handover_ongoing.LWG
p971
aVtc_263_510_Attach_Flow__mt_sms_while_waiting_for_create_session_response.LWG
p972
aVtc_369_101_HSS_based_PCSCF_restoration_ecm_connected_roaming_ue_two_pdns_one_ims_deactivation.LW
p973
aVtc_274_615_combined_TAU_two_CS_Call_Paging_request_while_waiting_for_AIA_tamr_false.LW
p974
aVtc_364_058_trace_session_stuff_only_if_create_ue_trace_session.LW
p975
aVtc_283_061_MME_Deactivate_Bearer__Delete_Bearer_Request_while_wf_Delete_Bearer_Request_same_bearer.LWG
p976
aVtc_214_1240_mo_sms_active_nas_non_delivery_x2_handover_triggered_mt_call_intefering_x2_ho.LWG
p977
aVtc_358_110_lte_national_roaming_user_reject_intra_tau_ip_area_to_another_irr_nrr_ip_area.LW
p978
aVtc_357_430_wcdma_local_user_intra_rau_non_ip_area_to_ip_area_with_one_pdp_activated_in_target_ip_area.LW
p979
aVtc_194_828_normal_attach_set_odb_attach_reject_cc15.LW
p980
aVtc_364_052_at_least_one_trigger_condition_needs_to_be_specified.LWG
p981
aVtc_256_396_mme_eps_srvcc_ho_source_cs_only_ef_dbr_for_non_voice_bearer_wf_delete_bearer_request_for_voice_bearer.LW
p982
aVtc_358_042_lte_iterator_EF_Downlink_Data_Notification_wf_delete_session_response.LW
p983
aVtc_241_1693_intra_rau_with_sgw_change_interferred_by_reset_before_create_rsp_service_req.LW
p984
aVtc_11_667_activation_empty_apn_ApnRedirectToSubscribedApn_false.LW
p985
aVtc_367_161_pgw_reselection_ho_with_qci_1_sgw_dbr_reactivate_requested_ecm_idle_paging_timeout.LWG
p986
aVtc_231_521_PGW_init_modification_EF_ms_activation_at_rab_setup_and_then_rnc_reset.LWG
p987
aVtc_358_139_lte_local_user_reject_x2_handover_and_detach_restricted_area_to_unrestricted_area.LWG
p988
aVtc_369_065_enb_configuration_update_during_waiting_location_report__idr_flags_ef.LW
p989
aVtc_369_076_downlink_data_notification_during_waiting_location_report__idr_flags_ef.LWG
p990
aVtc_369_071_reset_from_hss_during_waiting_location_report__idr_flags_ef.LWG
p991
aVtc_267_730_Service_Request__CS_paging_while_waiting_for_Modify_Bearer_Response.LWG
p992
aVtc_357_118_wcdma_iterator_turn_off_feature_with_ipAddressReset_irrEnabled_nrrEnabled_false.LWG
p993
aVtc_369_087_uplink_ue_associated_LPPa_transport_during_waiting_location_report__idr_flags_ef.LW
p994
aVtc_320_085_attach_imsi_implicit_detach_mo_sms.LWG
p995
aVtc_217_200_rau_to_sgsn__mt_call_wf_sgsn_context_ack.LW
p996
aVtc_306_1107_ef_seamless_move_target_ecm_connected_receive_sgs_paging_with_cs_call_indicator_wf_modify_bearer_response_failed.LW
p997
aVtc_364_004_delete_UE_Trace_Session_created_due_to_trigger.LW
p998
aVtc_346_655_pra_cn_predefined_attach_and_ho_out_then_ho_back_with_different_location.LW
p999
aVtc_357_432_wcdma_local_user_inter_rau_old_in_ip_area_response_only_contain_white_pdp.LW
p1000
aVtc_284_335_deactivate_1_default_bearer_of_not_last_active_pdn_while_1_pdn_is_creating_and_wf_notify_response.LW
p1001
aVtc_11_762_dualstack_apn_redirect_requested_ipv4v6_subscribed_ipv4v6_dsg_false_spt_ipv4.LWG
p1002
aVtc_358_033_lte_iterator_multi_pdn_wf_one_erab_release_response_timeout.LWG
p1003
aVtc_364_100_mf_trigger_match.LWG
p1004
aVtc_245_327_israu_new_l_to_w_with_sgw_unchange_2_pdn_service_request_intefered_by_deactivate_pdp_req_without_tdi_default_bearer.LW
p1005
aVtc_358_100_lte_allowed_local_user_attach_from_irr_nrr_ip_area.LW
p1006
aVtc_319_072_path_management_from_available_to_temporary_unavailable.LWG
p1007
aVtc_358_128_lte_local_user_inter_handover_target_in_ip_area_reject.LWG
p1008
aVtc_357_019_gsm_iterator_no_action.LWG
p1009
aVtc_265_253_Detach_Flow_NW_init__Sgs_CS_Paging_while_wf_detach_accept.LW
p1010
aVtc_369_092_provide_location_request_during_waiting_location_report__idr_flags_ef.LWG
p1011
aVtc_11_587_dual_stack_israu_two_existing_pdp_one_with_fqdn_gst_preferlteue_no_epc_capability_sogt_true_activate_ipv4v6.LW
p1012
aVtc_357_405_wcdma_local_user_reactivate_pdp_intra_rau_ip_area_to_another_irr_nrr_ip_area.LW
p1013
aVtc_367_155_pgw_reselection_irat_Gn_ho_without_qci_1_deactivate_timeout.LW
p1014
aVtc_92_09_10_autoupdate.LWG
p1015
aVtc_335_47_mobility_to_wifi_in_ecm_idle_ue_deregistered_in_mme_af__estimation_response_from_eNB_after_timeout.LW
p1016
aVtc_11_760_dualstack_apn_redirect_requested_ipv4v6_subscribed_ipv4v6.LWG
p1017
aVtc_364_206_af_maximum_nr_of_trigger_matching_UEs_reached.LW
p1018
aVtc_26_226_downlink_paging_interfered_by_insert_subscriber_data.LW
p1019
aVtc_283_068_MME_Deactivate_Bearer__Delete_Bearer_Request_2_bearer_while_wf_Delete_Bearer_Request_2_bearer_same_partially.LW
p1020
aVtc_12_17_combined_attach_ptmsi_ciphering_failure.LW
p1021
aVtc_357_336_gsm_local_user_inter_ps_handover_source_in_ip_area_with_one_pdp_activated_in_non_ip_area.LWG
p1022
aVtc_358_135_lte_local_user_inter_tau_old_in_ip_area_goto_stable_after_tau_fail.LW
p1023
aVtc_218_348_tau_from_sgsn__mt_sms_while_wf_location_update_accept.LWG
p1024
aVtc_340_140_validation_move_l_job_stopped_new_move_with_different_filter.LW
p1025
aVtc_225_118_mo_call_emergency_active_mode_ho_not_supported_with_msc_unchange_ps_avaliable.LWG
p1026
aVtc_357_414_wcdma_local_user_inter_rau_new_in_ip_area_reactivate_pdp.LWG
p1027
aVtc_284_612_emergency_pdn_connectivity_with_empty_apn_rejected_with_cause_33.LW
p1028
aVtc_319_200_sgwTempUnavailableDuration_timeout_before_path_detection_interval.LWG
p1029
aVtc_369_128_HSS_based_PCSCF_restoration_ecm_idle_with_locationinfo_currentinfo_first_paging_failed.LW
p1030
aVtc_357_425_wcdma_national_roaming_user_reject_intra_relocation_non_ip_area_to_irr_nrr_ip_area.LW
p1031
aVtc_357_120_wcdma_add_source_rai_into_ip_area_when_intra_rau_ongoing.LW
p1032
aVtc_357_435_wcdma_local_user_intra_relocation_ip_area_to_non_ip_area_with_one_pdp_activated_in_non_ip_area.LWG
p1033
aVtc_367_114_pgw_reselection_irat_Gn_ho_without_qci_1_no_initial_ip_current_ip_in_new_pgw_list.LWG
p1034
aVtc_358_022_lte_iterator_talist_isomerous_idle_state.LWG
p1035
aVtc_367_102_pgw_reselection_ho_without_qci_1_feature_off.LWG
p1036
aVtc_357_000_cli_check_loc_based_ip_alloc_config.LW
p1037
aVtc_364_056_mcc_mnc_needed_in_area_related_trigger_condition.LW
p1038
aVtc_324_077_af_ipv4v6_not_supported_due_to_daf_off.LW
p1039
aVtc_282_106_1_mme_initiated_deactivate_bearer_no_response_from_sgw_different_qcis.LWG
p1040
aVtc_366_053_intra_ISC_L2W_reloaction_national_roaming_user_reject_ip_area_to_another_nrr_ip_area.LWG
p1041
aVtc_369_002_no_notification_during_attach__idr_flags.LWG
p1042
aVtc_278_457_Inter_TAU_Old_MME_Intra_TAU_while_waiting_for_cancel_location__Sgs_Paging_SMS_while_waiting_for_ue_context_release_complete.LWG
p1043
aVtc_218_550_tau_from_sgsn_combined__subscription_cancelled_wf_location_update_response.LW
p1044
aVtc_230_573_dualstack_apn_redirect_requested_ipv4v6_subscribed_ipv4_or_ipv6_spt_ipv6_ipv6up_off.LWG
p1045
aVtc_286_004_pdn_disconnect_Ue_init_QCI_1_2_5_9_10_127.LWG
p1046
aVtc_327_621_Inter_TAU_Recovery__MT_SMS__while_waiting_for_Location_update_accept.LWG
p1047
aVtc_369_074_delete_bearer_request_during_waiting_location_report__idr_flags_ef.LWG
p1048
aVtc_203_451_mme_eps_handover_source_inter__no_cancel_location_with_combined_attach.LWG
p1049
aVtc_343_031_check_measurement_reader_with_converted_ms_struct_and_indices.LWG
p1050
aVtc_202_61_3gpp_move_mt_sms_wf_release_access_bearer_response.LW
p1051
aVtc_26_227_downlink_paging_interfered_by_insert_subscriber_data_rab_assignment_response_with_decreased_qos.LWG
p1052
aVtc_358_025_lte_add_target_tai_into_ip_area_when_x2_handover_ongoing.LW
p1053
aVtc_06_665_dualstack_apn_redirect_requested_ipv4v6_subscribed_ipv4v6_dsg_false_spt_ipv6_fallback_to_plain_ggsn.LWG
p1054
aVtc_369_077_downlink_data_notification_with_cause_during_waiting_location_report__idr_flags_ef.LWG
p1055
aVtc_320_034_gsm_paging_ps.LWG
p1056
aVtc_292_012_x2_based_ho_with_emergency_pdn_and_tai_list.LWG
p1057
aVtc_358_130_lte_national_roaming_user_inter_handover_target_in_irr_nrr_ip_area_reject.LWG
p1058
aVtc_369_123_HSS_based_PCSCF_restoration_ecm_connected_uereachability_userstate_locationinfo_currentinfo_timezone.LWG
p1059
aVtc_295_304_Intra_S1_HO_MT_CALL_while_wf_tau_after_handover.LW
p1060
aVtc_369_007_ecm_idle__userstate_locationinfo__subscriptiondata_to_detach__idr_flags.LW
p1061
aVtc_357_315_gsm_local_user_inter_rau_new_in_irr_nrr_ip_area_reactivate_pdp.LWG
p1062
aVtc_357_407_wcdma_international_roaming_user_intra_rau_normally_between_same_ip_area.LW
p1063
aVtc_357_438_wcdma_local_3gdt_user_activated_one_pdp_then_intra_rau_non_ip_area_to_ip_area.LWG
p1064
aVtc_358_035_lte_iterator_explicit_detach_wf_detach_accept_timeout.LWG
p1065
aVtc_92_01_10_meas_capabilities.LWG
p1066
aVtc_262_934_attach_reject_with_cc33__attach_req_and_esm_infor_with_diff_apn.LWG
p1067
aVtc_358_118_lte_local_user_reject_intra_handover_ip_area_to_another_ip_area.LWG
p1068
aVtc_364_002_configure_trigger_when_ue_trace_feature_off.LWG
p1069
aVtc_369_007_ecm_idle__userstate_locationinfo__subscriptiondata_to_detach__idr_flags.LWG
p1070
aVtc_256_402_mme_eps_srvcc_ho_source_cs_only__cs_paging_wf_suspend_ack.LW
p1071
aVtc_262_930_attach_reject_with_cc27__attach_request_without_apn.LWG
p1072
aVtc_369_078_context_request_during_waiting_location_report__idr_flags_ef.LWG
p1073
aVtc_367_160_pgw_reselection_ho_with_qci_1_sgw_dbr_reattach_required_ecm_idle_paging_timeout.LW
p1074
aVtc_283_062_MME_Deactivate_Bearer__Delete_Bearer_Request_while_wf_Delete_Bearer_Request_same_2_bearers.LW
p1075
aVtc_280_030_create_dedicated_bearers_qci_counters__qci1_and_qci10.LW
p1076
aVtc_243_712_tau_from_sgsn_s3_ue_already_registered_in_mme.LWG
p1077
aVtc_92_05_30_pm_job.LWG
p1078
aVtc_366_057_intra_ISC_W2L_handover_international_roaming_user_reject_between_same_ip_area.LWG
p1079
aVtc_364_209_af_trigger_hits_before_UE_id_is_known.LWG
p1080
aVtc_283_066_MME_Deactivate_Bearer__Delete_Bearer_Request_1_bearer_while_wf_Delete_Bearer_Request_2_bearers_same_partially.LWG
p1081
aVtc_306_2710_ef_seamless_move_target_receive_mt_call_af_lua_mt_sms_wf_service_request.LW
p1082
aVtc_357_433_wcdma_local_user_inter_rau_old_in_non_area_response_only_contain_white_pdp.LW
p1083
aVtc_286_003_pdn_disconnect_dedicated_bearers.LWG
p1084
aVtc_241_1687_intra_rau_with_sgw_change_interferred_by_reset_before_create_rsp_no_delete_rsp.LW
p1085
aVtc_369_005_ecm_connected__timezone__idr_flags.LWG
p1086
aVtc_258_320_location_reporting_control_after_x2_handover.LW
p1087
aVtc_11_758_dualstack_activate_ipv4v6_requested_ipv4v6_subscribed_ipv4v6_dsg_true_fallback_to_plain_ggsn.LWG
p1088
aVtc_357_020_gsm_add_source_rai_into_ip_area_when_intra_rau_ongoing.LWG
p1089
aVtc_578_61_check_test_dns_resolve.LW
p1090
aVtc_12_17_combined_attach_ptmsi_ciphering_failure.LWG
p1091
aVtc_278_453_Inter_TAU_Old_MME__Ecm_Connected_Sgs_CS_Paging_SMS_while_wait_for_context_ack.LWG
p1092
aVtc_238_422_mme_eps_irat_Gn_ho_target__volte_bearer_gauge_create_session_response_with_new_qci.LW
p1093
aVtc_280_035_create_dedicated_bearers_qci_counters__qci255.LWG
p1094
aVtc_276_453_Inter_TAU_New_MME__Sgs_Paging_CS_Call_while_wait_for_ue_context_release_complete.LWG
p1095
aVtc_357_424_wcdma_national_roaming_user_reject_intra_reloaction_ip_area_to_another_nrr_ip_area.LWG
p1096
aVtc_357_008_gsm_iterator_nrrEnabled_modify_to_true_with_ipAddressReset_true_irrEnabled_false.LWG
p1097
aVtc_237_411_mme_eps_irat_ho_source__sms_paging_wf_forward_relocation_complete_notification.LW
p1098
aVtc_369_001_notification_during_attach__idr_flags.LWG
p1099
aVtc_276_458_Inter_TAU_New_MME__Sgs_Paging_SMS_while_wait_for_ue_context_release_complete.LWG
p1100
aVtc_280_041_create_dedicated_bearers_qci_counters__qci_9_65_66_69_70.LW
p1101
aVtc_364_001_configure_trigger_when_ebm_feature_off.LW
p1102
aVtc_212_0258_Ccheck_pgw_reselection_with_ip_comparison.LWG
p1103
aVtc_367_156_pgw_reselection_ho_without_qci_1_bearer_erab_release_failed_reactivate_requested.LWG
p1104
aVtc_358_036_lte_iterator_explicit_detach_wf_ue_context_release_command_timeout.LWG
p1105
aVtc_357_119_wcdma_iterator_no_action.LWG
p1106
aVtc_267_733_Service_Request__SMS_paging_while_waiting_for_ics_wf_downlink_unitdata_timeout.LWG
p1107
aVtc_197_822_optimized_gw_selection_s4_handover_from_non3gpp.LW
p1108
aVtc_327_621_Inter_TAU_Recovery__MT_SMS__while_waiting_for_Location_update_accept.LW
p1109
aVtc_267_732_Service_Request__CS_paging_while_waiting_for_Modify_Bearer_Response_wf_extended_service_request_timeout.LW
p1110
aVtc_367_151_pgw_reselection_ho_dns_query_return_empty.LWG
p1111
aVtc_369_090_all_other_SGs_message_during_waiting_location_report__idr_flags_ef.LW
p1112
aVtc_369_061_handover_required_during_waiting_for_location_report__idr_flags_ef.LWG
p1113
aVtc_369_122_HSS_based_PCSCF_restoration_ecm_connected_pdn_type_change_for_ims_pdn.LW
p1114
aVtc_369_020_ecm_connected__no_location_report__userstate_locationinfo_currentinfo__idr_flags.LWG
p1115
aVtc_11_583_israu_new_only_one_old_pdp_with_fqdn_then_activate_one_pdp_under_nevertrypgw_with_sogt_false.LW
p1116
aVtc_357_015_gsm_remove_ip_area_with_ipAddressReset_irrEnabled_nrrEnabled_false_while_all_pdps_in_white_area.LWG
p1117
aVtc_284_329_deactivate_1_default_bearer_of_last_active_pdn_while_1_pdn_is_creating_and_wf_notify_response.LWG
p1118
aVtc_357_122_wcdma_iterator_add_ga_into_ip_alloc_area_idle_no_paging_response.LW
p1119
aVtc_358_137_lte_local_user_inter_handover_source_in_ip_area_with_one_pdn_activated_in_unrestricted_ip_area.LW
p1120
aVtc_357_423_wcdma_national_roaming_user_intra_reloaction_normally_between_same_ip_area.LWG
p1121
aVtc_358_013_lte_remove_ip_area_with_ipAddressReset_true_and_irrEnabled_nrrEnabled_false.LW
p1122
aVtc_282_001_deactivate_bearer_1_of_1.LW
p1123
aVtc_324_077_af_ipv4v6_not_supported_due_to_daf_off.LWG
p1124
aVtc_358_012_lte_iterator_turn_off_feature_with_ipAddressReset_true_irrEnabled_nrrEnabled_false.LWG
p1125
aVtc_358_136_lte_local_user_intra_handover_ip_area_to_unrestricted_ip_area_with_one_pdn_activated_in_unrestricted_ip_area.LWG
p1126
aVtc_203_455_mme_eps_handover_source__sms_paging_wf_forward_relocation_response_by_rejection.LW
p1127
aVtc_267_740_Service_Request__SMS_Paging_wf_ics_response_then_CS_paging_while_waiting_for_Modify_Bearer_Response.LW
p1128
aVtc_367_157_pgw_reselection_irat_Gn_ho_without_qci_1_delete_session_timeout_reactivate_requested.LWG
p1129
aVtc_263_501_Attach_Flow__mt_cs_call_while_waiting_for_location_update_accept.LWG
p1130
aVtc_369_085_location_response_during_waiting_location_report__idr_flags_ef.LWG
p1131
aVtc_357_437_wcdma_local_user_inter_relocation_with_one_pdp_activated_in_no_ip_area_and_one_not.LWG
p1132
aVtc_263_459_Attach_Flow__Cancel_Location_Initial_Attach_then_Emergency_Attach_again_while_waiting_for_Create_Session_Response.LW
p1133
aVtc_06_672_dualstack_israu_one_existing_pdp_with_fqdn_then_activate_pdp_under_nevertrypgw_with_sogt_true.LWG
p1134
aVtc_358_110_lte_national_roaming_user_reject_intra_tau_ip_area_to_another_irr_nrr_ip_area.LWG
p1135
aVtc_214_1235_hss_reset_then_s1_release_interferred_by_sgsap_paging_csfb_then_interferred_by_combined_tau.LW
p1136
aVtc_578_52_check_uetracer_parser.LWG
p1137
aVtc_358_106_lte_local_user_reactivate_pdn_intra_tau_unrestricted_ip_area_to_ip_area.LWG
p1138
aVtc_280_033_create_dedicated_bearers_qci_counters__qci10.LWG
p1139
aVtc_367_101_pgw_reselection_ho_without_qci_1_reattach_required.LWG
p1140
aVtc_306_726_ef_seamless_move_by_mme_ue_ecm_connected_wf_forward_relocation_response_failed_interfered_by_cs_paging.LWG
p1141
aVtc_276_458_Inter_TAU_New_MME__Sgs_Paging_SMS_while_wait_for_ue_context_release_complete.LW
p1142
aVtc_357_323_gsm_national_roaming_user_intra_ps_handover_normally_between_same_ip_area.LWG
p1143
aVtc_314_046_sgsn_init_qos_modification_handover_l_to_w_interrupt_by_reset_no_UBR.LWG
p1144
aVtc_306_727_ef_seamless_move_by_mme_ue_ecm_connected_wf_forward_relocation_response_failed_interfered_by_sms_paging.LW
p1145
aVtc_341_535_x2_activity_event_attach_reject_pdn_type_invalid.LW
p1146
aVtc_293_260__X2_Based_HO__MT_Call_while_wf_Modify_Bearer_Response.LWG
p1147
aVtc_369_079_s10_identification_request_during_waiting_location_report__idr_flags_ef.LW
p1148
aVtc_358_136_lte_local_user_intra_handover_ip_area_to_unrestricted_ip_area_with_one_pdn_activated_in_unrestricted_ip_area.LW
p1149
aVtc_218_518_combined_tau_from_sgsn.LWG
p1150
aVtc_265_127_Detach_Flow_NW_init__Cancel_Location_Initial_Attach_while_waiting_for_Detach_Accept.LWG
p1151
aVtc_357_403_wcdma_reject_national_roaming_user_attach_from_nrr_ip_area.LW
p1152
aVtc_69_012_bvc_reset_ptp_bvc_for_w_ra.LWG
p1153
aVtc_357_310_gsm_national_roaming_user_reject_intra_rau_ip_area_to_another_irr_nrr_ip_area.LWG
p1154
aVtc_369_053_detach_request_without_switch_off_during_waitng_for_location_report__idr_flags_ef.LWG
p1155
aVtc_225_924_mt_sms_active_mode_resend_paging_request_with_sms_indicator.LW
p1156
aVtc_310_335_ef_dbr_non_voice_bearer_wf_forward_relocation_complete_and_forward_relocation_complete_ack.LW
p1157
aVtc_366_020_intra_ISC_W2L_tau_local_user_reject_unrestricted_ip_area_to_ip_area.LWG
p1158
aVtc_357_316_gsm_international_roaming_user_inter_rau_new_in_irr_nrr_ip_area_reject.LWG
p1159
aVtc_218_519_combined_tau_from_sgsn_cs_failure.LW
p1160
aVtc_310_350__ef__tau_wf_forward_relocation_response_sti_true.LW
p1161
aVtc_308_050_HSS_Init_QoS_Modification__Authentication_failed_when_service_request.LW
p1162
aVtc_369_070_delete_subscription_data_from_hss_during_waiting_location_report__idr_flags_ef.LWG
p1163
aVtc_92_07_30_supervision.LWG
p1164
aVtc_357_116_wcdma_remove_ga_from_ip_area_with_ipAddressReset_irrEnabled_nrrEnabled_false.LW
p1165
aVtc_283_069_MME_Deactivate_Bearer__Delete_Bearer_Request_dedicated_while_wf_Delete_Bearer_Request_default.LWG
p1166
aVtc_293_250_X2_Based_HO_IMSI_Detach_wf_imsi_detach_accept_aborted_by_Path_Switch_Request.LWG
p1167
aVtc_357_422_wcdma_international_roaming_user_reject_intra_relocation_ip_area_to_non_ip_area.LW
p1168
aVtc_203_452_mme_eps_handover_source__cs_paging_wf_forward_relocation_response.LWG
p1169
aVtc_218_555_tau_from_sgsn_ue_already_registered_in_mme.LW
p1170
aVtc_369_052_attach_request_during_waiting_for_location_report__idr_flags_ef.LW
p1171
aVtc_263_410_Attach_Flow_in_ecm_connected__HSS_Init_QoS_Modification_wf_Authentication_Information_Answer.LW
p1172
aVtc_367_122_pgw_reselection_ho_with_qci_1_s1_release_reattach_required.LW
p1173
aVtc_367_102_pgw_reselection_ho_without_qci_1_feature_off.LW
p1174
aVtc_265_250_Detach_Flow_UE_init__Sgs_CS_Paging_while_wf_delete_session_response.LWG
p1175
aVtc_357_415_wcdma_local_user_inter_rau_new_in_irr_nrr_ip_area_reactivate_pdp.LWG
p1176
aVtc_264_123_HSS_Initiated_Detach__Volte_Bearer_Gauge.LWG
p1177
aVtc_358_130_lte_national_roaming_user_inter_handover_target_in_irr_nrr_ip_area_reject.LW
p1178
aVtc_44_074_s1ap_mdholpap_counters_service_request.LWG
p1179
aVtc_262_935_emergency_attach_reject_with_cc33.LW
p1180
aVtc_366_004_intra_ISC_W2G_rau_local_user_deactivate_pdp_implicitly_ip_area_to_unrestricted_ip_area.LWG
p1181
aVtc_369_021_ecm_connected_ccr_feature_on__locationinfo_currentinfo__idr_flags.LWG
p1182
aVtc_357_114_wcdma_remove_ip_area_with_ipAddressReset_true_and_irrEnabled_nrrEnabled_false.LWG
p1183
aVtc_194_149_cli_get_subscriber_combined_tau_when_turn_on_sms_over_sgs_and_csfb_to_wg.LW
p1184
aVtc_282_110_3_mme_initiated_deactivate_bearer_delete_request_some_failed_different_qcis.LW
p1185
aVtc_284_326_deactivate_1_default_bearer_2_dedicated_bearers_of_last_active_pdn_while_1_pdn_is_creating_and_wf_erab_setup_response.LWG
p1186
aVtc_357_014_gsm_remove_ip_area_with_ipAddressReset_true_and_irrEnabled_nrrEnabled_false.LWG
p1187
aVtc_320_050_ms_initiate_modification.LWG
p1188
aVtc_357_022_gsm_iterator_add_ga_into_ip_alloc_area_standby_no_paging_response.LWG
p1189
aVtc_284_338_deactivate_2_default_bearer_continuously_while_1_pdn_is_creating_and_wf_create_session_response.LW
p1190
aVtc_357_334_gsm_local_user_inter_rau_old_in_ip_area_goto_stable_after_rau_fail.LWG
p1191
aVtc_06_662_dualstack_apn_redirect_requested_ipv4v6_subscribed_ipv4v6_dsg_false_spt_ipv6.LWG
p1192
aVtc_369_080_s3_identification_request_during_waiting_location_report__idr_flags_ef.LW
p1193
aVtc_357_109_wcdma_iterator_turn_on_feature_switch_with_irrEnabled_false_ipAddressReset_nrrEnabled_true.LW
p1194
aVtc_280_044_create_dedicated_bearers_qci_counters__qci1_7_8_9_10_69_70.LWG
p1195
aVtc_44_077_s1ap_mdholpap_counters_x2_handover.LW
p1196
aVtc_241_1693_intra_rau_with_sgw_change_interferred_by_reset_before_create_rsp_service_req.LWG
p1197
aVtc_306_723_ef_seamless_move_by_mme_ue_ecm_connected_wf_forward_relocation_response_interfered_by_sms_paging.LWG
p1198
aVtc_369_128_HSS_based_PCSCF_restoration_ecm_idle_with_locationinfo_currentinfo_first_paging_failed.LWG
p1199
aVtc_306_721_ef_seamless_move_by_mme_ue_ecm_idle_wf_forward_relocation_response_interfered_by_sms_paging.LWG
p1200
aVtc_335_48_wifi_to_mobility_in_ecm_idle_unknown_user_af__more_than_1_cell_infos_from_wic__one_timeout_from_eNB.LWG
p1201
aVtc_225_912_mo_call_idle_mode__sgs_sms_paging_wf_UE_Context_Release_Request.LW
p1202
aVtc_369_008_ecm_idle__userstate__mobile_reachable_timer_expired__idr_flags.LW
p1203
aVtc_369_112_HSS_based_PCSCF_restoration_ecm_idle_three_pdns_two_ims_deactivation.LW
p1204
aVtc_364_215_af_imei_attach_reject.LW
p1205
aVtc_364_202_af_trigger_hits_when_max_ue_trace_sessions_reached.LWG
p1206
aVtc_214_1232_hss_reset_then_sgsap_paging_sms_interferred_by_combined_tau.LWG
p1207
aVtc_241_1692_intra_rau_with_sgw_change_interferred_by_Iu_release_before_create_rsp_no_rsp_paging_fails.LWG
p1208
aVtc_346_655_pra_cn_predefined_attach_and_ho_out_then_ho_back_with_different_location.LWG
p1209
aVtc_369_003_notification_during_intra_mme_tau__idr_flags.LW
p1210
aVtc_369_104_HSS_based_PCSCF_restoration_ecm_connected_two_pdns_one_ims_one_emergency_deactivation.LW
p1211
aVtc_314_046_sgsn_init_qos_modification_handover_l_to_w_interrupt_by_Iu_release_no_UBR.LW
p1212
aVtc_369_073_update_bearer_request_during_waiting_location_report__idr_flags_ef.LWG
p1213
aVtc_578_53_check_test_lrc.LW
p1214
aVtc_26_230_iu_release_request_while_waiting_for_rab_assignment_response_after_move_gn.LW
p1215
aVtc_280_034_create_dedicated_bearers_qci_counters__qci0.LWG
p1216
aVtc_285_036_PDN_Connectivity__TAU_request_while_wf_activate_dedicated_bearer_context_response.LWG
p1217
aVtc_364_211_2_af_buffered_signalling_history_at_transfer_lte_tau.LW
p1218
aVtc_283_069_MME_Deactivate_Bearer__Delete_Bearer_Request_dedicated_while_wf_Delete_Bearer_Request_default.LW
p1219
aVtc_285_036_PDN_Connectivity__TAU_request_while_wf_activate_dedicated_bearer_context_response.LW
p1220
aVtc_92_02_20_meas_type.LWG
p1221
aVtc_280_038_create_dedicated_bearers_qci_counters__qci0_and_qci255.LWG
p1222
aVtc_292_116_x2_based_ho_roaming_restricted_paging_time_out.LW
p1223
aVtc_162_1607_Ccheck_sctp_initrto_maxrto_ip.LWG
p1224
aVtc_274_615_combined_TAU_two_CS_Call_Paging_request_while_waiting_for_AIA_tamr_false.LWG
p1225
aVtc_276_449_Inter_TAU_New_MME__Sgs_Paging_CS_Call_while_wait_for_location_update_accept.LWG
p1226
aVtc_26_229_iu_release_when_waiting_for_rab_assignment_response_gn.LWG
p1227
aVtc_320_032_intra_sgsn_ps_handover.LWG
p1228
aVtc_292_114_x2_based_ho_roaming_restricted_tau_old_ta.LWG
p1229
aVtc_357_412_wcdma_national_roaming_user_reactivate_pdp_intra_rau_ip_area_to_non_ip_area.LW
p1230
aVtc_263_410_Attach_Flow_in_ecm_connected__HSS_Init_QoS_Modification_wf_Authentication_Information_Answer.LWG
p1231
aVtc_294_304_1_mme_handle_eps_handover_main_flow_plus_all_bearers_deleted_different_qcis.LW
p1232
aVtc_262_1104_imsi_attach_volte_bearer_gauge_piggyback_dedicated_bearer.LWG
p1233
aVtc_358_111_lte_national_roaming_user_reject_intra_tau_unrestricted_ip_area_to_nrr_ip_area.LWG
p1234
aVtc_357_413_wcdma_local_user_inter_rau_old_in_ip_area_response_not_contain_pdp.LW
p1235
aVtc_231_763_dualstack_apn_redirect_requested_ipv4v6_subscribed_ipv4_and_ipv6_spt_ipv4.LW
p1236
aVtc_202_610_3gpp_move__job_stopped_before_ue_moved.LW
p1237
aVtc_280_038_create_dedicated_bearers_qci_counters__qci0_and_qci255.LW
p1238
aVtc_280_031_create_dedicated_bearers_qci_counters__qci9_and_qci254.LW
p1239
aVtc_369_055_tau_request_during_waiting_for_location_report__idr_flags_ef.LWG
p1240
aVtc_357_427_wcdma_local_user_inter_relocation_target_in_ip_area_reject.LWG
p1241
aVtc_306_727_ef_seamless_move_by_mme_ue_ecm_connected_wf_forward_relocation_response_failed_interfered_by_sms_paging.LWG
p1242
aVtc_05_252_combined_ptmsi_attach_unsuccessful_update_location_response.LWG
p1243
aVtc_320_081_attach_imsi_implicit_detach_primary_pdp_activate.LWG
p1244
aVtc_358_104_lte_local_user_reactivate_pdn_intra_tau_ip_area_to_another_ip_area.LWG
p1245
aVtc_357_405_wcdma_local_user_reactivate_pdp_intra_rau_ip_area_to_another_irr_nrr_ip_area.LWG
p1246
aVtc_369_094_connection_oriented_information_LPPa_during_waiting_location_report__idr_flags_ef.LWG
p1247
aVtc_194_120_cli_get_subscriber_normal_attach_when_turn_on_sms_over_sgs_and_csfb_to_1xrtt.LW
p1248
aVtc_358_131_lte_local_user_intra_tau_unrestricted_ip_area_to_ip_area_with_one_pdn_activated_in_target_ip_area.LWG
p1249
aVtc_326_822_IRAT_Tau_as_response_to_recovery_paging.LW
p1250
aVtc_369_066_path_switch_request_during_waiting_location_report__idr_flags_ef.LW
p1251
aVtc_369_107_HSS_based_PCSCF_restoration_ecm_connected_erab_release_command_no_response.LW
p1252
aVtc_358_140_lte_national_roaming_user_reject_x2_handover_and_detach_restricted_area_to_unrestricted_area.LW
p1253
aVtc_203_455_mme_eps_handover_source__sms_paging_wf_forward_relocation_response_by_rejection.LWG
p1254
aVtc_320_044_create_bss_pfc_nack.LWG
p1255
aVtc_202_611_mf_seamless_move_by_mme__job_stopped_new_move_to_different_target.LWG
p1256
aVtc_231_766_dualstack_apn_redirect_requested_ipv4v6_subscribed_ipv4_or_ipv6_spt_ipv6_ipv6up_off.LW
p1257
aVtc_225_918_mt_call_active_mode__sgs_sms_paging_wf_extended_service_request.LWG
p1258
aVtc_358_101_lte_reject_international_roaming_user_attach_from_irr_ip_area.LW
p1259
aVtc_369_116_HSS_based_PCSCF_restoration_ecm_idle_feature_off.LW
p1260
aVtc_11_581_israu_new_only_one_old_pdp_with_fqdn_then_activate_one_pdp_under_nevertrypgw_sogt_true_initiate_naptr_query.LWG
p1261
aVtc_364_201_af_max_hits_reached_for_a_trigger.LW
p1262
aVtc_358_123_lte_national_roaming_user_intra_handover_normally_between_same_ip_area.LW
p1263
aVtc_357_110_wcdma_iterator_ipAddressReset_nrrEnabled_modify_to_true_while_one_pdp_already_in_target_area.LW
p1264
aVtc_364_053_duration_needed_if_auto_delete_ue_trace_session.LW
p1265
aVtc_265_250_Detach_Flow_UE_init__Sgs_CS_Paging_while_wf_delete_session_response.LW
p1266
aVtc_46_113_Ccheck_imMMEC_Check_config.LWG
p1267
aVtc_358_113_lte_local_user_inter_tau_old_in_ip_area_response_imsi_unknown.LW
p1268
aVtc_357_121_wcdma_add_target_rai_into_ip_area_when_intra_rau_ongoing.LW
p1269
aVtc_320_047_location_abort_by_suspend.LWG
p1270
aVtc_357_329_gsm_national_roaming_user_inter_ps_handover_target_in_nrr_ip_area_reject.LWG
p1271
aVtc_358_128_lte_local_user_inter_handover_target_in_ip_area_reject.LW
p1272
aVtc_241_1687_intra_rau_with_sgw_change_interferred_by_reset_before_create_rsp_no_delete_rsp.LWG
p1273
aVtc_367_154_pgw_reselection_ho_dns_query_timeout.LWG
p1274
aVtc_204_1351_handover_target_inter_sgw_relocation_volte_bearer_gauge.LW
p1275
aVtc_236_314_activate_primary_s4_3gdt_apn_r_empty_one_3gdt_hlr_entry.LWG
p1276
aVtc_367_112_pgw_reselection_irat_Gn_ho_without_qci_1_feature_off.LW
p1277
aVtc_364_211_4_af_buffered_signalling_history_at_transfer_gsm_rau.LWG
p1278
aVtc_225_418_sms__idle_mode__sms_while_wf_s1_connection.LW
p1279
aVtc_364_207_af_trigger_hit_for_UE_with_existing_ue_trace_session.LWG
p1280
aVtc_225_916_mt_call_active_mode__sgs_cs_paging_wf_extended_service_request.LWG
p1281
aVtc_369_120_HSS_based_PCSCF_restoration_ecm_idle_pdn_type_change_for_normal_pdn.LWG
p1282
aVtc_358_112_lte_national_roaming_user_reactivate_pdn_intra_tau_ip_area_to_unrestricted_ip_area.LWG
p1283
aVtc_357_102_wcdma_iterator_ipAddressReset_modify_to_true_while_all_pdp_already_in_target_area.LWG
p1284
aVtc_357_408_wcdma_international_roaming_user_reject_intra_rau_ip_area_to_another_irr_nrr_ip_area.LW
p1285
aVtc_367_104_pgw_reselection_ho_pgw_not_change.LW
p1286
aVtc_267_733_Service_Request__SMS_paging_while_waiting_for_ics_wf_downlink_unitdata_timeout.LW
p1287
aVtc_278_454_Inter_TAU_Old_MME_Intra_TAU_while_waiting_for_context_ack__Sgs_Paging_Call_while_waiting_for_ue_context_release_complete.LWG
p1288
aVtc_231_765_dualstack_apn_redirect_requested_ipv4v6_subscribed_ipv4v6.LWG
p1289
aVtc_11_586_dual_stack_israu_two_existing_pdp_one_with_fqdn_gst_nevertrypgw_sogt_true_activate_ipv4v6.LW
p1290
aVtc_197_805_optimized_gw_selection_attach_static_gw_seleciton_enable.LWG
p1291
aVtc_267_014_Service_Request__TAU_from_Gn_SGSN_while_waiting_for_Service_Request.LWG
p1292
aVtc_194_196_hss_reset_visited_network_id_missed_in_apn_configuration_when_dyn_pgw_assignment.LWG
p1293
aVtc_357_011_gsm_iterator_ipAllocEnabled_modify_to_false_irrEnabled_modify_to_true_with_ipAddressReset_true_nrrEnabled_false.LWG
p1294
aVtc_214_1230_sgsap_alert_then_sgsap_paging_sms_interferred_by_combined_tau.LW
p1295
aVtc_367_109_pgw_reselection_irat_Gn_ho_without_qci_1_reactivate_requested.LWG
p1296
aVtc_241_1690_intra_rau_with_sgw_change_interferred_by_reset_before_create_rsp_failed_create_rsp_paging_succeeds.LWG
p1297
aVtc_225_660_mt_call_active_mode_with_lai_in_paging_req_from_other_msc.LW
p1298
aVtc_358_044_lte_iterator_EF_Path_Switch_Request_wf_delete_session_response.LW
p1299
aVtc_194_153_cli_get_subscriber_normal_attach_when_turn_on_csfb_to_1xrtt.LW
p1300
aVtc_366_060_intra_ISC_W2L_handover_national_roaming_user_reject_unrestricted_ip_area_to_irr_nrr_ip_area.LWG
p1301
aVtc_341_535_x2_activity_event_attach_reject_pdn_type_invalid.LWG
p1302
aVtc_242_801_rau_to_sgsn_s3_keep_sgw_ddn_while_received_context_ack.LW
p1303
aVtc_44_072_s1ap_mdholpap_counters_attach.LW
p1304
aVtc_284_335_deactivate_1_default_bearer_of_not_last_active_pdn_while_1_pdn_is_creating_and_wf_notify_response.LWG
p1305
aVtc_367_111_pgw_reselection_irat_Gn_ho_pgw_not_change.LW
p1306
aVtc_369_068_cancel_location_update_procedure_from_hss_during_waiting_location_report__idr_flags_ef.LWG
p1307
aVtc_358_137_lte_local_user_inter_handover_source_in_ip_area_with_one_pdn_activated_in_unrestricted_ip_area.LWG
p1308
aVtc_256_420_mme_eps_srvcc_ho_source_cs_only_ue_release_request_and_then_detach_request_wf_srvcc_ps_to_cs_response.LWG
p1309
aVtc_202_50_3gpp_move_cs_paging_wf_service_request.LW
p1310
aVtc_358_124_national_roaming_user_reject_intra_handover_ip_area_to_another_nrr_ip_area.LW
p1311
aVtc_263_502_Attach_Flow__mt_cs_call_while_waiting_for_ics_response.LWG
p1312
aVtc_364_205_af_maximum_nr_of_buffering_UEs_reached.LWG
p1313
aVtc_268_106_ue_release__cs_paging_sms_wf_ue_release_complete.LW
p1314
aVtc_358_119_lte_local_user_reject_intra_handover_unrestricted_ip_area_to_ip_area.LW
p1315
aVtc_358_116_lte_international_roaming_user_inter_tau_new_in_irr_nrr_ip_area_reject.LW
p1316
aVtc_237_410_mme_eps_irat_ho_source__cs_paging_wf_forward_relocation_response.LW
p1317
aVtc_280_031_create_dedicated_bearers_qci_counters__qci9_and_qci254.LWG
p1318
aVtc_283_066_MME_Deactivate_Bearer__Delete_Bearer_Request_1_bearer_while_wf_Delete_Bearer_Request_2_bearers_same_partially.LW
p1319
aVtc_238_420_mme_eps_irat_ho_target__volte_bearer_gauge.LW
p1320
aVtc_357_016_gsm_remove_ga_from_ip_area_with_ipAddressReset_irrEnabled_nrrEnabled_false.LWG
p1321
aVtc_06_661_dualstack_apn_redirect_requested_ipv4v6_subscribed_ipv4v6_dsg_true.LWG
p1322
aVtc_369_114_HSS_based_PCSCF_restoration_ecm_idle_two_pdns_one_ims_paging_failed.LWG
p1323
aVtc_364_200_af_match_trigger_when_ebm_feature_off.LW
p1324
aVtc_358_007_lte_iterator_irrEnabled_modify_to_true_with_ipAddressReset_nrrEnabled_false.LWG
p1325
aVtc_225_923_mt_sms_idle_mode__sgs_cs_paging_wf_service_request_ext_service_request.LWG
p1326
aVtc_357_404_wcdma_local_user_reactivate_pdp_intra_rau_ip_area_to_another_ip_area.LWG
p1327
aVtc_322_162_smooth_move_ef_deac_after_paging_response_ignore.LWG
p1328
aVtc_290_003_UE_release__sgsap_paging_request_while_wf_ue_release_complete.LW
p1329
aVtc_290_003_UE_release__sgsap_paging_request_while_wf_ue_release_complete.LWG
p1330
aVtc_293_261__X2_Based_HO__MT_SMS_while_wf_Modify_Bearer_Response.LWG
p1331
aVtc_214_631_combined_attach_MSC_selection_in_pool_then_paging_delete_MSC_La.LWG
p1332
aVtc_320_030_activate_primary_download_bss_pfc_abqp.LWG
p1333
aVtc_320_066_cp_error_from_ms.LWG
p1334
aVtc_267_732_Service_Request__CS_paging_while_waiting_for_Modify_Bearer_Response_wf_extended_service_request_timeout.LWG
p1335
aVtc_358_117_lte_national_roaming_user_inter_tau_new_in_irr_nrr_ip_area_reject.LW
p1336
aVtc_267_014_Service_Request__TAU_from_Gn_SGSN_while_waiting_for_Service_Request.LW
p1337
aVtc_306_1108_ef_seamless_move_target_ecm_connected_receive_sgs_paging_with_sms_indicator_wf_modify_bearer_response_failed.LWG
p1338
aVtc_263_450_Attach_Flow__ME_Identity_Check_Answer_Blacklisted_then_Attach_again_while_waiting_for_Create_Session_Response.LWG
p1339
aVtc_357_433_wcdma_local_user_inter_rau_old_in_non_area_response_only_contain_white_pdp.LWG
p1340
aVtc_202_50_3gpp_move_cs_paging_wf_service_request.LWG
p1341
aVtc_203_452_mme_eps_handover_source_inter__cancell_type_imsi_attach_with_combined_attach.LWG
p1342
aVtc_369_120_HSS_based_PCSCF_restoration_ecm_idle_pdn_type_change_for_normal_pdn.LW
p1343
aVtc_358_001_lte_iterator_caused_by_config_creation_with_ipAddressReset_true_irrEnabled_nrrEnabled_false.LWG
p1344
aVtc_306_1107_ef_seamless_move_target_ecm_connected_receive_sgs_paging_with_cs_call_indicator_wf_modify_bearer_response_failed.LWG
p1345
aVtc_358_017_lte_iterator_ipAllocEnabled_modify_to_false_ipAddressReset_modify_to_true_while_one_pdn_in_unrestricted_ip_area.LW
p1346
aVtc_225_903_mt_call_active_mode_while_la_updating_ptpi_true_tamr_true.LW
p1347
aVtc_310_401_srvcc_ps_cs_mt_csfb_wf_delete_bearer_request.LW
p1348
aVtc_357_420_wcdma_international_roaming_user_reject_intra_relocation_ip_area_to_another_irr_ip_area.LWG
p1349
aVtc_288_363_pgw_init_bearer_mod_qci_counters__qci2_6_64_65_66_67_68.LWG
p1350
aVtc_357_107_wcdma_iterator_irrEnabled_modify_to_true_with_ipAddressReset_nrrEnabled_false.LW
p1351
aVtc_320_048_ms_initiate_attach_detach_activate_deactivate_pdp_with_all_ue_trace_interfaces_active.LWG
p1352
aVtc_225_920_mt_sms_idle_mode__sgs_sms_paging_wf_service_request.LW
p1353
aVtc_310_350__ef__tau_wf_forward_relocation_response_sti_true.LWG
p1354
aVtc_369_126_HSS_based_PCSCF_restoration_ecm_connected_with_locationinfo_currentinfo.LW
p1355
aVtc_274_605_combined_TAU_two_CS_Call_Paging_request_while_waiting_for_AIA.LW
p1356
aVtc_358_036_lte_iterator_explicit_detach_wf_ue_context_release_command_timeout.LW
p1357
aVtc_202_52_3gpp_move_cs_paging_wf_ue_context_release_complete.LWG
p1358
aVtc_357_409_wcdma_international_roaming_user_reject_intra_rau_non_ip_area_to_irr_ip_area.LW
p1359
aVtc_202_571_seamless_move_target_srvcc_after_move.LW
p1360
aVtc_369_114_HSS_based_PCSCF_restoration_ecm_idle_two_pdns_one_ims_paging_failed.LW
p1361
aVtc_237_411_mme_eps_irat_ho_source__sms_paging_wf_forward_relocation_complete_notification.LWG
p1362
aVtc_298_442_ms_init_deact_ef_delicated_bearer_deact_rab_release_interfered_by_nrspca_with_same_nsapi.LWG
p1363
aVtc_92_05_60_old_format_counters.LWG
p1364
aVtc_320_031_bss_init_modification.LWG
p1365
aVtc_369_010_ecm_idle__notification_reachability_userstate_locationinfo_timezone__idr_flags.LW
p1366
aVtc_306_725_ef_seamless_move_by_mme_ue_ecm_idle_wf_forward_relocation_response_failed_interfered_by_sms_paging.LW
p1367
aVtc_369_108_HSS_based_PCSCF_restoration_ecm_connected_isc_tau_from_w_to_l.LWG
p1368
aVtc_277_110_tau_inter_old_ddn_while_received_context_request.LW
p1369
aVtc_358_005_lte_iterator_ipAllocEnabled_modify_to_true_with_ipAddressReset_irrEnabled_true_nrrEnabled_false.LW
p1370
aVtc_284_329_deactivate_1_default_bearer_of_last_active_pdn_while_1_pdn_is_creating_and_wf_notify_response.LW
p1371
aVtc_280_041_create_dedicated_bearers_qci_counters__qci_9_65_66_69_70.LWG
p1372
aVtc_288_360_pgw_init_bearer_mod_qci_counters__qci1_and_10.LW
p1373
aVtc_218_555_tau_from_sgsn_ue_already_registered_in_mme.LWG
p1374
aVtc_306_728_ef_seamless_move_by_mme_ue_ecm_idle_wf_forward_relocation_response_failed_interfered_by_cs_paging_receive_service_request.LW
p1375
aVtc_367_120_pgw_reselection_ho_without_qci_1_buffered_dbr_then_sgw_dbr_reactivate_requested.LWG
p1376
aVtc_204_1361_mme_eps_ho__sgs_cs_paging_wf_handover_request_acknowledge.LWG
p1377
aVtc_357_113_wcdma_iterator_turn_off_feature_with_ipAddressReset_true_irrEnabled_nrrEnabled_false.LWG
p1378
aVtc_214_1233_hss_reset_then_sgsap_paging_csfb_interferred_by_combined_tau.LW
p1379
aVtc_310_351__ef__tau_wf_ps_to_cs_response_and_foraward_relocation_response_sti_false.LWG
p1380
aVtc_274_611_combined_TAU_MT_SMS_while_waiting_for_AIA_MO_SMS_wf_initial_context_response.LWG
p1381
aVtc_320_046_target_bsc_initiate_ps_handover_cancel.LWG
p1382
aVtc_243_712_tau_from_sgsn_s3_ue_already_registered_in_mme.LW
p1383
aVtc_218_550_tau_from_sgsn_combined__subscription_cancelled_wf_location_update_response.LWG
p1384
aVtc_335_47_mobility_to_wifi_in_ecm_idle_ue_deregistered_in_mme_af__estimation_response_from_eNB_after_timeout.LWG
p1385
aVtc_263_456_Attach_Flow__Cancel_Location_Update_Procedure_then_Attach_again_while_waiting_for_Create_Session_Response.LW
p1386
aVtc_204_1362_mme_eps_ho__sgs_cs_paging_wf_location_update_answer.LWG
p1387
aVtc_263_452_Attach_Flow__S1_Reset_while_waiting_for_Create_Session_Response.LWG
p1388
aVtc_314_049_sgsn_init_qos_modification_handover_l_to_w_interrupt_by_reset_paging_succ.LW
p1389
aVtc_322_161_smooth_move_ef_mbr_after_paging_response_ignore.LWG
p1390
aVtc_231_765_dualstack_apn_redirect_requested_ipv4v6_subscribed_ipv4v6.LW
p1391
aVtc_267_810_DDN_wf_service_req_interfer_by_CBR_DBR_ho_to_non_3gpp.LW
p1392
aVtc_284_336_deactivate_1_default_bearer_of_last_active_pdn_while_1_pdn_is_creating_and_wf_create_session_response_and_finally_create_fail.LWG
p1393
aVtc_245_326_israu_new_l_to_w_with_sgw_unchange_2_pdn_service_request_intefered_by_deactivate_pdp_req_without_tdi_delicated_bearer.LWG
p1394
aVtc_280_043_create_dedicated_bearers_qci_counters__qci1_2_3_4_5_6_qci64.LWG
p1395
aVtc_369_117_HSS_based_PCSCF_restoration_ecm_idle_emergency_attach.LW
p1396
aVtc_44_804_sbc_ccheck_rat.LWG
p1397
aVtc_225_417_mt_call_idle_mode__detach_request_while_wf_s1_connection.LWG
p1398
aVtc_214_1233_hss_reset_then_sgsap_paging_csfb_interferred_by_combined_tau.LWG
p1399
aVtc_357_119_wcdma_iterator_no_action.LW
p1400
aVtc_282_160_pgw_init_deactivate_bearer_indexed_counter_qci128_qci255.LW
p1401
aVtc_44_803_s1_mme_ccheck_rat.LW
p1402
aVtc_357_108_wcdma_iterator_nrrEnabled_modify_to_true_with_ipAddressReset_true_irrEnabled_false.LW
p1403
aVtc_357_417_wcdma_national_roaming_user_inter_rau_new_in_irr_nrr_ip_area_reject.LWG
p1404
aVtc_284_333_deactivate_1_default_bearer_of_not_last_active_pdn_while_1_pdn_is_creating_and_wf_activate_default_eps_bearer_context_accept.LW
p1405
aVtc_369_006_emm_deregistered__userstate_locationinfo__idr_flags.LWG
p1406
aVtc_320_082_attach_imsi_implicit_detach_secondary_pdp_activate.LWG
p1407
aVtc_284_327_deactivate_1_default_bearer_of_last_active_pdn_while_1_pdn_is_creating_and_wf_activate_default_eps_bearer_context_accept.LW
p1408
aVtc_276_454_Inter_TAU_New_MME__Sgs_Paging_SMS_while_wait_for_location_update_accept.LWG
p1409
aVtc_357_420_wcdma_international_roaming_user_reject_intra_relocation_ip_area_to_another_irr_ip_area.LW
p1410
aVtc_369_110_HSS_based_PCSCF_restoration_ecm_idle_only_emergency_ims_PDN.LWG
p1411
aVtc_364_210_af_match_of_several_triggers.LWG
p1412
aVtc_196_181_nrspca_during_the_same_nsapi_ggsn_initiate_pdp_deactivation_rab_release.LWG
p1413
aVtc_282_106_1_mme_initiated_deactivate_bearer_no_response_from_sgw_different_qcis.LW
p1414
aVtc_285_035_PDN_Connectivity__TAU_request_while_wf_activate_default_bearer_context_response.LW
p1415
aVtc_358_044_lte_iterator_EF_Path_Switch_Request_wf_delete_session_response.LWG
p1416
aVtc_364_004_delete_UE_Trace_Session_created_due_to_trigger.LWG
p1417
aVtc_295_304_Intra_S1_HO_MT_CALL_while_wf_tau_after_handover.LWG
p1418
aVtc_357_115_wcdma_remove_ip_area_with_ipAddressReset_irrEnabled_nrrEnabled_false_while_all_pdps_in_white_area.LW
p1419
aVtc_274_604_combined_TAU_SMS_Paging_request_while_waiting_for_AIA_wf_downlink_unitdata_timeout.LW
p1420
aVtc_358_140_lte_national_roaming_user_reject_x2_handover_and_detach_restricted_area_to_unrestricted_area.LWG
p1421
aVtc_369_081_sgsn_context_request_during_waiting_location_report__idr_flags_ef.LWG
p1422
aVtc_263_414_Attach_Flow_in_ecm_connected__HSS_Init_QoS_Modification_wf_Initial_Context_Setup_Response.LW
p1423
aVtc_320_080_attach_imsi_implicit_detach_rau_reject_intra_sgsn.LWG
p1424
aVtc_278_455_Inter_TAU_Old_MME_Intra_TAU_while_waiting_for_context_ack__Sgs_Paging_SMS_while_waiting_for_ue_context_release_complete.LWG
p1425
aVtc_242_801_rau_to_sgsn_s3_keep_sgw_ddn_while_received_context_ack.LWG
p1426
aVtc_241_1692_intra_rau_with_sgw_change_interferred_by_Iu_release_before_create_rsp_no_rsp_paging_fails.LW
p1427
aVtc_369_065_enb_configuration_update_during_waiting_location_report__idr_flags_ef.LWG
p1428
aVtc_280_035_create_dedicated_bearers_qci_counters__qci255.LW
p1429
aVtc_357_436_wcdma_local_user_inter_relocation_source_in_ip_area_with_one_pdp_activated_in_non_ip_area.LWG
p1430
aVtc_357_402_wcdma_allowed_international_roaming_user_attach_from_non_irr_ip_area.LWG
p1431
aVtc_202_52_3gpp_move_cs_paging_wf_ue_context_release_complete.LW
p1432
aVtc_241_1686_intra_rau_with_sgw_change_interferred_by_reset_before_create_rsp_paging_fail.LWG
p1433
aVtc_357_327_gsm_local_user_inter_ps_handover_target_in_ip_area_reject.LWG
p1434
aVtc_256_394_mme_eps_srvcc_ho_source_cs_only_ef_dbr_for_voice_bearer_wf_srvcc_ps_to_cs_response.LW
p1435
aVtc_369_019_ecm_idle__paging_failure__userstate_locationinfo_currentinfo__idr_flags.LWG
p1436
aVtc_306_1108_ef_seamless_move_target_ecm_connected_receive_sgs_paging_with_sms_indicator_wf_modify_bearer_response_failed.LW
p1437
aVtc_358_132_lte_local_user_intra_tau_normally_between_unrestricted_ip_area.LW
p1438
aVtc_237_422_mme_af_eps_irat_ho_source__two_CS_paging_sent_to_mme_wf_forward_relocation_response.LW
p1439
aVtc_263_521_ReAttach_Flow_mt_cs_call_while_waiting_for_location_update_accept.LWG
p1440
aVtc_237_413_mme_eps_irat_ho_source__sms_paging_wf_delete_session_response.LWG
p1441
aVtc_369_115_HSS_based_PCSCF_restoration_ecm_idle_only_one_ims_pdn_paging_failed.LWG
p1442
aVtc_225_922_mt_sms_idle_mode__sgs_cs_paging_wf_service_request_timeout.LWG
p1443
aVtc_364_216_af_rau.LWG
p1444
aVtc_225_116_mo_call_emergency_active_mode_ho_not_supported_with_msc_unchange.LW
p1445
aVtc_265_251_Detach_Flow_UE_init__Sgs_SMS_Paging_while_wf_delete_session_response.LW
p1446
aVtc_276_450_Inter_TAU_New_MME__Sgs_Paging_CS_Call_while_wait_for_initial_context_setup_response.LW
p1447
aVtc_358_132_lte_local_user_intra_tau_normally_between_unrestricted_ip_area.LWG
p1448
aVtc_367_105_pgw_reselection_ho_no_ims_pdn.LW
p1449
aVtc_358_015_lte_remove_ga_from_ip_area_with_ipAddressReset_irrEnabled_nrrEnabled_false.LW
p1450
aVtc_320_090_action_ue_trace_start_stop_periodic_authentication.LWG
p1451
aVtc_369_110_HSS_based_PCSCF_restoration_ecm_idle_only_emergency_ims_PDN.LW
p1452
aVtc_358_010_lte_iterator_ipAddressReset_nrrEnabled_modify_to_true_while_one_pdn_already_in_target_area.LWG
p1453
aVtc_357_302_gsm_allowed_international_roaming_user_attach_from_non_irr_ip_area.LWG
p1454
aVtc_364_050_cause_prot_type_needed_if_cause_code_specified.LW
p1455
aVtc_367_110_pgw_reselection_irat_Gn_ho_without_qci_1_reattach_required.LWG
p1456
aVtc_241_689_israu_new_sgw_change_1_pdn_service_request_si_by_deactivate_pdp_req_without_tdi_default_bearer.LW
p1457
aVtc_369_086_ERAB_release_indication_during_waiting_location_report__idr_flags_ef.LWG
p1458
aVtc_197_499_tau_from_gnsgsn_dns_srv_timeout.LW
p1459
aVtc_225_921_mt_sms_idle_mode__sgs_cs_paging_wf_service_request.LWG
p1460
aVtc_364_001_configure_trigger_when_ebm_feature_off.LWG
p1461
aVtc_319_201_pdn_connectivity_succ_before_path_detection_interval.LWG
p1462
aVtc_358_127_lte_local_user_inter_handover_source_in_ip_area_reject.LW
p1463
aVtc_358_004_lte_iterator_ipAddressReset_modify_to_true_while_one_pdn_already_in_target_area.LWG
p1464
aVtc_218_553_tau_from_sgsn__subscription_cancelled_wf_initial_context_setup_response.LW
p1465
aVtc_358_032_lte_iterator_multi_pdn_wf_one_deactivate_eps_bearer_context_accept_timeout.LW
p1466
aVtc_369_093_connection_oriented_information_LPP_during_waiting_location_report__idr_flags_ef.LW
p1467
aVtc_225_925_mt_sms_active_mode_resend_paging_request_with_cs_call_indicator.LW
p1468
aVtc_358_006_lte_iterator_ipAddressReset_irrEnabled_modify_to_true_while_one_pdn_already_in_target_area.LWG
p1469
aVtc_319_010_attach_af_static_selection_off_table_matched_no_csr_response.LWG
p1470
aVtc_357_320_gsm_international_roaming_user_reject_intra_ps_handover_ip_area_to_another_irr_ip_area.LWG
p1471
aVtc_369_011_combined_sgsn_mme__idr_over_s6d_interface__idr_flags.LW
p1472
aVtc_367_154_pgw_reselection_ho_dns_query_timeout.LW
p1473
aVtc_203_454_mme_eps_handover_source__cs_paging_wf_forward_relocation_response_by_rejection.LW
p1474
aVtc_218_552_tau_from_sgsn_combined__subscription_deleted_wf_location_update_response.LWG
p1475
aVtc_92_09_30_autoupdate.LWG
p1476
aVtc_358_122_lte_international_roaming_user_reject_intra_handover_ip_area_to_unrestricted_ip_area.LWG
p1477
aVtc_11_761_dualstack_apn_redirect_requested_ipv4v6_subscribed_ipv4v6_dsg_true.LWG
p1478
aVtc_369_012_ecm_connected__userstate_locationinfo_currentinfo__idr_flags.LW
p1479
aVtc_357_333_gsm_local_user_inter_rau_old_in_non_area_response_only_contain_white_pdp.LWG
p1480
aVtc_366_042_intra_ISC_W2G_ps_handover_international_roaming_user_reject_between_same_ip_area.LWG
p1481
aVtc_358_125_lte_national_roaming_user_reject_intra_handover_unrestricted_ip_area_to_irr_nrr_ip_area.LWG
p1482
aVtc_306_724_ef_seamless_move_by_mme_ue_ecm_idle_wf_forward_relocation_response_failed_interfered_by_cs_paging.LWG
p1483
aVtc_263_520_ReAttach_Flow_mt_cs_call_while_waiting_for_create_session_response.LWG
p1484
aVtc_295_306_Intra_S1_HO_MT_SMS_while_wf_Handover_Notify_MO_SMS_wf_tau_after_handover_Downlink_unit_data_after_release_request_off.LW
p1485
aVtc_314_047_sgsn_init_qos_modification_handover_l_to_w_interrupt_by_reset_wrong_UBR.LWG
p1486
aVtc_366_008_intra_ISC_L2G_rau_national_roaming_user_reject_unrestricted_ip_area_to_nrr_ip_area.LWG
p1487
aVtc_357_112_wcdma_iterator_ipAllocEnabled_modify_to_false_ipAddressReset_modify_to_true_while_one_pdp_in_white_area.LW
p1488
aVtc_284_611_pdn_connectivity_with_empty_apn_rejected_with_cause_33.LW
p1489
aVtc_219_520_tau_g_to_l_with_ue_tracer.LWG
p1490
aVtc_369_117_HSS_based_PCSCF_restoration_ecm_idle_emergency_attach.LWG
p1491
aVtc_256_394_mme_eps_srvcc_ho_source_cs_only_ef_dbr_for_voice_bearer_wf_srvcc_ps_to_cs_response.LWG
p1492
aVtc_11_763_dualstack_apn_redirect_requested_ipv4v6_subscribed_ipv4v6_dsg_false_spt_ipv4_fallback_to_plain_ggsn.LWG
p1493
aVtc_263_453_Attach_Flow__S1_Reset_then_Attach_again_while_waiting_for_Create_Session_Response.LWG
p1494
aVtc_366_023_intra_ISC_G2L_tau_international_roaming_user_reject_ip_area_to_irr_nrr_ip_area.LWG
p1495
aVtc_369_053_detach_request_without_switch_off_during_waitng_for_location_report__idr_flags_ef.LW
p1496
aVtc_358_115_lte_local_user_inter_tau_new_in_irr_nrr_ip_area_reactivate_pdn.LW
p1497
aVtc_369_113_HSS_based_PCSCF_restoration_ecm_idle_isc_tau_from_g_to_l.LWG
p1498
aVtc_203_454_mme_eps_handover_source__cs_paging_wf_forward_relocation_response_by_rejection.LWG
p1499
aVtc_236_314_activate_primary_s4_3gdt_apn_r_empty_one_3gdt_hlr_entry.LW
p1500
aVtc_369_013_ecm_connected__roamer__userstate_locationinfo_currentinfo__idr_flags.LWG
p1501
aVtc_320_040_location_procedure.LWG
p1502
aVtc_202_571_seamless_move_target_srvcc_after_move.LWG
p1503
aVtc_306_724_ef_seamless_move_by_mme_ue_ecm_idle_wf_forward_relocation_response_failed_interfered_by_cs_paging.LW
p1504
aVtc_364_212_af_sms_end_user_data_never_in_ue_tracer_log.LW
p1505
aVtc_282_006_1_mme_initiated_deactivate_bearer_qci_1_and_10.LWG
p1506
aVtc_357_004_gsm_iterator_ipAddressReset_modify_to_true_while_one_pdp_already_in_target_area.LWG
p1507
aVtc_369_089_downlink_unitdata_during_waiting_location_report__idr_flags_ef.LW
p1508
aVtc_278_451_Inter_TAU_Old_MME__Ecm_Idle_Sgs_CS_Paging_SMS_while_wait_for_context_ack.LWG
p1509
aVtc_11_584_israu_new_only_one_old_pdp_with_fqdn_then_activate_one_pdp_under_preferPgwForLteUe_with_sogt_false.LW
p1510
aVtc_241_1685_intra_rau_with_sgw_change_interferred_by_reset_before_create_rsp.LWG
p1511
aVtc_263_531_ReAttach_Flow_mt_sms_while_waiting_for_location_update_accept.LWG
p1512
aVtc_199_120_s11_path_management_small_restarted.LW
p1513
aVtc_357_106_wcdma_iterator_ipAddressReset_irrEnabled_modify_to_true_while_one_pdp_already_in_target_area.LW
p1514
aVtc_320_078_attach_imsi_attach_ptmsi_reject.LWG
p1515
aVtc_357_003_gsm_iterator_add_rai_into_ip_alloc_area_with_ipAddressReset_true_irrEnabled_nrrEnabled_false.LWG
p1516
aVtc_367_116_pgw_reselection_ho_2_ims_pdn_diff_qci_sgw_send_dbr_both_reactivate_requested.LW
p1517
aVtc_212_0235_Ccheck_TrustCategory.LWG
p1518
aVtc_212_0255_Ccheck_pgw_reselection_apn_check_apn_list.LWG
p1519
aVtc_327_191_recovery_intra_TAU_MT_CALL_while_waiting_for_CSR_due_to_S11_linkdown.LWG
p1520
aVtc_196_182_nrspca_during_the_same_nsapi_sgsn_initiate_pdp_deactivation_rab_release.LWG
p1521
aVtc_357_104_wcdma_iterator_ipAddressReset_modify_to_true_while_one_pdp_already_in_target_area.LW
p1522
aVtc_369_052_attach_request_during_waiting_for_location_report__idr_flags_ef.LWG
p1523
aVtc_225_913_mo_call_active_mode__sgs_cs_paging_wf_Release_Access_Bearer_Response_from_SGW.LW
p1524
aVtc_578_10_01_check_ss7_status.LW
p1525
aVtc_267_810_DDN_wf_service_req_interfer_by_CBR_DBR_ho_to_non_3gpp.LWG
p1526
aVtc_369_054_detach_request_with_switch_off_during_waitng_for_location_report__idr_flags_ef.LW
p1527
aVtc_288_361_pgw_init_bearer_mod_qci_counters__qci9_and_254.LW
p1528
aVtc_274_614_combined_TAU_MT_Call_while_waiting_for_AIA_MO_SMS_wf_initial_context_setup_resp_detach_wf_modify_beare_response.LWG
p1529
aVtc_214_1243_combined_attach_mo_sms_wf_location_update_response_mt_call_wf_initial_context_setup_response.LW
p1530
aVtc_358_103_lte_reject_national_roaming_user_attach_from_nrr_ip_area.LW
p1531
aVtc_238_426_mme_eps_irat_ho_target__sms_paging_wf_handover_request_acknowledge.LW
p1532
aVtc_357_406_wcdma_local_user_reactivate_pdp_intra_rau_non_ip_area_to_ip_area.LW
p1533
aVtc_358_047_lte_iterator_EF_Pdn_Connectivity_Request_wf_delete_session_response.LW
p1534
aVtc_320_036_ra_capability.LWG
p1535
aVtc_263_460_Attach_Flow__Ue_Context_Release_while_waiting_for_Create_Session_Response.LW
p1536
aVtc_265_252_Detach_Flow_NW_init__Sgs_CS_Paging_while_wf_delete_session_response.LW
p1537
aVtc_369_103_HSS_based_PCSCF_restoration_ecm_connected_feature_off.LWG
p1538
aVtc_06_676_dualstack_israu_two_existing_pdp_one_with_fqdn_then_activate_ipv4v6_pdp_under_preferpgwforlteue_no_epc_with_sogt_true.LWG
p1539
aVtc_335_46_wifi_to_mobility_in_ecm_idle_unknown_user_af__estimation_response_from_eNB_after_timeout.LWG
p1540
aVtc_280_032_create_dedicated_bearers_qci_counters__qci10_and_qci254.LW
p1541
aVtc_245_325_israu_new_l_to_w_with_sgw_unchange_2_pdn_service_request_intefered_by_deactivate_pdp_req_with_tdi.LWG
p1542
aVtc_225_117_mo_call_emergency_active_mode_ho_not_supported_with_msc_change_ps_available.LW
p1543
aVtc_44_804_sbc_ccheck_rat.LW
p1544
aVtc_280_043_create_dedicated_bearers_qci_counters__qci1_2_3_4_5_6_qci64.LW
p1545
aVtc_237_423_mme_af_eps_irat_ho_source__two_SMS_paging_sent_to_mme_wf_forward_relocation_response.LWG
p1546
aVtc_369_080_s3_identification_request_during_waiting_location_report__idr_flags_ef.LWG
p1547
aVtc_288_361_pgw_init_bearer_mod_qci_counters__qci9_and_254.LWG
p1548
aVtc_369_124_HSS_based_PCSCF_restoration_ecm_idle_uereachability_userstate_locationinfo_timezone_paging_failed.LW
p1549
aVtc_357_426_wcdma_local_user_inter_relocation_source_in_ip_area_reject.LWG
p1550
aVtc_358_041_lte_iterator_EF_Erab_Release_Indication_wf_delete_session_response.LW
p1551
aVtc_369_070_delete_subscription_data_from_hss_during_waiting_location_report__idr_flags_ef.LW
p1552
aVtc_364_201_af_max_hits_reached_for_a_trigger.LWG
p1553
aVtc_364_211_1_af_buffered_signalling_history_at_transfer_lte_attach.LWG
p1554
aVtc_357_419_wcdma_local_user_reject_intra_relocation_non_ip_area_to_ip_area.LW
p1555
aVtc_358_047_lte_iterator_EF_Pdn_Connectivity_Request_wf_delete_session_response.LWG
p1556
aVtc_346_734_pra_cn_predefined_lrc_optimization__s1_ho_then_x2_ho__2nd_and_last_enb_lrc_needed.LW
p1557
aVtc_357_410_wcdma_national_roaming_user_reject_intra_rau_ip_area_to_another_irr_nrr_ip_area.LWG
p1558
aVtc_214_1234_sgsap_alert_then_s1_release_interferred_by_sgsap_paging_sms_then_interferred_by_combined_tau.LWG
p1559
aVtc_358_116_lte_international_roaming_user_inter_tau_new_in_irr_nrr_ip_area_reject.LWG
p1560
aVtc_288_362_pgw_init_bearer_mod_qci_counters__qci1_4_5_9_10_254.LWG
p1561
aVtc_225_822_mt_csfb_idle_mode_combined_tau_as_paging_response_without_location_update.LW
p1562
aVtc_280_040_create_dedicated_bearers_qci_counters__qci1_and_qci9.LWG
p1563
aVtc_263_520_ReAttach_Flow_mt_cs_call_while_waiting_for_create_session_response.LW
p1564
aVtc_292_115_x2_based_ho_roaming_restricted_service_request_old_ta.LW
p1565
aVtc_196_020_ms_init_secondary_pdp_context_activation_reject_CC33.LW
p1566
aVtc_256_401_mme_eps_srvcc_ho_source_cs_only__cs_paging_wf_delete_bearer_request.LWG
p1567
aVtc_314_046_sgsn_init_qos_modification_handover_l_to_w_interrupt_by_Iu_release_no_UBR.LWG
p1568
aVtc_263_522_ReAttach_Flow_mt_cs_call_while_waiting_for_attach_complete.LWG
p1569
aVtc_225_820_mt_csfb_idle_mode_normal_tau_as_paging_response.LWG
p1570
aVtc_357_332_gsm_local_user_inter_rau_old_in_ip_area_response_only_contain_white_pdp.LWG
p1571
aVtc_310_400_srvcc_ps_cs_mt_csfb_wf_forward_relocation_response.LWG
p1572
aVtc_346_649_pra_cn_predefined_all_list__seamless_move_2pdns__service_request.LWG
p1573
aVtc_194_1601__HSS_initiated_ISD_in_Connected_mode_when_current_CSG_Id_removed_Intefered_by_MT_SMS_wf_ue_context_modify_response.LWG
p1574
aVtc_320_037_radio_status.LWG
p1575
aVtc_357_002_gsm_iterator_ipAddressReset_modify_to_true_while_all_pdp_already_in_target_area.LWG
p1576
aVtc_369_018_ecm_connected__notification_reachability_tads_userstate_locationinfo_currentinfo_timezone__idr_flags.LW
p1577
aVtc_22_065_wcdma_activate_secondary_reject_due_to_camel_release.LWG
p1578
aVtc_369_089_downlink_unitdata_during_waiting_location_report__idr_flags_ef.LWG
p1579
aVtc_231_764_dualstack_apn_redirect_to_multiple_apn_requested_ipv4v6_subscribed_ipv4_and_ipv6_spt_ipv4.LWG
p1580
aVtc_358_002_lte_iterator_ipAddressReset_modify_to_true_while_all_pdns_already_in_target_area.LW
p1581
aVtc_358_112_lte_national_roaming_user_reactivate_pdn_intra_tau_ip_area_to_unrestricted_ip_area.LW
p1582
aVtc_282_001_deactivate_bearer_1_of_1.LWG
p1583
aVtc_263_500_Attach_Flow__mt_cs_call_while_waiting_for_create_session_response.LW
p1584
aVtc_274_613_combined_TAU_MT_Call_while_waiting_for_AIA_Detach_while_waiting_for_initial_context_response.LWG
p1585
aVtc_225_821_mt_csfb_idle_mode_combined_tau_as_paging_response_with_location_update.LWG
p1586
aVtc_310_400_srvcc_ps_cs_mt_csfb_wf_forward_relocation_response.LW
p1587
aVtc_218_349_tau_from_sgsn__mt_call_while_wf_location_update_accept.LWG
p1588
aVtc_357_337_gsm_local_user_inter_ps_handover_with_one_pdp_activated_in_no_ip_area_and_one_not.LWG
p1589
aVtc_366_001_intra_ISC_W2G_rau_local_user_deactivate_pdp_implicitly_between_same_ip_area.LWG
p1590
aVtc_357_408_wcdma_international_roaming_user_reject_intra_rau_ip_area_to_another_irr_nrr_ip_area.LWG
p1591
aVtc_225_918_mt_call_active_mode__sgs_sms_paging_wf_extended_service_request.LW
p1592
aVtc_06_663_dualstack_apn_redirect_requested_ipv4v6_subscribed_ipv4_and_ipv6_spt_ipv6.LWG
p1593
aVtc_364_054_no_duration_if_not_auto_delete_ue_trace_session.LW
p1594
aVtc_225_911_mo_call_active_mode__sgs_sms_paging_wf_Modify_Context_Response_from_eNodeB.LW
p1595
aVtc_267_731_Service_Request__SMS_paging_while_waiting_for_Modify_Bearer_Response.LWG
p1596
aVtc_310_334_ef_dbr_wf_srvcc_ps_to_cs_complete_and_dbr_after_handover_cancelled.LW
p1597
aVtc_357_311_gsm_national_roaming_user_reject_intra_rau_non_ip_area_to_nrr_ip_area.LWG
p1598
aVtc_225_822_mt_csfb_idle_mode_combined_tau_as_paging_response_without_location_update.LWG
p1599
aVtc_284_332_deactivate_1_default_bearer_2_dedicated_bearers_of_not_last_active_pdn_while_1_pdn_is_creating_and_wf_erab_setup_response.LWG
p1600
aVtc_357_404_wcdma_local_user_reactivate_pdp_intra_rau_ip_area_to_another_ip_area.LW
p1601
aVtc_369_106_HSS_based_PCSCF_restoration_ecm_connected_two_pdns_one_ims_no_delete_session_response.LW
p1602
aVtc_218_349_tau_from_sgsn__mt_call_while_wf_location_update_accept.LW
p1603
aVtc_263_459_Attach_Flow__Cancel_Location_Initial_Attach_then_Emergency_Attach_again_while_waiting_for_Create_Session_Response.LWG
p1604
aVtc_369_112_HSS_based_PCSCF_restoration_ecm_idle_three_pdns_two_ims_deactivation.LWG
p1605
aVtc_44_077_s1ap_mdholpap_counters_x2_handover.LWG
p1606
aVtc_357_424_wcdma_national_roaming_user_reject_intra_reloaction_ip_area_to_another_nrr_ip_area.LW
p1607
aVtc_277_111_tau_inter_old_ddn_while_received_context_ack.LW
p1608
aVtc_225_916_mt_call_active_mode__sgs_cs_paging_wf_extended_service_request.LW
p1609
aVtc_280_036_create_dedicated_bearers_qci_counters__qci254_and_qci255.LW
p1610
aVtc_298_530_pgw_init_dedicated_deletion_ef_nrspca_with_same_nsapi_wf_rab_release_resp.LW
p1611
aVtc_197_802_optimized_gw_selection_attach_pgw_selected_by_sapc.LW
p1612
aVtc_276_453_Inter_TAU_New_MME__Sgs_Paging_CS_Call_while_wait_for_ue_context_release_complete.LW
p1613
aVtc_44_074_s1ap_mdholpap_counters_service_request.LW
p1614
aVtc_11_581_israu_new_only_one_old_pdp_with_fqdn_then_activate_one_pdp_under_nevertrypgw_sogt_true_initiate_naptr_query.LW
p1615
aVtc_194_112_cli_get_subscriber_combined_attach_when_turn_on_sms_over_sgs_and_csfb_to_1xrtt.LW
p1616
aVtc_358_102_lte_allowed_international_roaming_user_attach_from_non_irr_ip_area.LW
p1617
aVtc_369_057_extended_service_request_during_waiting_for_location_report__idr_flags_ef.LWG
p1618
aVtc_197_801_optimized_gw_selection_attach_subscribed_static_pgw.LW
p1619
aVtc_231_767_dualstack_apn_redirect_requested_ipv4v6_subscribed_ipv4_and_ipv6_spt_ipv6_ipv6up_off.LWG
p1620
aVtc_357_000_cli_check_loc_based_ip_alloc_config.LWG
p1621
aVtc_357_319_gsm_local_user_reject_intra_ps_handover_non_ip_area_to_ip_area.LWG
p1622
aVtc_369_012_ecm_connected__userstate_locationinfo_currentinfo__idr_flags.LWG
p1623
aVtc_369_121_HSS_based_PCSCF_restoration_ecm_connected_subscribered_ambr_update.LWG
p1624
aVtc_225_115_mo_call_emergency_active_mode_ho_not_supported_with_msc_change.LW
p1625
aVtc_286_003_pdn_disconnect_dedicated_bearers.LW
p1626
aVtc_263_457_Attach_Flow__Cancel_Location_Initial_Attach_Procedure_while_waiting_for_Create_Session_Response.LW
p1627
aVtc_364_204_af_delete_trigger_where_resulting_ue_trace_session_exists.LWG
p1628
aVtc_358_031_lte_iterator_multi_pdn_wf_one_delete_session_response_timeout.LWG
p1629
aVtc_320_059_gmm_status_from_ms.LWG
p1630
aVtc_277_113_tau_inter_old_ddn_with_imsi_while_received_context_ack.LW
p1631
aVtc_262_933_attach_reject_with_cc33__attach_req_and_esm_infor_both_without_apn.LWG
p1632
aVtc_263_512_Attach_Flow__mt_sms_while_waiting_for_ics_response.LWG
p1633
aVtc_96_066_intra_sgsn_intra_psho_wf_ho_req_ack_interfered_by_camel_release.LWG
p1634
aVtc_238_420_mme_eps_irat_ho_target__volte_bearer_gauge.LWG
p1635
aVtc_358_141_lte_local_user_x2_handover_restricted_area_to_unrestricted_area_with_one_pdn_activated_in_unrestricted_ip_area.LWG
p1636
aVtc_284_327_deactivate_1_default_bearer_of_last_active_pdn_while_1_pdn_is_creating_and_wf_activate_default_eps_bearer_context_accept.LWG
p1637
aVtc_327_191_recovery_intra_TAU_MT_CALL_while_waiting_for_CSR_due_to_S11_linkdown.LW
p1638
aVtc_367_119_pgw_reselection_ho_without_qci_1_buffered_cbr_reject_then_reactivate_requested.LWG
p1639
aVtc_357_007_gsm_iterator_irrEnabled_modify_to_true_with_ipAddressReset_nrrEnabled_false.LWG
p1640
aVtc_358_014_lte_remove_ip_area_with_ipAddressReset_true_and_irrEnabled_nrrEnabled_false_while_all_pdns_in_unrestricted_ip_area.LWG
p1641
aVtc_357_118_wcdma_iterator_turn_off_feature_with_ipAddressReset_irrEnabled_nrrEnabled_false.LW
p1642
aVtc_286_004_pdn_disconnect_Ue_init_QCI_1_2_5_9_10_127.LW
p1643
aVtc_06_664_dualstack_apn_redirect_for_multiple_apn_requested_ipv4v6_subscribed_ipv4_and_ipv6_spt_ipv6.LWG
p1644
aVtc_218_352_tau_from_sgsn__mt_call_while_wf_modify_bearer_response.LWG
p1645
aVtc_293_261__X2_Based_HO__MT_SMS_while_wf_Modify_Bearer_Response.LW
p1646
aVtc_274_602_combined_TAU_SMS_Paging_request_while_waiting_for_initial_context_response.LWG
p1647
aVtc_357_317_gsm_national_roaming_user_inter_rau_new_in_irr_nrr_ip_area_reject.LWG
p1648
aVtc_369_102_HSS_based_PCSCF_restoration_ecm_connected_two_ims_pdns_detach.LW
p1649
aVtc_357_308_gsm_international_roaming_user_reject_intra_rau_ip_area_to_another_irr_nrr_ip_area.LWG
p1650
aVtc_212_0233_Ccheck_NodeCredential.LWG
p1651
aVtc_294_304_1_mme_handle_eps_handover_main_flow_plus_all_bearers_deleted_different_qcis.LWG
p1652
aVtc_44_803_s1_mme_ccheck_rat.LWG
p1653
aVtc_231_763_dualstack_apn_redirect_requested_ipv4v6_subscribed_ipv4_and_ipv6_spt_ipv4.LWG
p1654
aVtc_225_910_mo_call_idle_mode__sgs_cs_paging_wf_Initial_Context_Setup_Response.LW
p1655
aVtc_320_087_attach_imsi_detached_ptmsi_attach.LWG
p1656
aVtc_357_434_wcdma_local_user_inter_rau_old_in_ip_area_goto_stable_after_rau_fail.LWG
p1657
aVtc_357_423_wcdma_national_roaming_user_intra_reloaction_normally_between_same_ip_area.LW
p1658
aVtc_38_661_israu_new_sgsn_two_pdp_context__create_pdp_fails_due_to_context_limit.LWG
p1659
aVtc_310_269__ef__Initial_UE_Service_Request_wf_PS_to_CS_Response_and_FR_Response_STI_false.LWG
p1660
aVtc_358_006_lte_iterator_ipAddressReset_irrEnabled_modify_to_true_while_one_pdn_already_in_target_area.LW
p1661
aVtc_225_119_mo_call_active_mode_ho_not_supported_with_msc_change_ps_not_available.LW
p1662
aVtc_203_452_mme_eps_handover_source__cs_paging_wf_forward_relocation_response.LW
p1663
aVtc_364_002_configure_trigger_when_ue_trace_feature_off.LW
p1664
aVtc_262_935_emergency_attach_reject_with_cc33.LWG
p1665
aVtc_358_033_lte_iterator_multi_pdn_wf_one_erab_release_response_timeout.LW
p1666
aVtc_280_036_create_dedicated_bearers_qci_counters__qci254_and_qci255.LWG
p1667
aVtc_212_0234_Ccheck_SyslogService.LWG
p1668
aVtc_263_460_Attach_Flow__Ue_Context_Release_while_waiting_for_Create_Session_Response.LWG
p1669
aVtc_278_455_Inter_TAU_Old_MME_Intra_TAU_while_waiting_for_context_ack__Sgs_Paging_SMS_while_waiting_for_ue_context_release_complete.LW
p1670
aVtc_267_731_Service_Request__SMS_paging_while_waiting_for_Modify_Bearer_Response.LW
p1671
aVtc_194_829_normal_attach_set_odb_data_attach_reject_for_visitor.LW
p1672
aVtc_357_324_gsm_national_roaming_user_reject_intra_ps_handover_ip_area_to_another_nrr_ip_area.LWG
p1673
aVtc_237_423_mme_af_eps_irat_ho_source__two_SMS_paging_sent_to_mme_wf_forward_relocation_response.LW
p1674
aVtc_578_61_check_test_dns_resolve.LWG
p1675
aVtc_362_510_rau_l_to_g_with_ue_tracer.LWG
p1676
aVtc_241_1691_intra_rau_with_sgw_change_interferred_by_Iu_release_before_create_rsp.LW
p1677
aVtc_369_062_ue_release_request_user_inactivity_during_waiting_for_location_report__idr_flags_ef.LWG
p1678
aVtc_92_04_20_meas_reader.LWG
p1679
aVtc_358_138_lte_local_user_inter_handover_with_one_pdn_activated_in_no_ip_area_and_one_not.LWG
p1680
a.