(lp0
Vtc_311_257_intra_srns_reloc_s4_wf_rau_compl_interrupted_by_new_attach_with_invalid_ptmsi_signature.WG14a
p1
aVtc_322_161_smooth_move_ef_nas_after_paging_response_ignore.WG14a
p2
aVtc_11_030_activate_one_primary_one_secondary_pdp_context.W14b
p3
aVtc_311_257_intra_srns_reloc_s4_wf_rau_compl_interrupted_by_new_attach_with_invalid_ptmsi_signature.W14b
p4
aVtc_39_187_detach_trigger_re_attach_new_iu.W14b
p5
aVtc_334_208_path_failure_inter_rau_sgw_change_mf.W14b
p6
aVtc_342_134_update_x3_address_multiple_pdp.W14b
p7
aVtc_297_407_move_at_periodic_rau.G14b
p8
aVtc_195_208_mme_logging_maximum_modify_eps_bearer_context.LW
p9
aVtc_275_142_tau_inter_new_context_response_integrity_failure_and_no_imsi.LW
p10
aVtc_194_182_hss_reset_ue_activity_tau_request_after_handover.LW
p11
aVtc_44_871_mme_assoc_reestablish__board_block_sbc.LW
p12
aVtc_241_801_israu_interfering_context_request_no_cancel_location_s4.LW
p13
aVtc_298_145_EF_NRSPCA_interfere_Activation.LW
p14
aVtc_236_152_s4_3gdt_ms_init_dedicated_bearer_tdi_true_deac_wf_release_bearer_resp_in_rab_release_procedure.LWG
p15
aVtc_251_010_rau_w_to_g_after_hss_reset_storm.LWG
p16
aVtc_73_41_gtpu_sgsn_dont_send_gpu_echo_request_w.LWG
p17
aVtc_262_1001_attach_apn_resolution_ext_imsins_based_with_lsd_larger_than_msisdn.LWG
p18
aVtc_196_172_nrspca_during_t3385_when_receive_sgsn_context_ack_not_accepted.LWG
p19
aVtc_220_202_csfb_to_1xrtt_suspend_t3n3_expired.LWG
p20
aVtc_220_411_csfb_to_1xrtt_in_ecm_connected_path_switch_request_subscription_cancelled.LWG
p21
aVtc_232_507_static_routes__bfd_supervision_of_static_route_v6.LWG
p22
aVtc_232_511_static_routes__bfd_supervision_of_static_route_v6_on_Gom.LWG
p23
aVtc_232_503_static_routes__ipv4_ipv6_conf_deconf.LWG
p24
aVtc_326_219_Intra_TAU_Recovery_then_rim_source_mme_gn_sgsn_selection_table_not_matched_dns_query_success.LWG
p25
aVtc_298_074_s4_nrspca_activate_same_nsapi_of_dedicated_bearer_apn_failed.LWG
p26
aVtc_208_43_interception_after_small_restart.LWG
p27
aVtc_44_004_small_restart__sctp_fe_restart.LWG
p28
aVtc_23_09_transfer_to_primary_and_change_vip_addr.LWG
p29
aVtc_341_670_x2_activity_event_handover_intra_s1.LWG
p30
aVtc_194_506_Notification_during_Intra_MME_TAU_without_SGW_Relocation_Procedure.LWG
p31
aVtc_194_991_downlink_A21_AIS_during_waiting_location_report__idr_flags_ef.LWG
p32
aVtc_274_120_Intra_and_pTAU__Insert_Subscriber_Data_Request_while_waiting_for_Initial_Context_Setup_Response.LWG
p33
aVtc_297_407_move_at_periodic_rau.LWG
p34
aVtc_209_173_activate_deactivate_activate_payload.LWG
p35
aVtc_316_284_MME_Pool_Seamless_Move_Ecm_Idle_Source_MME__Delete_UE_Backup.LWG
p36
aVtc_304_009_attach_reject__turn_off_feature_during_control_period.L14b
p37
aVtc_194_100_check_gauge_unstable_not_parked.L14b
p38
aVtc_194_505_Notification_during_Intra_TAU_without_SGW_Relocation_HSS_Reset_Before_TAU.L14b
p39
aVtc_194_991_downlink_A21_AIS_during_waiting_location_report__idr_flags_ef.L14b
p40
aVtc_285_006_PDN_Connectivity_Pb__Delete_default_bearer_request_while_wf_modify_bearer_response.L14b
p41
aVtc_266_026_DownlinkDataFailureInd_repeat_paging_timer_small_local_restart.L14b
p42
aVtc_225_312_mt_call_active_mode_nas_non_delivery__s1_intra_system_handover_triggered_resend_2_times.L14b
p43
aVtc_290_087_Timer_Based_GBR_Deact__cancel_location_with_subscription_withdrawn_wf_delete_bearer_request_after_timer_expires.L14b
p44
aVtc_44_071_attach_long_imsi.L14b
p45
aVtc_44_871_mme_assoc_reestablish__board_block_sbc.L14b
p46
aVtc_346_672_pra_cn_predefined_cca_u_for_initial_report_failure_in_inter_tau_then_x2_ho.L14b
p47
aVtc_346_683_pra_cn_predefined_x2_ho_after_isc_tau_2pdns_out2in_and_out_out.L14b
p48
aVtc_103_800_device_watchdog_request_to_SGSN_MME.L14b
p49
aVtc_275_065_tau_inter_new_roaming_restricted_transfer_due_to_wrong_ap_index.L14b
p50
aVtc_322_161_smooth_move_ef_nas_after_paging_response_ignore.WG14a
p51
aVtc_208_43_interception_after_small_restart.G14b
p52
aVtc_310_310_S3_new_SGW_emergency_attach_sv_pool_on_msc_one_offloading_one_available.LWG
p53
aVtc_243_771_tau_from_sgsn_s3_active_flag_true_SGW_unchange_no_2nd_modify_bearer_response_two_pdn.LWG
p54
aVtc_141_015_eth_traffic_vlan_novlan.LWG
p55
aVtc_319_122_pdn_connectivity_mf_gw_blacklisting_blocked_status_has_lowest_priority.LWG
p56
aVtc_288_114_pgw_init_bearer_mod_paging_one_bearer_rejected_in_modify_bearer_response.LWG
p57
aVtc_204_409_mme_eps_ho_target_type_b_roaming_restriction_same_profile_emc_sup_sim_only.LWG
p58
aVtc_318_252_restoration_triggered_by_create_session_response.LWG
p59
aVtc_202_102_small_restart.LWG
p60
aVtc_259_77_ef_isd_paging_s4_w.LWG
p61
aVtc_245_301_inter_rau_insert_entry_into_interface_cache.LWG
p62
aVtc_208_43_interception_after_small_restart.LWG
p63
aVtc_327_172_recovery_intra_TAU_SGSN_Context_Request_while_waiting_for_Location_Update_Response.LWG
p64
aVtc_276_303_Inter_TAU_New_MME__Downlink_Data_Notification_while_waiting_for_TAU_Complete.LWG
p65
aVtc_166_233_error_indication_from_ggsn_for_primary_context.LWG
p66
aVtc_166_428_rnc_initiated_rab_release_interfered_by_rnc_initiated_iu_release_request.LWG
p67
aVtc_241_801_israu_interfering_context_request_no_cancel_location_s4.LWG
p68
aVtc_220_588_csfb_to_1xrtt_in_ecm_idle_extended_service_request_during_detach.LWG
p69
aVtc_306_1308_ef_seamless_move_target_buffer_update_bearer_request.LWG
p70
aVtc_11_091_activate_secondary_pdp_context_wrong_LinkedTI.LWG
p71
aVtc_59_12_sequence_on_demand_indexbased_replica_values_during_takeover.LWG
p72
aVtc_59_9_mtmsi_restart_counter.LWG
p73
aVtc_324_006_mf_ser_req_signaling_after_ack_3gdt.LWG
p74
aVtc_232_511_static_routes__bfd_supervision_of_static_route_v6_on_Gom.LWG
p75
aVtc_232_204_bfd__multiplier_variations_ipv6.LWG
p76
aVtc_232_508_static_routes__bfd_supervision_of_static_route_v4_v6.LWG
p77
aVtc_178_830_action_ss7_sys_tclear.LWG
p78
aVtc_324_386_ef_mt_sms_wf_frcn_wf_frca_wf_ula.LW
p79
aVtc_103_850_error_code_DIAMETER_REALM_NOT_SERVED.LW
p80
aVtc_103_1003_highest_prio_peer_unavailable_lower_prio_peer_chosen.LW
p81
aVtc_310_310_S3_new_SGW_emergency_attach_sv_pool_on_msc_one_offloading_one_available.LW
p82
aVtc_241_801_israu_interfering_context_request_no_cancel_location_s4.LW
p83
aVtc_195_224_mme_logging_maximum_trace_start_deactivate.LW
p84
aVtc_202_10_downlink_data_during_paging.LW
p85
aVtc_250_150_isd_with_odb_init_deactivation.LW
p86
aVtc_327_037_recovery_intra_TAU_active_off_sgw_unchanged__RAR_wf_CSR_due_to_S11_linkdown.LW
p87
aVtc_220_411_csfb_to_1xrtt_in_ecm_connected_path_switch_request_subscription_cancelled.LW
p88
aVtc_578_33_check_ebm_para_statistics_enb_sn.LW
p89
aVtc_578_32_check_ebm_para_statistics_ue_return_duration.LW
p90
aVtc_311_257_intra_srns_reloc_s4_wf_rau_compl_interrupted_by_new_attach_with_invalid_ptmsi_signature.W14b
p91
aVtc_298_783_S4_3GDT_downlink_data_notification_wait_MBR_ef_detach.W14b
p92
aVtc_39_187_detach_trigger_re_attach_new_iu.W14b
p93
aVtc_225_802_csfb_to_g_without_dtm_delete_bearer_ho_to_no_3gpp_wf_delete_gbr_bearer_response.L14b
p94
aVtc_346_683_pra_cn_predefined_x2_ho_after_isc_tau_2pdns_out2in_and_out_out.L14b
p95
aVtc_346_494_Small_Local_Restart__Terminate_when_UE1_PDN_Connectivity_waiting_for_CCAI_UE2_Location_Report_waiting_for_CCAU.L14b
p96
aVtc_346_670_pra_cn_predefined_cca_u_for_initial_report_timeout_in_attach_then_service_request_in.L14b
p97
aVtc_220_583_csfb_to_1xrtt_in_ecm_idle_extended_service_request_as_paging_response_create_bearer.L14b
p98
aVtc_326_235_Intra_TAU_Recovery_fail_Modify_Bearer_timeout_with_active_flag.L14b
p99
aVtc_327_600_Inter_TAU_Recovery__Attach_Request_IMSI_while_waiting_for_ue_backup_retrieval_Response.L14b
p100
aVtc_43_101__removal_of_disconnected_eNodeBs__CLI_removal.L14b
p101
aVtc_195_203_mme_logging_maximum_dedicated_bearer.L14b
p102
aVtc_310_244_ef__S1_Reset_wf_FR_Complete_PS_to_CS_Complete_received.L14b
p103
aVtc_194_100_check_gauge_unstable_not_parked.L14b
p104
aVtc_194_982_gn_identification_request_during_waiting_location_report__idr_flags_ef.L14b
p105
aVtc_266_026_DownlinkDataFailureInd_repeat_paging_timer_small_local_restart.L14b
p106
aVtc_196_172_nrspca_during_t3385_when_receive_sgsn_context_ack_not_accepted.LW
p107
aVtc_194_064_activate_loc_not_confirmed_ul_fails_network_failure.LW
p108
aVtc_218_311_tau_from_sgsn_preserved_gbr_bearer_buffer_1_ubr_1_cbr.LW
p109
aVtc_12_134_attach_with_extended_mmumoc_iu_inactivity_timer.LW
p110
aVtc_304_121_initial_ue_intra_tau_control_mode_threshold_exceeded_usc_detach_wf_release_request_response.LW
p111
aVtc_195_406_ue_trace_start_meanwhile_handover_required.LW
p112
aVtc_289_060_Modify_bearer__UE_context_modification_request_meanwhile_handover_required_HO_all_bearers_fail.LW
p113
aVtc_241_801_israu_interfering_context_request_no_cancel_location_s4.LW
p114
aVtc_322_161_smooth_move_ef_nas_after_paging_response_ignore.WG14a
p115
aVtc_334_002_echo_response_prn_set.W14b
p116
aVtc_245_340_israu_new_l_to_w_with_GBR_dedicated_bearer_ipv6_3gdt.W14b
p117
aVtc_231_113_rnc_reset_during_ms_act_si_ms_deact_rnc_contact.W14b
p118
aVtc_298_676_pgw_init_modification_no_iu_wf_rab_assignment_ef_dbr_ef_cancel_location.W14b
p119
aVtc_31_054_standalone_dsd_no_relevant_data.W14b
p120
aVtc_322_126_smooth_move_ef_cancel_location_initialAttach_wf_cancel_location.W14b
p121
aVtc_324_327_ef_service_req_data_direct_transfer_ingore.W14b
p122
aVtc_324_371_ef_cancel_location_intialAttach_wf_modify_bearer_response_service_req_data.W14b
p123
aVtc_329_003_attach_rs_allowed_emergency_plmn_change_ula_fails.L14b
p124
aVtc_327_602_Inter_TAU_Recovery__Attach_Request_while_waiting_for_Ue_Authentication_Response.L14b
p125
aVtc_346_683_pra_cn_predefined_x2_ho_after_isc_tau_2pdns_out2in_and_out_out.L14b
p126
aVtc_346_670_pra_cn_predefined_cca_u_for_initial_report_timeout_in_attach_then_service_request_in.L14b
p127
aVtc_266_026_DownlinkDataFailureInd_repeat_paging_timer_small_local_restart.L14b
p128
aVtc_194_505_Notification_during_Intra_TAU_without_SGW_Relocation_HSS_Reset_Before_TAU.L14b
p129
aVtc_194_705_HSS_initiated_ISD_ue_context_modification_failure_s1_intra_system_handover_triggered_HO_failure.L14b
p130
aVtc_195_416_ue_trace_deactivate_trace_s1_intra_system_handover_triggered.L14b
p131
aVtc_262_1031_emergency_imsi_attach_multiple_pgw_try_next_pgw_fqdn_error.L14b
p132
aVtc_262_1055_imsi_attach_with_csg_id_is_rejected.L14b
p133
aVtc_197_003_use_pmip_instead_of_gtp.L14b
p134
aVtc_260_271_receive_sm_start_req_while_wf_setup_iteration.L14b
p135
aVtc_208_43_interception_after_small_restart.G14b
p136
aVtc_183_005_itc_folder_file_names.LWG
p137
aVtc_259_116_ef_s6d_tads_interfere_inter_rau_old_w.LWG
p138
aVtc_218_311_tau_from_sgsn_preserved_gbr_bearer_buffer_1_ubr_1_cbr.LWG
p139
aVtc_334_251_path_failure_service_req_connected_mf.LWG
p140
aVtc_232_502_static_routes__ipv6_conf_deconf.LWG
p141
aVtc_232_402_bfd__ipv6_alarm.LWG
p142
aVtc_73_41_gtpu_sgsn_dont_send_gpu_echo_request_w.LWG
p143
aVtc_289_017_Modify_bearer__ERAB_modify_request_meanwhile_path_switch_request_HO_success.LWG
p144
aVtc_59_9_mtmsi_restart_counter.LWG
p145
aVtc_275_073_tau_inter_new_no_update_location_response_sgsn00040258.LWG
p146
aVtc_347_100_Inter_TAU_Old_MME__Location_Report_while_waiting_for_Context_Ack.LWG
p147
aVtc_103_1108_attach_resend_of_AIR_successful_last_retry.LWG
p148
aVtc_103_702_CEA_timeout.LWG
p149
aVtc_44_871_mme_assoc_reestablish__board_block_sbc.LWG
p150
aVtc_327_317_recovery_service_request__initial_Attach_Request_while_waiting_for_Sub_Procedure__Initial_Context_Setup_Response.L14b
p151
aVtc_44_841_mme_assoc_reestablish__device_restart_sbc.L14b
p152
aVtc_225_312_mt_call_active_mode_nas_non_delivery__s1_intra_system_handover_triggered_resend_2_times.L14b
p153
aVtc_220_587_csfb_to_1xrtt_in_extended_service_request_during_attach_waiting_for_modify_bearer_response.L14b
p154
aVtc_346_683_pra_cn_predefined_x2_ho_after_isc_tau_2pdns_out2in_and_out_out.L14b
p155
aVtc_103_711_diameter_incorrect_CEA_handling.L14b
p156
aVtc_103_1103_fallback_to_imsins_resend_no_more_peers.L14b
p157
aVtc_326_205_Intra_TAU_with_unknown_GUTI_after_large_restart_after_emergency_attach_with_unauthenticated_IMSI.L14b
p158
aVtc_196_172_nrspca_during_t3385_when_receive_sgsn_context_ack_not_accepted.LWG
p159
aVtc_205_40_ss7_M3ua.LWG
p160
aVtc_298_145_EF_NRSPCA_interfere_Activation.LWG
p161
aVtc_44_871_mme_assoc_reestablish__board_block_sbc.LWG
p162
aVtc_183_005_itc_folder_file_names.LWG
p163
aVtc_297_407_move_at_periodic_rau.LWG
p164
aVtc_293_009_X2_Based_HO__TAU_Request_in_uplink_NAS_from_source_while_wf_Modify_Bearer_Response.LWG
p165
aVtc_95_3_load_lkf.LWG
p166
aVtc_250_67_s6d_activation_with_EPS_data_s4_license_off.LWG
p167
aVtc_326_622_S6a_Throttling_Service_Request_recovery_UL_successful_and_Emergency_Attach_not_throttled.LWG
p168
aVtc_219_232_TAU_Dual_Access_WtoL_without_SGW_Change_SGW_unavailable.LWG
p169
aVtc_327_037_recovery_intra_TAU_active_off_sgw_unchanged__RAR_wf_CSR_due_to_S11_linkdown.LWG
p170
aVtc_271_009_sctp_paging_olp_verify_nw_initiate_procedure.LWG
p171
aVtc_12_134_attach_with_extended_mmumoc_iu_inactivity_timer.LWG
p172
aVtc_243_771_tau_from_sgsn_s3_active_flag_true_SGW_unchange_no_2nd_modify_bearer_response_two_pdn.LWG
p173
aVtc_23_09_transfer_to_primary_and_change_vip_addr.LWG
p174
aVtc_340_05_validation_move_g_filter_apn_intrarau_trigger.WG14a
p175
aVtc_324_402_ef_gr_delete_subscriber_data_during_modify_bearer_after_ulr.WG14a
p176
aVtc_298_145_EF_NRSPCA_interfere_Activation.LW
p177
aVtc_284_350_pdn_connectivity_interrupted_by_path_switch_request.LW
p178
aVtc_321_090_mo_sms_mf.LW
p179
aVtc_324_455_ef_detach_request_poweroff_abort_wf_rab_assignment_response_wf_update_location_hss_service_req_data.LW
p180
aVtc_236_056_s4_3gdt_delete_bearer_during_modify_bearer_in_service_request_procedure.LW
p181
aVtc_220_403_csfb_to_1xrtt_in_ecm_connected_path_switch_request_HO_success.LW
p182
aVtc_282_131_deactivate_default_bearer.LW
p183
aVtc_269_001_s1_reset_emm_registered.LW
p184
aVtc_298_725_S4_3GDT_Service_request_wf_modify_bearer_response_ef_vplmn_not_allowed.W14b
p185
aVtc_51_114_reloc_wf_rau_complete_interrupted_by_new_rau_with_invalid_ptmsi_signature.W14b
p186
aVtc_334_211_path_failure_intra_rau_af_invaild_context.W14b
p187
aVtc_26_063_israu_mbr_set_to_zero_background.W14b
p188
aVtc_220_413_csfb_to_1xrtt_in_ecm_connected_handover_required_meanwhile_CBR_received.L14b
p189
aVtc_286_117_pdn_disconnect_invalid_pti.L14b
p190
aVtc_194_506_Notification_during_Intra_MME_TAU_without_SGW_Relocation_Procedure.L14b
p191
aVtc_304_236_isc_active_flag_on_control_mode_threshold_exceeded_ignore_replace_s1_wf_initial_context_setup_response.L14b
p192
aVtc_263_094_Attach_Flow__Update_Bearer_Request_while_waiting_for_Modify_Bearer_Response.L14b
p193
aVtc_310_310_S3_new_SGW_emergency_attach_sv_pool_on_msc_one_offloading_one_available.L14b
p194
aVtc_266_011_DownlinkDataNotification_interfering_ISD_sgsn00026976.L14b
p195
aVtc_346_672_pra_cn_predefined_cca_u_for_initial_report_failure_in_inter_tau_then_x2_ho.L14b
p196
aVtc_346_683_pra_cn_predefined_x2_ho_after_isc_tau_2pdns_out2in_and_out_out.L14b
p197
aVtc_44_841_mme_assoc_reestablish__device_restart_sbc.L14b
p198
aVtc_316_203_IMSI_Attach_Emergency_Authentication_Fail__Backup_UE.L14b
p199
aVtc_202_10_downlink_data_during_paging.L14b
p200
aVtc_103_1135_sx_resend__CCR_I_attempt_1_time_diameter_unable_to_deliver_failed_host_and_realm.L14b
p201
aVtc_103_1135_sx_resend__CCR_I_attempt_1_time_diameter_unable_to_deliver_failed_host_and_realm.LWG
p202
aVtc_59_9_mtmsi_restart_counter.LWG
p203
aVtc_208_43_interception_after_small_restart.LWG
p204
aVtc_666_02_reboot_ss7_board.LWG
p205
aVtc_211_014_streamed_cell_trace_mapping_alarm.LWG
p206
aVtc_306_1333_ef_seamless_move_target_receive_cli_delete_subscriber_wf_ula.LWG
p207
aVtc_28_030_israu_new_sgsn_one_pdp_context_mo_sms.LWG
p208
aVtc_298_424_ms_init_deact_ef_delicated_non_gbr_bearer_deact_interfered_by_rab_release_request.LWG
p209
aVtc_298_783_S4_3GDT_downlink_data_notification_wait_MBR_ef_detach.LWG
p210
aVtc_183_005_itc_folder_file_names.LWG
p211
aVtc_202_03_emm_deregistered_no_s1_release.LWG
p212
aVtc_214_1126_la_selection_mf_oldlapreferred_combined_intra_tau_after_imsi_detach_triggered_by_sgs_paging.LWG
p213
aVtc_316_296_New_BMME_Not_In_Backup_MME_List__Force_Delete.LWG
p214
aVtc_166_280_israu_new_vplmn_3gdt_prefixed_apn.LWG
p215
aVtc_241_734_service_request_wf_modify_bearer_response_interfered_by_deactivate_pdp_context.LWG
p216
aVtc_346_687_pra_cn_predefined_pra_configuration_change_service_request__out2in.LWG
p217
aVtc_236_071_hard_ho_intra_rau_with_3gdt_bearer_sgw_change_without_seq.LWG
p218
aVtc_39_601_mas_unsucc_fwd_reloc_resp_mandatory_ie_missing_stop_source.LW
p219
aVtc_298_783_S4_3GDT_downlink_data_notification_wait_MBR_ef_detach.LW
p220
aVtc_311_235_intra_srns_reloc_s4_sgw_change_wf_create_session_interrupted_by_insert_subsc.LW
p221
aVtc_282_009_deactivate_bearer_2_of_4_idle_mode.LW
p222
aVtc_324_327_ef_service_req_data_direct_transfer_ingore.LW
p223
aVtc_273_221_cell_trace_on_when_tau_intra_periodic_after_large_restart.LW
p224
aVtc_284_351_pdn_connectivity_pb_activate_1_dedicated_bearer_interrupted_by_path_switch_request.LW
p225
aVtc_310_310_S3_new_SGW_emergency_attach_sv_pool_on_msc_one_offloading_one_available.LW
p226
aVtc_279_016_tai_list_attach_intra_tau_detach_attach_diff_sgw.LW
p227
aVtc_44_071_attach_long_imsi.LW
p228
aVtc_31_054_standalone_dsd_no_relevant_data.W14b
p229
aVtc_241_201_s4_sgsn_pool_ms_move_target_sgsn_mf.W14b
p230
aVtc_241_714_intra_rau_dedicate_bearer_update_failed_ef_update_bearer_before_rau_accept.W14b
p231
aVtc_236_041_s4_3gdt_detach_modify_bearer_response_reject_in_active_procedure.W14b
p232
aVtc_311_257_intra_srns_reloc_s4_wf_rau_compl_interrupted_by_new_attach_with_invalid_ptmsi_signature.W14b
p233
aVtc_298_143_EF_NRSPCA_S4_Rnc_Reset.W14b
p234
aVtc_298_783_S4_3GDT_downlink_data_notification_wait_MBR_ef_detach.W14b
p235
aVtc_324_113_af_no_frca_service_request_data_rab_partially_setup_3gdt.W14b
p236
aVtc_324_069_af_modify_bearer_dedicated_bearer_fail.W14b
p237
aVtc_322_161_smooth_move_ef_nas_after_paging_response_ignore.W14b
p238
aVtc_26_099_activate_primary_rnc_upgrades_bitrates_traffic_class_interactive.W14b
p239
aVtc_26_112_inter_srns_reloc_old_ARP.W14b
p240
aVtc_28_052_mo_sms_homer_block_visiting_redirection.W14b
p241
aVtc_22_004_wcdma_arm_edp_disconnect_at_dp_estack.W14b
p242
aVtc_298_132_EF_NRSPCA_S4_Activate_TiFlag.W14b
p243
aVtc_347_250_UE_initiated_detach__location_report_while_waiting_for_delete_session_response_ue_context_release_complete.LW
p244
aVtc_241_432_intra_rau_with_bearer_sgw_unchange_2_pdns_3gdt.LW
p245
aVtc_241_801_israu_interfering_context_request_no_cancel_location_s4.LW
p246
aVtc_346_546_AF__HO_Inter_Target__2PDN_BCM_Sx_only_one_CCA_U_cause_5003.LW
p247
aVtc_194_065_activate_loc_not_confirmed_ul_fails_other_failure.LW
p248
aVtc_578_33_check_ebm_para_statistics_enb_sn.LW
p249
aVtc_314_001_hss_init_qos_modification_apn_ambr_higher_than_policymap.LW
p250
aVtc_39_921_ef_seamless_move_interrupted_by_normal_attach.LW
p251
aVtc_51_071_reloc_wf_reloc_complete_interrupted_by_rau_on_new_iu.LW
p252
aVtc_275_073_tau_inter_new_no_update_location_response_sgsn00040258.LW
p253
aVtc_196_172_nrspca_during_t3385_when_receive_sgsn_context_ack_not_accepted.LW
p254
aVtc_273_609_tau_intra_periodic_SGW_unavailable__create_session_fail_reselect_SGW_and_all_fail.LW
p255
aVtc_261_41_isd_ef_mme_pool_3gpp_move.LW
p256
aVtc_44_871_mme_assoc_reestablish__board_block_sbc.LW
p257
aVtc_194_083_hss_reset_detached_subscribers.LWG
p258
aVtc_194_809_isd_private_extension_of_wi_denied_during_intra_mme_s1ho.LWG
p259
aVtc_241_301_israu_new_create_session_failed_and_paging_timeout.LWG
p260
aVtc_82_022_rab_modify_interrupted_by_israu_II.LWG
p261
aVtc_59_9_mtmsi_restart_counter.LWG
p262
aVtc_306_1308_ef_seamless_move_target_buffer_update_bearer_request.LWG
p263
aVtc_306_001_ef_seamless_move_source_receive_attach_request_wf_frr_ecm_idle.LWG
p264
aVtc_208_43_interception_after_small_restart.LWG
p265
aVtc_79_034_rab_reestablish_on_downlink_no_rnc_response.LWG
p266
aVtc_231_245_PGW_init_modification_EF_ms_detach_idle.LWG
p267
aVtc_578_32_check_ebm_para_statistics_ue_return_duration.LWG
p268
aVtc_313_004_inter_new_srns_reloc_s16_with_sgw_change_two_pdns_with_dedicate_bearer_without_sgw_node_name.LWG
p269
aVtc_275_073_tau_inter_new_no_update_location_response_sgsn00040258.LWG
p270
aVtc_288_206_pgw_init_bearer_mod_QoS_eNodeB_fail_and_UE_fail.LWG
p271
aVtc_276_305_Inter_TAU_New_MME__Downlink_Data_Notification_while_waiting_for_failing_Modify_Bearer_Response.LWG
p272
aVtc_327_552_Recovery_for_DDN__Service_Request_while_waiting_for_Ue_Backup_Response.LWG
p273
aVtc_324_386_ef_mt_sms_wf_frcn_wf_frca_wf_ula.LWG
p274
aVtc_73_41_gtpu_sgsn_dont_send_gpu_echo_request_w.LWG
p275
aVtc_73_43_gtpu_sgsn_turn_off_gnu_echo_request_w.LWG
p276
aVtc_256_204_mme_eps_srvcc_ho_source_cs_only_service_request_wf_srvcc_ps_to_cs_complete_notification.LWG
p277
aVtc_210_100_pdn_connectivity_erab_setup_failure_response_from_enodeb.LWG
p278
aVtc_232_403_bfd__ipv4ipv6_alarm.LWG
p279
aVtc_232_503_static_routes__ipv4_ipv6_conf_deconf.LWG
p280
aVtc_232_508_static_routes__bfd_supervision_of_static_route_v4_v6.LWG
p281
aVtc_159_200_check_ctum_log.LWG
p282
aVtc_289_042_Modify_bearer__Downlink_nas_transport_meanwhile_path_switch_request_SGW_change_no_UBR_from_new_SGW.LWG
p283
aVtc_348_016_activation__sgsn_restarted.LWG
p284
aVtc_263_242_Attach_Flow__Attach_Request_with_diff_IE_while_waiting_for_gts_identification_response.L14b
p285
aVtc_304_114_initial_ue_intra_tau_control_mode_threshold_exceeded_usc_ignore_replace_s1.L14b
p286
aVtc_44_052_sctp_s1ap_corrupt_data_ep_code.L14b
p287
aVtc_347_221_Service_Request__RAR_while_waiting_for_Service_Request.L14b
p288
aVtc_202_01_ecm_connected_s1_release.L14b
p289
aVtc_103_1101_resending_AIR_interfering_CLR.L14b
p290
aVtc_96_024_intra_sgsn_intra_ra_psho_llc_pdu_arrives_no_psho_complete_t14_expiry.G14b
p291
aVtc_239_620_inter_rau_new_with_bearer_sgw_not_change_isd_odb_bit0_wf_rau_compl_deactivation.G14b
p292
aVtc_297_407_move_at_periodic_rau.G14b
p293
aVtc_349_304_Inter_new_srns_reloc__Attach_Req_transfer_while_waiting_for_CCA_initial.WG14a
p294
aVtc_349_307_Inter_new_srns_reloc__Service_Req_while_waiting_for_CCA_initial.WG14a
p295
aVtc_322_161_smooth_move_ef_nas_after_paging_response_ignore.WG14a
p296
aVtc_100_67_intra_w_to_g_mf_with_lawful_intercept.WG14a
p297
aVtc_304_121_initial_ue_intra_tau_control_mode_threshold_exceeded_usc_detach_wf_release_request_response.L14b
p298
aVtc_347_142_Seamless_Move_Target__RAR_while_waiting_for_forward_relocation_complete_ack_and_location_update_accept.L14b
p299
aVtc_347_209_Attach__RAR_while_waiting_for_CCA_Initial.L14b
p300
aVtc_295_124_tau_after_ho_tz_change_emm_information_meanwhile_handover_required_HO_success.L14b
p301
aVtc_263_301_Active_Default_Bearer_Reject__Attach_while_waiting_for_Attach_Complete.L14b
p302
aVtc_103_1101_resending_AIR_interfering_CLR.L14b
p303
aVtc_327_022_recovery_intra_TAU__initial_Detach_Request_while_waiting_for_Ue_Backup_Response.L14b
p304
aVtc_257_30_pws_sctp_device_failure.L14b
p305
aVtc_346_670_pra_cn_predefined_cca_u_for_initial_report_timeout_in_attach_then_service_request_in.L14b
p306
aVtc_44_841_mme_assoc_reestablish__device_restart_sbc.L14b
p307
aVtc_214_704_combined_attach_MSC_selection_in_pool_with_all_links_breakdown.L14b
p308
aVtc_194_505_Notification_during_Intra_TAU_without_SGW_Relocation_HSS_Reset_Before_TAU.L14b
p309
aVtc_241_710_intra_rau_dedicate_bearer_update_failed_and_pgw_delete_bearer_after_rau.W14b
p310
aVtc_23_10_transfer_to_primary_and_change_vip_addr_from_gn_to_gom.W14b
p311
aVtc_334_210_path_failure_intra_rau_af_create_session_failed.W14b
p312
aVtc_31_091_concurrent_msd_while_ul.W14b
p313
aVtc_26_095_israu_rnc_change_to_old_neg.W14b
p314
aVtc_23_09_transfer_to_primary_and_change_vip_addr.LWG
p315
aVtc_244_055_mt_lr_cancel_location_with_update_procedure_received_wf_location_report.LWG
p316
aVtc_220_043_csfb_to_1xrtt_in_ecm_idle_s1_reset_wf_initial_context_setup_response.LWG
p317
aVtc_159_200_check_ctum_log.LWG
p318
aVtc_347_341_SGW_Restart__RAR_while_waiting_Create_Session_Response.LWG
p319
aVtc_202_416_af_seamless_move_target_no_serReq_after_paging_with_gbr_bearers.LWG
p320
aVtc_194_625_DSD_EF__Receive_DSDR_when_Waiting_for_Create_Session_Response_during_PDN_Connectivity_Procedure.LWG
p321
aVtc_194_1573_HSS_initiated_DSD_in_Emergency_Type_A_in_Idle_mode_when_all_CSG_Id_removed__TAU_Request.LWG
p322
aVtc_166_428_rnc_initiated_rab_release_interfered_by_rnc_initiated_iu_release_request.LWG
p323
aVtc_236_307_Activation_DtSelMode_5_APN_requested_wrong_SGSN_default_APN_in_APN_list_TAC_in_TAC_list.LWG
p324
aVtc_232_205_bfd__udp_port_no_ipv6.LWG
p325
aVtc_232_503_static_routes__ipv4_ipv6_conf_deconf.LWG
p326
aVtc_232_508_static_routes__bfd_supervision_of_static_route_v4_v6.LWG
p327
aVtc_342_134_update_x3_address_multiple_pdp.LWG
p328
aVtc_73_21_itc_gtpu_s4_sgsn_send_echo_request_w.LWG
p329
aVtc_208_43_interception_after_small_restart.LWG
p330
aVtc_218_311_tau_from_sgsn_preserved_gbr_bearer_buffer_1_ubr_1_cbr.LWG
p331
aVtc_183_005_itc_folder_file_names.LWG
p332
aVtc_257_19_pws_etws_resend_write_replace_warning_request_with_ta_list.LWG
p333
aVtc_257_36_pws_etws_stop_warning_request_when_olp_rshl_false.LWG
p334
aVtc_257_18_pws_etws_stop_warning_request_rejected_when_olp.LWG
p335
aVtc_289_017_Modify_bearer__ERAB_modify_request_meanwhile_path_switch_request_HO_success.LWG
p336
aVtc_44_004_small_restart__sctp_fe_restart.LW
p337
aVtc_347_128_Seamless_Move_Target__Service_Request_while_waiting_for_CCA_initial.LW
p338
aVtc_347_311_Location_reporting_control_RAR_while_waiting_location_report.LW
p339
aVtc_43_101__removal_of_disconnected_eNodeBs__CLI_removal.LW
p340
aVtc_23_09_transfer_to_primary_and_change_vip_addr.LW
p341
aVtc_202_01_ecm_connected_s1_release.LW
p342
aVtc_009_004_attach_after_cl.LW
p343
aVtc_009_003_attach_cache_full.LW
p344
aVtc_194_064_activate_loc_not_confirmed_ul_fails_network_failure.LW
p345
aVtc_194_991_downlink_A21_AIS_during_waiting_location_report__idr_flags_ef.LW
p346
aVtc_301_008_activate_ipv4v6_visitor_requested_ipv4v6_subscribed_ipv4v6_aifav_false_aifv_true.LW
p347
aVtc_324_006_mf_ser_req_signaling_after_ack_3gdt.LW
p348
aVtc_324_386_ef_mt_sms_wf_frcn_wf_frca_wf_ula.LW
p349
aVtc_103_701_MME_restarts.LW
p350
aVtc_322_126_smooth_move_ef_cancel_location_initialAttach_wf_cancel_location.WG14a
p351
aVtc_59_9_mtmsi_restart_counter.LWG
p352
aVtc_241_432_intra_rau_with_bearer_sgw_unchange_2_pdns_3gdt.LWG
p353
aVtc_23_09_transfer_to_primary_and_change_vip_addr.LWG
p354
aVtc_44_004_small_restart__sctp_fe_restart.LWG
p355
aVtc_159_200_check_ctum_log.LWG
p356
aVtc_291_2_ebm_log_no_license.LWG
p357
aVtc_304_419_Geored_Service_Request_UE_Initiated__control_mode_threshold_exceeded_reject.LWG
p358
aVtc_31_091_concurrent_msd_while_ul.LWG
p359
aVtc_218_311_tau_from_sgsn_preserved_gbr_bearer_buffer_1_ubr_1_cbr.LWG
p360
aVtc_232_502_static_routes__ipv6_conf_deconf.LWG
p361
aVtc_232_205_bfd__udp_port_no_ipv6.LWG
p362
aVtc_232_401_bfd__ipv4_alarm.LWG
p363
aVtc_232_511_static_routes__bfd_supervision_of_static_route_v6_on_Gom.LWG
p364
aVtc_232_503_static_routes__ipv4_ipv6_conf_deconf.LWG
p365
aVtc_232_508_static_routes__bfd_supervision_of_static_route_v4_v6.LWG
p366
aVtc_183_005_itc_folder_file_names.LWG
p367
aVtc_226_503_Intra_ISC_L2W_Gn_SGSN_ControlMode_On_reject_congestion.LWG
p368
aVtc_259_41_isd_tads_s4_umts_intra_rau.LWG
p369
aVtc_209_180_handover_w_to_l_source_s4_sgsn.LWG
p370
aVtc_220_025_csfb_to_1xrtt_ue_suspended_hss_reset.LWG
p371
aVtc_363_011_cli_get_ra.LWG
p372
aVtc_298_317_EF_SIBD_S4_Create_Bearer_Request.LWG
p373
aVtc_30_120_attach_ul_fails_no_relevant_data_mo_sms_blocked.LWG
p374
aVtc_275_073_tau_inter_new_no_update_location_response_sgsn00040258.LWG
p375
aVtc_103_831_DPR_cause_BUSY.LWG
p376
aVtc_306_1255_ef_seamless_move_target_receive_sgsn_context_request_wf_lua.LWG
p377
aVtc_324_125_af_payload_ula_roaming_no_allowed_3gdt.LWG
p378
aVtc_305_040_oms_mmi.LWG
p379
aVtc_327_602_Inter_TAU_Recovery__Attach_Request_while_waiting_for_Ue_Authentication_Response.L14b
p380
aVtc_346_670_pra_cn_predefined_cca_u_for_initial_report_timeout_in_attach_then_service_request_in.L14b
p381
aVtc_346_692_pra_cn_predefined_location_report_cca_u_abort__location_report__in2out.L14b
p382
aVtc_103_1105_attach_no_diameter_peer_available.L14b
p383
aVtc_263_075_Attach_Flow__Cancel_Location_Subscription_Withdrawal_while_waiting_for_Notify_Answer.L14b
p384
aVtc_266_020_DownlinkDataFailureInd_repeat_paging_timer_on.L14b
p385
aVtc_304_121_initial_ue_intra_tau_control_mode_threshold_exceeded_usc_detach_wf_release_request_response.L14b
p386
aVtc_194_991_downlink_A21_AIS_during_waiting_location_report__idr_flags_ef.L14b
p387
aVtc_276_284_Inter_TAU_New_MME__Delete_Bearer_Request_change_to_non_3gpp_while_waiting_for_failing_Modify_Bearer_Response.L14b
p388
aVtc_284_563_emergency_pdn_connectivity_all_pgw_in_list_fail.L14b
p389
aVtc_273_304_tau_intra_emergency_ongoing_roaming_restricted_same_configuration.L14b
p390
aVtc_347_050_HO_X2__RAR_while_waiting_for_Create_Session_Response.L14b
p391
aVtc_347_221_Service_Request__RAR_while_waiting_for_Service_Request.L14b
p392
aVtc_347_256_NW_initiated_detach__RAR_while_waiting_for_delete_session_response.L14b
p393
aVtc_298_317_EF_SIBD_S4_Create_Bearer_Request.LW
p394
aVtc_241_801_israu_interfering_context_request_no_cancel_location_s4.LW
p395
aVtc_275_073_tau_inter_new_no_update_location_response_sgsn00040258.LW
p396
aVtc_11_091_activate_secondary_pdp_context_wrong_LinkedTI.LW
p397
aVtc_324_006_mf_ser_req_signaling_after_ack_3gdt.LW
p398
aVtc_341_609_x2_activity_event_isc_tau_from_gn_sgsn.LW
p399
aVtc_326_252_Intra_TAU_Recovery_after_node_restart_then_pool_move.LW
p400
aVtc_327_552_Recovery_for_DDN__Service_Request_while_waiting_for_Ue_Backup_Response.LW
p401
aVtc_218_214_1_TAU_from_SGSN__ho_to_non_3gpp_while_waiting_for_TAU_Complete.LW
p402
aVtc_38_169_irat_old_pdp_ggsn_not_responding.LW
p403
aVtc_289_070_GW_Init_Bearer_Modification_Flow_two_CBR_one_UBR_while_wf_modify_eps_bearer_context_accept.LW
p404
aVtc_197_062_s1_handover_sgw_reselection_topon_emc_ims_allpdn.LW
p405
aVtc_306_1308_ef_seamless_move_target_buffer_update_bearer_request.LW
p406
aVtc_194_080_cl_update_procedure_during_auth.LW
p407
aVtc_194_010_cl_subscription_withdrawn_detached.LW
p408
aVtc_194_175_hss_reset_during_attach_before_successful_update_location.LW
p409
aVtc_194_988_reset_from_msc_during_waiting_location_report__idr_flags_ef.LW
p410
aVtc_39_433_mas_one_pdp_downlink_data_3gdt_upd_loc_ack_b4_upd_pdp_ctx_resp_target.LW
p411
aVtc_298_826_NRSPCA_S4_nsapi_collision_receiving_detach_request_while_waiting_for_delete_bearer_request.W14b
p412
aVtc_26_071_rab_reestablish_on_service_request_data_multiple_contexts.W14b
p413
aVtc_349_305_Inter_new_srns_reloc__Rau_Req_while_waiting_for_CCA_initial.W14b
p414
aVtc_39_187_detach_trigger_re_attach_new_iu.W14b
p415
aVtc_39_433_mas_one_pdp_downlink_data_3gdt_upd_loc_ack_b4_upd_pdp_ctx_resp_target.W14b
p416
aVtc_245_340_israu_new_l_to_w_with_GBR_dedicated_bearer_ipv6_3gdt.W14b
p417
aVtc_11_091_activate_secondary_pdp_context_wrong_LinkedTI.W14b
p418
aVtc_337_006_target_not_support_in_w_stop_job_for_lw.LWG
p419
aVtc_12_180_wcdma_repeat_paging_default.LWG
p420
aVtc_250_67_s6d_activation_with_EPS_data_s4_license_off.LWG
p421
aVtc_202_42_type_c_emergency_pdn_ecm_idle.LWG
p422
aVtc_202_311_mf_seamless_move_by_mme_ue_ecm_idle_service_req_int_not_ok.LWG
p423
aVtc_324_121_af_service_request_with_data_only_ulr_timeout_3gdt.LWG
p424
aVtc_23_13_israu_out.LWG
p425
aVtc_197_563_pgw_selection_modification_of_ip_address.LWG
p426
aVtc_282_012_deactivate_bearer_timeout_s1ap.LWG
p427
aVtc_260_272_receive_sm_stop_req_while_wf_setup_iteration.LWG
p428
aVtc_183_005_itc_folder_file_names.LWG
p429
aVtc_326_835_Intra_TAU_Recovery_after_Node_Restart_SGW_Unchange_active_flag_on_no_modify_bearer_response_two_pdn.LWG
p430
aVtc_578_32_check_ebm_para_statistics_ue_return_duration.LWG
p431
aVtc_44_001_large_restart.LWG
p432
aVtc_298_783_S4_3GDT_downlink_data_notification_wait_MBR_ef_detach.LWG
p433
aVtc_289_047_Modify_bearer__ERAB_modify_response_s1_intra_system_handover_triggered_activate_dedicated_bearer_one_pdn_multiple_bearer.LWG
p434
aVtc_316_401_Periodic_Backup_first_backup_triggered_by_PTAU.LWG
p435
aVtc_166_428_rnc_initiated_rab_release_interfered_by_rnc_initiated_iu_release_request.LWG
p436
aVtc_205_71_08_SCTP_OctetsChunksSent.LWG
p437
aVtc_59_9_mtmsi_restart_counter.LWG
p438
aVtc_195_405_ue_trace_start_s1_intra_system_handover_triggered_HO_failure.LWG
p439
aVtc_232_205_bfd__udp_port_no_ipv6.LWG
p440
aVtc_232_507_static_routes__bfd_supervision_of_static_route_v6.LWG
p441
aVtc_232_204_bfd__multiplier_variations_ipv6.LWG
p442
aVtc_232_503_static_routes__ipv4_ipv6_conf_deconf.LWG
p443
aVtc_232_508_static_routes__bfd_supervision_of_static_route_v4_v6.LWG
p444
aVtc_11_083_activate_interrupted_by_deactivation_create_failure.LWG
p445
aVtc_298_826_NRSPCA_S4_nsapi_collision_receiving_detach_request_while_waiting_for_delete_bearer_request.LW
p446
aVtc_218_311_tau_from_sgsn_preserved_gbr_bearer_buffer_1_ubr_1_cbr.LW
p447
aVtc_103_1101_resending_AIR_interfering_CLR.LW
p448
aVtc_289_101_multi_pdn_pgw_init_bearer_mod_wf_service_interrupted_by_dbr_with_lbi.LW
p449
aVtc_209_62_pdp_context_reject_imsi_context.LW
p450
aVtc_288_237_pgw_init_bearer_mod_incl_UeAmbr_save_old_UeAmbr_when_fail.LW
p451
aVtc_318_201_idle_deactivate_dedicated_bearers_one_by_one_reactivate_req.LW
p452
aVtc_290_094_Timer_Based_GBR_Deact__update_bearer_request_wf_delete_bearer_request_after_timer_expires.LW
p453
aVtc_208_43_interception_after_small_restart.G14b
p454
aVtc_349_304_Inter_new_srns_reloc__Attach_Req_transfer_while_waiting_for_CCA_initial.WG14a
p455
aVtc_329_003_attach_rs_allowed_emergency_plmn_change_ula_fails.L14b
p456
aVtc_347_140_Seamless_Move_Target__RAR_while_waiting_for_modify_bearer_response_and_update_location_answer.L14b
p457
aVtc_284_351_pdn_connectivity_pb_activate_1_dedicated_bearer_interrupted_by_path_switch_request.L14b
p458
aVtc_214_806_mo_sms_active_donwlink_nas_transport_meanwhile_handover_required_HO_success.L14b
p459
aVtc_43_101__removal_of_disconnected_eNodeBs__CLI_removal.L14b
p460
aVtc_43_105__alarm_after_restart.L14b
p461
aVtc_194_187_hss_reset_after_large_restart_with_full_imsi.L14b
p462
aVtc_44_830_mme_assoc_reestablish__local_ep_restart_s1_mme.L14b
p463
aVtc_44_840_mme_assoc_reestablish__device_restart_s1_mme.L14b
p464
aVtc_44_860_mme_assoc_reestablish__sctp_fe_restart_s1_mme.L14b
p465
aVtc_44_898_mme_assoc_reestablish__downlink_data_on_reestablished_sctp_association.L14b
p466
aVtc_327_317_recovery_service_request__initial_Attach_Request_while_waiting_for_Sub_Procedure__Initial_Context_Setup_Response.L14b
p467
aVtc_346_382_handover_inter_target_establish_sx_session_with_bearer_control_mode_sx_only.L14b
p468
aVtc_346_493_Small_Local_Restart__Terminate_when_UE_S1_release.L14b
p469
aVtc_346_673_pra_cn_predefined_ccr_u_for_initial_report_abort_in_inter_ho_then_s1_ho.L14b
p470
aVtc_324_006_mf_ser_req_signaling_after_ack_3gdt.LW
p471
aVtc_23_40_same_cause_codes_with_same_message_type_and_source.LW
p472
aVtc_241_637_intra_rau_with_bearer_sgw_change_with_3gdt_wait_rau_complete_interfer_by_sgsn_context_req.LW
p473
aVtc_241_801_israu_interfering_context_request_no_cancel_location_s4.LW
p474
aVtc_283_031_GW_Deactivate_Bearer__Service_Request_while_waiting_deactivate_eps_bearer_context_accept.LW
p475
aVtc_283_050_GW_Delete_Bearer_Handover_to_non_3GPP__Ue_Release_while_wf_ERAB_Release_Response.LW
p476
aVtc_262_059_no_imei_check_after_large_restart.LW
p477
aVtc_273_636_tau_intra_SGW_unavailable_active_flag_off__no_create_session_reponse.LW
p478
aVtc_264_009_MME_Initiated_Detach__Attach__MME_Detach__Detach_Request_Retransmission__Reattach_Required__Attach.LW
p479
aVtc_314_022_hss_reset_restoration_followed_by_service_request_smah_off.LW
p480
aVtc_103_603_georedundant_modify_diameter_peer.LW
p481
aVtc_202_40_emergency_pdn_ecm_connected.LW
p482
aVtc_194_080_cl_update_procedure_during_auth.LW
p483
aVtc_256_382_Sv_Path_Mgt__available_MSC_disable_Sv.LW
p484
aVtc_220_605_csfb_to_1xrtt_in_ecm_connected_extended_service_request_during_downlink_data_notification.LW
p485
aVtc_39_740_iu_release_request_other_cause_wf_sec_mode_cmpl_target.LW
p486
aVtc_204_424_mme_eps_ho_target_type_a_auth_in_tau_after_ho_nok_no_emm_cause.LW
p487
aVtc_78_016_ptmsi_attach_reject_cause_congestion.LW
p488
aVtc_206_023_ebm_server_connection_failed.LW
p489
aVtc_304_114_initial_ue_intra_tau_control_mode_threshold_exceeded_usc_ignore_replace_s1.LW
p490
aVtc_263_062_Attach_Flow__S1_Reset_while_waiting_for_Attach_Complete.LW
p491
aVtc_276_282_Inter_TAU_New_MME__Delete_Bearer_Request_change_to_non_3gpp_while_waiting_for_Modify_Bearer_Response.LWG
p492
aVtc_12_512_pmm_undefined_attach_when_updating_location_interfered_by_rnc_reset.LWG
p493
aVtc_204_207_mme_eps_ho_target__multi_pdn_sgw_relocation__failed_modify_bearer_request.LWG
p494
aVtc_265_102_Detach_Flow_NW_init__Reattach_Required_Attach_Request_while_waiting_for_Context_Release_Complete.LWG
p495
aVtc_220_593_csfb_to_1xrtt_context_request_during_extended_service_request.LWG
p496
aVtc_232_205_bfd__udp_port_no_ipv6.LWG
p497
aVtc_232_402_bfd__ipv6_alarm.LWG
p498
aVtc_232_401_bfd__ipv4_alarm.LWG
p499
aVtc_232_204_bfd__multiplier_variations_ipv6.LWG
p500
aVtc_232_403_bfd__ipv4ipv6_alarm.LWG
p501
aVtc_232_503_static_routes__ipv4_ipv6_conf_deconf.LWG
p502
aVtc_232_508_static_routes__bfd_supervision_of_static_route_v4_v6.LWG
p503
aVtc_284_351_pdn_connectivity_pb_activate_1_dedicated_bearer_interrupted_by_path_switch_request.LWG
p504
aVtc_208_43_interception_after_small_restart.LWG
p505
aVtc_267_224_Service_Request__PDN_Connectivity_Request_while_waiting_for_Modify_Bearer_Response_where_dedicated_fails.LWG
p506
aVtc_306_1308_ef_seamless_move_target_buffer_update_bearer_request.LWG
p507
aVtc_327_552_Recovery_for_DDN__Service_Request_while_waiting_for_Ue_Backup_Response.LWG
p508
aVtc_59_9_mtmsi_restart_counter.LWG
p509
aVtc_259_133_ef_provide_subscriber_information_psho_inter_old_g_to_w.LWG
p510
aVtc_202_41_type_a_emergency_pdn_ecm_idle.L14b
p511
aVtc_266_011_DownlinkDataNotification_interfering_ISD_sgsn00026976.L14b
p512
aVtc_266_020_DownlinkDataFailureInd_repeat_paging_timer_on.L14b
p513
aVtc_347_280_PDN_Disconnect__Location_Report_while_waiting_Delete_Session_Response.L14b
p514
aVtc_44_841_mme_assoc_reestablish__device_restart_sbc.L14b
p515
aVtc_44_850_mme_assoc_reestablish__board_restart_s1_mme.L14b
p516
aVtc_103_1101_resending_AIR_interfering_CLR.L14b
p517
aVtc_43_101__removal_of_disconnected_eNodeBs__CLI_removal.L14b
p518
aVtc_194_991_downlink_A21_AIS_during_waiting_location_report__idr_flags_ef.L14b
p519
aVtc_288_125_pgw_init_bearer_mod_from_ecm_idle_2_default_bearers_fail_to_setup.L14b
p520
aVtc_348_167_israu_af__new_sgsn_camel_release.W14b
p521
aVtc_248_122_inter_l_to_w_new_detach_request_direct_transfer_received_wf_forward_relocation_complete_ack.W14b
p522
aVtc_250_77_recv_CLR_initial_attach_waiting_sgsn_context_ack_not_combined_node.W14b
p523
aVtc_349_101_RAU_new_sgsn__Reset_from_RNC_while_waiting_for_CCA_initial.W14b
p524
aVtc_231_113_rnc_reset_during_ms_act_si_ms_deact_rnc_contact.W14b
p525
aVtc_334_286_path_failure_service_req_connected_3gdt_af_create_session_no_resp.W14b
p526
aVtc_26_112_inter_srns_reloc_old_ARP.W14b
p527
aVtc_298_073_s4_nrspca_activate_same_nsapi_of_dedicated_bearer_rab_released.W14b
p528
aVtc_230_115_sgw_create_bearer_request_s4.G14b
p529
aVtc_322_161_smooth_move_ef_nas_after_paging_response_ignore.WG14a
p530
aVtc_166_103_israu_new_streaming_two_tunnel_since_ggsn_answers_with_gtpv0.WG14a
p531
aVtc_101_025_mbms_session_bitrate_0kbps.LWG
p532
aVtc_259_106_ef_tads_s4_interfere_inter_rau_old_w.LWG
p533
aVtc_259_112_ef_s6d_tads_interfere_inter_rau_old_g.LWG
p534
aVtc_363_011_cli_get_ra.LWG
p535
aVtc_298_145_EF_NRSPCA_interfere_Activation.LWG
p536
aVtc_326_245_Intra_TAU_Recovery_TAU_Complete_timeout.LWG
p537
aVtc_326_661_tau_intra_periodic_SGW_unavailable_after_MME_large_restart__two_pdn_one_timeout.LWG
p538
aVtc_95_10_fingerprint.LWG
p539
aVtc_59_9_mtmsi_restart_counter.LWG
p540
aVtc_183_005_itc_folder_file_names.LWG
p541
aVtc_267_227_Service_Request__Handover_Required_Inter_Mme_while_waiting_for_Modify_Bearer_Response.LWG
p542
aVtc_304_004_attach_success__only_measurement_mode_threshold_reached.LWG
p543
aVtc_239_178_inter_rau_sgw_change_one_pdn_ubr_before_rau_complete_interfered_by_intra_rau.LWG
p544
aVtc_324_386_ef_mt_sms_wf_frcn_wf_frca_wf_ula.LWG
p545
aVtc_250_105_ignore_IDR_when_EPS_sub_downgrade_GPRS_sub.LWG
p546
aVtc_316_286_Cancel_Location_Subscription_Withdrawn__Delete_UE_Backup.LWG
p547
aVtc_316_270_RAU_To_Gn_SGSN_With_Dedicated_Bearers_Backup_Option_Change__Delete_UE_Backup.LWG
p548
aVtc_232_502_static_routes__ipv6_conf_deconf.LWG
p549
aVtc_232_205_bfd__udp_port_no_ipv6.LWG
p550
aVtc_232_507_static_routes__bfd_supervision_of_static_route_v6.LWG
p551
aVtc_232_511_static_routes__bfd_supervision_of_static_route_v6_on_Gom.LWG
p552
aVtc_346_353_SAPC_Restart_Detected_in_CCA_Initial_multiple_UE.LWG
p553
aVtc_165_12_check_resource_alarms_dp.LWG
p554
aVtc_578_32_check_ebm_para_statistics_ue_return_duration.LWG
p555
aVtc_261_15_tau_intra_home_voip_none_plmn_support.LWG
p556
aVtc_275_073_tau_inter_new_no_update_location_response_sgsn00040258.LWG
p557
aVtc_220_411_csfb_to_1xrtt_in_ecm_connected_path_switch_request_subscription_cancelled.LW
p558
aVtc_43_101__removal_of_disconnected_eNodeBs__CLI_removal.LW
p559
aVtc_347_012_Inter_TAU_New_MME__Equipment_Blacklisted_while_waiting_for_CCA_initial.LW
p560
aVtc_204_207_mme_eps_ho_target__multi_pdn_sgw_relocation__failed_modify_bearer_request.LW
p561
aVtc_322_173_smooth_move_ef_cli_s6d_delete_subscriber_data_wf_ptmsi_relocation_complete.LW
p562
aVtc_23_09_transfer_to_primary_and_change_vip_addr.LW
p563
aVtc_23_10_transfer_to_primary_and_change_vip_addr_from_gn_to_gom.LW
p564
aVtc_236_151_s4_3gdt_ms_init_dedicated_bearer_deac_wf_release_bearer_resp_in_rab_release_procedure.LW
p565
aVtc_298_783_S4_3GDT_downlink_data_notification_wait_MBR_ef_detach.LW
p566
aVtc_244_048_mt_lr_s1_reset_received_wf_location_report.LW
p567
aVtc_193_403_auth_vectors_answer_from_hss_with_fewer_vectors_than_requested.LW
p568
aVtc_26_131_inter_w_to_g_old_ARP.W14b
p569
aVtc_298_235_SIBD_S4_Modify_Bearer_failed_Default_Bearer_ContextNotFound.W14b
p570
aVtc_349_304_Inter_new_srns_reloc__Attach_Req_transfer_while_waiting_for_CCA_initial.W14b
p571
aVtc_39_187_detach_trigger_re_attach_new_iu.W14b
p572
aVtc_322_161_smooth_move_ef_nas_after_paging_response_ignore.WG14a
p573
aVtc_346_301_Combination__PGW_Selection_UserLocationChange.L14b
p574
aVtc_346_644_pra_cn_predefined_all_list__inter_tau__2pdns_active_flag_off__cca_u_with_rfsp.L14b
p575
aVtc_346_493_Small_Local_Restart__Terminate_when_UE_S1_release.L14b
p576
aVtc_284_114_pdn_connectivity_during_service_request.L14b
p577
aVtc_262_005_attach_s11_resending.L14b
p578
aVtc_260_096_one_mbms_session_started_another_mbms_session_starting_one_mce_add.L14b
p579
aVtc_103_860_ue_trace_retransmit.L14b
p580
aVtc_347_251_UE_initiated_detach__RAR_while_waiting_for_delete_session_response.L14b
p581
aVtc_347_335_Intra_TAU_With_Active_Flag__MS_Network_Cap_Set_RAR_while_waiting_for_Modify_Eps_Bearer_Context_Accept.L14b
p582
aVtc_310_262__ef__Initial_UE_Service_Request_wf_FR_Response.L14b
p583
aVtc_225_641_hss_reset_mt_call_service_request_while_wf_ms_activity.L14b
p584
aVtc_266_011_DownlinkDataNotification_interfering_ISD_sgsn00026976.L14b
p585
aVtc_44_871_mme_assoc_reestablish__board_block_sbc.L14b
p586
aVtc_304_121_initial_ue_intra_tau_control_mode_threshold_exceeded_usc_detach_wf_release_request_response.L14b
p587
aVtc_289_073_Modify_Bearer__pdn_connectivity_while_wf_ue_context_modification_resp_idle.L14b
p588
aVtc_334_311_pgw_restart_after_s4_move_3gdt.W14b
p589
aVtc_298_790_S4_3GDT_Service_request_partial_rab_reestablish_MBR_failed.W14b
p590
aVtc_297_407_move_at_periodic_rau.G14b
p591
aVtc_208_43_interception_after_small_restart.G14b
p592
aVtc_326_622_S6a_Throttling_Service_Request_recovery_UL_successful_and_Emergency_Attach_not_throttled.L14b
p593
aVtc_195_416_ue_trace_deactivate_trace_s1_intra_system_handover_triggered.L14b
p594
aVtc_347_054_Intra_HO_S1__RAR_while_waiting_for_Handover_Notify_and_TAU_Request.L14b
p595
aVtc_204_901_mme_eps_ho_target_insert_subscriber_data_with_odb_bit0_during_wf_tau_complete.L14b
p596
aVtc_202_17_service_request_during_release_access_bearers.L14b
p597
aVtc_346_494_Small_Local_Restart__Terminate_when_UE1_PDN_Connectivity_waiting_for_CCAI_UE2_Location_Report_waiting_for_CCAU.L14b
p598
aVtc_346_673_pra_cn_predefined_ccr_u_for_initial_report_abort_in_inter_ho_then_s1_ho.L14b
p599
aVtc_346_670_pra_cn_predefined_cca_u_for_initial_report_timeout_in_attach_then_service_request_in.L14b
p600
aVtc_214_806_mo_sms_active_donwlink_nas_transport_meanwhile_handover_required_HO_success.L14b
p601
aVtc_304_266_tau_from_gnsgsn_2g_control_mode_wf_delete_all_bearers_response_exception_case_reject_congestion_subscriber_cancelled.L14b
p602
aVtc_225_671_mt_sms_idle_mode_paging_req_after_msc_reset_param_tamr_true.L14b
p603
aVtc_275_073_tau_inter_new_no_update_location_response_sgsn00040258.LWG
p604
aVtc_26_141_intra_g_to_w_VPLMN_ARP.LWG
p605
aVtc_345_211_af__mt_csfb_with_psho__ecm_idle_no_cancel_location_from_hss.LWG
p606
aVtc_346_140_Location_Based_Policies__User_Location_Change_2_PDNs_different_options.LWG
p607
aVtc_346_693_pra_cn_predefined_attach_in_feature_off_location_report_out.LWG
p608
aVtc_73_41_gtpu_sgsn_dont_send_gpu_echo_request_w.LWG
p609
aVtc_183_005_itc_folder_file_names.LWG
p610
aVtc_208_43_interception_after_small_restart.LWG
p611
aVtc_324_006_mf_ser_req_signaling_after_ack_3gdt.LWG
p612
aVtc_327_013_recovery_intra_TAU__initial_Attach_Request_while_waiting_for_Create_Session_Response.LWG
p613
aVtc_43_101__removal_of_disconnected_eNodeBs__CLI_removal.LWG
p614
aVtc_232_205_bfd__udp_port_no_ipv6.LWG
p615
aVtc_232_401_bfd__ipv4_alarm.LWG
p616
aVtc_232_403_bfd__ipv4ipv6_alarm.LWG
p617
aVtc_232_507_static_routes__bfd_supervision_of_static_route_v6.LWG
p618
aVtc_232_204_bfd__multiplier_variations_ipv6.LWG
p619
aVtc_232_402_bfd__ipv6_alarm.LWG
p620
aVtc_326_209_Intra_TAU_Recovery_node_restart_combined_type.LWG
p621
aVtc_347_303_mme_dedicated_bearer_deactivate__RAR_while_waiting_delete_session_response.LW
p622
aVtc_195_208_mme_logging_maximum_modify_eps_bearer_context.LW
p623
aVtc_257_30_pws_sctp_device_failure.LW
p624
aVtc_103_832_DPR_cause_REBOOTING.LW
p625
aVtc_103_1004_secondary_dpl_used_when_all_peers_in_dpl_unavailable_no_sls.LW
p626
aVtc_265_160_Detach_Flow_NW_init__Ue_moved_to_non_3gpp_while_imsi_detach.LW
p627
aVtc_39_096_attach_move_interfering_intra_rau.LW
p628
aVtc_324_006_mf_ser_req_signaling_after_ack_3gdt.LW
p629
aVtc_194_991_downlink_A21_AIS_during_waiting_location_report__idr_flags_ef.LW
p630
aVtc_241_432_intra_rau_with_bearer_sgw_unchange_2_pdns_3gdt.LW
p631
aVtc_218_311_tau_from_sgsn_preserved_gbr_bearer_buffer_1_ubr_1_cbr.LW
p632
aVtc_327_330_recovery_service_request__uplink_Detach_Request_while_waiting_for_Location_Update_Response.LW
p633
aVtc_262_1055_imsi_attach_with_csg_id_is_rejected.LW
p634
aVtc_304_014_guti_attach_reject__not_known_in_old_mme_control_mode_threshold_exceeded.LW
p635
aVtc_44_850_mme_assoc_reestablish__board_restart_s1_mme.LW
p636
aVtc_288_110_pgw_initiated_bearer_modification_accept_reject_unknown.LW
p637
aVtc_220_411_csfb_to_1xrtt_in_ecm_connected_path_switch_request_subscription_cancelled.LW
p638
aVtc_26_054_activate_primary_change_of_policy_map.W14b
p639
aVtc_51_114_reloc_wf_rau_complete_interrupted_by_new_rau_with_invalid_ptmsi_signature.W14b
p640
aVtc_236_236_Inter_RAU_S4_over_S3_target_DtSelMode_6_APN_in_APN_list.W14b
p641
aVtc_103_1000_modify_diameter_peer_prio.L14b
p642
aVtc_103_1004_secondary_dpl_used_when_all_peers_in_dpl_unavailable_no_sls.L14b
p643
aVtc_262_203_guti_attach_when_unauthenticated_attached.L14b
p644
aVtc_214_910_combined_tau_intra_insert_subscriber_data_interference.L14b
p645
aVtc_346_382_handover_inter_target_establish_sx_session_with_bearer_control_mode_sx_only.L14b
p646
aVtc_193_400_auth_vectors_mf_4_vectors.L14b
p647
aVtc_194_187_hss_reset_after_large_restart_with_full_imsi.L14b
p648
aVtc_304_117_initial_ue_intra_tau_control_mode_threshold_exceeded_usc_detach_intruder_wf_release_request_response.L14b
p649
aVtc_347_009_Inter_TAU_New_MME__RAR_while_waiting_for_Modify_Bearer_Response_after_ICSR.L14b
p650
aVtc_347_024_Inter_TAU_New_MME_from_gn__RAR_while_waiting_for_TAU_Complete.L14b
p651
aVtc_347_211_Attach__RAR_while_waiting_for_Attach_Complete.L14b
p652
aVtc_262_526_attach_ula_dia_unable_to_comply_nw_failure_for_roamer.LWG
p653
aVtc_256_135_mme_eps_srvcc_ho_source_cs_only_initial_ue_detach_request_wf_srvcc_ps_to_cs_complete_notification.LWG
p654
aVtc_39_601_mas_unsucc_fwd_reloc_resp_mandatory_ie_missing_stop_source.LWG
p655
aVtc_197_318_visiting_multiple_pdn_connectivity_lbo_allowed_no_dns_then_hrs.LWG
p656
aVtc_183_005_itc_folder_file_names.LWG
p657
aVtc_346_385_handover_intra_x2_2PDN_with_bearer_control_mode_sx_only.LWG
p658
aVtc_244_049_mt_lr_cancel_location_with_subscription_withdraw_received_wf_location_report.LWG
p659
aVtc_259_83_isd_tads_s4_gsm_act_deact_pdp_context.LWG
p660
aVtc_232_502_static_routes__ipv6_conf_deconf.LWG
p661
aVtc_232_507_static_routes__bfd_supervision_of_static_route_v6.LWG
p662
aVtc_232_401_bfd__ipv4_alarm.LWG
p663
aVtc_232_402_bfd__ipv6_alarm.LWG
p664
aVtc_311_24_intra_srns_reloc_s4_with_sgw_change_with_11_pdns.LWG
p665
aVtc_81_040_activate_streaming_no_lics.LWG
p666
aVtc_73_21_itc_gtpu_s4_sgsn_send_echo_request_w.LWG
p667
aVtc_23_09_transfer_to_primary_and_change_vip_addr.LWG
p668
aVtc_260_218_receive_m3_reset_req_while_wf_m3_start_resp_with_resp.LWG
p669
aVtc_304_105_intra_tau_success__control_mode_threshold_not_reached.LWG
p670
aVtc_298_145_EF_NRSPCA_interfere_Activation.LWG
p671
aVtc_298_783_S4_3GDT_downlink_data_notification_wait_MBR_ef_detach.LWG
p672
aVtc_334_292_service_req_relocation_rab_release_request_3gdt_when_wf_create_session_resp.LWG
p673
aVtc_11_223_activate_primary_APN_test_V.LW
p674
aVtc_273_008_tau_intra_normal_idle_active.LW
p675
aVtc_50_011_activate_interactive_camel_subscriber.LW
p676
aVtc_347_322_Bearer_Modification__RAR_while_waiting_modify_ue_context_modification_response.LW
p677
aVtc_202_02_ecm_idle_s1_release.LW
p678
aVtc_298_714_pgw_init_modification_ef_rnc_reset_wf_ms_modify.LW
p679
aVtc_44_004_small_restart__sctp_fe_restart.LW
p680
aVtc_231_281_activate_pdp_request_ignore_during_s4_pdp_deactivating.LW
p681
aVtc_103_1101_resending_AIR_interfering_CLR.LW
p682
aVtc_326_202_Intra_TAU_after_large_restart_after_combined_attach.LW
p683
aVtc_214_806_mo_sms_active_donwlink_nas_transport_meanwhile_handover_required_HO_success.L14b
p684
aVtc_306_1343_ef_seamless_move_target_receive_Insert_Subscription_Data_TADS_ecm_idle.L14b
p685
aVtc_346_670_pra_cn_predefined_cca_u_for_initial_report_timeout_in_attach_then_service_request_in.L14b
p686
aVtc_103_1102_fallback_to_imsins_success.L14b
p687
aVtc_225_315_mt_call_active_mode_nas_non_delivery__cs_service_notification_meanwhile_handover_required.L14b
p688
aVtc_194_505_Notification_during_Intra_TAU_without_SGW_Relocation_HSS_Reset_Before_TAU.L14b
p689
aVtc_265_160_Detach_Flow_NW_init__Ue_moved_to_non_3gpp_while_imsi_detach.L14b
p690
aVtc_220_213_csfb_to_1xrtt_in_ecm_connected_tau_request_wf_suspend_response.L14b
p691
aVtc_275_550_inter_tau_new_detach_odb_bit0.L14b
p692
aVtc_31_099_check_gauge_unstable_parked.W14b
p693
aVtc_342_864_online_change_LI_U.W14b
p694
aVtc_39_187_detach_trigger_re_attach_new_iu.W14b
p695
aVtc_298_132_EF_NRSPCA_S4_Activate_TiFlag.W14b
p696
aVtc_298_301_EF_SIBD_S4_Activate_From_MS_TI_Flag.W14b
p697
aVtc_242_156_rau_to_sgsn_s3_type_d_emergency_allowed_irat_and_plmn_change.LWG
p698
aVtc_275_073_tau_inter_new_no_update_location_response_sgsn00040258.LWG
p699
aVtc_179_318_Ccheck_TraceCollectionIpv6server.LWG
p700
aVtc_268_073_Timer_Based_GBR_Deact__receive_DDN_with_default_bearer_before_UE_context_release_complete.LWG
p701
aVtc_205_71_08_SCTP_OctetsChunksSent.LWG
p702
aVtc_59_9_mtmsi_restart_counter.LWG
p703
aVtc_44_871_mme_assoc_reestablish__board_block_sbc.LWG
p704
aVtc_241_500_israu_new_gn_to_s4_pdp_to_bearer_one_pdp_conversational_mbr_0.LWG
p705
aVtc_298_145_EF_NRSPCA_interfere_Activation.LWG
p706
aVtc_232_402_bfd__ipv6_alarm.LWG
p707
aVtc_232_204_bfd__multiplier_variations_ipv6.LWG
p708
aVtc_232_403_bfd__ipv4ipv6_alarm.LWG
p709
aVtc_232_401_bfd__ipv4_alarm.LWG
p710
aVtc_284_351_pdn_connectivity_pb_activate_1_dedicated_bearer_interrupted_by_path_switch_request.LWG
p711
aVtc_225_404_mt_call_idle_mode_faulty_paging_response.LWG
p712
aVtc_297_407_move_at_periodic_rau.LWG
p713
aVtc_297_426_ef_irat_l_to_g_cancel_location_received.LWG
p714
aVtc_209_29_pdp_activate_deactivate_two_contexts_imsi.LWG
p715
aVtc_324_386_ef_mt_sms_wf_frcn_wf_frca_wf_ula.LWG
p716
aVtc_259_50_isd_tads_s4_w_pmmidle_attach_and_detached.LWG
p717
aVtc_103_1130_sx_resend__CCR_I_timeout_another_pdn_diameter_unable_to_deliver_only_realm.LWG
p718
aVtc_306_1308_ef_seamless_move_target_buffer_update_bearer_request.LW
p719
aVtc_263_007_Attach_Flow__Attach_Request_Same_IEs_IP_NOK_while_waiting_for_Attach_Complete.LW
p720
aVtc_347_236_GW_Dedicated_Bearer_Deactivate__Location_Report_while_waiting_for_eRAB_Release_Response.LW
p721
aVtc_38_206_own_ra_nri_equal_imsi_undefined_identity_check_fail.LW
p722
aVtc_38_211_own_ra_nri_query_success_imsi_not_known_imsi_undefined_identity_check_fail.LW
p723
aVtc_26_120_inter_srns_reloc_old_ARP_ggsn_not_support.LW
p724
aVtc_313_228_inter_new_srns_reloc_s16_with_sgw_change_rau_request_initial_ue_received_wf_rau_complete.LW
p725
aVtc_326_622_S6a_Throttling_Service_Request_recovery_UL_successful_and_Emergency_Attach_not_throttled.LW
p726
aVtc_298_016_S4_Network_Request_Secondary_PDP_Activation_IDLE_Payload.LW
p727
aVtc_194_172_hss_reset_ue_activity_pdn_connectivity_request.LW
p728
aVtc_194_184_hss_reset_ue_activity_s1_ho.LW
p729
aVtc_194_505_Notification_during_Intra_TAU_without_SGW_Relocation_HSS_Reset_Before_TAU.LW
p730
aVtc_194_991_downlink_A21_AIS_during_waiting_location_report__idr_flags_ef.LW
p731
aVtc_256_382_Sv_Path_Mgt__available_MSC_disable_Sv.LW
p732
aVtc_202_102_small_restart.LW
p733
aVtc_166_038_rnc_initiated_modify_ggsn_teid_change.WG14a
p734
aVtc_324_367_ef_cancel_location_with_subscriptionWithdraw_wf_modify_bearer_response_wf_isd_hlr.WG14a
p735
aVtc_322_161_smooth_move_ef_nas_after_paging_response_ignore.W14b
p736
aVtc_26_137_inter_srns_reloc_allowed_ARP.W14b
p737
aVtc_338_007_mf__OLP_Priority_after_service_request_3gdt.W14b
p738
aVtc_12_512_pmm_undefined_attach_when_updating_location_interfered_by_rnc_reset.LW
p739
aVtc_347_334_Intra_Periodic_TAU_With_Active_Flag_RAR__while_waiting_for_tau_accept.LW
p740
aVtc_194_081_cl_subscription_withdrawn_during_auth.LW
p741
aVtc_194_505_Notification_during_Intra_TAU_without_SGW_Relocation_HSS_Reset_Before_TAU.LW
p742
aVtc_298_145_EF_NRSPCA_interfere_Activation.LW
p743
aVtc_324_327_ef_service_req_data_direct_transfer_ingore.LW
p744
aVtc_316_203_IMSI_Attach_Emergency_Authentication_Fail__Backup_UE.LW
p745
aVtc_23_09_transfer_to_primary_and_change_vip_addr.LWG
p746
aVtc_267_507_Service_Request_SGW_unavailable__2_PDNs_Extended_Service_Request_while_wf_Create_Session_Response.LWG
p747
aVtc_59_9_mtmsi_restart_counter.LWG
p748
aVtc_340_34_validation_move_g_s4_filter_all_apn.LWG
p749
aVtc_349_108_RAU_new_sgsn__RAU_Req_on_new_iu_while_waiting_for_CCA_initial_transfer.LWG
p750
aVtc_216_013_icmpv6_inNeighborSol.LWG
p751
aVtc_256_176_mme_eps_srvcc_ho_source_cs_only_ue_release_request_wf_srvcc_ps_to_cs_complete_notification.LWG
p752
aVtc_316_241_HSS_Init_QoS_Modification_APNAMBR_RFSP_and_ARP_Changed__Backup_UE.LWG
p753
aVtc_363_018_mmi_get_ra.LWG
p754
aVtc_73_41_gtpu_sgsn_dont_send_gpu_echo_request_w.LWG
p755
aVtc_214_1126_la_selection_mf_oldlapreferred_combined_intra_tau_after_imsi_detach_triggered_by_sgs_paging.LWG
p756
aVtc_183_005_itc_folder_file_names.LWG
p757
aVtc_280_116_activate_dedicated_bearer_ue_nas_cause_syn_error_reject.LWG
p758
aVtc_304_029_guti_attach_reject__control_mode_threshold_exceeded_then_action_stop.LWG
p759
aVtc_304_263_tau_from_gnsgsn_when_wf_tau_complete_control_mode_reject_congestion.LWG
p760
aVtc_262_1055_imsi_attach_with_csg_id_is_rejected.LWG
p761
aVtc_275_073_tau_inter_new_no_update_location_response_sgsn00040258.LWG
p762
aVtc_244_055_mt_lr_cancel_location_with_update_procedure_received_wf_location_report.LWG
p763
aVtc_232_507_static_routes__bfd_supervision_of_static_route_v6.LWG
p764
aVtc_232_401_bfd__ipv4_alarm.LWG
p765
aVtc_232_204_bfd__multiplier_variations_ipv6.LWG
p766
aVtc_232_402_bfd__ipv6_alarm.LWG
p767
aVtc_232_503_static_routes__ipv4_ipv6_conf_deconf.LWG
p768
aVtc_208_43_interception_after_small_restart.G14b
p769
aVtc_263_204_Attach_Flow_Pb__Attach_Request_Same_IEs_while_waiting_for_Attach_Complete.L14b
p770
aVtc_221_054__Emergency_type_a_notification_on_normal_ebi_id_3_default.L14b
p771
aVtc_211_022_streamed_cell_trace_mapping_stream_only_ipv6.L14b
p772
aVtc_346_672_pra_cn_predefined_cca_u_for_initial_report_failure_in_inter_tau_then_x2_ho.L14b
p773
aVtc_346_670_pra_cn_predefined_cca_u_for_initial_report_timeout_in_attach_then_service_request_in.L14b
p774
aVtc_284_304_two_update_bearer_in_parallel_idle.L14b
p775
aVtc_275_403_tau_inter_new_subscribed_mobile_reachable_timer_allowed_false.L14b
p776
aVtc_266_211_service_request_2_pdn_1_default_bearer_fail_in_eNB.L14b
p777
aVtc_194_187_hss_reset_after_large_restart_with_full_imsi.L14b
p778
aVtc_262_1031_emergency_imsi_attach_multiple_pgw_try_next_pgw_fqdn_error.L14b
p779
aVtc_347_238_GW_Dedicated_Bearer_Deactivate__RAR_while_waiting_for_eRAB_Release_Response.L14b
p780
aVtc_347_282_Delete_Bearer__RAR_while_waiting_ERAB_Release_Response.L14b
p781
aVtc_79_035_israu_new_streaming_context_MBR_not_zero.W14b
p782
aVtc_231_281_activate_pdp_request_ignore_during_s4_pdp_deactivating.LW
p783
aVtc_324_006_mf_ser_req_signaling_after_ack_3gdt.LW
p784
aVtc_324_386_ef_mt_sms_wf_frcn_wf_frca_wf_ula.LW
p785
aVtc_275_108_Inter_TAU_New_MME_Emergency_Type_a__Imei_Check_Answer_Unknown_Equipment_before_TAU_Accept_ire_true.LW
p786
aVtc_197_417_attach_table_matched_snaptr_vplmn_not_allowed.LW
p787
aVtc_225_416_recv_service_while_waiting_extended_service_request.LW
p788
aVtc_326_678_tau_intra_SGW_unavailable_active_flag_off_after_MME_large_restart__create_session_fail_reselect_SGW.LW
p789
aVtc_203_442_mme_eps_handover_source_inter_af_tenb_not_support_forwarding.LW
p790
aVtc_103_1101_resending_AIR_interfering_CLR.LW
p791
aVtc_298_783_S4_3GDT_downlink_data_notification_wait_MBR_ef_detach.LW
p792
aVtc_195_406_ue_trace_start_meanwhile_handover_required.LW
p793
aVtc_334_251_path_failure_service_req_connected_mf.LW
p794
aVtc_347_211_Attach__RAR_while_waiting_for_Attach_Complete.LW
p795
aVtc_194_505_Notification_during_Intra_TAU_without_SGW_Relocation_HSS_Reset_Before_TAU.LW
p796
aVtc_44_004_small_restart__sctp_fe_restart.LW
p797
aVtc_44_070_sctp_large_message.LW
p798
aVtc_347_333_Intra_TAU_With_Active_Flag__RAR_while_waiting_ICS_Response.L14b
p799
aVtc_220_413_csfb_to_1xrtt_in_ecm_connected_handover_required_meanwhile_CBR_received.L14b
p800
aVtc_302_021_cdma_tunneling_downlink_message_feature_off.L14b
p801
aVtc_44_840_mme_assoc_reestablish__device_restart_s1_mme.L14b
p802
aVtc_44_850_mme_assoc_reestablish__board_restart_s1_mme.L14b
p803
aVtc_194_506_Notification_during_Intra_MME_TAU_without_SGW_Relocation_Procedure.L14b
p804
aVtc_194_505_Notification_during_Intra_TAU_without_SGW_Relocation_HSS_Reset_Before_TAU.L14b
p805
aVtc_304_107_initial_ue_intra_tau_control_mode_threshold_exceeded_usc_reject.L14b
p806
aVtc_43_101__removal_of_disconnected_eNodeBs__CLI_removal.L14b
p807
aVtc_211_015_streamed_cell_trace_mapping_alarm_cease.L14b
p808
aVtc_214_910_combined_tau_intra_insert_subscriber_data_interference.L14b
p809
aVtc_306_1305_ef_seamless_move_target_buffer_create_bearer_request.L14b
p810
aVtc_220_045_csfb_to_1xrtt_in_ecm_connected_s1_reset_failed_release_access_beareres_response.LWG
p811
aVtc_59_9_mtmsi_restart_counter.LWG
p812
aVtc_232_502_static_routes__ipv6_conf_deconf.LWG
p813
aVtc_232_511_static_routes__bfd_supervision_of_static_route_v6_on_Gom.LWG
p814
aVtc_232_507_static_routes__bfd_supervision_of_static_route_v6.LWG
p815
aVtc_232_503_static_routes__ipv4_ipv6_conf_deconf.LWG
p816
aVtc_281_030_Activate_bearer__ERAB_setup_response_interaction_with_other_procedure_HO_undected_retry_counter_exceed.LWG
p817
aVtc_211_011_streamed_cell_trace_mapping_log_x2_ho.LWG
p818
aVtc_327_116_recovery_intra_TAU__Delete_Subscriber_Data_while_waiting_for_Identity_Response.LWG
p819
aVtc_342_864_online_change_LI_U.LWG
p820
aVtc_195_406_ue_trace_start_meanwhile_handover_required.LWG
p821
aVtc_347_262_PDN_Connectivity__Location_Report_while_waiting_CCA_initial.LWG
p822
aVtc_276_022_Inter_TAU_New_MME__New_TAU_Request_while_waiting_for_Modify_Bearer_Response.LWG
p823
aVtc_241_801_israu_interfering_context_request_no_cancel_location_s4.LWG
p824
aVtc_205_40_ss7_M3ua.LWG
p825
aVtc_23_09_transfer_to_primary_and_change_vip_addr.LWG
p826
aVtc_316_289_Detach_Poweroff_NOK_Emm_Registered__No_Delete.L14b
p827
aVtc_103_1101_resending_AIR_interfering_CLR.L14b
p828
aVtc_202_18_downlink_data_after_s1_release.L14b
p829
aVtc_202_40_emergency_pdn_ecm_connected.L14b
p830
aVtc_326_622_S6a_Throttling_Service_Request_recovery_UL_successful_and_Emergency_Attach_not_throttled.L14b
p831
aVtc_282_020_delete_bearer_request_handover_to_non_3GPP_ecm_connected_multi_pdn.L14b
p832
aVtc_266_020_DownlinkDataFailureInd_repeat_paging_timer_on.L14b
p833
aVtc_347_229_Extended_Service_Request__RAR_while_waiting_for_Initial_UE_Context_Response_csfb_to_1xrtt_in_ecm_idle.L14b
p834
aVtc_347_302_mme_dedicated_bearer_deactivate__RAR_while_waiting_deactivate_eps_bearer_context_accept.L14b
p835
aVtc_304_121_initial_ue_intra_tau_control_mode_threshold_exceeded_usc_detach_wf_release_request_response.L14b
p836
aVtc_243_722_tau_from_sgsn_s3_active_flag_false_ddn_with_imsi_wf_ula.LWG
p837
aVtc_243_771_tau_from_sgsn_s3_active_flag_true_SGW_unchange_no_2nd_modify_bearer_response_two_pdn.LWG
p838
aVtc_282_131_deactivate_default_bearer.LWG
p839
aVtc_241_432_intra_rau_with_bearer_sgw_unchange_2_pdns_3gdt.LWG
p840
aVtc_183_005_itc_folder_file_names.LWG
p841
aVtc_43_101__removal_of_disconnected_eNodeBs__CLI_removal.LWG
p842
aVtc_329_1008_test_cli_same_zc_different_plmns.LWG
p843
aVtc_290_096_Timer_Based_GBR_Deact__sgsn_context_request_wf_delete_bearer_request_after_timer_expires.LWG
p844
aVtc_302_231_Timer_Based_GBR_Deact__UE_Context_Release_Request_after_A21_Ack_Sent_to_IWS_during_SRVCC_to_1xRTT.LWG
p845
aVtc_298_783_S4_3GDT_downlink_data_notification_wait_MBR_ef_detach.LWG
p846
aVtc_214_1099_la_selection_mf_reselection_combined_tau_with_imsi_attach_after_mme_triggered_imsi_detach_when_handling_sgs_paging.LWG
p847
aVtc_250_67_s6d_activation_with_EPS_data_s4_license_off.LWG
p848
aVtc_259_73_ef_isd_network_init_detach_s4_w.LWG
p849
aVtc_59_9_mtmsi_restart_counter.LWG
p850
aVtc_239_630_inter_rau_new_with_bearer_sgw_changed_s4_during_create_session_attach_interrupt_two_pdp_context.LWG
p851
aVtc_95_4_load_lkf2.LWG
p852
aVtc_232_502_static_routes__ipv6_conf_deconf.LWG
p853
aVtc_232_511_static_routes__bfd_supervision_of_static_route_v6_on_Gom.LWG
p854
aVtc_232_507_static_routes__bfd_supervision_of_static_route_v6.LWG
p855
aVtc_232_402_bfd__ipv6_alarm.LWG
p856
aVtc_232_403_bfd__ipv4ipv6_alarm.LWG
p857
aVtc_232_401_bfd__ipv4_alarm.LWG
p858
aVtc_44_841_mme_assoc_reestablish__device_restart_sbc.LWG
p859
aVtc_313_001_inter_new_srns_reloc_s16_without_sgw_change.LWG
p860
aVtc_324_426_ef_payload_buffered_wf_security_mode_complete_payload_different_pdn_non_3gdt.LWG
p861
aVtc_52_07_inter_old_relocation_cancel.LWG
p862
aVtc_195_213_mme_logging_medium_csfb_to_1xrtt_extended_service_request_emergency.LWG
p863
aVtc_202_10_downlink_data_during_paging.LWG
p864
aVtc_241_157_israu_old_wait_for_context_ack_interfere_by_reset.W14b
p865
aVtc_31_027_rau_ul_fails_network_failure_other.W14b
p866
aVtc_248_419_inter_l_to_w_new_two_pdns_with_target_gw_interface_gp_and_ipv6_user_plan_off.W14b
p867
aVtc_298_826_NRSPCA_S4_nsapi_collision_receiving_detach_request_while_waiting_for_delete_bearer_request.W14b
p868
aVtc_39_187_detach_trigger_re_attach_new_iu.W14b
p869
aVtc_43_045_eNB_configuration_update_af_oldTa_removed_intra_tau_with_new_guti.LW
p870
aVtc_256_143_mme_eps_srvcc_ho_source_cs_only_initial_ue_extended_service_request_wf_srvcc_ps_to_cs_response.LW
p871
aVtc_241_801_israu_interfering_context_request_no_cancel_location_s4.LW
p872
aVtc_220_501_csfb_to_1xrtt_in_ecm_idle_attach_request_wf_ue_context_release_request.LW
p873
aVtc_275_073_tau_inter_new_no_update_location_response_sgsn00040258.LW
p874
aVtc_326_654_tau_intra_periodic_SGW_unavailable_after_MME_large_restart__DNS_fail.LW
p875
aVtc_52_10_inter_old_relocation_cancel_later.LW
p876
aVtc_304_266_tau_from_gnsgsn_2g_control_mode_wf_delete_all_bearers_response_exception_case_reject_congestion_subscriber_cancelled.LW
p877
aVtc_204_1302_mme_eps_ho__ho_required_inter_same_sgw_wf_forward_relocation_complete_ack.LW
p878
aVtc_342_925_x2_multiple_pdp_with_different_x2_address.LW
p879
aVtc_250_74_s6d_EF_hss_reset_waiting_delete_session_response.LW
p880
aVtc_194_009_cl_subscription_withdrawn.LW
p881
aVtc_306_1300_ef_seamless_move_target_receive_uplink_nas_transport_bf_lur.LW
p882
aVtc_208_43_interception_after_small_restart.G14b
p883
aVtc_297_427_ef_irat_w_to_g_attach_request_received.G14b
p884
aVtc_298_832_NRSPCA_S4_nsapi_collision_after_RAU_one_pdn_failed.LW
p885
aVtc_347_101_Inter_TAU_Old_MME__RAR_while_waiting_for_TAU_timer_out.LW
p886
aVtc_262_1055_imsi_attach_with_csg_id_is_rejected.LW
p887
aVtc_326_622_S6a_Throttling_Service_Request_recovery_UL_successful_and_Emergency_Attach_not_throttled.LW
p888
aVtc_255_014_s6d_to_gr_fallback_then_l_to_w_isc_using_s6d.LW
p889
aVtc_47_005_implict_detach_timer_ap_loss.LW
p890
aVtc_44_871_mme_assoc_reestablish__board_block_sbc.LW
p891
aVtc_219_131_s3_handover_w_to_l_with_cl_two_pdns_one_failed_sgw_relocation.LW
p892
aVtc_195_208_mme_logging_maximum_modify_eps_bearer_context.LW
p893
aVtc_236_169_s4_3gdt_with_2_pdn_9_dedicated_bearer_service_request_all_rab_setup_successful.LWG
p894
aVtc_311_204_intra_srns_reloc_s4_sgw_change_wf_reloc_req_ack_interrupted_by_cancel_loc_subscrip_withdrawn.LWG
p895
aVtc_205_71_01_ss7_SCCP_CR_DT1_RLSD.LWG
p896
aVtc_274_042_Intra_and_pTAU__Intra_TAU_other_ta_while_waiting_for_Ue_Release_Complete.LWG
p897
aVtc_220_420_csfb_to_1xrtt_ue_return_with_service_request_SGW_unavailable.LWG
p898
aVtc_277_103_tau_inter_old_plmn_change_unauthenticated_emergency_ongoing_implicit_detach.LWG
p899
aVtc_216_106_icmpv6_outNeighborSol.LWG
p900
aVtc_267_531_DDN_SGW_unavailable__Detach_Request_while_wf_Create_Session_Response.LWG
p901
aVtc_347_350_Ho_Non_3GPP__RAR_while_waiting_delete_bearer_response.LWG
p902
aVtc_202_431_mf_seamless_move_target_service_request_modifyBearerReq_onePdnMultiBearer_oneBearerFail.LWG
p903
aVtc_103_1146_sx_resend__CCR_T_retransmit_but_no_resending.LWG
p904
aVtc_103_702_CEA_timeout.LWG
p905
aVtc_666_06_block_rt_board.LWG
p906
aVtc_292_172_intra_handover_with_multiple_pdn_failed_before_timer_expiration_of_x2_ho.LWG
p907
aVtc_59_9_mtmsi_restart_counter.LWG
p908
aVtc_225_002_combined_attach_csfb_ue_moves_to_sgsn.LWG
p909
aVtc_225_313_mt_call_active_mode_nas_non_delivery__s1_inter_system_handover_triggered_retry_counter_exceed.LWG
p910
aVtc_232_502_static_routes__ipv6_conf_deconf.LWG
p911
aVtc_232_205_bfd__udp_port_no_ipv6.LWG
p912
aVtc_232_403_bfd__ipv4ipv6_alarm.LWG
p913
aVtc_232_507_static_routes__bfd_supervision_of_static_route_v6.LWG
p914
aVtc_232_401_bfd__ipv4_alarm.LWG
p915
aVtc_326_437_Inter_TAU_Recovery_Fail__SGW_Relocation_Create_Session_Fail.LWG
p916
aVtc_326_712_Intra_TAU_Recovery_subscription_check_ODB_Emergency_PDN_exist.LWG
p917
aVtc_275_732_inter_tau_target_with_both_allowed_apn_and_not_allowed_apn_in_odb_free_apn_list_for_roamer__odb_bit0.LWG
p918
aVtc_44_871_mme_assoc_reestablish__board_block_sbc.LWG
p919
aVtc_194_506_Notification_during_Intra_MME_TAU_without_SGW_Relocation_Procedure.LWG
p920
aVtc_23_09_transfer_to_primary_and_change_vip_addr.LWG
p921
aVtc_298_723_service_request_ef_ms_deact_ti_default_wf_rab_assignment_response.LWG
p922
aVtc_306_1308_ef_seamless_move_target_buffer_update_bearer_request.LWG
p923
aVtc_38_81_intra_rau_new_rnc_with_authentication_no_ptmsi_signature.W14b
p924
aVtc_236_045_s4_3gdt_iu_release_during_waiting_for_modify_bearer_rsp_in_service_request_procedure.W14b
p925
aVtc_26_061_israu_mbr_set_to_zero_streaming.W14b
p926
aVtc_304_266_tau_from_gnsgsn_2g_control_mode_wf_delete_all_bearers_response_exception_case_reject_congestion_subscriber_cancelled.L14b
p927
aVtc_262_1031_emergency_imsi_attach_multiple_pgw_try_next_pgw_fqdn_error.L14b
p928
aVtc_294_044_s1_intra_handover_type_b_new_plmn_no_roaming_restriction_emc_no_sup.L14b
p929
aVtc_284_361_pdn_connectivity_handover_indication_no_override_after_timeout.L14b
p930
aVtc_346_691_pra_cn_predefined_s1_ho_cca_u_failure__service_request__out2in.L14b
p931
aVtc_346_673_pra_cn_predefined_ccr_u_for_initial_report_abort_in_inter_ho_then_s1_ho.L14b
p932
aVtc_346_670_pra_cn_predefined_cca_u_for_initial_report_timeout_in_attach_then_service_request_in.L14b
p933
aVtc_214_028_combined_attach_interfering_s1_reset.L14b
p934
aVtc_214_710_combined_tau_intra_eps_attach_interfering_mt_sms_paging_wf_tau_complete_then_ddn.L14b
p935
aVtc_266_026_DownlinkDataFailureInd_repeat_paging_timer_small_local_restart.L14b
p936
aVtc_327_022_recovery_intra_TAU__initial_Detach_Request_while_waiting_for_Ue_Backup_Response.L14b
p937
aVtc_327_610_Inter_TAU_SGW_Changed_then_Intra_TAU_while_waiting_for_20s_timeout.L14b
p938
aVtc_44_840_mme_assoc_reestablish__device_restart_s1_mme.L14b
p939
aVtc_44_841_mme_assoc_reestablish__device_restart_sbc.L14b
p940
a.