(lp0
Vtc_12_183_wcdma_repeat_paging_with_old_ptmsi_N3313_oldptmsi_0.LW
p1
aVtc_194_080_cl_update_procedure_during_auth.LW
p2
aVtc_346_482_AF__RAR_with_new_RFSP_ue_context_modification_failure_x2_handover_triggered_HO_all_bearers_fail.LW
p3
aVtc_267_511_Service_Request_SGW_unavailable__IDR_with_QoS_modification_while_wf_Create_Session_Response.LW
p4
aVtc_44_004_small_restart__sctp_fe_restart.LW
p5
aVtc_298_783_S4_3GDT_downlink_data_notification_wait_MBR_ef_detach.LW
p6
aVtc_39_921_ef_seamless_move_interrupted_by_normal_attach.LW
p7
aVtc_327_037_recovery_intra_TAU_active_off_sgw_unchanged__RAR_wf_CSR_due_to_S11_linkdown.LW
p8
aVtc_327_250_recovery_service_request_MBR_timeout__Attach_Request_wf_Guti_Reallocation_Complete.LW
p9
aVtc_43_101__removal_of_disconnected_eNodeBs__CLI_removal.LW
p10
aVtc_56_10_cm_restart_during_SR.LWG
p11
aVtc_239_622_inter_rau_new_with_background_bearer_odb_bit0_deactivation.LWG
p12
aVtc_52_04_inter_old_srns_reloc_one_unstable_context.LWG
p13
aVtc_202_01_ecm_connected_s1_release.LWG
p14
aVtc_202_40_emergency_pdn_ecm_connected.LWG
p15
aVtc_179_318_Ccheck_TraceCollectionIpv6server.LWG
p16
aVtc_194_180_hss_reset_with_user_id_list_no_subscriber_impacted.LWG
p17
aVtc_241_674_israu_new_dedicated_bearer_failed_receive_deactivate_before_service_request.LWG
p18
aVtc_214_1126_la_selection_mf_oldlapreferred_combined_intra_tau_after_imsi_detach_triggered_by_sgs_paging.LWG
p19
aVtc_298_783_S4_3GDT_downlink_data_notification_wait_MBR_ef_detach.LWG
p20
aVtc_213_019_nrspca_start_of_interception.LWG
p21
aVtc_44_860_mme_assoc_reestablish__sctp_fe_restart_s1_mme.LWG
p22
aVtc_44_871_mme_assoc_reestablish__board_block_sbc.LWG
p23
aVtc_220_411_csfb_to_1xrtt_in_ecm_connected_path_switch_request_subscription_cancelled.LWG
p24
aVtc_23_09_transfer_to_primary_and_change_vip_addr.LWG
p25
aVtc_79_036_israu_new_streaming_context_MBR_not_zero_service_request.LWG
p26
aVtc_183_005_itc_folder_file_names.LWG
p27
aVtc_208_43_interception_after_small_restart.G14b
p28
aVtc_295_124_tau_after_ho_tz_change_emm_information_meanwhile_handover_required_HO_success.L14b
p29
aVtc_316_215_Service_Request_With_Dedicated_Bearers_Partial_Success__Backup_UE.L14b
p30
aVtc_329_803_geored_intra_tau_rs_restricted_after_update_location.L14b
p31
aVtc_202_17_service_request_during_release_access_bearers.L14b
p32
aVtc_202_43_type_d_emergency_pdn_ecm_idle.L14b
p33
aVtc_274_274_Intra_and_pTAU__Handover_Required_with_old_TA_MSC_change_while_waiting_for_Location_Update_response_TAU_IMSI_Detach.L14b
p34
aVtc_103_701_MME_restarts.L14b
p35
aVtc_326_622_S6a_Throttling_Service_Request_recovery_UL_successful_and_Emergency_Attach_not_throttled.L14b
p36
aVtc_194_187_hss_reset_after_large_restart_with_full_imsi.L14b
p37
aVtc_324_069_af_modify_bearer_dedicated_bearer_fail.W14b
p38
aVtc_298_680_pgw_init_modification_waiting_paging_response_ef_delete_bearer_request.W14b
p39
aVtc_298_783_S4_3GDT_downlink_data_notification_wait_MBR_ef_detach.W14b
p40
aVtc_322_161_smooth_move_ef_nas_after_paging_response_ignore.W14b
p41
aVtc_334_300_service_req_relocation_ef_sm_status_when_wf_deactivate_pdp_context_accept.W14b
p42
aVtc_28_006_mo_sms_no_cp_ack.W14b
p43
aVtc_314_022_hss_reset_restoration_followed_by_service_request_smah_off.W14b
p44
aVtc_324_328_ef_service_req_data_direct_transfer_ingore_wf_update_location.W14b
p45
aVtc_324_456_ef_detach_request_poweroff_abort_wf_modify_bearer_response_wf_update_location_hlr_ack_timeout.W14b
p46
aVtc_241_711_inter_rau_dedicate_bearer_feature_off_and_pgw_delete_bearer_after_rau.W14b
p47
aVtc_311_257_intra_srns_reloc_s4_wf_rau_compl_interrupted_by_new_attach_with_invalid_ptmsi_signature.W14b
p48
aVtc_342_064_x2_secondary_pdp_from_ms.W14b
p49
aVtc_26_061_israu_mbr_set_to_zero_streaming.W14b
p50
aVtc_322_022_smooth_move_af_frr_with_service_not_supported_no_moveIndicator.W14b
p51
aVtc_250_115_act_ipv4v6_pdp_ctx_idr_pdp_type_dual_to_single_gprs.W14b
p52
aVtc_214_1099_la_selection_mf_reselection_combined_tau_with_imsi_attach_after_mme_triggered_imsi_detach_when_handling_sgs_paging.LW
p53
aVtc_304_103_emergency_intra_tau_success__control_mode_threshold_not_reached.LW
p54
aVtc_342_150_pmm_idle_one_pdp_source.LW
p55
aVtc_73_40_gtpu_sgsn_send_gpu_echo_request_w.LWG
p56
aVtc_165_12_check_resource_alarms_dp.LWG
p57
aVtc_59_9_mtmsi_restart_counter.LWG
p58
aVtc_326_380_Service_Request_with_unknown_STMSI_multiple_retrieve_responses.LWG
p59
aVtc_220_563_csfb_to_1xrtt_in_ecm_idle_detach_request_wf_ue_context_release_request.LWG
p60
aVtc_183_005_itc_folder_file_names.LWG
p61
aVtc_243_773_tau_from_sgsn_s3_active_flag_true_SGW_change_no_modify_bearer_response_two_pdn.LWG
p62
aVtc_256_176_mme_eps_srvcc_ho_source_cs_only_ue_release_request_wf_srvcc_ps_to_cs_complete_notification.LWG
p63
aVtc_110_005_inbound_outbound_pf_rule_cli_ip.LWG
p64
aVtc_205_71_08_SCTP_OctetsChunksSent.LWG
p65
aVtc_337_005_validation_move_manually_stopped_between_two_pool_moves_smooth_move.LWG
p66
aVtc_237_308_mme_eps_irat_Gn_ho_source__Handover_Cancel_when_wf_Forward_Relocation_Complete.LWG
p67
aVtc_103_701_MME_restarts.LWG
p68
aVtc_202_10_downlink_data_during_paging.LWG
p69
aVtc_311_257_intra_srns_reloc_s4_wf_rau_compl_interrupted_by_new_attach_with_invalid_ptmsi_signature.WG14a
p70
aVtc_347_130_Seamless_Move_Target__Extended_Service_Request_while_waiting_for_CCA_initial.L14b
p71
aVtc_266_011_DownlinkDataNotification_interfering_ISD_sgsn00026976.L14b
p72
aVtc_273_592_TAU_intra__active_flag_on_no_modify_bearer_response_sgw_change.L14b
p73
aVtc_326_622_S6a_Throttling_Service_Request_recovery_UL_successful_and_Emergency_Attach_not_throttled.L14b
p74
aVtc_304_114_initial_ue_intra_tau_control_mode_threshold_exceeded_usc_ignore_replace_s1.L14b
p75
aVtc_306_1500_ef_seamless_move_target_handle_ddn_with_imsi_wf_modify_bearer_resp.L14b
p76
aVtc_225_616_exp_flow_handover_required_intra_while_wf_modification_context_response.L14b
p77
aVtc_220_593_csfb_to_1xrtt_context_request_during_extended_service_request.L14b
p78
aVtc_250_51_standalone_cancel_location_initial_attach_not_combined_node.W14b
p79
aVtc_250_154_attach_eps_sub_no_odb_activation_insert_gprs_sub_with_odb_deact.W14b
p80
aVtc_23_09_transfer_to_primary_and_change_vip_addr.LWG
p81
aVtc_251_010_rau_w_to_g_after_hss_reset_storm.LWG
p82
aVtc_324_112_af_service_request_default_bearer_fail_in_rab_assignment_non_3gdt.LWG
p83
aVtc_298_424_ms_init_deact_ef_delicated_non_gbr_bearer_deact_interfered_by_rab_release_request.LWG
p84
aVtc_206_021_ebm_server_crashes_and_recovers_while_attached.LWG
p85
aVtc_198_058_IPv4_no_route.LWG
p86
aVtc_243_772_tau_from_sgsn_s3_active_flag_true_SGW_change_no_modify_bearer_response.LWG
p87
aVtc_183_005_itc_folder_file_names.LWG
p88
aVtc_306_1203_ef_seamless_move_target_receive_sgsap_alert_request_with_sgsap_status.LWG
p89
aVtc_92_0330_oms_pm_A43_01.LWG
p90
aVtc_103_1120_attach_ula_dia_unable_to_deliver.LWG
p91
aVtc_214_315_mt_sms_idle_mode_feature_off.LWG
p92
aVtc_256_143_mme_eps_srvcc_ho_source_cs_only_initial_ue_extended_service_request_wf_srvcc_ps_to_cs_response.LWG
p93
aVtc_59_9_mtmsi_restart_counter.LWG
p94
aVtc_327_037_recovery_intra_TAU_active_off_sgw_unchanged__RAR_wf_CSR_due_to_S11_linkdown.LWG
p95
aVtc_179_318_Ccheck_TraceCollectionIpv6server.LWG
p96
aVtc_342_864_online_change_LI_U.LWG
p97
aVtc_209_214_s4_no_sm_events_payload.LWG
p98
aVtc_209_151_ul_payload_imsi.LWG
p99
aVtc_203_422_mme_eps_ho_source__tau_request_wf_cancel_location.LWG
p100
aVtc_205_40_ss7_M3ua.LWG
p101
aVtc_284_351_pdn_connectivity_pb_activate_1_dedicated_bearer_interrupted_by_path_switch_request.LWG
p102
aVtc_220_025_csfb_to_1xrtt_ue_suspended_hss_reset.LWG
p103
aVtc_297_407_move_at_periodic_rau.LWG
p104
aVtc_194_170_hss_reset_ue_activity_service_request.LWG
p105
aVtc_194_505_Notification_during_Intra_TAU_without_SGW_Relocation_HSS_Reset_Before_TAU.LWG
p106
aVtc_52_04_inter_old_srns_reloc_one_unstable_context.LWG
p107
aVtc_311_204_intra_srns_reloc_s4_sgw_change_wf_reloc_req_ack_interrupted_by_cancel_loc_subscrip_withdrawn.WG14a
p108
aVtc_310_310_S3_new_SGW_emergency_attach_sv_pool_on_msc_one_offloading_one_available.L14b
p109
aVtc_326_622_S6a_Throttling_Service_Request_recovery_UL_successful_and_Emergency_Attach_not_throttled.L14b
p110
aVtc_194_506_Notification_during_Intra_MME_TAU_without_SGW_Relocation_Procedure.L14b
p111
aVtc_347_341_SGW_Restart__RAR_while_waiting_Create_Session_Response.L14b
p112
aVtc_304_121_initial_ue_intra_tau_control_mode_threshold_exceeded_usc_detach_wf_release_request_response.L14b
p113
aVtc_327_165_recovery_intra_TAU_Context_Request_while_waiting_for_Initial_Context_Setup_Response.L14b
p114
aVtc_202_40_emergency_pdn_ecm_connected.L14b
p115
aVtc_281_021_Activate_bearer__ERAB_setup_request_meanwhile_handover_required_HO_success_SGW_change.LW
p116
aVtc_257_22_pws_etws_stop_warning_request_with_unknown_tai.LW
p117
aVtc_318_201_idle_deactivate_dedicated_bearers_one_by_one_reactivate_req.LW
p118
aVtc_79_082_sgsn_init_modification_rnc_not_supporting_modify_cause19.LW
p119
aVtc_194_913_ecm_connected__roamer__userstate_locationinfo_currentinfo__idr_flags.LW
p120
aVtc_298_118_EF_NRSPCA_S4_Cancel_Location_SGSN_Update.LW
p121
aVtc_241_801_israu_interfering_context_request_no_cancel_location_s4.LW
p122
aVtc_220_413_csfb_to_1xrtt_in_ecm_connected_handover_required_meanwhile_CBR_received.LW
p123
aVtc_316_205_TAU_From_3G_Gn_SGSN__Backup_UE.LW
p124
aVtc_316_203_IMSI_Attach_Emergency_Authentication_Fail__Backup_UE.LW
p125
aVtc_52_04_inter_old_srns_reloc_one_unstable_context.LW
p126
aVtc_298_691_S4_3GDT_Service_request_wait_Rab_Assignment_ef_delete_bearer_request.W14b
p127
aVtc_245_340_israu_new_l_to_w_with_GBR_dedicated_bearer_ipv6_3gdt.W14b
p128
aVtc_11_460_send_buffered_activate_pdp_context_reject_after_delete_pdp.W14b
p129
aVtc_248_111_inter_l_to_w_new_interfering_attach_request_received_wf_fws_reloc_ack.W14b
p130
aVtc_12_512_pmm_undefined_attach_when_updating_location_interfered_by_rnc_reset.W14b
p131
aVtc_26_051_activate_QoS_max_bitrate_downgraded_by_ggsn.W14b
p132
aVtc_26_159_israu_new_not_updated_with_qos_upgradeAllowed.W14b
p133
aVtc_183_005_itc_folder_file_names.LWG
p134
aVtc_178_830_action_ss7_sys_tclear.LWG
p135
aVtc_103_1101_resending_AIR_interfering_CLR.LWG
p136
aVtc_179_318_Ccheck_TraceCollectionIpv6server.LWG
p137
aVtc_262_751_attach_handover_indication_no_override_after_timeout.LWG
p138
aVtc_47_004_mobile_reachble_timer_ap_loss.LWG
p139
aVtc_346_611_AF__HO_Intra_2PDN_Handover_Request_Ack_failure_for_1PDN_terminate_sx.LWG
p140
aVtc_38_81_intra_rau_new_rnc_with_authentication_no_ptmsi_signature.LWG
p141
aVtc_73_21_itc_gtpu_s4_sgsn_send_echo_request_w.LWG
p142
aVtc_195_528_mme_logging_combined_attach_location_reject.LWG
p143
aVtc_194_505_Notification_during_Intra_TAU_without_SGW_Relocation_HSS_Reset_Before_TAU.LWG
p144
aVtc_23_09_transfer_to_primary_and_change_vip_addr.LWG
p145
aVtc_327_046_recovery_intra_TAU_active_off_sgw_unchanged__sgsap_paging_wf_CSR_due_to_S11_linkdown.LWG
p146
aVtc_327_552_Recovery_for_DDN__Service_Request_while_waiting_for_Ue_Backup_Response.LWG
p147
aVtc_208_43_interception_after_small_restart.LWG
p148
aVtc_205_40_ss7_M3ua.LWG
p149
aVtc_257_30_pws_sctp_device_failure.LWG
p150
aVtc_225_312_mt_call_active_mode_nas_non_delivery__s1_intra_system_handover_triggered_resend_2_times.L14b
p151
aVtc_204_152_inter_s1ho_target_HeNB_emergency_type_a_not_allowed_in_csg.L14b
p152
aVtc_327_022_recovery_intra_TAU__initial_Detach_Request_while_waiting_for_Ue_Backup_Response.L14b
p153
aVtc_44_301_sctp_counter_MessageSent_Received.L14b
p154
aVtc_44_820_mme_assoc_reestablish__shutdown_s1_mme.L14b
p155
aVtc_260_093_one_mbms_session_started_Three_mce_add_one_session_send_to_one_mce.L14b
p156
aVtc_260_271_receive_sm_start_req_while_wf_setup_iteration.L14b
p157
aVtc_103_701_MME_restarts.L14b
p158
aVtc_220_403_csfb_to_1xrtt_in_ecm_connected_path_switch_request_HO_success.L14b
p159
aVtc_194_187_hss_reset_after_large_restart_with_full_imsi.L14b
p160
aVtc_194_614_DSD__Subscribed_Charging_Characteristics_Withdrawal_With_Context_Identifier_AVP.L14b
p161
aVtc_194_627_EBT_DSD_in_guti_attach.L14b
p162
aVtc_297_407_move_at_periodic_rau.G14b
p163
aVtc_304_266_tau_from_gnsgsn_2g_control_mode_wf_delete_all_bearers_response_exception_case_reject_congestion_subscriber_cancelled.LW
p164
aVtc_260_182_mce_reset_one_session_two_mce_one_mce_send_reset.LW
p165
aVtc_327_558_Recovery_for_DDN__Cancel_Location_Update_Location_while_waiting_for_Paging_Response.LW
p166
aVtc_346_662_pra_cn_predefined_event_trigger_ulc_and_pra_info.LW
p167
aVtc_241_308_intra_rau_with_bearer_sgw_change_then_intra_rau_sgw_unchange.LW
p168
aVtc_30_139_hlr_reset_dp_unavailable.G14b
p169
aVtc_194_187_hss_reset_after_large_restart_with_full_imsi.L14b
p170
aVtc_578_33_check_ebm_para_statistics_enb_sn.L14b
p171
aVtc_578_32_check_ebm_para_statistics_ue_return_duration.L14b
p172
aVtc_103_1101_resending_AIR_interfering_CLR.L14b
p173
aVtc_43_101__removal_of_disconnected_eNodeBs__CLI_removal.L14b
p174
aVtc_304_114_initial_ue_intra_tau_control_mode_threshold_exceeded_usc_ignore_replace_s1.L14b
p175
aVtc_103_1101_resending_AIR_interfering_CLR.LWG
p176
aVtc_59_9_mtmsi_restart_counter.LWG
p177
aVtc_268_036_Timer_Based_GBR_Deact__Release_Access_Bearer_Response_with_Context_non_Existent.LWG
p178
aVtc_204_901_mme_eps_ho_target_insert_subscriber_data_with_odb_bit0_during_wf_tau_complete.LWG
p179
aVtc_208_43_interception_after_small_restart.LWG
p180
aVtc_217_850_rau_to_sgsn_and_tau_back_to_mme_check_detach_register_table.LWG
p181
aVtc_183_005_itc_folder_file_names.LWG
p182
aVtc_327_027_recovery_intra_TAU___Attach_Request_while_waiting_for_CSR_due_to_S11_linkdown.LWG
p183
aVtc_243_722_tau_from_sgsn_s3_active_flag_false_ddn_with_imsi_wf_ula.LWG
p184
aVtc_250_67_s6d_activation_with_EPS_data_s4_license_off.LWG
p185
aVtc_73_41_gtpu_sgsn_dont_send_gpu_echo_request_w.LWG
p186
aVtc_220_011_csfb_to_1xrtt_mobile_originating_with_csfb_response.LWG
p187
aVtc_009_005_attach_after_purge.LWG
p188
aVtc_342_864_online_change_LI_U.LWG
p189
aVtc_262_1055_imsi_attach_with_csg_id_is_rejected.LWG
p190
aVtc_202_320_mf_seamless_move_by_mme_ue_ecm_idle_s1_sel_freq_1.LWG
p191
aVtc_297_407_move_at_periodic_rau.LWG
p192
aVtc_231_113_rnc_reset_during_ms_act_si_ms_deact_rnc_contact.W14b
p193
aVtc_298_782_S4_3GDT_downlink_data_notification_wait_rnc_resp_ef_detach.W14b
p194
aVtc_26_087_isd_0kbps.W14b
p195
aVtc_322_161_smooth_move_ef_nas_after_paging_response_ignore.W14b
p196
aVtc_12_157_service_request_identity_check_no_response.W14b
p197
aVtc_241_801_israu_interfering_context_request_no_cancel_location_s4.LW
p198
aVtc_346_703_pra_cn_predefined_lrc_optimization_current_eNB_area_out_of_pra.LW
p199
aVtc_327_044_recovery_intra_TAU_active_off_sgw_unchanged__gtpv1_FRR_wf_CSR_due_to_S11_linkdown.LW
p200
aVtc_327_153_recovery_intra_TAU_Delete_Bearer_Request_while_waiting_for_Modify_Bearer_Response.LW
p201
aVtc_202_431_mf_seamless_move_target_service_request_modifyBearerReq_onePdnMultiBearer_oneBearerFail.LW
p202
aVtc_202_102_small_restart.LW
p203
aVtc_306_1116_ef_seamless_move_target_receive_detach_request_without_switchoff_wf_ula_with_service_finished.LW
p204
aVtc_334_293_service_req_relocation_error_indication_when_wf_create_session_resp.LW
p205
aVtc_34_33_attach_and_periodic_move_initiated_to_wcdma_nri.WG14a
p206
aVtc_327_312_recovery_service_request__initial_Attach_Request_while_waiting_for_Ue_Backup_Response.L14b
p207
aVtc_263_241_Attach_Flow__Attach_Request_with_diff_IE_while_waiting_for_identification_response.L14b
p208
aVtc_44_860_mme_assoc_reestablish__sctp_fe_restart_s1_mme.L14b
p209
aVtc_44_871_mme_assoc_reestablish__board_block_sbc.L14b
p210
aVtc_346_682_pra_cn_predefined_s1_ho_after_inter_ho_2pdns_in_in_and_out2in.L14b
p211
aVtc_194_100_check_gauge_unstable_not_parked.L14b
p212
aVtc_194_187_hss_reset_after_large_restart_with_full_imsi.L14b
p213
aVtc_17_69_intra_rau_with_pdp_context_collision_by_intruder_rau.G14b
p214
aVtc_23_09_transfer_to_primary_and_change_vip_addr.LW
p215
aVtc_327_037_recovery_intra_TAU_active_off_sgw_unchanged__RAR_wf_CSR_due_to_S11_linkdown.LW
p216
aVtc_263_321_Attach_Flow__Attach_Request_Different_IEs_IP_OK_while__waiting_for_combined_attach_response.LW
p217
aVtc_241_431_intra_rau_with_bearer_sgw_unchange_2_pdns_with_one_modify_no_response.LW
p218
aVtc_241_500_israu_new_gn_to_s4_pdp_to_bearer_one_pdp_conversational_mbr_0.LW
p219
aVtc_220_403_csfb_to_1xrtt_in_ecm_connected_path_switch_request_HO_success.LW
p220
aVtc_256_176_mme_eps_srvcc_ho_source_cs_only_ue_release_request_wf_srvcc_ps_to_cs_complete_notification.LW
p221
aVtc_324_131_af_service_request_data_isd_timeout_3gdt.W14b
p222
aVtc_298_705_pgw_init_modification_ef_ms_deact_req_tdi_false_ti_dedicated_wf_rab_assignment_response.W14b
p223
aVtc_248_122_inter_l_to_w_new_detach_request_direct_transfer_received_wf_forward_relocation_complete_ack.W14b
p224
aVtc_26_002_activate_primary_Qos_subscribed_higher_then_nodeprop.W14b
p225
aVtc_38_226_israu_new_sgsn_one_ipv6_pdp_type_system_property_not_support.W14b
p226
aVtc_304_121_initial_ue_intra_tau_control_mode_threshold_exceeded_usc_detach_wf_release_request_response.LWG
p227
aVtc_297_407_move_at_periodic_rau.LWG
p228
aVtc_298_424_ms_init_deact_ef_delicated_non_gbr_bearer_deact_interfered_by_rab_release_request.LWG
p229
aVtc_178_164_modify_ss7_m3ua_remote_sp_aspid.LWG
p230
aVtc_179_318_Ccheck_TraceCollectionIpv6server.LWG
p231
aVtc_243_753_tau_from_sgsn_s3_change_sgw_emergency_type_a_not_allowed_in_csg.LWG
p232
aVtc_73_41_gtpu_sgsn_dont_send_gpu_echo_request_w.LWG
p233
aVtc_238_162_mme_eps_irat_Gn_ho_target__Relocation_cancel_when_wf_handover_notify.LWG
p234
aVtc_208_43_interception_after_small_restart.LWG
p235
aVtc_241_801_israu_interfering_context_request_no_cancel_location_s4.LWG
p236
aVtc_23_09_transfer_to_primary_and_change_vip_addr.LWG
p237
aVtc_103_701_MME_restarts.LWG
p238
aVtc_250_105_ignore_IDR_when_EPS_sub_downgrade_GPRS_sub.LWG
p239
aVtc_250_67_s6d_activation_with_EPS_data_s4_license_off.LWG
p240
aVtc_244_055_mt_lr_cancel_location_with_update_procedure_received_wf_location_report.LWG
p241
aVtc_209_212_s4_no_sm_events_start_of_interception_pdp_active.LWG
p242
aVtc_77_5_attach_activate2_g_crash.LWG
p243
aVtc_199_84_echo_ping.LWG
p244
aVtc_275_073_tau_inter_new_no_update_location_response_sgsn00040258.LWG
p245
aVtc_247_73_inter_w_to_l_old_3gdt_forward_relocation_complete_notify_timeout_s6d.LWG
p246
aVtc_43_101__removal_of_disconnected_eNodeBs__CLI_removal.LWG
p247
aVtc_205_71_01_ss7_SCCP_CR_DT1_RLSD.LWG
p248
aVtc_342_066_x2_attach_detach_imsi_msisdn.LWG
p249
aVtc_225_616_exp_flow_handover_required_intra_while_wf_modification_context_response.LWG
p250
aVtc_282_105_deactivate_bearer_no_response_from_ue.LW
p251
aVtc_220_025_csfb_to_1xrtt_ue_suspended_hss_reset.LW
p252
aVtc_202_17_service_request_during_release_access_bearers.LW
p253
aVtc_202_01_ecm_connected_s1_release.LW
p254
aVtc_11_056_activate_context_without_apn_no_defaultApn.LW
p255
aVtc_298_301_EF_SIBD_S4_Activate_From_MS_TI_Flag.LW
p256
aVtc_298_424_ms_init_deact_ef_delicated_non_gbr_bearer_deact_interfered_by_rab_release_request.LW
p257
aVtc_103_1101_resending_AIR_interfering_CLR.LW
p258
aVtc_101_002_multiple_mbms_session.LW
p259
aVtc_31_054_standalone_dsd_no_relevant_data.W14b
p260
aVtc_359_060_handover_from_non3gpp_ef_activate_pdp_context_request_with_handover.W14b
p261
aVtc_334_291_service_req_relocation_activate_pdp_context_when_wf_create_session_resp.W14b
p262
aVtc_248_122_inter_l_to_w_new_detach_request_direct_transfer_received_wf_forward_relocation_complete_ack.W14b
p263
aVtc_231_700_activation_apn_redirection_license_off_wrong_apn_eps_sub.W14b
p264
aVtc_322_161_smooth_move_ef_nas_after_paging_response_ignore.WG14a
p265
aVtc_578_33_check_ebm_para_statistics_enb_sn.LWG
p266
aVtc_578_32_check_ebm_para_statistics_ue_return_duration.LWG
p267
aVtc_208_43_interception_after_small_restart.LWG
p268
aVtc_283_041_GW_Deactivate_Bearer__Default_bearer_Delete_Interrupt_Dedicated_Bearer_Delete_NotLastPdn_wf_ics_resp.LWG
p269
aVtc_59_9_mtmsi_restart_counter.LWG
p270
aVtc_298_073_s4_nrspca_activate_same_nsapi_of_dedicated_bearer_rab_released.LWG
p271
aVtc_238_162_mme_eps_irat_Gn_ho_target__Relocation_cancel_when_wf_handover_notify.LWG
p272
aVtc_316_201_IMSI_Attach__Backup_UE.LWG
p273
aVtc_183_005_itc_folder_file_names.LWG
p274
aVtc_241_201_s4_sgsn_pool_ms_move_target_sgsn_mf.LWG
p275
aVtc_284_301_two_create_bearer_in_parallel.LWG
p276
aVtc_251_62_l_to_w_to_l_with_cl_type_updateProcedure.LWG
p277
aVtc_23_09_transfer_to_primary_and_change_vip_addr.LWG
p278
aVtc_202_18_downlink_data_after_s1_release.LWG
p279
aVtc_51_037_reloc_wf_reloc_comp_interrupted_by_power_off_detach_on_source_iu.LWG
p280
aVtc_259_50_isd_tads_s4_w_pmmidle_attach_and_detached.LWG
p281
aVtc_259_106_ef_tads_s4_interfere_inter_rau_old_w.LWG
p282
aVtc_194_506_Notification_during_Intra_MME_TAU_without_SGW_Relocation_Procedure.LWG
p283
aVtc_327_311_recovery_service_request__uplink_Attach_Request_while_waiting_for_Location_Update_Response.L14b
p284
aVtc_326_251_Intra_TAU_with_unknown_GUTI_with_active_flag_then_s1_Intra_HO.L14b
p285
aVtc_194_187_hss_reset_after_large_restart_with_full_imsi.L14b
p286
aVtc_266_026_DownlinkDataFailureInd_repeat_paging_timer_small_local_restart.L14b
p287
aVtc_329_055_attach_rs_restricted_unknown_guti.L14b
p288
aVtc_214_028_combined_attach_interfering_s1_reset.L14b
p289
aVtc_214_052_rau_to_sgsn_sms.L14b
p290
aVtc_304_117_initial_ue_intra_tau_control_mode_threshold_exceeded_usc_detach_intruder_wf_release_request_response.L14b
p291
aVtc_103_1101_resending_AIR_interfering_CLR.L14b
p292
aVtc_346_449_AF__Intra_TAU_CCA_Update_unknown_session_id_5002.L14b
p293
aVtc_324_084_af_sec_modify_bearer_response_with_s4_interface_3gdt.W14b
p294
aVtc_321_040_s4_logging_sgsn_initate_echo_request.W14b
p295
aVtc_236_254_IRAT_HO_for_S4_over_S3_target_DtSelMode_5_APN_not_in_APN_list_TAC_in_TAC_list.W14b
p296
aVtc_274_274_Intra_and_pTAU__Handover_Required_with_old_TA_MSC_change_while_waiting_for_Location_Update_response_TAU_IMSI_Detach.L14b
p297
aVtc_199_87_W_attach_S4_echo_N3_times_response_no_alarm.L14b
p298
aVtc_199_89_G_attach_S4_echo_N3_times_response_no_alarm.L14b
p299
aVtc_199_88_W_attach_S4_echo_alarm.L14b
p300
aVtc_346_682_pra_cn_predefined_s1_ho_after_inter_ho_2pdns_in_in_and_out2in.L14b
p301
aVtc_266_026_DownlinkDataFailureInd_repeat_paging_timer_small_local_restart.L14b
p302
aVtc_195_417_ue_trace_deactivate_trace_s1_intra_system_handover_triggered_HO_ongoing_timeout.L14b
p303
aVtc_208_43_interception_after_small_restart.G14b
p304
aVtc_297_407_move_at_periodic_rau.G14b
p305
aVtc_28_002_mo_sms_service_request.LW
p306
aVtc_199_89_G_attach_S4_echo_N3_times_response_no_alarm.LW
p307
aVtc_202_102_small_restart.LW
p308
aVtc_241_201_s4_sgsn_pool_ms_move_target_sgsn_mf.LW
p309
aVtc_73_21_itc_gtpu_s4_sgsn_send_echo_request_w.LWG
p310
aVtc_666_03_block_ss7_board.LWG
p311
aVtc_342_864_online_change_LI_U.LWG
p312
aVtc_195_554_mme_logging_eps_handover_target_over_gn_inter_relocation_cancel_Request_received.LWG
p313
aVtc_311_204_intra_srns_reloc_s4_sgw_change_wf_reloc_req_ack_interrupted_by_cancel_loc_subscrip_withdrawn.LWG
p314
aVtc_259_112_ef_s6d_tads_interfere_inter_rau_old_g.LWG
p315
aVtc_225_408_mt_call_idle_mode_cs_and_ps_paging_no_response.LWG
p316
aVtc_362_241_RAU_LtoG_Combined_Node__Delete_UE_Backup.LWG
p317
aVtc_241_801_israu_interfering_context_request_no_cancel_location_s4.LWG
p318
aVtc_275_073_tau_inter_new_no_update_location_response_sgsn00040258.LWG
p319
aVtc_256_135_mme_eps_srvcc_ho_source_cs_only_initial_ue_detach_request_wf_srvcc_ps_to_cs_complete_notification.LWG
p320
aVtc_256_367_srvcc_ho_source_cs_only_gsm_2_msc_available.LWG
p321
aVtc_214_1126_la_selection_mf_oldlapreferred_combined_intra_tau_after_imsi_detach_triggered_by_sgs_paging.LWG
p322
aVtc_214_049_combined_tau_inter_new_interfering_s1_reset.LWG
p323
aVtc_327_152_recovery_intra_TAU_Create_Bearer_Request_while_waiting_for_Update_Location_Answer.LWG
p324
aVtc_250_67_s6d_activation_with_EPS_data_s4_license_off.LWG
p325
aVtc_95_3_load_lkf.LWG
p326
aVtc_225_315_mt_call_active_mode_nas_non_delivery__cs_service_notification_meanwhile_handover_required.L14b
p327
aVtc_266_011_DownlinkDataNotification_interfering_ISD_sgsn00026976.L14b
p328
aVtc_318_158_sgw_restart_af_relocation_triggered_by_intra_tau_procedure_fail.L14b
p329
aVtc_276_402_tau_inter_new_MBR_timeout__SGSN_Context_Request_wf_UE_Context_Release_Complete.L14b
p330
aVtc_346_683_pra_cn_predefined_x2_ho_after_isc_tau_2pdns_out2in_and_out_out.L14b
p331
aVtc_578_33_check_ebm_para_statistics_enb_sn.L14b
p332
aVtc_194_505_Notification_during_Intra_TAU_without_SGW_Relocation_HSS_Reset_Before_TAU.L14b
p333
aVtc_199_87_W_attach_S4_echo_N3_times_response_no_alarm.L14b
p334
aVtc_199_88_W_attach_S4_echo_alarm.L14b
p335
aVtc_199_89_G_attach_S4_echo_N3_times_response_no_alarm.L14b
p336
aVtc_217_078_rau_to_sgsn_handover_request_when_wf_sgsn_context_ack.L14b
p337
aVtc_327_312_recovery_service_request__initial_Attach_Request_while_waiting_for_Ue_Backup_Response.L14b
p338
aVtc_202_465_af_seamless_move_source_unsuccessful_no_FRCN_multi_PDNConnection.L14b
p339
aVtc_275_730_inter_tau_target_detach_with_cause_of_reattach_not_required_with_not_allowed_apn_in_odb_free_apn_list__odb_bit0.L14b
p340
aVtc_44_301_sctp_counter_MessageSent_Received.L14b
p341
aVtc_44_850_mme_assoc_reestablish__board_restart_s1_mme.L14b
p342
aVtc_44_871_mme_assoc_reestablish__board_block_sbc.L14b
p343
aVtc_195_537_mme_logging_tau_inter_old_s10_s3_the_same_address.L14b
p344
aVtc_203_441_mme_eps_handover_source_inter_mf_enb_support_forwarding.L14b
p345
aVtc_205_71_01_ss7_SCCP_CR_DT1_RLSD.LWG
p346
aVtc_103_1101_resending_AIR_interfering_CLR.LWG
p347
aVtc_103_905_proxy_node_s6a_s13.LWG
p348
aVtc_12_512_pmm_undefined_attach_when_updating_location_interfered_by_rnc_reset.LWG
p349
aVtc_244_049_mt_lr_cancel_location_with_subscription_withdraw_received_wf_location_report.LWG
p350
aVtc_311_24_intra_srns_reloc_s4_with_sgw_change_with_11_pdns.LWG
p351
aVtc_342_864_online_change_LI_U.LWG
p352
aVtc_216_104_icmpv6_outTimeExcds.LWG
p353
aVtc_259_150_ef_s6d_tads_interfere_israu_new_wf_rau_iu_releasing.LWG
p354
aVtc_183_005_itc_folder_file_names.LWG
p355
aVtc_183_011_itc_trace_file_wrap.LWG
p356
aVtc_236_071_hard_ho_intra_rau_with_3gdt_bearer_sgw_change_without_seq.LWG
p357
aVtc_179_318_Ccheck_TraceCollectionIpv6server.LWG
p358
aVtc_100_83_intra_w_to_g_old_EF4_relocation_cancel_radio_connection_lost.LWG
p359
aVtc_309_124_heartbeat_notification.LWG
p360
aVtc_220_420_csfb_to_1xrtt_ue_return_with_service_request_SGW_unavailable.LWG
p361
aVtc_362_241_RAU_LtoG_Combined_Node__Delete_UE_Backup.LWG
p362
aVtc_238_026_mme_eps_irat_ho_target__multi_pdn_sgw_relocation_setup_fails.LWG
p363
aVtc_324_131_af_service_request_data_isd_timeout_3gdt.LWG
p364
aVtc_194_506_Notification_during_Intra_MME_TAU_without_SGW_Relocation_Procedure.LWG
p365
aVtc_194_505_Notification_during_Intra_TAU_without_SGW_Relocation_HSS_Reset_Before_TAU.LWG
p366
aVtc_341_510_x2_activity_event_attach_detach_imsi.LWG
p367
aVtc_341_691_x2_activity_event_guti_reallocation_during_ue_restoration.LWG
p368
aVtc_275_118_tau_inter_new_emergency_erroneous_ie_authenticated_no_imsi.LWG
p369
aVtc_298_820_activate_secondary_pdp_context_request_with_NSAPI_exist_dedicate_bearer_idle_state.LWG
p370
aVtc_268_081_Timer_Based_GBR_Deact__receive_DDN_contain_default_bearer_receive_interfering_DBR_UBR.LWG
p371
aVtc_225_315_mt_call_active_mode_nas_non_delivery__cs_service_notification_meanwhile_handover_required.LWG
p372
aVtc_297_407_move_at_periodic_rau.G14b
p373
aVtc_324_225_ef_detach_request_abort_wf_rab_assignment_response_wf_update_location_hss_service_req_data.WG14a
p374
aVtc_322_173_smooth_move_ef_cli_s6d_delete_subscriber_data_wf_ptmsi_relocation_complete.WG14a
p375
aVtc_298_440_ms_init_deact_ef_default_bearer_deact_with_rab_interfered_by_dedicate_bearer_deact_request.W14b
p376
aVtc_311_257_intra_srns_reloc_s4_wf_rau_compl_interrupted_by_new_attach_with_invalid_ptmsi_signature.W14b
p377
aVtc_11_433_ggsn_initiated_deactivation_interfered_by_rab_release_request.W14b
p378
aVtc_26_024_modification_interrupted_by_insert_subscriber_data_II.W14b
p379
aVtc_313_281_inter_new_srns_reloc_s16_with_sgw_change_downlink_data_notification_with_cause_received_wf_rau_complete.W14b
p380
aVtc_204_426_mme_eps_ho_target_type_b_mmtel_off.LW
p381
aVtc_304_020_intruder_imsi_attach_when_correct_ue_attaching__control_mode_threshold_exceeded_usc_reject_congestion.LW
p382
aVtc_78_058_intra_rau_intra_plmn_forced_csps_coord_accept_foreign_ms.LW
p383
aVtc_341_691_x2_activity_event_guti_reallocation_during_ue_restoration.LW
p384
aVtc_199_89_G_attach_S4_echo_N3_times_response_no_alarm.LW
p385
aVtc_202_42_type_c_emergency_pdn_ecm_idle.LW
p386
aVtc_202_431_mf_seamless_move_target_service_request_modifyBearerReq_onePdnMultiBearer_oneBearerFail.LW
p387
aVtc_44_071_attach_long_imsi.LW
p388
aVtc_326_622_S6a_Throttling_Service_Request_recovery_UL_successful_and_Emergency_Attach_not_throttled.LW
p389
aVtc_160_008_reset_rnc_initiated_sr.LW
p390
aVtc_231_113_rnc_reset_during_ms_act_si_ms_deact_rnc_contact.LW
p391
aVtc_332_053_3_mf__paging_due_to_cdma2000_signaling_during_paging_due_to_UBR_latest_with_prio.LW
p392
aVtc_23_13_israu_out.LW
p393
aVtc_38_80_intra_rau_new_rnc_with_authentication_wrong_ptmsi_signature.LW
p394
a.