(lp0
Vtc_324_069_af_modify_bearer_dedicated_bearer_fail.WG14a
p1
aVtc_241_710_intra_rau_dedicate_bearer_update_failed_and_pgw_delete_bearer_after_rau.W14b
p2
aVtc_31_069_attach_ul_fails_congestion_in_gss.W14b
p3
aVtc_26_077_israu_invalid_qos_neg.W14b
p4
aVtc_321_040_s4_logging_sgsn_initate_echo_request.W14b
p5
aVtc_327_037_recovery_intra_TAU_active_off_sgw_unchanged__RAR_wf_CSR_due_to_S11_linkdown.L14b
p6
aVtc_327_322_recovery_service_request__initial_Imsi_Attach_Request_while_waiting_for_Ue_Backup_Response.L14b
p7
aVtc_103_831_DPR_cause_BUSY.L14b
p8
aVtc_44_004_small_restart__sctp_fe_restart.L14b
p9
aVtc_304_102_emergency_intra_tau_success__control_mode_threshold_exceeded.L14b
p10
aVtc_266_026_DownlinkDataFailureInd_repeat_paging_timer_small_local_restart.L14b
p11
aVtc_238_271_mme_eps_irat_ho_s3_tac_based_roaming_restriction_table_matched_blacklist_exemptedlist.L14b
p12
aVtc_310_310_S3_new_SGW_emergency_attach_sv_pool_on_msc_one_offloading_one_available.L14b
p13
aVtc_202_41_type_a_emergency_pdn_ecm_idle.L14b
p14
aVtc_346_301_Combination__PGW_Selection_UserLocationChange.L14b
p15
aVtc_346_445_AF__Intra_TAU_CCA_Update_timeout.L14b
p16
aVtc_346_683_pra_cn_predefined_x2_ho_after_isc_tau_2pdns_out2in_and_out_out.L14b
p17
aVtc_199_87_W_attach_S4_echo_N3_times_response_no_alarm.L14b
p18
aVtc_199_88_W_attach_S4_echo_alarm.L14b
p19
aVtc_199_89_G_attach_S4_echo_N3_times_response_no_alarm.L14b
p20
aVtc_203_005_mme_eps_handover_source_inter__forw_rel_resp_not_accepted.L14b
p21
aVtc_43_101__removal_of_disconnected_eNodeBs__CLI_removal.L14b
p22
aVtc_194_506_Notification_during_Intra_MME_TAU_without_SGW_Relocation_Procedure.L14b
p23
aVtc_199_89_G_attach_S4_echo_N3_times_response_no_alarm.LW
p24
aVtc_275_073_tau_inter_new_no_update_location_response_sgsn00040258.LW
p25
aVtc_103_1101_resending_AIR_interfering_CLR.LW
p26
aVtc_326_210_Intra_TAU_combined_after_large_restart_after_EPS_attach.LW
p27
aVtc_12_134_attach_with_extended_mmumoc_iu_inactivity_timer.LW
p28
aVtc_196_300_nrspca_iu_satellite_hpa_on_with_arp1_mf_paging_1st_try_success.LW
p29
aVtc_23_13_israu_out.LW
p30
aVtc_274_441_Intra_TAU_Detach_Request_while_waiting_for_Create_Session_Response_2PDNs_partially_failure_sgw_unavailable.LW
p31
aVtc_256_382_Sv_Path_Mgt__available_MSC_disable_Sv.LWG
p32
aVtc_241_301_israu_new_create_session_failed_and_paging_timeout.LWG
p33
aVtc_236_039_s4_3gdt_detach_during_waiting_for_modify_bearer_rsp_in_active_procedure.LWG
p34
aVtc_30_031_payload_ul_fails_plmn_not_allowed.LWG
p35
aVtc_183_005_itc_folder_file_names.LWG
p36
aVtc_248_140_inter_l_to_w_new_iu_release_request_none_user_inactivity_received_wf_relocation_complete.LWG
p37
aVtc_284_350_pdn_connectivity_interrupted_by_path_switch_request.LWG
p38
aVtc_208_43_interception_after_small_restart.LWG
p39
aVtc_326_428_Inter_TAU_Recovery_Fail__Modify_Bearer_Fail.LWG
p40
aVtc_221_120_Downlink_Data_Notification_1_EBI_known_QCI_higher_than_9.LWG
p41
aVtc_103_1106_fallback_to_imsins_resend_success.LWG
p42
aVtc_103_901_load_sharing_realm_routing_remote_realm.LWG
p43
aVtc_103_1105_attach_no_diameter_peer_available.LWG
p44
aVtc_179_318_Ccheck_TraceCollectionIpv6server.LWG
p45
aVtc_259_52_isd_tads_s4_w_pmmidle_inter_rau_l_to_w.LWG
p46
aVtc_220_593_csfb_to_1xrtt_context_request_during_extended_service_request.LWG
p47
aVtc_52_07_inter_old_relocation_cancel.LWG
p48
aVtc_59_12_sequence_on_demand_indexbased_replica_values_during_takeover.LWG
p49
aVtc_39_601_mas_unsucc_fwd_reloc_resp_mandatory_ie_missing_stop_source.LWG
p50
aVtc_340_124_oms_consistence_check_for_action_pool_move_validation_start.LWG
p51
aVtc_232_403_bfd__ipv4ipv6_alarm.LWG
p52
aVtc_316_215_Service_Request_With_Dedicated_Bearers_Partial_Success__Backup_UE.LWG
p53
aVtc_306_1200_ef_seamless_move_target_receive_hss_reset.LWG
p54
aVtc_263_320_Attach_Flow__Attach_Request_Different_IEs_IP_OK_while_waiting_for_Update_Location_Answer.LWG
p55
aVtc_208_43_interception_after_small_restart.LWG
p56
aVtc_275_073_tau_inter_new_no_update_location_response_sgsn00040258.LWG
p57
aVtc_178_830_action_ss7_sys_tclear.LWG
p58
aVtc_166_318_sgsn_default_do3gdt_feature_on_redirection_do_2T.LWG
p59
aVtc_334_251_path_failure_service_req_connected_mf.LWG
p60
aVtc_319_067_ho_af_table_not_matched_from_s4_sgsn_to_mme_no_csr_response.LWG
p61
aVtc_183_005_itc_folder_file_names.LWG
p62
aVtc_236_307_Activation_DtSelMode_5_APN_requested_wrong_SGSN_default_APN_in_APN_list_TAC_in_TAC_list.LWG
p63
aVtc_318_267_sgw_restart_af_relocation_triggered_by_DDN_emergency_PDN.LWG
p64
aVtc_202_40_emergency_pdn_ecm_connected.LWG
p65
aVtc_578_32_check_ebm_para_statistics_ue_return_duration.LWG
p66
aVtc_179_318_Ccheck_TraceCollectionIpv6server.LWG
p67
aVtc_314_110_hss_init_qos_modification_apn_ambr_interrupt_by_reset.LWG
p68
aVtc_59_9_mtmsi_restart_counter.LWG
p69
aVtc_250_12_hss_reset_many_subscribers.LWG
p70
aVtc_225_102_service_reject_sgs_null_active_mode.LWG
p71
aVtc_225_620_mt_call_idle_delete_bearer_request_wf_extended_service_request.LWG
p72
aVtc_337_006_target_not_support_in_w_stop_job_for_lw.LWG
p73
aVtc_244_054_mt_lr_LPPa_transport_LR_and_COI_received_wf_location_report.LWG
p74
aVtc_298_702_pgw_init_modification_ef_ms_deact_req_tdi_false_ti_default_wf_modify_accept.LWG
p75
aVtc_304_328_PDN_connectivity__control_mode_threshold_exceeded_action_reject_during_service_req.LWG
p76
aVtc_12_182_wcdma_repeat_paging_with_old_ptmsi.W14b
p77
aVtc_359_069_handover_from_non3gpp_ef_APN_remove_wf_create_session_resp.W14b
p78
aVtc_322_161_smooth_move_ef_nas_after_paging_response_ignore.W14b
p79
aVtc_324_373_ef_cancel_location_with_subscriptionWithdraw_wf_modify_bearer_response_wf_ula.W14b
p80
aVtc_26_082_israu_qos_neg_preserved.W14b
p81
aVtc_321_040_s4_logging_sgsn_initate_echo_request.W14b
p82
aVtc_282_131_deactivate_default_bearer.L14b
p83
aVtc_266_011_DownlinkDataNotification_interfering_ISD_sgsn00026976.L14b
p84
aVtc_199_87_W_attach_S4_echo_N3_times_response_no_alarm.L14b
p85
aVtc_199_88_W_attach_S4_echo_alarm.L14b
p86
aVtc_199_89_G_attach_S4_echo_N3_times_response_no_alarm.L14b
p87
aVtc_202_41_type_a_emergency_pdn_ecm_idle.L14b
p88
aVtc_346_683_pra_cn_predefined_x2_ho_after_isc_tau_2pdns_out2in_and_out_out.L14b
p89
aVtc_276_402_tau_inter_new_MBR_timeout__SGSN_Context_Request_wf_UE_Context_Release_Complete.L14b
p90
aVtc_295_124_tau_after_ho_tz_change_emm_information_meanwhile_handover_required_HO_success.L14b
p91
aVtc_341_691_x2_activity_event_guti_reallocation_during_ue_restoration.L14b
p92
aVtc_304_431_Service_Request_UE_Initiated__control_mode_threshold_exceeded_explicit_detach_connected_mode.L14b
p93
aVtc_298_783_S4_3GDT_downlink_data_notification_wait_MBR_ef_detach.LW
p94
aVtc_280_107_activate_dedicated_ue_does_not_now_lbi.LW
p95
aVtc_284_350_pdn_connectivity_interrupted_by_path_switch_request.LW
p96
aVtc_347_237_GW_Dedicated_Bearer_Deactivate__Location_Report_while_waiting_for_Deactiavte_EPS_Bearer_Context_Accept.LW
p97
aVtc_241_159_israu_old_wait_for_sgsn_context_ack_interfere_by_reset_and_detach.LW
p98
aVtc_199_89_G_attach_S4_echo_N3_times_response_no_alarm.LW
p99
aVtc_248_303_inter_l_to_w_new_ms_connected_handover_from_mme.LW
p100
aVtc_23_09_transfer_to_primary_and_change_vip_addr.LW
p101
aVtc_275_073_tau_inter_new_no_update_location_response_sgsn00040258.LW
p102
aVtc_290_089_Timer_Based_GBR_Deact__insert_subscription_data_wf_delete_bearer_request_after_timer_expires.LW
p103
aVtc_273_085_tau_intra_normal_connected_active_one_default_bearer_status_inactive.LW
p104
aVtc_274_441_Intra_TAU_Detach_Request_while_waiting_for_Create_Session_Response_2PDNs_partially_failure_sgw_unavailable.LW
p105
aVtc_231_281_activate_pdp_request_ignore_during_s4_pdp_deactivating.LW
p106
aVtc_26_154_activate_secondary_pdp_with_upgradeNotAllowed.W14b
p107
aVtc_324_225_ef_detach_request_abort_wf_rab_assignment_response_wf_update_location_hss_service_req_data.W14b
p108
aVtc_38_80_intra_rau_new_rnc_with_authentication_wrong_ptmsi_signature.W14b
p109
aVtc_321_091_mt_sms_mf.W14b
p110
aVtc_298_691_S4_3GDT_Service_request_wait_Rab_Assignment_ef_delete_bearer_request.W14b
p111
aVtc_297_407_move_at_periodic_rau.G14b
p112
aVtc_210_100_pdn_connectivity_erab_setup_failure_response_from_enodeb.LW
p113
aVtc_316_203_IMSI_Attach_Emergency_Authentication_Fail__Backup_UE.LW
p114
aVtc_262_1055_imsi_attach_with_csg_id_is_rejected.LW
p115
aVtc_196_155_nrspca_ongoing_when_ms_initiated_detach.LW
p116
aVtc_314_001_hss_init_qos_modification_apn_ambr_higher_than_policymap.LW
p117
aVtc_219_131_s3_handover_w_to_l_with_cl_two_pdns_one_failed_sgw_relocation.LW
p118
aVtc_199_89_G_attach_S4_echo_N3_times_response_no_alarm.LW
p119
aVtc_327_559_Recovery_for_DDN__Cancel_Location_Initial_Attach_while_waiting_for_Paging_Response.LW
p120
aVtc_194_105_attach_ul_fails_all_3gpp_access_restricted.LW
p121
aVtc_298_424_ms_init_deact_ef_delicated_non_gbr_bearer_deact_interfered_by_rab_release_request.LW
p122
aVtc_44_004_small_restart__sctp_fe_restart.LW
p123
aVtc_326_234_Intra_TAU_Recovery_fail_Modify_Bearer_fail_without_active_flag.LW
p124
aVtc_329_003_attach_rs_allowed_emergency_plmn_change_ula_fails.L14b
p125
aVtc_304_236_isc_active_flag_on_control_mode_threshold_exceeded_ignore_replace_s1_wf_initial_context_setup_response.L14b
p126
aVtc_326_283_Intra_TAU_with_unknown_GUTI_SGW_unavailable_Create_Session_failure.L14b
p127
aVtc_195_532_mme_logging_ue_unrechable.L14b
p128
aVtc_346_682_pra_cn_predefined_s1_ho_after_inter_ho_2pdns_in_in_and_out2in.L14b
p129
aVtc_346_683_pra_cn_predefined_x2_ho_after_isc_tau_2pdns_out2in_and_out_out.L14b
p130
aVtc_199_87_W_attach_S4_echo_N3_times_response_no_alarm.L14b
p131
aVtc_199_89_G_attach_S4_echo_N3_times_response_no_alarm.L14b
p132
aVtc_199_88_W_attach_S4_echo_alarm.L14b
p133
aVtc_103_1101_resending_AIR_interfering_CLR.L14b
p134
aVtc_202_02_ecm_idle_s1_release.LWG
p135
aVtc_319_073_path_management_configured_timer_expired.LWG
p136
aVtc_204_1110_mme_eps_handover_target_SGW_unavailable.LWG
p137
aVtc_259_83_isd_tads_s4_gsm_act_deact_pdp_context.LWG
p138
aVtc_304_117_initial_ue_intra_tau_control_mode_threshold_exceeded_usc_detach_intruder_wf_release_request_response.LWG
p139
aVtc_220_044_csfb_to_1xrtt_in_ecm_connected_s1_reset_release_access_beareres_response_with_request_rejected.LWG
p140
aVtc_346_493_Small_Local_Restart__Terminate_when_UE_S1_release.LWG
p141
aVtc_39_601_mas_unsucc_fwd_reloc_resp_mandatory_ie_missing_stop_source.LWG
p142
aVtc_196_152_nrspca_ongoing_when_inter_w_to_g_old.LWG
p143
aVtc_284_047_emergency_pdn_connectivity.LWG
p144
aVtc_23_09_transfer_to_primary_and_change_vip_addr.LWG
p145
aVtc_166_428_rnc_initiated_rab_release_interfered_by_rnc_initiated_iu_release_request.LWG
p146
aVtc_327_037_recovery_intra_TAU_active_off_sgw_unchanged__RAR_wf_CSR_due_to_S11_linkdown.LWG
p147
aVtc_327_254_recovery_service_request_MBR_timeout__Extended_Service_Request_wf_Guti_Reallocation_Complete.LWG
p148
aVtc_327_610_Inter_TAU_SGW_Changed_then_Intra_TAU_while_waiting_for_20s_timeout.LWG
p149
aVtc_103_860_ue_trace_retransmit.L14b
p150
aVtc_262_1031_emergency_imsi_attach_multiple_pgw_try_next_pgw_fqdn_error.L14b
p151
aVtc_346_683_pra_cn_predefined_x2_ho_after_isc_tau_2pdns_out2in_and_out_out.L14b
p152
aVtc_199_87_W_attach_S4_echo_N3_times_response_no_alarm.L14b
p153
aVtc_199_88_W_attach_S4_echo_alarm.L14b
p154
aVtc_199_89_G_attach_S4_echo_N3_times_response_no_alarm.L14b
p155
aVtc_195_417_ue_trace_deactivate_trace_s1_intra_system_handover_triggered_HO_ongoing_timeout.L14b
p156
aVtc_273_614_tau_intra_periodic_SGW_unavailable__create_session_partition_fail.L14b
p157
aVtc_341_691_x2_activity_event_guti_reallocation_during_ue_restoration.L14b
p158
aVtc_335_142_Geo_Recovery_upon_Inter_TAU.L14b
p159
aVtc_294_411_mme_handle_eps_handover_SGW_unavailable_with_ta_change.L14b
p160
aVtc_73_18_itc_gtpu_s4_sgw_send_error_indication_w.WG14a
p161
aVtc_73_21_itc_gtpu_s4_sgsn_send_echo_request_w.WG14a
p162
aVtc_226_007_W__USC_SMS_ControlMode_On.WG14a
p163
aVtc_232_403_bfd__ipv4ipv6_alarm.LWG
p164
aVtc_103_800_device_watchdog_request_to_SGSN_MME.LWG
p165
aVtc_103_903_primary_or_secondary_realm_routing_own_realm.LWG
p166
aVtc_214_1126_la_selection_mf_oldlapreferred_combined_intra_tau_after_imsi_detach_triggered_by_sgs_paging.LWG
p167
aVtc_259_53_isd_s4_umts_pmmidl_act_deact_service_req.LWG
p168
aVtc_209_153_ul_payload_msisdn_imsi_imei.LWG
p169
aVtc_56_10_cm_restart_during_SR.LWG
p170
aVtc_208_43_interception_after_small_restart.LWG
p171
aVtc_241_801_israu_interfering_context_request_no_cancel_location_s4.LWG
p172
aVtc_73_18_itc_gtpu_s4_sgw_send_error_indication_w.LWG
p173
aVtc_73_21_itc_gtpu_s4_sgsn_send_echo_request_w.LWG
p174
aVtc_578_02_check_parse_ebm_and_ci_eci_l.LWG
p175
aVtc_578_33_check_ebm_para_statistics_enb_sn.LWG
p176
aVtc_337_005_validation_move_manually_stopped_between_two_pool_moves_smooth_move.LWG
p177
aVtc_327_037_recovery_intra_TAU_active_off_sgw_unchanged__RAR_wf_CSR_due_to_S11_linkdown.LWG
p178
aVtc_297_407_move_at_periodic_rau.LWG
p179
aVtc_59_9_mtmsi_restart_counter.LWG
p180
aVtc_282_020_delete_bearer_request_handover_to_non_3GPP_ecm_connected_multi_pdn.LW
p181
aVtc_347_236_GW_Dedicated_Bearer_Deactivate__Location_Report_while_waiting_for_eRAB_Release_Response.LW
p182
aVtc_44_004_small_restart__sctp_fe_restart.LW
p183
aVtc_250_105_ignore_IDR_when_EPS_sub_downgrade_GPRS_sub.LW
p184
aVtc_199_89_G_attach_S4_echo_N3_times_response_no_alarm.LW
p185
aVtc_262_084_emergency_imsi_attach_unauthentication_fails_in_hss.LW
p186
aVtc_262_1055_imsi_attach_with_csg_id_is_rejected.LW
p187
aVtc_82_009_ms_initiated_activation_rnc_supporting_lists.LW
p188
aVtc_298_301_EF_SIBD_S4_Activate_From_MS_TI_Flag.W14b
p189
aVtc_236_176_intra_rau_s4_3gdt_with_dedicated_bearer_paging_by_dl_notification_mf.W14b
p190
aVtc_26_089_ggsn_modify_0kbps.W14b
p191
aVtc_239_620_inter_rau_new_with_bearer_sgw_not_change_isd_odb_bit0_wf_rau_compl_deactivation.G14b
p192
aVtc_236_073_hard_ho_intra_rau_with_3gdt_bearer_sgw_nochange_without_seq.LW
p193
aVtc_219_131_s3_handover_w_to_l_with_cl_two_pdns_one_failed_sgw_relocation.LW
p194
aVtc_103_831_DPR_cause_BUSY.LW
p195
aVtc_103_1004_secondary_dpl_used_when_all_peers_in_dpl_unavailable_no_sls.LW
p196
aVtc_275_073_tau_inter_new_no_update_location_response_sgsn00040258.LW
p197
aVtc_199_89_G_attach_S4_echo_N3_times_response_no_alarm.LW
p198
aVtc_43_101__removal_of_disconnected_eNodeBs__CLI_removal.LW
p199
aVtc_208_43_interception_after_small_restart.G14b
p200
aVtc_306_098_ef_seamless_move_source_receive_erab_release_indication_wf_modify_bearer_response.LWG
p201
aVtc_179_318_Ccheck_TraceCollectionIpv6server.LWG
p202
aVtc_298_301_EF_SIBD_S4_Activate_From_MS_TI_Flag.LWG
p203
aVtc_209_201_s4_activate_failed.LWG
p204
aVtc_326_380_Service_Request_with_unknown_STMSI_multiple_retrieve_responses.LWG
p205
aVtc_578_32_check_ebm_para_statistics_ue_return_duration.LWG
p206
aVtc_216_008_icmpv6_inPacketTooBig.LWG
p207
aVtc_216_010_icmpv6_inRouterAds.LWG
p208
aVtc_337_005_validation_move_manually_stopped_between_two_pool_moves_smooth_move.LWG
p209
aVtc_73_18_itc_gtpu_s4_sgw_send_error_indication_w.LWG
p210
aVtc_73_21_itc_gtpu_s4_sgsn_send_echo_request_w.LWG
p211
aVtc_244_055_mt_lr_cancel_location_with_update_procedure_received_wf_location_report.LWG
p212
aVtc_56_4_abort.LWG
p213
aVtc_285_006_PDN_Connectivity_Pb__Delete_default_bearer_request_while_wf_modify_bearer_response.LWG
p214
aVtc_362_241_RAU_LtoG_Combined_Node__Delete_UE_Backup.LWG
p215
aVtc_215_005_ipv6_InAddrErrors.LWG
p216
aVtc_23_09_transfer_to_primary_and_change_vip_addr.LWG
p217
aVtc_241_754_intra_rau_with_multi_bearer_sgw_change_one_context_failed_node_function_deactivate_pdp_after_rau_on.LWG
p218
aVtc_241_1636_israu_new_modify_bearer_response_timeout_followed_by_ms_init_deac.LWG
p219
aVtc_241_710_intra_rau_dedicate_bearer_update_failed_and_pgw_delete_bearer_after_rau.W14b
p220
aVtc_321_040_s4_logging_sgsn_initate_echo_request.W14b
p221
aVtc_26_014_activate_primary_requested_qos_set_to_zero_subscribed_conversational.W14b
p222
aVtc_23_09_transfer_to_primary_and_change_vip_addr.W14b
p223
aVgn_wcdma_payload_no_context_ensure_stored.WG14a
p224
aVtc_73_18_itc_gtpu_s4_sgw_send_error_indication_w.WG14a
p225
aVtc_73_21_itc_gtpu_s4_sgsn_send_echo_request_w.WG14a
p226
aVtc_346_683_pra_cn_predefined_x2_ho_after_isc_tau_2pdns_out2in_and_out_out.L14b
p227
aVtc_199_87_W_attach_S4_echo_N3_times_response_no_alarm.L14b
p228
aVtc_199_89_G_attach_S4_echo_N3_times_response_no_alarm.L14b
p229
aVtc_199_88_W_attach_S4_echo_alarm.L14b
p230
aVtc_256_143_mme_eps_srvcc_ho_source_cs_only_initial_ue_extended_service_request_wf_srvcc_ps_to_cs_response.L14b
p231
aVtc_275_730_inter_tau_target_detach_with_cause_of_reattach_not_required_with_not_allowed_apn_in_odb_free_apn_list__odb_bit0.L14b
p232
aVtc_193_404_auth_vectors_answer_from_hss_with_0_vectors.L14b
p233
aVtc_324_006_mf_ser_req_signaling_after_ack_3gdt.LW
p234
aVtc_103_831_DPR_cause_BUSY.LW
p235
aVtc_43_101__removal_of_disconnected_eNodeBs__CLI_removal.LW
p236
aVtc_194_116_hss_reset_many_subscribers.LW
p237
aVtc_199_89_G_attach_S4_echo_N3_times_response_no_alarm.LW
p238
aVtc_31_091_concurrent_msd_while_ul.LW
p239
aVtc_275_073_tau_inter_new_no_update_location_response_sgsn00040258.LW
p240
aVtc_310_004_mf__S3_new_SGW_2_voice_bearers_in_different_PDNs_many_PDNs_no_emergency_PDN.LW
p241
aVtc_26_084_subscriber_data_changed_during_ISRAU.W14b
p242
aVtc_241_1601_israu_old_wf_delete_session_response_interfere_by_poweroff_detach.W14b
p243
aVtc_276_402_tau_inter_new_MBR_timeout__SGSN_Context_Request_wf_UE_Context_Release_Complete.L14b
p244
aVtc_295_136_mo_call_during_s1_ho_tau_request_when_wf_handover_notify.L14b
p245
aVtc_346_493_Small_Local_Restart__Terminate_when_UE_S1_release.L14b
p246
aVtc_346_683_pra_cn_predefined_x2_ho_after_isc_tau_2pdns_out2in_and_out_out.L14b
p247
aVtc_194_100_check_gauge_unstable_not_parked.L14b
p248
aVtc_341_691_x2_activity_event_guti_reallocation_during_ue_restoration.L14b
p249
aVtc_195_416_ue_trace_deactivate_trace_s1_intra_system_handover_triggered.L14b
p250
aVtc_199_87_W_attach_S4_echo_N3_times_response_no_alarm.L14b
p251
aVtc_199_88_W_attach_S4_echo_alarm.L14b
p252
aVtc_199_89_G_attach_S4_echo_N3_times_response_no_alarm.L14b
p253
aVtc_304_117_initial_ue_intra_tau_control_mode_threshold_exceeded_usc_detach_intruder_wf_release_request_response.L14b
p254
aVtc_304_121_initial_ue_intra_tau_control_mode_threshold_exceeded_usc_detach_wf_release_request_response.L14b
p255
aVtc_208_43_interception_after_small_restart.G14b
p256
aVtc_298_074_s4_nrspca_activate_same_nsapi_of_dedicated_bearer_apn_failed.LWG
p257
aVtc_298_137_EF_NRSPCA_S4_Create_Bearer_Request_2_PDN_10_PDP.LWG
p258
aVtc_298_424_ms_init_deact_ef_delicated_non_gbr_bearer_deact_interfered_by_rab_release_request.LWG
p259
aVtc_211_014_streamed_cell_trace_mapping_alarm.LWG
p260
aVtc_221_41_paging_in_connected_mode.LWG
p261
aVtc_232_401_bfd__ipv4_alarm.LWG
p262
aVtc_73_18_itc_gtpu_s4_sgw_send_error_indication_w.LWG
p263
aVtc_73_21_itc_gtpu_s4_sgsn_send_echo_request_w.LWG
p264
aVtc_312_226_inter_old_srns_reloc_wf_fwd_reloc_compl_interrupted_by_iu_release.LWG
p265
aVtc_11_187_subscriber_modified_during_activation_qos_changed.LWG
p266
aVtc_342_864_online_change_LI_U.LWG
p267
aVtc_324_137_af_service_request_data_only_utran_not_allowed_3gdt.LWG
p268
aVtc_241_801_israu_interfering_context_request_no_cancel_location_s4.LWG
p269
aVtc_275_073_tau_inter_new_no_update_location_response_sgsn00040258.LWG
p270
aVtc_225_405_mt_call_idle_mode_while_ps_paging.LWG
p271
aVtc_225_415_emergency_attach_while_waiting_extended_service_request.LWG
p272
aVtc_179_318_Ccheck_TraceCollectionIpv6server.LWG
p273
aVtc_311_204_intra_srns_reloc_s4_sgw_change_wf_reloc_req_ack_interrupted_by_cancel_loc_subscrip_withdrawn.LWG
p274
aVtc_73_18_itc_gtpu_s4_sgw_send_error_indication_w.WG14a
p275
aVtc_73_21_itc_gtpu_s4_sgsn_send_echo_request_w.WG14a
p276
aVtc_311_180_intra_srns_reloc_s4_sgw_change_wf_reloc_req_ack_interrupted_by_relocation_required.LW
p277
aVtc_219_131_s3_handover_w_to_l_with_cl_two_pdns_one_failed_sgw_relocation.LW
p278
aVtc_194_079_cl_subscription_withdrawn_during_ul.LW
p279
aVtc_194_081_cl_subscription_withdrawn_during_auth.LW
p280
aVtc_248_130_inter_l_to_w_new_rau_request_initial_ue_received_wf_relocation_complete.LW
p281
aVtc_103_860_ue_trace_retransmit.LW
p282
aVtc_43_101__removal_of_disconnected_eNodeBs__CLI_removal.LW
p283
aVtc_195_214_mme_logging_csfb_to_1xrtt_extended_service_request_reject.LW
p284
aVtc_260_070_mbms_session_start_af_gw_resend_request_msg_diff_absolute_time.LW
p285
aVtc_318_262_sgw_restart_af_relocation_triggered_by_DDN_create_session_request_failure.LW
p286
aVtc_199_89_G_attach_S4_echo_N3_times_response_no_alarm.LW
p287
aVtc_256_143_mme_eps_srvcc_ho_source_cs_only_initial_ue_extended_service_request_wf_srvcc_ps_to_cs_response.LW
p288
aVtc_241_752_W2W_GnSGSN_to_S4SGSN_one_pdp_arp_higher_than_policymap_sysprop_deactivate_pdp_after_tau_on.LW
p289
aVtc_44_004_small_restart__sctp_fe_restart.LWG
p290
aVtc_220_574_csfb_to_1xrtt_in_ecm_connected_extended_service_request_wf_ue_context_release_request.LWG
p291
aVtc_241_801_israu_interfering_context_request_no_cancel_location_s4.LWG
p292
aVtc_310_131_af__Gn_SGSN_accepted_only_a_subset_of_PDN_Connections_in_FRResponse.LWG
p293
aVtc_178_932_modify_sctpremote_endpoint_ica.LWG
p294
aVtc_183_005_itc_folder_file_names.LWG
p295
aVtc_316_300_GUTI_Attach_UnKnown_GUTI_In_Pool_Broadcast_Force_Delete_Among_Pool.LWG
p296
aVtc_218_209_4_TAU_from_SGSN__update_bearer_request_while_waiting_for_Initial_Context_Setup_Response.LWG
p297
aVtc_73_18_itc_gtpu_s4_sgw_send_error_indication_w.LWG
p298
aVtc_73_21_itc_gtpu_s4_sgsn_send_echo_request_w.LWG
p299
aVtc_288_115_pgw_init_bearer_mod_paging_one_bearer_not_existent_in_modify_bearer_response.LWG
p300
aVtc_246_061_israu_new_l_to_g_sgw_change_one_pdn_ubr_before_rau_complete_interfered_by_inter_rau_request.LWG
p301
aVtc_194_505_Notification_during_Intra_TAU_without_SGW_Relocation_HSS_Reset_Before_TAU.LWG
p302
aVtc_208_43_interception_after_small_restart.LWG
p303
aVtc_260_070_mbms_session_start_af_gw_resend_request_msg_diff_absolute_time.LWG
p304
aVtc_166_428_rnc_initiated_rab_release_interfered_by_rnc_initiated_iu_release_request.LWG
p305
aVtc_23_09_transfer_to_primary_and_change_vip_addr.LWG
p306
aVtc_304_114_initial_ue_intra_tau_control_mode_threshold_exceeded_usc_ignore_replace_s1.L14b
p307
aVtc_347_231_Extended_Service_Request__Location_Report_while_waiting_ES_Request_and_RAR_while_waiting_for_UCR_Complete.L14b
p308
aVtc_194_505_Notification_during_Intra_TAU_without_SGW_Relocation_HSS_Reset_Before_TAU.L14b
p309
aVtc_103_800_device_watchdog_request_to_SGSN_MME.L14b
p310
aVtc_103_1146_sx_resend__CCR_T_retransmit_but_no_resending.L14b
p311
aVtc_203_311_mme_eps_ho_source_type_d_new_plmn_reject.L14b
p312
aVtc_326_622_S6a_Throttling_Service_Request_recovery_UL_successful_and_Emergency_Attach_not_throttled.L14b
p313
aVtc_346_683_pra_cn_predefined_x2_ho_after_isc_tau_2pdns_out2in_and_out_out.L14b
p314
aVtc_335_142_Geo_Recovery_upon_Inter_TAU.L14b
p315
aVtc_199_87_W_attach_S4_echo_N3_times_response_no_alarm.L14b
p316
aVtc_199_88_W_attach_S4_echo_alarm.L14b
p317
aVtc_199_89_G_attach_S4_echo_N3_times_response_no_alarm.L14b
p318
aVtc_341_691_x2_activity_event_guti_reallocation_during_ue_restoration.L14b
p319
aVtc_214_1200_mt_sms_idle_mode_interferring_tau_and_then_downlink_data.L14b
p320
aVtc_73_18_itc_gtpu_s4_sgw_send_error_indication_w.WG14a
p321
aVtc_73_21_itc_gtpu_s4_sgsn_send_echo_request_w.WG14a
p322
aVtc_11_237_context_modification_with_aace_mtz.W14b
p323
aVtc_349_121_RAU_old_sgsn__camel_subscriber__RAU_Req_while_waiting_for_20s_timeout.W14b
p324
aVtc_31_122_cli_get_subscriber_detail.W14b
p325
aVtc_250_160_s6d_IDR_IDA_Change_GPRS_to_eps_subscription.W14b
p326
aVtc_297_407_move_at_periodic_rau.G14b
p327
aVtc_208_43_interception_after_small_restart.G14b
p328
aVtc_28_012_mt_sms_cp_retransmission.W14b
p329
aVtc_26_037_subscriber_data_changed_but_no_modification.W14b
p330
aVtc_30_139_hlr_reset_dp_unavailable.LWG
p331
aVtc_183_010_itc_snaplength.LWG
p332
aVtc_183_009_itc_sctp_trace.LWG
p333
aVtc_183_011_itc_trace_file_wrap.LWG
p334
aVtc_209_74_x3_tcp_sendbuffer_full.LWG
p335
aVtc_362_241_RAU_LtoG_Combined_Node__Delete_UE_Backup.LWG
p336
aVtc_194_1572_HSS_initiated_DSD_in_Idle_mode_when_current_CSG_Id_removed.LWG
p337
aVtc_334_292_service_req_relocation_rab_release_request_3gdt_when_wf_create_session_resp.LWG
p338
aVtc_327_226_recovery_service_request__Delete_Subscriber_Data_while_waiting_for_Guti_Reallocation_Complete.LWG
p339
aVtc_319_073_path_management_configured_timer_expired.LWG
p340
aVtc_73_43_gtpu_sgsn_turn_off_gnu_echo_request_w.LWG
p341
aVtc_73_18_itc_gtpu_s4_sgw_send_error_indication_w.LWG
p342
aVtc_73_21_itc_gtpu_s4_sgsn_send_echo_request_w.LWG
p343
aVtc_326_622_S6a_Throttling_Service_Request_recovery_UL_successful_and_Emergency_Attach_not_throttled.LWG
p344
aVtc_309_124_heartbeat_notification.LWG
p345
aVtc_59_9_mtmsi_restart_counter.LWG
p346
aVtc_23_09_transfer_to_primary_and_change_vip_addr.LWG
p347
aVtc_220_035_csfb_to_1xrtt_in_ecm_connected_failed_release_access_bearers_response.LWG
p348
aVtc_220_403_csfb_to_1xrtt_in_ecm_connected_path_switch_request_HO_success.LWG
p349
aVtc_232_401_bfd__ipv4_alarm.LWG
p350
aVtc_241_500_israu_new_gn_to_s4_pdp_to_bearer_one_pdp_conversational_mbr_0.LWG
p351
aVtc_257_36_pws_etws_stop_warning_request_when_olp_rshl_false.LWG
p352
aVtc_178_830_action_ss7_sys_tclear.LWG
p353
aVtc_166_038_rnc_initiated_modify_ggsn_teid_change.LWG
p354
aVtc_166_104_israu_new_two_tunnel_since_vplmn_subscriber.LWG
p355
aVtc_342_864_online_change_LI_U.LWG
p356
aVtc_327_021_recovery_intra_TAU__uplink_Detach_Request_while_waiting_for_Update_Location_Response.L14b
p357
aVtc_327_010_recovery_intra_TAU__uplink_Attach_Request_while_waiting_for_TAU_Complete.L14b
p358
aVtc_327_022_recovery_intra_TAU__initial_Detach_Request_while_waiting_for_Ue_Backup_Response.L14b
p359
aVtc_329_661_irat_s4_ho_inter_target_rs_restricted_emergency_allowed.L14b
p360
aVtc_194_504_Notification_during_Attach_and_Service_Request_Procedure.L14b
p361
aVtc_304_121_initial_ue_intra_tau_control_mode_threshold_exceeded_usc_detach_wf_release_request_response.L14b
p362
aVtc_199_87_W_attach_S4_echo_N3_times_response_no_alarm.L14b
p363
aVtc_199_89_G_attach_S4_echo_N3_times_response_no_alarm.L14b
p364
aVtc_199_88_W_attach_S4_echo_alarm.L14b
p365
aVtc_295_124_tau_after_ho_tz_change_emm_information_meanwhile_handover_required_HO_success.L14b
p366
aVtc_346_683_pra_cn_predefined_x2_ho_after_isc_tau_2pdns_out2in_and_out_out.L14b
p367
aVtc_266_423_DDN_service_request__two_pdn_one_MBR_timeout_one_success.L14b
p368
aVtc_266_026_DownlinkDataFailureInd_repeat_paging_timer_small_local_restart.L14b
p369
aVtc_195_406_ue_trace_start_meanwhile_handover_required.L14b
p370
aVtc_322_161_smooth_move_ef_nas_after_paging_response_ignore.WG14a
p371
aVtc_73_18_itc_gtpu_s4_sgw_send_error_indication_w.WG14a
p372
aVtc_73_21_itc_gtpu_s4_sgsn_send_echo_request_w.WG14a
p373
aVtc_199_89_G_attach_S4_echo_N3_times_response_no_alarm.LW
p374
aVtc_335_143_Geo_Recovery_upon_DDN_with_IMSI_and_then_Service_Request.LW
p375
aVtc_44_004_small_restart__sctp_fe_restart.LW
p376
aVtc_268_025_UE_Release__initial_ue_tau_request_wf_release_access_bearer_resp.LW
p377
aVtc_341_231_x2_connection_restarted_due_to_modify_px2_command.LW
p378
aVtc_341_601_x2_activity_event_tau_event_intra_sgw_unchanged_connected.LW
p379
aVtc_276_402_tau_inter_new_MBR_timeout__SGSN_Context_Request_wf_UE_Context_Release_Complete.LW
p380
aVtc_243_770_tau_from_sgsn_s3_active_flag_true_SGW_unchange_no_2nd_modify_bearer_response.LW
p381
aVtc_202_01_ecm_connected_s1_release.LW
p382
aVtc_202_41_type_a_emergency_pdn_ecm_idle.LW
p383
aVtc_23_09_transfer_to_primary_and_change_vip_addr.LW
p384
aVtc_208_43_interception_after_small_restart.LWG
p385
aVtc_232_511_static_routes__bfd_supervision_of_static_route_v6_on_Gom.LWG
p386
aVtc_232_403_bfd__ipv4ipv6_alarm.LWG
p387
aVtc_77_5_attach_activate2_g_crash.LWG
p388
aVtc_73_18_itc_gtpu_s4_sgw_send_error_indication_w.LWG
p389
aVtc_73_21_itc_gtpu_s4_sgsn_send_echo_request_w.LWG
p390
aVtc_220_586_csfb_to_1xrtt_in_extended_service_request_during_attach_wf_initial_context_setup_response.LWG
p391
aVtc_275_118_tau_inter_new_emergency_erroneous_ie_authenticated_no_imsi.LWG
p392
aVtc_245_301_inter_rau_insert_entry_into_interface_cache.LWG
p393
aVtc_205_40_ss7_M3ua.LWG
p394
aVtc_59_9_mtmsi_restart_counter.LWG
p395
aVtc_326_833_Inter_TAU_Recovery_Old_MME_Unavailable_SGW_Change_active_flag_on_no_modify_bearer_response_two_pdn.LWG
p396
aVtc_218_031_tau_from_sgsn_pgw_selection_failed.LWG
p397
aVtc_298_007_S4_Network_Request_Secondary_PDP_Activation_UE_no_Response_5_times.LWG
p398
aVtc_110_005_inbound_outbound_pf_rule_cli_ip.LWG
p399
aVtc_199_89_G_attach_S4_echo_N3_times_response_no_alarm.LW
p400
aVtc_12_134_attach_with_extended_mmumoc_iu_inactivity_timer.LW
p401
aVtc_241_201_s4_sgsn_pool_ms_move_target_sgsn_mf.LW
p402
aVtc_241_801_israu_interfering_context_request_no_cancel_location_s4.LW
p403
aVtc_292_151_x2_handover_emc_type_b_hss_reset_update_loc_fail.LW
p404
aVtc_298_826_NRSPCA_S4_nsapi_collision_receiving_detach_request_while_waiting_for_delete_bearer_request.LW
p405
aVtc_329_003_attach_rs_allowed_emergency_plmn_change_ula_fails.LW
p406
aVtc_262_1055_imsi_attach_with_csg_id_is_rejected.L14b
p407
aVtc_199_88_W_attach_S4_echo_alarm.L14b
p408
aVtc_199_87_W_attach_S4_echo_N3_times_response_no_alarm.L14b
p409
aVtc_199_89_G_attach_S4_echo_N3_times_response_no_alarm.L14b
p410
aVtc_194_505_Notification_during_Intra_TAU_without_SGW_Relocation_HSS_Reset_Before_TAU.L14b
p411
aVtc_346_446_AF__Intra_TAU_CCA_Update_result_code_5003.L14b
p412
aVtc_346_683_pra_cn_predefined_x2_ho_after_isc_tau_2pdns_out2in_and_out_out.L14b
p413
aVtc_263_109_Attach_Flow__TAU_Request_while_waiting_for_Modify_Bearer_Response.L14b
p414
aVtc_276_402_tau_inter_new_MBR_timeout__SGSN_Context_Request_wf_UE_Context_Release_Complete.L14b
p415
aVtc_202_40_emergency_pdn_ecm_connected.L14b
p416
aVtc_243_330_tau_from_sgsn_s3_emergency_type_a_no_restriction.L14b
p417
aVtc_335_140_Geo_Recovery_upon_Service_Request.L14b
p418
aVtc_335_143_Geo_Recovery_upon_DDN_with_IMSI_and_then_Service_Request.L14b
p419
aVtc_208_43_interception_after_small_restart.G14b
p420
aVtc_297_407_move_at_periodic_rau.G14b
p421
aVtc_73_18_itc_gtpu_s4_sgw_send_error_indication_w.WG14a
p422
aVtc_73_21_itc_gtpu_s4_sgsn_send_echo_request_w.WG14a
p423
aVtc_26_030_israu_old_new_is_gtpv0_mixed_contexts_III.W14b
p424
aVtc_248_128_inter_l_to_w_new_rau_request_intial_ue_received_wf_update_location_resp.W14b
p425
aVtc_239_620_inter_rau_new_with_bearer_sgw_not_change_isd_odb_bit0_wf_rau_compl_deactivation.G14b
p426
aVtc_262_039_esm_information_reattach_timeout.L14b
p427
aVtc_262_043_imsi_attach_NOK_emm_registered_ecm_connected.L14b
p428
aVtc_304_102_emergency_intra_tau_success__control_mode_threshold_exceeded.L14b
p429
aVtc_286_122_pdn_disconnect_delete_session_failure_invalid_peer.L14b
p430
aVtc_267_011_Service_Request__Service_Request_while_waiting_for_Initial_Ctx_Setup_Response_Dedicated.L14b
p431
aVtc_346_495_Small_Local_Restart__No_Terminate_when_UE1_Attach_waiting_for_CCA_Initial_UE2_Attach_waiting_for_MBR.L14b
p432
aVtc_346_683_pra_cn_predefined_x2_ho_after_isc_tau_2pdns_out2in_and_out_out.L14b
p433
aVtc_329_820_geored_service_request_rr_restricted_after_update_location.L14b
p434
aVtc_329_821_geored_service_request_rs_restricted.L14b
p435
aVtc_329_822_geored_service_request_rs_restricted_emergency.L14b
p436
aVtc_329_840_geored_inter_tau_new_rs_restricted_unknown_guti.L14b
p437
aVtc_103_701_MME_restarts.L14b
p438
aVtc_103_800_device_watchdog_request_to_SGSN_MME.L14b
p439
aVtc_103_1101_resending_AIR_interfering_CLR.L14b
p440
aVtc_341_520_x2_activity_event_pdn_connect_disconnect.L14b
p441
aVtc_341_600_x2_activity_event_tau_event_intra_sgw_unchanged_idle.L14b
p442
aVtc_341_682_x2_activity_event_handover_inter_s1_new.L14b
p443
aVtc_199_87_W_attach_S4_echo_N3_times_response_no_alarm.L14b
p444
aVtc_199_88_W_attach_S4_echo_alarm.L14b
p445
aVtc_199_89_G_attach_S4_echo_N3_times_response_no_alarm.L14b
p446
aVtc_326_675_tau_intra_SGW_unavailable_active_flag_off_after_MME_large_restart__DNS_only_response_unavailable_SGW.LW
p447
aVtc_341_691_x2_activity_event_guti_reallocation_during_ue_restoration.LW
p448
aVtc_39_701_interfering_attach_request_source.LW
p449
aVtc_268_016_UE_Release_Flow_release_access_bearer_timeout.LW
p450
aVtc_103_1101_resending_AIR_interfering_CLR.LW
p451
aVtc_327_035_recovery_intra_TAU__initial_intra_TAU_Request_while_waiting_for_CSR_due_to_S11_linkdown.LW
p452
aVtc_324_006_mf_ser_req_signaling_after_ack_3gdt.LW
p453
aVtc_263_093_Attach_Flow__Update_Bearer_Request_while_waiting_for_Attach_Complete.LW
p454
aVtc_199_89_G_attach_S4_echo_N3_times_response_no_alarm.LW
p455
aVtc_236_236_Inter_RAU_S4_over_S3_target_DtSelMode_6_APN_in_APN_list.LW
p456
aVtc_325_104_inter_old_srns_reloc_s4_to_gn_waiting_for_forward_relocation_complete_timeout.LW
p457
aVtc_284_350_pdn_connectivity_interrupted_by_path_switch_request.LW
p458
aVtc_284_571_pdn_connectivity_following_emergency_pdn_connectivity_after_configured_max_bearers_setup.LW
p459
aVtc_326_622_S6a_Throttling_Service_Request_recovery_UL_successful_and_Emergency_Attach_not_throttled.LWG
p460
aVtc_77_5_attach_activate2_g_crash.LWG
p461
aVtc_103_702_CEA_timeout.LWG
p462
aVtc_341_512_x2_activity_event_attached_user_notification_multi_pdn.LWG
p463
aVtc_304_029_guti_attach_reject__control_mode_threshold_exceeded_then_action_stop.LWG
p464
aVtc_208_43_interception_after_small_restart.LWG
p465
aVtc_59_9_mtmsi_restart_counter.LWG
p466
aVtc_205_71_01_ss7_SCCP_CR_DT1_RLSD.LWG
p467
aVtc_23_09_transfer_to_primary_and_change_vip_addr.LWG
p468
aVtc_179_318_Ccheck_TraceCollectionIpv6server.LWG
p469
aVtc_05_006_normal_gprs_imsi_attach_detach_imsi_attach_detach.LWG
p470
aVtc_216_106_icmpv6_outNeighborSol.LWG
p471
aVtc_202_41_type_a_emergency_pdn_ecm_idle.LWG
p472
aVtc_202_362_mf_seamless_move_by_ue_5_subscribers_2_target_mmes.LWG
p473
aVtc_295_103_Intra_S1_HO__HSS_Reset_while_waiting_for_Create_Session_Response.LWG
p474
aVtc_44_004_small_restart__sctp_fe_restart.LWG
p475
aVtc_73_18_itc_gtpu_s4_sgw_send_error_indication_w.LWG
p476
aVtc_73_21_itc_gtpu_s4_sgsn_send_echo_request_w.LWG
p477
aVtc_183_005_itc_folder_file_names.LWG
p478
aVtc_241_754_intra_rau_with_multi_bearer_sgw_change_one_context_failed_node_function_deactivate_pdp_after_rau_on.LWG
p479
aVtc_241_801_israu_interfering_context_request_no_cancel_location_s4.LWG
p480
aVtc_250_160_s6d_IDR_IDA_Change_GPRS_to_eps_subscription.W14b
p481
aVtc_231_113_rnc_reset_during_ms_act_si_ms_deact_rnc_contact.W14b
p482
aVtc_79_036_israu_new_streaming_context_MBR_not_zero_service_request.W14b
p483
aVtc_73_18_itc_gtpu_s4_sgw_send_error_indication_w.WG14a
p484
aVtc_73_21_itc_gtpu_s4_sgsn_send_echo_request_w.WG14a
p485
aVtc_275_073_tau_inter_new_no_update_location_response_sgsn00040258.LW
p486
aVtc_231_227_PGW_Initiated_Modification_EARP_idle_one_tunnel.LW
p487
aVtc_290_024_Timer_Based_GBR_Deact__cancel_location_with_update_procedure_wf_release_access_bearer_response_before_timer_expires.LW
p488
aVtc_199_89_G_attach_S4_echo_N3_times_response_no_alarm.LW
p489
aVtc_217_703_rau_to_sgsn_type_a_emergency_not_allowed_interfered_by_ms_detach_when_20s_timeout.LW
p490
aVtc_202_431_mf_seamless_move_target_service_request_modifyBearerReq_onePdnMultiBearer_oneBearerFail.LW
p491
aVtc_298_424_ms_init_deact_ef_delicated_non_gbr_bearer_deact_interfered_by_rab_release_request.LW
p492
aVtc_327_258_recovery_service_request_MBR_timeout__eNodeB_Configuration_Update_wf_Guti_Reallocation_Complete.LW
p493
aVtc_245_339_israu_new_l_to_w_buffer_ubr_interferred_with_service_request.LW
p494
aVtc_38_80_intra_rau_new_rnc_with_authentication_wrong_ptmsi_signature.LW
p495
aVtc_276_402_tau_inter_new_MBR_timeout__SGSN_Context_Request_wf_UE_Context_Release_Complete.LW
p496
aVtc_73_18_itc_gtpu_s4_sgw_send_error_indication_w.WG14a
p497
aVtc_73_21_itc_gtpu_s4_sgsn_send_echo_request_w.WG14a
p498
aVtc_231_113_rnc_reset_during_ms_act_si_ms_deact_rnc_contact.W14b
p499
aVtc_11_324_serv_req_data_uplink_data_status_service_accept.W14b
p500
aVtc_39_212_detach_trigger_paging_fails.W14b
p501
aVtc_262_1073_attach_tac_based_apn_redirection_dnsfail_succeed.L14b
p502
aVtc_275_073_tau_inter_new_no_update_location_response_sgsn00040258.L14b
p503
aVtc_44_301_sctp_counter_MessageSent_Received.L14b
p504
aVtc_44_551_s1ap_reset_reset_resource__ue_id.L14b
p505
aVtc_346_683_pra_cn_predefined_x2_ho_after_isc_tau_2pdns_out2in_and_out_out.L14b
p506
aVtc_211_024_streamed_cell_trace_mapping_alarm_ipv6.L14b
p507
aVtc_103_1101_resending_AIR_interfering_CLR.L14b
p508
aVtc_341_691_x2_activity_event_guti_reallocation_during_ue_restoration.L14b
p509
aVtc_256_176_mme_eps_srvcc_ho_source_cs_only_ue_release_request_wf_srvcc_ps_to_cs_complete_notification.L14b
p510
aVtc_304_121_initial_ue_intra_tau_control_mode_threshold_exceeded_usc_detach_wf_release_request_response.L14b
p511
aVtc_327_312_recovery_service_request__initial_Attach_Request_while_waiting_for_Ue_Backup_Response.L14b
p512
aVtc_199_87_W_attach_S4_echo_N3_times_response_no_alarm.L14b
p513
aVtc_199_88_W_attach_S4_echo_alarm.L14b
p514
aVtc_199_89_G_attach_S4_echo_N3_times_response_no_alarm.L14b
p515
aVtc_335_142_Geo_Recovery_upon_Inter_TAU.L14b
p516
aVtc_195_406_ue_trace_start_meanwhile_handover_required.L14b
p517
aVtc_195_416_ue_trace_deactivate_trace_s1_intra_system_handover_triggered.L14b
p518
aVtc_236_103_s4_3gdt_based_on_sr_intra_rau_non_dt_rnc_to_dt_rnc.LWG
p519
aVtc_73_18_itc_gtpu_s4_sgw_send_error_indication_w.LWG
p520
aVtc_73_21_itc_gtpu_s4_sgsn_send_echo_request_w.LWG
p521
aVtc_327_022_recovery_intra_TAU__initial_Detach_Request_while_waiting_for_Ue_Backup_Response.LWG
p522
aVtc_232_401_bfd__ipv4_alarm.LWG
p523
aVtc_183_005_itc_folder_file_names.LWG
p524
aVtc_284_350_pdn_connectivity_interrupted_by_path_switch_request.LWG
p525
aVtc_666_03_block_ss7_board.LWG
p526
aVtc_226_502_Inter_RAU_W2W_Gn_SGSN_ControlMode_On_reject_Congestion_wf_20s_delay.LWG
p527
aVtc_259_116_ef_s6d_tads_interfere_inter_rau_old_w.LWG
p528
aVtc_59_9_mtmsi_restart_counter.LWG
p529
aVtc_238_157_mme_eps_irat_Gn_ho_target__no_ho_request_ack.LWG
p530
aVtc_361_510_rau_l_to_w_S4SGSN_check_old_qos_failed_node_function_deactivate_pdp_after_rau_on.LWG
p531
aVtc_311_204_intra_srns_reloc_s4_sgw_change_wf_reloc_req_ack_interrupted_by_cancel_loc_subscrip_withdrawn.LWG
p532
aVtc_23_09_transfer_to_primary_and_change_vip_addr.LWG
p533
aVtc_219_131_s3_handover_w_to_l_with_cl_two_pdns_one_failed_sgw_relocation.LWG
p534
aVtc_250_74_s6d_EF_hss_reset_waiting_delete_session_response.LWG
p535
aVtc_209_201_s4_activate_failed.LWG
p536
aVtc_362_241_RAU_LtoG_Combined_Node__Delete_UE_Backup.LWG
p537
aVtc_231_113_rnc_reset_during_ms_act_si_ms_deact_rnc_contact.LWG
p538
aVtc_231_227_PGW_Initiated_Modification_EARP_idle_one_tunnel.LWG
p539
aVtc_268_009_release_request_context_release_complete_timeout.LWG
p540
aVtc_178_690_action_sctp_sys_assoc_move_command.LWG
p541
aVtc_183_005_itc_folder_file_names.LWG
p542
aVtc_238_162_mme_eps_irat_Gn_ho_target__Relocation_cancel_when_wf_handover_notify.LWG
p543
aVtc_73_18_itc_gtpu_s4_sgw_send_error_indication_w.LWG
p544
aVtc_73_21_itc_gtpu_s4_sgsn_send_echo_request_w.LWG
p545
aVtc_244_055_mt_lr_cancel_location_with_update_procedure_received_wf_location_report.LWG
p546
aVtc_77_5_attach_activate2_g_crash.LWG
p547
aVtc_196_156_nrspca_ongoing_when_sgsn_initiated_detach.LWG
p548
aVtc_232_403_bfd__ipv4ipv6_alarm.LWG
p549
aVtc_578_04_check_re_activate_g.LWG
p550
aVtc_208_43_interception_after_small_restart.LWG
p551
aVtc_179_318_Ccheck_TraceCollectionIpv6server.LWG
p552
aVtc_59_9_mtmsi_restart_counter.LWG
p553
aVtc_362_241_RAU_LtoG_Combined_Node__Delete_UE_Backup.LWG
p554
aVtc_23_09_transfer_to_primary_and_change_vip_addr.LWG
p555
aVtc_219_111_s3_tau_w_to_l_with_cl.LWG
p556
aVtc_342_864_online_change_LI_U.LWG
p557
aVtc_239_187_intra_rau_with_bearer_sgw_unchanged_ubr_after_rau_complete.WG14a
p558
aVtc_73_18_itc_gtpu_s4_sgw_send_error_indication_w.WG14a
p559
aVtc_73_21_itc_gtpu_s4_sgsn_send_echo_request_w.WG14a
p560
aVtc_12_134_attach_with_extended_mmumoc_iu_inactivity_timer.W14b
p561
aVtc_12_512_pmm_undefined_attach_when_updating_location_interfered_by_rnc_reset.W14b
p562
aVtc_26_136_visitor_GGSN_init_modify_not_allowed_ARP.W14b
p563
aVtc_322_161_smooth_move_ef_nas_after_paging_response_ignore.W14b
p564
aVtc_275_711_tau_inter_without_SGW_Change_receive_TZCR_flag_set_in_context_response_SN_change.L14b
p565
aVtc_225_416_recv_service_while_waiting_extended_service_request.L14b
p566
aVtc_304_114_initial_ue_intra_tau_control_mode_threshold_exceeded_usc_ignore_replace_s1.L14b
p567
aVtc_304_121_initial_ue_intra_tau_control_mode_threshold_exceeded_usc_detach_wf_release_request_response.L14b
p568
aVtc_202_43_type_d_emergency_pdn_ecm_idle.L14b
p569
aVtc_199_88_W_attach_S4_echo_alarm.L14b
p570
aVtc_199_87_W_attach_S4_echo_N3_times_response_no_alarm.L14b
p571
aVtc_199_89_G_attach_S4_echo_N3_times_response_no_alarm.L14b
p572
aVtc_195_416_ue_trace_deactivate_trace_s1_intra_system_handover_triggered.L14b
p573
aVtc_103_1101_resending_AIR_interfering_CLR.L14b
p574
aVtc_346_683_pra_cn_predefined_x2_ho_after_isc_tau_2pdns_out2in_and_out_out.L14b
p575
aVtc_295_124_tau_after_ho_tz_change_emm_information_meanwhile_handover_required_HO_success.LW
p576
aVtc_103_1101_resending_AIR_interfering_CLR.LW
p577
aVtc_194_065_activate_loc_not_confirmed_ul_fails_other_failure.LW
p578
aVtc_310_116_1_af__HO_Cancel_before_Response_from_MSC_after_error_Response_from_SGSN.LW
p579
aVtc_199_89_G_attach_S4_echo_N3_times_response_no_alarm.LW
p580
aVtc_218_112_tau_from_sgsn_ue_context_release_when_wf_modify_bearer_resp.LW
p581
aVtc_250_105_ignore_IDR_when_EPS_sub_downgrade_GPRS_sub.LW
p582
aVtc_241_801_israu_interfering_context_request_no_cancel_location_s4.LW
p583
aVtc_310_244_ef__S1_Reset_wf_FR_Complete_PS_to_CS_Complete_received.LW
p584
aVtc_327_172_recovery_intra_TAU_SGSN_Context_Request_while_waiting_for_Location_Update_Response.LW
p585
aVtc_103_850_error_code_DIAMETER_REALM_NOT_SERVED.LW
p586
aVtc_103_701_MME_restarts.LW
p587
aVtc_103_1007_secondary_dpl_set_and_then_emptied.LW
p588
aVtc_103_860_ue_trace_retransmit.LW
p589
aVtc_243_722_tau_from_sgsn_s3_active_flag_false_ddn_with_imsi_wf_ula.LW
p590
aVtc_243_770_tau_from_sgsn_s3_active_flag_true_SGW_unchange_no_2nd_modify_bearer_response.LW
p591
aVtc_199_89_G_attach_S4_echo_N3_times_response_no_alarm.LW
p592
aVtc_202_01_ecm_connected_s1_release.LW
p593
aVtc_275_073_tau_inter_new_no_update_location_response_sgsn00040258.LW
p594
aVtc_294_412_mme_handle_eps_handover_SGW_unavailable_DNS_query_failure.LW
p595
aVtc_326_622_S6a_Throttling_Service_Request_recovery_UL_successful_and_Emergency_Attach_not_throttled.LW
p596
aVtc_348_250_3gpp_move__old_sgsn_periodic_triggered_with_sx.WG14a
p597
aVtc_73_18_itc_gtpu_s4_sgw_send_error_indication_w.WG14a
p598
aVtc_73_21_itc_gtpu_s4_sgsn_send_echo_request_w.WG14a
p599
aVtc_226_311_W__USC_Service_Request_ControlMode_On_Pmm_Connected_Usc_Implicit_Detach.WG14a
p600
aVtc_39_601_mas_unsucc_fwd_reloc_resp_mandatory_ie_missing_stop_source.LWG
p601
aVtc_225_208_mo_call_after_msc_reset_tamr_true_sysprop_on.LWG
p602
aVtc_96_012_intra_sgsn_intra_ra_psho_llc_pdu_arrives_before_psho_complete.LWG
p603
aVtc_256_175_mme_eps_srvcc_ho_source_cs_only_ue_release_request_wf_srvcc_ps_to_cs_response.LWG
p604
aVtc_256_367_srvcc_ho_source_cs_only_gsm_2_msc_available.LWG
p605
aVtc_306_124_ef_seamless_move_source_receive_s1_reset_wf_frcn.LWG
p606
aVtc_297_407_move_at_periodic_rau.LWG
p607
aVtc_273_591_TAU_intra__active_flag_on_no_modify_bearer_response_sgw_unchange_two_pdn.LWG
p608
aVtc_183_005_itc_folder_file_names.LWG
p609
aVtc_276_402_tau_inter_new_MBR_timeout__SGSN_Context_Request_wf_UE_Context_Release_Complete.LWG
p610
aVtc_311_233_intra_srns_reloc_s4_sgw_change_wf_relocation_complete_interrupted_by_context_request.LWG
p611
aVtc_194_505_Notification_during_Intra_TAU_without_SGW_Relocation_HSS_Reset_Before_TAU.LWG
p612
aVtc_329_820_geored_service_request_rr_restricted_after_update_location.LWG
p613
aVtc_247_81_inter_w_to_l_old_wf_fwd_reloc_compl_interrupted_by_attach_on_new_iu.LWG
p614
aVtc_316_246_CSFB_to_WG_UE_ECM_Connected__No_UE_Backup.LWG
p615
aVtc_316_300_GUTI_Attach_UnKnown_GUTI_In_Pool_Broadcast_Force_Delete_Among_Pool.LWG
p616
aVtc_310_300_ef__Cancel_Location_wf_PS_to_CS_Response_and_FR_Response.LWG
p617
aVtc_73_18_itc_gtpu_s4_sgw_send_error_indication_w.LWG
p618
aVtc_73_21_itc_gtpu_s4_sgsn_send_echo_request_w.LWG
p619
aVtc_321_023_s4_logging_inter_handover_cancel_l2w_target.LWG
p620
aVtc_248_186_inter_l_to_w_new_rau_request_initial_ue_received_wf_modify_bearer_response.LWG
p621
aVtc_59_9_mtmsi_restart_counter.LWG
p622
aVtc_346_369_tau_inter_new_activeFlag_on_from_s4_sgsn.LWG
p623
aVtc_220_610_csfb_to_1xrtt_in_ecm_idle_with_gbr_bearers.LWG
p624
aVtc_327_037_recovery_intra_TAU_active_off_sgw_unchanged__RAR_wf_CSR_due_to_S11_linkdown.LWG
p625
aVtc_327_214_recovery_service_request__HSS_Reset_while_waiting_for_Ue_Backup_Response.LWG
p626
aVtc_179_318_Ccheck_TraceCollectionIpv6server.LWG
p627
aVtc_326_246_Intra_TAU_Recovery_fail_Modify_Bearer_fail_active_flag_SGW_Change.LWG
p628
aVtc_326_408_Inter_TAU_Recovery_Unknown_GUTI_Backup_Option_ownSubpool_Then_Intra_TAU.LWG
p629
aVtc_326_830_Inter_TAU_Recovery_Old_MME_Unavailable_SGW_Unchange_active_flag_on_no_modify_bearer_response.LWG
p630
aVtc_335_204_UE_Location_Update__Intra_TAU__GA_change.LWG
p631
aVtc_297_407_move_at_periodic_rau.G14b
p632
aVtc_103_207_sticky_hss_host_name_primary_host_down.L14b
p633
aVtc_238_178_mme_eps_irat_Gn_ho_target__type_c_emc_cancel.L14b
p634
aVtc_266_307_Service_Request_SGW_unavailable__initial_context_setup_failure.L14b
p635
aVtc_327_322_recovery_service_request__initial_Imsi_Attach_Request_while_waiting_for_Ue_Backup_Response.L14b
p636
aVtc_194_180_hss_reset_with_user_id_list_no_subscriber_impacted.L14b
p637
aVtc_195_406_ue_trace_start_meanwhile_handover_required.L14b
p638
aVtc_244_603_modify_eslmc_port.L14b
p639
aVtc_202_18_downlink_data_after_s1_release.L14b
p640
aVtc_304_114_initial_ue_intra_tau_control_mode_threshold_exceeded_usc_ignore_replace_s1.L14b
p641
aVtc_256_098_mme_eps_srvcc_ho_source_cs_only_handover_cancel_wf_srvcc_ps_to_cs_complete_notification_timeout.L14b
p642
aVtc_346_447_AF__Intra_TAU_CCA_Update_unable_to_comply_5012.L14b
p643
aVtc_346_446_AF__Intra_TAU_CCA_Update_result_code_5003.L14b
p644
aVtc_346_683_pra_cn_predefined_x2_ho_after_isc_tau_2pdns_out2in_and_out_out.L14b
p645
aVtc_199_87_W_attach_S4_echo_N3_times_response_no_alarm.L14b
p646
aVtc_199_88_W_attach_S4_echo_alarm.L14b
p647
aVtc_199_89_G_attach_S4_echo_N3_times_response_no_alarm.L14b
p648
aVtc_298_691_S4_3GDT_Service_request_wait_Rab_Assignment_ef_delete_bearer_request.W14b
p649
aVtc_31_070_attach_ul_fails_congestion_in_hlr.W14b
p650
aVtc_30_139_hlr_reset_dp_unavailable.G14b
p651
aVtc_208_43_interception_after_small_restart.G14b
p652
aVtc_208_44_attach_detach_imsi_ap_takeover.G14b
p653
aVtc_236_091_service_request_si_iu_release_at_sgw_flow_si_cancel_location.W14b
p654
aVtc_321_040_s4_logging_sgsn_initate_echo_request.W14b
p655
aVtc_12_512_pmm_undefined_attach_when_updating_location_interfered_by_rnc_reset.W14b
p656
aVtc_31_086_concurrent_msd.W14b
p657
aVtc_11_241_rab_release_request_interrupted_by_iu_release.W14b
p658
aVtc_324_211_ef_attach_request_abort_wf_modify_bearer_response_service_req_data.W14b
p659
aVtc_250_182_s6d_inter_new_rau_ul_rejected_roaming_not_allowed_remap_on_with_err_diag.W14b
p660
aVtc_214_099_large_and_sctp_restart.L14b
p661
aVtc_220_413_csfb_to_1xrtt_in_ecm_connected_handover_required_meanwhile_CBR_received.L14b
p662
aVtc_266_011_DownlinkDataNotification_interfering_ISD_sgsn00026976.L14b
p663
aVtc_304_117_initial_ue_intra_tau_control_mode_threshold_exceeded_usc_detach_intruder_wf_release_request_response.L14b
p664
aVtc_276_282_Inter_TAU_New_MME__Delete_Bearer_Request_change_to_non_3gpp_while_waiting_for_Modify_Bearer_Response.L14b
p665
aVtc_199_87_W_attach_S4_echo_N3_times_response_no_alarm.L14b
p666
aVtc_199_89_G_attach_S4_echo_N3_times_response_no_alarm.L14b
p667
aVtc_199_88_W_attach_S4_echo_alarm.L14b
p668
aVtc_347_227_Extended_Service_Request__RAR_while_waiting_for_UE_Context_Release_Request_csfb_to_1xrtt_in_ecm_idle.L14b
p669
aVtc_103_708_modify_peer_send_DPR.L14b
p670
aVtc_202_601_seamless_move_target_when_emm_registered_emm_connect_no_forward_releocation_complete.L14b
p671
aVtc_44_895_mme_assoc_reestablish__s1_setup_when_iterator_started_finished.L14b
p672
aVtc_346_683_pra_cn_predefined_x2_ho_after_isc_tau_2pdns_out2in_and_out_out.L14b
p673
aVtc_39_601_mas_unsucc_fwd_reloc_resp_mandatory_ie_missing_stop_source.LW
p674
aVtc_39_707_interfering_attach_new_ptmsi_source.LW
p675
aVtc_256_144_mme_eps_srvcc_ho_source_cs_only_uplink_extended_service_request_wf_srvcc_ps_to_cs_complete_notification.LW
p676
aVtc_304_121_initial_ue_intra_tau_control_mode_threshold_exceeded_usc_detach_wf_release_request_response.LW
p677
aVtc_103_701_MME_restarts.LW
p678
aVtc_85_17_provide_subscriber_location_trigger_paging_af_no_response.LW
p679
aVtc_199_89_G_attach_S4_echo_N3_times_response_no_alarm.LW
p680
aVtc_276_402_tau_inter_new_MBR_timeout__SGSN_Context_Request_wf_UE_Context_Release_Complete.LW
p681
aVtc_298_424_ms_init_deact_ef_delicated_non_gbr_bearer_deact_interfered_by_rab_release_request.LW
p682
aVtc_327_374_recovery_service_request__uplink_extended_service_request_while_waiting_for_Sub_procedure_Initial_Context_Setup_Response.LW
p683
aVtc_23_09_transfer_to_primary_and_change_vip_addr.LW
p684
aVts_336_002_access_request__estimate_request_while_waiting_for_eab_wifi_decision_response.LW
p685
aVtc_241_801_israu_interfering_context_request_no_cancel_location_s4.LW
p686
aVtc_38_303_israu_new_sgsn_no_imsi_in_sgsn_context_response.LW
p687
aVtc_319_073_path_management_configured_timer_expired.LWG
p688
aVtc_267_530_DDN_SGW_unavailable__Attach_Request_while_wf_Create_Session_Response.LWG
p689
aVtc_250_105_ignore_IDR_when_EPS_sub_downgrade_GPRS_sub.LWG
p690
aVtc_205_71_00_list_ss7_pm_types.LWG
p691
aVtc_238_162_mme_eps_irat_Gn_ho_target__Relocation_cancel_when_wf_handover_notify.LWG
p692
aVtc_238_057_mme_eps_irat_ho_target__s1_reset_during_wf_forward_relocation_complete_ack.LWG
p693
aVtc_241_452_israu_new_with_10_dedicated_bearer_sgw_change_mf_s4.LWG
p694
aVtc_179_318_Ccheck_TraceCollectionIpv6server.LWG
p695
aVtc_298_073_s4_nrspca_activate_same_nsapi_of_dedicated_bearer_rab_released.LWG
p696
aVtc_256_135_mme_eps_srvcc_ho_source_cs_only_initial_ue_detach_request_wf_srvcc_ps_to_cs_complete_notification.LWG
p697
aVtc_214_313_mt_sms_idle_mode_two_times.LWG
p698
aVtc_23_09_transfer_to_primary_and_change_vip_addr.LWG
p699
aVtc_73_41_gtpu_sgsn_dont_send_gpu_echo_request_w.LWG
p700
aVtc_73_18_itc_gtpu_s4_sgw_send_error_indication_w.LWG
p701
aVtc_73_21_itc_gtpu_s4_sgsn_send_echo_request_w.LWG
p702
aVtc_194_065_activate_loc_not_confirmed_ul_fails_other_failure.LWG
p703
aVtc_202_431_mf_seamless_move_target_service_request_modifyBearerReq_onePdnMultiBearer_oneBearerFail.LWG
p704
aVtc_284_350_pdn_connectivity_interrupted_by_path_switch_request.LWG
p705
aVtc_362_241_RAU_LtoG_Combined_Node__Delete_UE_Backup.LWG
p706
aVtc_208_43_interception_after_small_restart.LWG
p707
aVtc_73_18_itc_gtpu_s4_sgw_send_error_indication_w.WG14a
p708
aVtc_73_21_itc_gtpu_s4_sgsn_send_echo_request_w.WG14a
p709
aVtc_321_040_s4_logging_sgsn_initate_echo_request.W14b
p710
aVtc_39_640_mas_insert_subscriber_data_target.W14b
p711
aVtc_31_063_hlr_reset.W14b
p712
aVtc_231_113_rnc_reset_during_ms_act_si_ms_deact_rnc_contact.W14b
p713
aVtc_322_161_smooth_move_ef_nas_after_paging_response_ignore.W14b
p714
aVtc_322_126_smooth_move_ef_cancel_location_initialAttach_wf_cancel_location.W14b
p715
aVtc_322_064_smooth_move_ef_detach_request_wf_security_mode_complete.W14b
p716
aVtc_297_407_move_at_periodic_rau.G14b
p717
aVtc_314_071_hss_init_qos_mod_ms_init_default_bearer_deac_tdi_true_after_mbfi.LWG
p718
aVtc_231_738_failed_rab_reestablish_on_second_service_request_data_s4.LWG
p719
aVtc_183_005_itc_folder_file_names.LWG
p720
aVtc_326_410_Inter_TAU_Recovery_Backup_Option_ownSubpool__Multiple_MME_In_otherSubpool.LWG
p721
aVtc_241_500_israu_new_gn_to_s4_pdp_to_bearer_one_pdp_conversational_mbr_0.LWG
p722
aVtc_245_123_inter_rau_old_s4_sgsn_activated_on_ggsn.LWG
p723
aVtc_275_073_tau_inter_new_no_update_location_response_sgsn00040258.LWG
p724
aVtc_225_107_mo_call_active_mode_sms_only_attach.LWG
p725
aVtc_225_651_mt_call_active_mode_while_la_updating_no_lai_in_paging_req_param_tamr_true.LWG
p726
aVtc_262_860_imsi_attach_create_session_failed_olp.LWG
p727
aVtc_202_01_ecm_connected_s1_release.LWG
p728
aVtc_202_42_type_c_emergency_pdn_ecm_idle.LWG
p729
aVtc_243_771_tau_from_sgsn_s3_active_flag_true_SGW_unchange_no_2nd_modify_bearer_response_two_pdn.LWG
p730
aVtc_239_602_irat_rau_to_gsm_with_dedicated_bearer_interfered_by_detach.LWG
p731
aVtc_304_121_initial_ue_intra_tau_control_mode_threshold_exceeded_usc_detach_wf_release_request_response.L14b
p732
aVtc_275_206_tau_inter_new_emergency_type_b_restricted_no_rrc_or_active_flag.L14b
p733
aVtc_346_644_pra_cn_predefined_all_list__inter_tau__2pdns_active_flag_off__cca_u_with_rfsp.L14b
p734
aVtc_346_683_pra_cn_predefined_x2_ho_after_isc_tau_2pdns_out2in_and_out_out.L14b
p735
aVtc_277_019_tau_inter_new_tau_inter_old_keep_old_sgw.L14b
p736
aVtc_327_036_recovery_intra_TAU__initial_intra_TAU_Request_while_waiting_for_Modify_Bearer_Response.L14b
p737
aVtc_266_026_DownlinkDataFailureInd_repeat_paging_timer_small_local_restart.L14b
p738
aVtc_298_689_S4_3GDT_Service_request_wait_MBR_ef_delete_bearer_request.LW
p739
aVtc_265_160_Detach_Flow_NW_init__Ue_moved_to_non_3gpp_while_imsi_detach.LW
p740
aVtc_32_115_rab_reestablish_cancel_location.LW
p741
aVtc_304_475_initial_ue_csfb_to_1xrtt_cdma2000_control_mode_threshold_exceeded_usc_detach_congestion_in_ecm_idle.LW
p742
aVtc_289_070_GW_Init_Bearer_Modification_Flow_two_CBR_one_UBR_while_wf_modify_eps_bearer_context_accept.LW
p743
aVtc_11_341_apn_redirect_reject_MS_in_HPLMN_Feature_off.LW
p744
aVtc_103_1101_resending_AIR_interfering_CLR.LW
p745
aVtc_43_101__removal_of_disconnected_eNodeBs__CLI_removal.LW
p746
aVtc_294_425_mme_handle_eps_handover_out_then_handover_back.LW
p747
aVtc_294_081_mme_handle_eps_handover_with_hrl_of_16_equivalent_plmns.LW
p748
aVtc_194_161_emergency_attach_loc_not_confirmed_ul_fails.LW
p749
aVtc_248_10_inter_l_to_w_new_3gdt_on_two_pdns_one_with_dedicate_bearer_without_sgw_change.LW
p750
aVtc_79_001_rab_resp_with_setup_instead_of_release.LW
p751
aVtc_256_135_mme_eps_srvcc_ho_source_cs_only_initial_ue_detach_request_wf_srvcc_ps_to_cs_complete_notification.LW
p752
aVtc_243_722_tau_from_sgsn_s3_active_flag_false_ddn_with_imsi_wf_ula.LW
p753
aVtc_241_431_intra_rau_with_bearer_sgw_unchange_2_pdns_with_one_modify_no_response.LW
p754
aVtc_321_093_mt_sms_segmented_tc_u_abort_after_second_segment.LW
p755
aVtc_220_411_csfb_to_1xrtt_in_ecm_connected_path_switch_request_subscription_cancelled.LW
p756
aVtc_219_131_s3_handover_w_to_l_with_cl_two_pdns_one_failed_sgw_relocation.LW
p757
aVtc_23_13_israu_out.LW
p758
aVtc_47_003_unstable_ue_ap_loss.LW
p759
aVtc_347_137_Seamless_Move_Target__HSS_Reset_while_waiting_for_CCA_initial.LW
p760
aVtc_39_601_mas_unsucc_fwd_reloc_resp_mandatory_ie_missing_stop_source.LW
p761
aVtc_103_1101_resending_AIR_interfering_CLR.LW
p762
aVtc_267_011_Service_Request__Service_Request_while_waiting_for_Initial_Ctx_Setup_Response_Dedicated.LW
p763
aVtc_241_754_intra_rau_with_multi_bearer_sgw_change_one_context_failed_node_function_deactivate_pdp_after_rau_on.LW
p764
aVtc_52_14_inter_old_treloccomplete_timeout.LW
p765
aVtc_261_39_isd_ef_mme_handover_inter_source.LW
p766
aVtc_101_010_single_mbms_session_excluded_rnc.W14b
p767
aVtc_31_093_concurrent_msd_while_ul_and_cl.W14b
p768
aVtc_236_048_s4_3gdt_deactivation_during_waiting_for_modify_bearer_rsp_in_activation_procedure_no_context.W14b
p769
aVtc_236_254_IRAT_HO_for_S4_over_S3_target_DtSelMode_5_APN_not_in_APN_list_TAC_in_TAC_list.W14b
p770
aVtc_245_128_inter_rau_old_with_sgw_reloc_wf_Cancel_Location_interfere_by_attach_req.W14b
p771
aVtc_346_683_pra_cn_predefined_x2_ho_after_isc_tau_2pdns_out2in_and_out_out.L14b
p772
aVtc_194_506_Notification_during_Intra_MME_TAU_without_SGW_Relocation_Procedure.L14b
p773
aVtc_204_1274_mme_eps_ho_target__subscription_cancel_update__wf_forward_relocation_complete_ack.L14b
p774
aVtc_263_027_Attach_Flow__Attach_Request_Different_IEs_IP_OK_while_waiting_for_Identity_Response.L14b
p775
aVtc_266_011_DownlinkDataNotification_interfering_ISD_sgsn00026976.L14b
p776
aVtc_44_071_attach_long_imsi.L14b
p777
aVtc_44_301_sctp_counter_MessageSent_Received.L14b
p778
aVtc_44_802_m3_cli.L14b
p779
aVtc_214_710_combined_tau_intra_eps_attach_interfering_mt_sms_paging_wf_tau_complete_then_ddn.L14b
p780
aVtc_103_1101_resending_AIR_interfering_CLR.L14b
p781
aVtc_327_312_recovery_service_request__initial_Attach_Request_while_waiting_for_Ue_Backup_Response.L14b
p782
aVtc_43_101__removal_of_disconnected_eNodeBs__CLI_removal.L14b
p783
aVtc_256_143_mme_eps_srvcc_ho_source_cs_only_initial_ue_extended_service_request_wf_srvcc_ps_to_cs_response.L14b
p784
aVtc_202_01_ecm_connected_s1_release.L14b
p785
aVtc_237_022_mme_eps_irat_ho_source__relocation_cancel_request_before_forw_rel_complete.L14b
p786
aVtc_241_754_intra_rau_with_multi_bearer_sgw_change_one_context_failed_node_function_deactivate_pdp_after_rau_on.LWG
p787
aVtc_324_069_af_modify_bearer_dedicated_bearer_fail.LWG
p788
aVtc_361_510_rau_l_to_w_S4SGSN_check_old_qos_failed_node_function_deactivate_pdp_after_rau_on.LWG
p789
aVtc_23_09_transfer_to_primary_and_change_vip_addr.LWG
p790
aVtc_298_702_pgw_init_modification_ef_ms_deact_req_tdi_false_ti_default_wf_modify_accept.LWG
p791
aVtc_298_826_NRSPCA_S4_nsapi_collision_receiving_detach_request_while_waiting_for_delete_bearer_request.LWG
p792
aVtc_202_01_ecm_connected_s1_release.LWG
p793
aVtc_194_506_Notification_during_Intra_MME_TAU_without_SGW_Relocation_Procedure.LWG
p794
aVtc_194_608_DSD__PDN_subscription_contexts_Withdrawal_Context_Identifier_Missing.LWG
p795
aVtc_250_182_s6d_inter_new_rau_ul_rejected_roaming_not_allowed_remap_on_with_err_diag.LWG
p796
aVtc_326_472_Inter_TAU_Recovery_multiple_retrieval_responses_with_different_revision_number.LWG
p797
aVtc_56_2_restart.LWG
p798
aVtc_183_005_itc_folder_file_names.LWG
p799
a.