(lp0
Vtc_103_702_CEA_timeout.L14b
p1
aVtc_346_388_handover_intra_2PDN_BCM_sx_only_and_sxgx_location_report.L14b
p2
aVtc_346_683_pra_cn_predefined_x2_ho_after_isc_tau_2pdns_out2in_and_out_out.L14b
p3
aVtc_220_213_csfb_to_1xrtt_in_ecm_connected_tau_request_wf_suspend_response.L14b
p4
aVtc_220_413_csfb_to_1xrtt_in_ecm_connected_handover_required_meanwhile_CBR_received.L14b
p5
aVtc_262_1055_imsi_attach_with_csg_id_is_rejected.L14b
p6
aVtc_256_176_mme_eps_srvcc_ho_source_cs_only_ue_release_request_wf_srvcc_ps_to_cs_complete_notification.L14b
p7
aVtc_275_073_tau_inter_new_no_update_location_response_sgsn00040258.L14b
p8
aVtc_266_011_DownlinkDataNotification_interfering_ISD_sgsn00026976.L14b
p9
aVtc_266_421_DDN_service_request_modify_bearer_no_response_two_pdn.L14b
p10
aVtc_329_003_attach_rs_allowed_emergency_plmn_change_ula_fails.L14b
p11
aVtc_260_070_mbms_session_start_af_gw_resend_request_msg_diff_absolute_time.L14b
p12
aVtc_225_406_mt_call_idle_mode_while_ps_paging.L14b
p13
aVtc_193_009_background_fetching_off.L14b
p14
aVtc_221_140_configurable_paging_timer__operator_profile_used_matched_on_APN.LWG
p15
aVtc_276_402_tau_inter_new_MBR_timeout__SGSN_Context_Request_wf_UE_Context_Release_Complete.LWG
p16
aVtc_208_43_interception_after_small_restart.LWG
p17
aVtc_304_202_emergency_inter_tau_reject__control_mode_threshold_exceeded.LWG
p18
aVtc_297_407_move_at_periodic_rau.LWG
p19
aVtc_363_018_mmi_get_ra.LWG
p20
aVtc_73_41_gtpu_sgsn_dont_send_gpu_echo_request_w.LWG
p21
aVtc_340_83_validation_move_filter_all_visitor_all_ta_all_ra.LWG
p22
aVtc_97_035_inter_sgsn_psho_mf_with_lawful_intercept.LWG
p23
aVtc_39_601_mas_unsucc_fwd_reloc_resp_mandatory_ie_missing_stop_source.LWG
p24
aVtc_166_428_rnc_initiated_rab_release_interfered_by_rnc_initiated_iu_release_request.LWG
p25
aVtc_59_9_mtmsi_restart_counter.LWG
p26
aVtc_103_701_MME_restarts.LWG
p27
aVtc_103_1107_fallback_to_imsins_resend_fail_due_to_result_code.LWG
p28
aVtc_194_116_hss_reset_many_subscribers.LW
p29
aVtc_241_301_israu_new_create_session_failed_and_paging_timeout.LW
p30
aVtc_250_105_ignore_IDR_when_EPS_sub_downgrade_GPRS_sub.LW
p31
aVtc_265_160_Detach_Flow_NW_init__Ue_moved_to_non_3gpp_while_imsi_detach.LW
p32
aVtc_202_102_small_restart.LW
p33
aVtc_306_158_ef_seamless_move_source_receive_insert_subscription_data_tads_ecm_connected.LW
p34
aVtc_256_175_mme_eps_srvcc_ho_source_cs_only_ue_release_request_wf_srvcc_ps_to_cs_response.LW
p35
aVtc_43_101__removal_of_disconnected_eNodeBs__CLI_removal.LW
p36
aVtc_327_007_recovery_intra_TAU__uplink_Attach_Request_while_waiting_for_Location_Update_Response.LW
p37
aVtc_31_127_cli_delete_subscriber_msisdn_reattach_required_idle_state.W14b
p38
aVtc_359_034_handover_from_non3gpp_af_fallback_to_normal_activation_fail_due_to_dns_query_fail.W14b
p39
aVtc_12_512_pmm_undefined_attach_when_updating_location_interfered_by_rnc_reset.W14b
p40
aVtc_11_369_activate_ipv6_pdp_context_isd_pdp_type_dynamic.W14b
p41
aVtc_11_484_activate_ipv6_visitor_requested_ipv6_subscribed_ipv6_aifav_true_aifv_false.W14b
p42
aVtc_11_492_activate_reject_visitor_requested_ipv4v6_subscribed_ipv6_aifav_false_aifv_false.W14b
p43
aVtc_11_541_report_full_rai_in_create_pdp_ctx_req_ms_init_secondary_activation.W14b
p44
aVtc_11_548_report_full_rai_feature_turn_on_between_primary_and_secondary_pdp_activation.W14b
p45
aVtc_11_594_activate_pdp_request_type_ipv4v6_subscribed_ipv6_daf_off_gst_nevertrypgw.W14b
p46
aVtc_241_461_israu_new_with_dedicated_bearer_sgw_not_change_gbr_bearer_inactive.W14b
p47
aVtc_241_710_intra_rau_dedicate_bearer_update_failed_and_pgw_delete_bearer_after_rau.W14b
p48
aVtc_28_052_mo_sms_homer_block_visiting_redirection.W14b
p49
aVtc_231_113_rnc_reset_during_ms_act_si_ms_deact_rnc_contact.W14b
p50
aVtc_231_760_dualstack_activate_ipv6_requested_ipv4v6_subscribered_ipv4_or_ipv6_spt_ipv6_daf_off.W14b
p51
aVtc_230_035_activate_deactivate_primary_static_with_request_ipv4v6_dual_s4.G14b
p52
aVtc_230_057_activate_s4_fallback_to_gn.G14b
p53
aVtc_230_226_activate_ipv6_visitor_requested_ipv6_subscribed_ipv6_aifav_false_aifv_true.G14b
p54
aVtc_230_233_activate_ipv4_visitor_requested_ipv4v6_subscribed_ipv4v6_aifav_false_aifv_false.G14b
p55
aVtc_230_405_detach_tz_change.G14b
p56
aVtc_230_571_dualstack_activate_ipv6_requested_ipv4v6_subscribed_ipv4v6_dsg_false_spt_ipv6_s4_fallback_to_gn.G14b
p57
aVtc_208_43_interception_after_small_restart.G14b
p58
aVtc_346_644_pra_cn_predefined_all_list__inter_tau__2pdns_active_flag_off__cca_u_with_rfsp.LWG
p59
aVtc_166_428_rnc_initiated_rab_release_interfered_by_rnc_initiated_iu_release_request.LWG
p60
aVtc_208_43_interception_after_small_restart.LWG
p61
aVtc_181_02_multiple_ip_deconf_iuandgngtp_traffic_w.LWG
p62
aVtc_294_412_mme_handle_eps_handover_SGW_unavailable_DNS_query_failure.LWG
p63
aVtc_11_369_activate_ipv6_pdp_context_isd_pdp_type_dynamic.LWG
p64
aVtc_341_691_x2_activity_event_guti_reallocation_during_ue_restoration.LWG
p65
aVtc_183_005_itc_folder_file_names.LWG
p66
aVtc_183_010_itc_snaplength.LWG
p67
aVtc_183_008_itc_sctp_encrypted.LWG
p68
aVtc_23_09_transfer_to_primary_and_change_vip_addr.LWG
p69
aVtc_342_864_online_change_LI_U.LWG
p70
aVtc_665_55_repeated_cm_restart.LWG
p71
aVtc_285_031_PDN_Connectivity__TAU_request_while_wf_create_session_response.LWG
p72
aVtc_263_321_Attach_Flow__Attach_Request_Different_IEs_IP_OK_while__waiting_for_combined_attach_response.LWG
p73
aVtc_263_003_Attach_Flow__Attach_Request_Same_IEs_IP_NOK_while_waiting_for_Delete_Session_Response.LWG
p74
aVtc_219_026_tau_g_to_l_with_gbr_bearers.LWG
p75
aVtc_284_351_pdn_connectivity_pb_activate_1_dedicated_bearer_interrupted_by_path_switch_request.LWG
p76
aVtc_231_113_rnc_reset_during_ms_act_si_ms_deact_rnc_contact.LWG
p77
aVtc_231_666_hlr_init_deatch_after_create_two_session_s4_tz_change.LWG
p78
aVtc_230_227_activate_ipv6_visitor_requested_ipv6_subscribed_ipv6_aifav_true_aifv_false.LWG
p79
aVtc_218_215_2_TAU_from_SGSN__ho_to_non_3gpp_while_waiting_for_failing_Initial_Context_Setup_Response.LWG
p80
aVtc_218_407_tau_from_sgsn_two_pdn_connections_one_ok_one_failed_due_to_sgw_selection.LWG
p81
aVtc_96_012_intra_sgsn_intra_ra_psho_llc_pdu_arrives_before_psho_complete.LWG
p82
aVtc_362_241_RAU_LtoG_Combined_Node__Delete_UE_Backup.LWG
p83
aVtc_241_801_israu_interfering_context_request_no_cancel_location_s4.LWG
p84
aVtc_313_034_inter_new_srns_reloc_s16_with_pdn_type_ipv4v6.LWG
p85
aVtc_329_804_geored_intra_tau_rs_restricted_emergency_allowed.LWG
p86
aVtc_324_208_ef_attach_request_abort_wf_modify_bearer_response_wf_update_location_hlr_ack_timeout.WG14a
p87
aVtc_195_208_mme_logging_maximum_modify_eps_bearer_context.LW
p88
aVtc_202_17_service_request_during_release_access_bearers.LW
p89
aVtc_38_226_israu_new_sgsn_one_ipv6_pdp_type_system_property_not_support.LW
p90
aVtc_276_402_tau_inter_new_MBR_timeout__SGSN_Context_Request_wf_UE_Context_Release_Complete.LW
p91
aVtc_327_162_recovery_intra_TAU_Downlink_A21_AIS_while_waiting_for_Main_Procedure_and_Sub_Procedure.LW
p92
aVtc_250_105_ignore_IDR_when_EPS_sub_downgrade_GPRS_sub.LW
p93
aVtc_341_015_x1_query_target_info_request_imsi_ecm_connected.LW
p94
aVtc_260_070_mbms_session_start_af_gw_resend_request_msg_diff_absolute_time.LW
p95
aVtc_241_752_W2W_GnSGSN_to_S4SGSN_one_pdp_arp_higher_than_policymap_sysprop_deactivate_pdp_after_tau_on.LW
p96
aVtc_241_801_israu_interfering_context_request_no_cancel_location_s4.LW
p97
aVtc_306_098_ef_seamless_move_source_receive_erab_release_indication_wf_modify_bearer_response.LW
p98
aVtc_324_239_ef_nas_ignore_update_loc_received_wf_modify_bearer_response.LW
p99
aVtc_11_369_activate_ipv6_pdp_context_isd_pdp_type_dynamic.LW
p100
aVtc_11_495_activate_ipv6_visitor_requested_ipv4v6_subscribed_ipv4v6_aifav_true_aifv_true_daf_off.LW
p101
aVtc_11_757_dualstack_activate_ipv4v6_requested_ipv4v6_subscribed_ipv4v6_dsg_true_daf_on_preferPgwForLteUe_no_epc.LW
p102
aVtc_341_691_x2_activity_event_guti_reallocation_during_ue_restoration.L14b
p103
aVtc_346_683_pra_cn_predefined_x2_ho_after_isc_tau_2pdns_out2in_and_out_out.L14b
p104
aVtc_265_146_Detach_Flow_NW_init__Reattach_Not_Required_Detach_Request_non_poweroff_int_prot_nok_while_waiting_for_Paging_Response.L14b
p105
aVtc_44_850_mme_assoc_reestablish__board_restart_s1_mme.L14b
p106
aVtc_214_513_combined_attach_after_paging_sms_indicate_no_lu.L14b
p107
aVtc_214_620_msc_pool_irat_ho_from_s4_with_unconfigured_ass_msc_then_ho_back_with_new_ass_msc.L14b
p108
aVtc_214_804_mo_sms_active_nas_non_delivery_s1_intra_system_handover_triggered_HO_cancel.L14b
p109
aVtc_214_807_mo_sms_active_donwlink_nas_transport_meanwhile_handover_required_HO_success_TAU.L14b
p110
aVtc_214_1004_la_selection_mf_with_la_profile_and_ue_profile.L14b
p111
aVtc_214_1021_la_selection_mf_without_imei.L14b
p112
aVtc_214_1041_la_selection_af_combined_attach_access_restriction_for_wcdma.L14b
p113
aVtc_214_1074_la_selection_mf_oldmscpreferred_combined_intra_tau_la_with_old_msc_not_ue_capable_sms_only.L14b
p114
aVtc_214_1140_la_selection_mf_oldlapreferred_prau_during_ue_restoration.L14b
p115
aVtc_256_142_mme_eps_srvcc_ho_source_cs_only_uplink_nas_transport_wf_srvcc_ps_to_cs_response.L14b
p116
aVtc_195_206_mme_logging_maximum_security_mode_reject.L14b
p117
aVtc_327_213_recovery_service_request__HSS_Reset_while_waiting_for_Identity_Response.L14b
p118
aVtc_267_507_Service_Request_SGW_unavailable__2_PDNs_Extended_Service_Request_while_wf_Create_Session_Response.L14b
p119
aVtc_304_114_initial_ue_intra_tau_control_mode_threshold_exceeded_usc_ignore_replace_s1.L14b
p120
aVtc_217_901_rau_to_sgsn_get_subscriber_with_ppf_set_after_sgsn_context_ack.L14b
p121
aVtc_345_100_af__mo_csfb_with_psho__ecm_connected_psho_feature_off.L14b
p122
aVtc_345_201_af__mt_csfb_with_psho__ecm_idle_no_FR_complete_from_target_sgsn.L14b
p123
aVtc_345_324_ef__mo_csfb_with_psho__pdn_connectivity_request_while_wf_forward_relocation_response.L14b
p124
aVtc_220_413_csfb_to_1xrtt_in_ecm_connected_handover_required_meanwhile_CBR_received.L14b
p125
aVtc_332_020_mf__csfb_to_wg_idle_mobile_originating.L14b
p126
aVtc_332_080_mf__ps_paging_during_cs_paging_cs_is_not_mps_and_ps_is_mps.L14b
p127
aVtc_292_155_x2_handover_emc_combined.L14b
p128
aVtc_276_402_tau_inter_new_MBR_timeout__SGSN_Context_Request_wf_UE_Context_Release_Complete.L14b
p129
aVtc_306_1020_ef_seamless_move_target_ignore_tau_request_initial_without_ddn.L14b
p130
aVtc_306_1045_ef_seamless_move_target_receive_cancel_location_withdraw_wf_lur_and_service_request_without_emergency_pdn.L14b
p131
aVtc_306_1085_ef_seamless_move_target_buffer_extended_service_request_wf_paging_response.L14b
p132
aVtc_306_1123_ef_seamless_move_target_receive_detach_request_with_switchoff_wf_frcn_ignore.L14b
p133
aVtc_306_1190_ef_seamless_move_target_receive_pdn_connectivity_request_ignore.L14b
p134
aVtc_306_1236_ef_seamless_move_target_receive_attach_request_wf_service_request.L14b
p135
aVtc_306_1305_ef_seamless_move_target_buffer_create_bearer_request.L14b
p136
aVtc_306_1356_ef_seamless_move_target_buffer_provide_location_request_wf_icsr_with_lppa.L14b
p137
aVtc_306_1426_ef_seamless_move_target_receive_cancel_location_initial_wf_mbr.L14b
p138
aVtc_103_1101_resending_AIR_interfering_CLR.L14b
p139
aVtc_103_1107_fallback_to_imsins_resend_fail_due_to_result_code.L14b
p140
aVtc_261_31_isd_tads_after_csfb_to_g_without_dtm_in_ecm_idle.L14b
p141
aVtc_009_003_attach_cache_full.L14b
p142
aVtc_329_820_geored_service_request_rr_restricted_after_update_location.L14b
p143
aVtc_263_242_Attach_Flow__Attach_Request_with_diff_IE_while_waiting_for_gts_identification_response.L14b
p144
aVtc_225_001_combined_attach_csfb.L14b
p145
aVtc_225_105_mo_call_active_mode_no_ue_release.L14b
p146
aVtc_225_310_mt_call_active_mode_nas_non_delivery__x2_ho_triggered.L14b
p147
aVtc_225_350_mt_call_active_mode_ongoing_ims_call.L14b
p148
aVtc_225_413_perodic_tau_while_waiting_extended_service_request.L14b
p149
aVtc_225_555_Extended_Service_Request_to_WG_with_CSG_ID.L14b
p150
aVtc_225_619_exp_flow_handover_required_intra_while_wf_ue_context_release_complete.L14b
p151
aVtc_225_640_hss_reset_mt_call_extended_service_request_while_wf_ms_activity.L14b
p152
aVtc_225_680_mt_call_paging_req_no_lai_param_tamr_false_during_emm_proc.L14b
p153
aVtc_225_695_mo_call_idle_mode_with_handover_timeout_and_s1_reset.L14b
p154
aVtc_225_810_mt_sms_idle_mode_extended_service_req_while_waiting_for_service_req.L14b
p155
aVtc_208_43_interception_after_small_restart.G14b
p156
aVtc_230_030_activate_deactivate_primary_ipv6_s4.G14b
p157
aVtc_230_044_activate_reject_ms_99_s4_apn_r_notype_noaddr_ipv6_function_off.G14b
p158
aVtc_311_251_intra_srns_reloc_s4_with_sgw_change_sn_changed.LW
p159
aVtc_241_159_israu_old_wait_for_sgsn_context_ack_interfere_by_reset_and_detach.LW
p160
aVtc_241_754_intra_rau_with_multi_bearer_sgw_change_one_context_failed_node_function_deactivate_pdp_after_rau_on.LW
p161
aVtc_39_601_mas_unsucc_fwd_reloc_resp_mandatory_ie_missing_stop_source.LW
p162
aVtc_211_014_streamed_cell_trace_mapping_alarm.LW
p163
aVtc_195_416_ue_trace_deactivate_trace_s1_intra_system_handover_triggered.LW
p164
aVtc_248_165_inter_l_to_w_new_iu_release_request_none_user_inactivity_received_wf_modify_bearer_response.LW
p165
aVtc_289_013_Modify_bearer__ERAB_modify_response_s1_intra_system_handover_triggered_two_pdn_uninvolved_default_bearer_fail.LW
p166
aVtc_304_029_guti_attach_reject__control_mode_threshold_exceeded_then_action_stop.LW
p167
aVtc_304_263_tau_from_gnsgsn_when_wf_tau_complete_control_mode_reject_congestion.LW
p168
aVtc_11_369_activate_ipv6_pdp_context_isd_pdp_type_dynamic.LW
p169
aVtc_11_491_activate_ipv6_visitor_requested_ipv4v6_subscribed_ipv6_aifav_true_aifv_true.LW
p170
aVtc_11_592_activate_pdp_request_type_ipv4v6_subscribed_ipv4v6_daf_off_gst_preferpgwforlteue.LW
p171
aVtc_262_1055_imsi_attach_with_csg_id_is_rejected.LW
p172
aVtc_284_350_pdn_connectivity_interrupted_by_path_switch_request.LW
p173
aVtc_194_081_cl_subscription_withdrawn_during_auth.LW
p174
aVtc_194_078_cl_update_procedure_during_ul.LW
p175
aVtc_43_101__removal_of_disconnected_eNodeBs__CLI_removal.LW
p176
aVtc_202_40_emergency_pdn_ecm_connected.LW
p177
aVtc_207_023_ebm_server_connection_failure.WG14a
p178
aVtc_11_369_activate_ipv6_pdp_context_isd_pdp_type_dynamic.W14b
p179
aVtc_298_440_ms_init_deact_ef_default_bearer_deact_with_rab_interfered_by_dedicate_bearer_deact_request.W14b
p180
aVtc_298_696_S4_3GDT_Service_request_wait_rnc_resp_ef_deactivate_pdp_context_request_default.W14b
p181
aVtc_31_086_concurrent_msd.W14b
p182
aVtc_259_53_isd_s4_umts_pmmidl_act_deact_service_req.LWG
p183
aVtc_199_83_imsi_attach_S11_echo_alarm.LWG
p184
aVtc_208_43_interception_after_small_restart.LWG
p185
aVtc_298_826_NRSPCA_S4_nsapi_collision_receiving_detach_request_while_waiting_for_delete_bearer_request.LWG
p186
aVtc_214_1126_la_selection_mf_oldlapreferred_combined_intra_tau_after_imsi_detach_triggered_by_sgs_paging.LWG
p187
aVtc_11_369_activate_ipv6_pdp_context_isd_pdp_type_dynamic.LWG
p188
aVtc_11_484_activate_ipv6_visitor_requested_ipv6_subscribed_ipv6_aifav_true_aifv_false.LWG
p189
aVtc_324_006_mf_ser_req_signaling_after_ack_3gdt.LWG
p190
aVts_336_011_estimate_request__mme_initiated_detach_while_waiting_for_eab_throughput_estimation_response.LWG
p191
aVtc_348_160_israu_af__new_sgsn_CCA_I_partially_with_failure_cause_5011.LWG
p192
aVtc_306_1026_ef_seamless_move_target_handle_initial_tau_request_sr_ongoing_wf_mbr_move_ends.LWG
p193
aVtc_59_9_mtmsi_restart_counter.LWG
p194
aVtc_225_110_mo_call_active_mode_ongoing_ims_call.LWG
p195
aVtc_225_406_mt_call_idle_mode_while_ps_paging.LWG
p196
aVtc_267_229_Service_Request__PDN_connectivity_request_while_wf_authentication_response.LWG
p197
aVtc_274_441_Intra_TAU_Detach_Request_while_waiting_for_Create_Session_Response_2PDNs_partially_failure_sgw_unavailable.LWG
p198
aVtc_297_407_move_at_periodic_rau.LWG
p199
aVtc_322_022_smooth_move_af_frr_with_service_not_supported_no_moveIndicator.LWG
p200
aVtc_263_242_Attach_Flow__Attach_Request_with_diff_IE_while_waiting_for_gts_identification_response.LWG
p201
aVtc_38_214_own_ra_nri_query_success_timeout_imsi_defined_having_context.LWG
p202
aVtc_248_301_inter_l_to_w_new_direct_transfer_rau_reqeust_with_wrong_type.LWG
p203
aVtc_342_864_online_change_LI_U.LWG
p204
aVtc_183_005_itc_folder_file_names.LWG
p205
aVtc_304_117_initial_ue_intra_tau_control_mode_threshold_exceeded_usc_detach_intruder_wf_release_request_response.L14b
p206
aVtc_44_850_mme_assoc_reestablish__board_restart_s1_mme.L14b
p207
aVtc_197_723_apn_oi_replacement_pdn_connectivity_succ_first_local_breakout_fail_then_try_apn_oi_replacement.L14b
p208
aVtc_202_18_downlink_data_after_s1_release.L14b
p209
aVtc_346_683_pra_cn_predefined_x2_ho_after_isc_tau_2pdns_out2in_and_out_out.L14b
p210
aVtc_294_067_s1_intra_handover_type_d_with_emergency_pdn_no_tau_after_ho.L14b
p211
aVtc_44_201_sctp_endpoint_config__modify_rt_Diameter.L14b
p212
aVtc_266_011_DownlinkDataNotification_interfering_ISD_sgsn00026976.L14b
p213
aVtc_335_140_Geo_Recovery_upon_Service_Request.L14b
p214
aVtc_335_143_Geo_Recovery_upon_DDN_with_IMSI_and_then_Service_Request.L14b
p215
aVtc_346_683_pra_cn_predefined_x2_ho_after_isc_tau_2pdns_out2in_and_out_out.L14b
p216
aVtc_103_1100_resending_AIR_dpl_changed.L14b
p217
aVtc_103_1101_resending_AIR_interfering_CLR.L14b
p218
aVtc_202_40_emergency_pdn_ecm_connected.L14b
p219
aVtc_295_124_tau_after_ho_tz_change_emm_information_meanwhile_handover_required_HO_success.L14b
p220
aVtc_295_136_mo_call_during_s1_ho_tau_request_when_wf_handover_notify.L14b
p221
aVtc_220_583_csfb_to_1xrtt_in_ecm_idle_extended_service_request_as_paging_response_create_bearer.L14b
p222
aVtc_304_114_initial_ue_intra_tau_control_mode_threshold_exceeded_usc_ignore_replace_s1.L14b
p223
aVtc_304_236_isc_active_flag_on_control_mode_threshold_exceeded_ignore_replace_s1_wf_initial_context_setup_response.L14b
p224
aVtc_340_10_validation_move_w_filter_device_type_overlap_tac.WG14a
p225
aVtc_324_368_ef_cancel_location_with_updateProcedure_wf_modify_bearer_response_after_ula_hss.WG14a
p226
aVtc_209_39_inter_srns_old_sgsn.W14b
p227
aVtc_321_040_s4_logging_sgsn_initate_echo_request.W14b
p228
aVtc_11_369_activate_ipv6_pdp_context_isd_pdp_type_dynamic.W14b
p229
aVtc_26_078_israu_invalid_qos_sub.W14b
p230
aVtc_298_790_S4_3GDT_Service_request_partial_rab_reestablish_MBR_failed.W14b
p231
aVtc_362_241_RAU_LtoG_Combined_Node__Delete_UE_Backup.LWG
p232
aVtc_211_025_streamed_cell_trace_mapping_alarm_cease_ipv6.LWG
p233
aVtc_241_752_W2W_GnSGSN_to_S4SGSN_one_pdp_arp_higher_than_policymap_sysprop_deactivate_pdp_after_tau_on.LWG
p234
aVtc_244_050_mt_lr_imei_check_answer_received_wf_location_report.LWG
p235
aVtc_103_1107_fallback_to_imsins_resend_fail_due_to_result_code.LWG
p236
aVtc_103_1155_sx_retransmit__Small_restart_terminate_request.LWG
p237
aVtc_202_02_ecm_idle_s1_release.LWG
p238
aVtc_327_037_recovery_intra_TAU_active_off_sgw_unchanged__RAR_wf_CSR_due_to_S11_linkdown.LWG
p239
aVtc_183_005_itc_folder_file_names.LWG
p240
aVtc_193_401_auth_vectors_mf_6_vectors.LWG
p241
aVtc_23_09_transfer_to_primary_and_change_vip_addr.LWG
p242
aVtc_236_311_HO_over_S3_3GDT_switchback_ef_delete_bearer_request_received_wf_rab_assignment_response.LWG
p243
aVtc_220_614_csfb_to_1xrtt_in_ecm_idle_with_gbr_bearers_delete_bearer_command_fails.LWG
p244
aVtc_275_073_tau_inter_new_no_update_location_response_sgsn00040258.LWG
p245
aVtc_311_204_intra_srns_reloc_s4_sgw_change_wf_reloc_req_ack_interrupted_by_cancel_loc_subscrip_withdrawn.LWG
p246
aVtc_39_601_mas_unsucc_fwd_reloc_resp_mandatory_ie_missing_stop_source.LWG
p247
aVtc_59_9_mtmsi_restart_counter.LWG
p248
aVtc_238_052_mme_eps_irat_ho_target__tau_request_during_wf_handover_notify.LWG
p249
aVtc_73_40_gtpu_sgsn_send_gpu_echo_request_w.LWG
p250
aVtc_43_101__removal_of_disconnected_eNodeBs__CLI_removal.LW
p251
aVtc_273_167_tau_intra_periodic_connected.LW
p252
aVtc_241_711_inter_rau_dedicate_bearer_feature_off_and_pgw_delete_bearer_after_rau.LW
p253
aVtc_241_801_israu_interfering_context_request_no_cancel_location_s4.LW
p254
aVtc_11_369_activate_ipv6_pdp_context_isd_pdp_type_dynamic.LW
p255
aVtc_103_702_CEA_timeout.LW
p256
aVtc_194_113_standalone_isd_access_restricted.LW
p257
aVtc_266_026_DownlinkDataFailureInd_repeat_paging_timer_small_local_restart.L14b
p258
aVtc_284_351_pdn_connectivity_pb_activate_1_dedicated_bearer_interrupted_by_path_switch_request.L14b
p259
aVtc_284_350_pdn_connectivity_interrupted_by_path_switch_request.L14b
p260
aVtc_204_901_mme_eps_ho_target_insert_subscriber_data_with_odb_bit0_during_wf_tau_complete.L14b
p261
aVtc_276_402_tau_inter_new_MBR_timeout__SGSN_Context_Request_wf_UE_Context_Release_Complete.L14b
p262
aVtc_211_022_streamed_cell_trace_mapping_stream_only_ipv6.L14b
p263
aVtc_268_105_ue_release__cs_paging_wf_release_access_bearer_resp.L14b
p264
aVtc_346_683_pra_cn_predefined_x2_ho_after_isc_tau_2pdns_out2in_and_out_out.L14b
p265
aVtc_289_107_Modify_Bearer__Create_Bearer_Request_wf_UE_Context_Modification_Resp_aborted_by_handover_required.L14b
p266
aVtc_292_091_x2_based_ho_intra_tau_new_plmn_with_hrl.L14b
p267
aVtc_243_021_tau_from_sgsn_s3_active_flag_no_tau_complete_paging_using_only_new_guti.L14b
p268
aVtc_202_102_small_restart.L14b
p269
aVtc_256_061_mme_eps_srvcc_ho_source_to_geran_cs_only_mf_after_attach_without_dtm.L14b
p270
aVtc_279_004_tai_list_attach_current.L14b
p271
aVtc_12_512_pmm_undefined_attach_when_updating_location_interfered_by_rnc_reset.W14b
p272
aVtc_298_826_NRSPCA_S4_nsapi_collision_receiving_detach_request_while_waiting_for_delete_bearer_request.W14b
p273
aVtc_321_040_s4_logging_sgsn_initate_echo_request.W14b
p274
aVtc_26_056_ms_initiated_pdp_context_modification_ms_wants_conversational_1.W14b
p275
aVtc_26_213_inter_SGSN_RAU_WtoW_new_ARP_earp_disabled_for_visitor.W14b
p276
aVtc_322_161_smooth_move_ef_nas_after_paging_response_ignore.WG14a
p277
aVtc_271_003_sctp_paging_olp_verify_pagingOlpDiscardAllCpuThreshold.LW
p278
aVtc_326_226_Intra_TAU_Recovery_fail_Authentication_Reject_from_HSS.LW
p279
aVtc_194_141_attach_ul_fails_eps_unknown_gprs_known.LW
p280
aVtc_276_381_Inter_TAU_New_MME__active_flag_false_Update_Bearer_Request_and_new_TAU_wf_TAU_Complete.LW
p281
aVtc_334_311_pgw_restart_after_s4_move_3gdt.LW
p282
aVtc_324_232_ef_iu_release_request_wf_rab_assignment_response.LW
p283
aVtc_275_073_tau_inter_new_no_update_location_response_sgsn00040258.LW
p284
aVtc_202_431_mf_seamless_move_target_service_request_modifyBearerReq_onePdnMultiBearer_oneBearerFail.LW
p285
aVtc_304_215_inter_tau_same_ie_control_mode_threshold_exceeded_reject_wf_icsr.LW
p286
aVtc_23_09_transfer_to_primary_and_change_vip_addr.LW
p287
aVtc_362_241_RAU_LtoG_Combined_Node__Delete_UE_Backup.LWG
p288
aVtc_179_318_Ccheck_TraceCollectionIpv6server.LWG
p289
aVtc_342_864_online_change_LI_U.LWG
p290
aVtc_250_105_ignore_IDR_when_EPS_sub_downgrade_GPRS_sub.LWG
p291
aVtc_291_2_ebm_log_no_license.LWG
p292
aVtc_263_321_Attach_Flow__Attach_Request_Different_IEs_IP_OK_while__waiting_for_combined_attach_response.LWG
p293
aVtc_219_011_tau_w_to_l_with_cl.LWG
p294
aVtc_341_220_x1_x2_connection_restarted_due_to_modify_neid_command.LWG
p295
aVtc_275_073_tau_inter_new_no_update_location_response_sgsn00040258.LWG
p296
aVtc_11_369_activate_ipv6_pdp_context_isd_pdp_type_dynamic.LWG
p297
aVtc_59_11_sequence_check_replica_values.LWG
p298
aVtc_218_317_tau_from_sgsn_preserved_gbr_bearer_buffer_1_ubr_wf_mbca_interfered_by_ue_context_release_req_active_flag_on.LWG
p299
aVtc_30_139_hlr_reset_dp_unavailable.LWG
p300
aVtc_327_037_recovery_intra_TAU_active_off_sgw_unchanged__RAR_wf_CSR_due_to_S11_linkdown.LWG
p301
aVtc_208_43_interception_after_small_restart.LWG
p302
aVtc_324_239_ef_nas_ignore_update_loc_received_wf_modify_bearer_response.LWG
p303
aVtc_243_722_tau_from_sgsn_s3_active_flag_false_ddn_with_imsi_wf_ula.LWG
p304
aVtc_241_066_israu_new_gn_to_s4_pdp_to_bearer_two_pdp_one_arp_higher_than_policy_map.LWG
p305
aVtc_304_117_initial_ue_intra_tau_control_mode_threshold_exceeded_usc_detach_intruder_wf_release_request_response.LWG
p306
aVtc_73_41_gtpu_sgsn_dont_send_gpu_echo_request_w.LWG
p307
aVtc_73_40_gtpu_sgsn_send_gpu_echo_request_w.LWG
p308
aVtc_346_359_MME_Large_Restart_Origin_State_ID_increased.LWG
p309
aVtc_346_687_pra_cn_predefined_pra_configuration_change_service_request__out2in.LWG
p310
aVtc_232_401_bfd__ipv4_alarm.LWG
p311
aVtc_52_10_inter_old_relocation_cancel_later.LW
p312
aVtc_304_216_combined_node_inter_tau_from_s4_control_mode_threshold_exceeded_reject_wf_tau_complete.LW
p313
aVtc_289_063_Modify_bearer__UE_context_modification_request_meanwhile_path_switch_request_SGW_change_new_SGW_resends_UBR.LW
p314
aVtc_342_140_update_one_of_two_targets_x2_address.LW
p315
aVtc_11_369_activate_ipv6_pdp_context_isd_pdp_type_dynamic.LW
p316
aVtc_321_001_s4_logging_nrspca_s4_idle_no_security_3gdt.LW
p317
aVtc_321_077_gn_logging_smooth_move_idle_no_pdp_source.LW
p318
aVtc_241_754_intra_rau_with_multi_bearer_sgw_change_one_context_failed_node_function_deactivate_pdp_after_rau_on.LW
p319
aVtc_103_1101_resending_AIR_interfering_CLR.LW
p320
aVtc_290_092_Timer_Based_GBR_Deact__delete_bearer_request_wf_delete_bearer_request_after_timer_expires.LW
p321
aVtc_266_315_service_request_1_pdn_Modify_Bearer_Response_with_non_exist_dedicated_bearer.LW
p322
aVtc_194_626_DSD_EF__Receive_DSDR_when_Waiting_for_UE_Context_Modification_Response_during_PGW_Init_Bearer_Modification_Procedure.LW
p323
aVtc_195_215_mme_logging_send_emm_status.L14b
p324
aVtc_274_274_Intra_and_pTAU__Handover_Required_with_old_TA_MSC_change_while_waiting_for_Location_Update_response_TAU_IMSI_Detach.L14b
p325
aVtc_103_1101_resending_AIR_interfering_CLR.L14b
p326
aVtc_194_505_Notification_during_Intra_TAU_without_SGW_Relocation_HSS_Reset_Before_TAU.L14b
p327
aVtc_304_114_initial_ue_intra_tau_control_mode_threshold_exceeded_usc_ignore_replace_s1.L14b
p328
aVtc_211_015_streamed_cell_trace_mapping_alarm_cease.L14b
p329
aVtc_265_160_Detach_Flow_NW_init__Ue_moved_to_non_3gpp_while_imsi_detach.L14b
p330
aVtc_329_003_attach_rs_allowed_emergency_plmn_change_ula_fails.L14b
p331
aVtc_220_413_csfb_to_1xrtt_in_ecm_connected_handover_required_meanwhile_CBR_received.L14b
p332
aVtc_44_301_sctp_counter_MessageSent_Received.L14b
p333
aVtc_346_683_pra_cn_predefined_x2_ho_after_isc_tau_2pdns_out2in_and_out_out.L14b
p334
aVtc_578_32_check_ebm_para_statistics_ue_return_duration.L14b
p335
aVtc_26_005_activate_primary_Qos_traffic_class_streaming_with_conversational_subscribed.W14b
p336
aVtc_250_74_s6d_EF_hss_reset_waiting_delete_session_response.W14b
p337
aVtc_298_790_S4_3GDT_Service_request_partial_rab_reestablish_MBR_failed.W14b
p338
aVtc_59_9_mtmsi_restart_counter.LWG
p339
aVtc_78_108_ptmsi_attach_transfer_with_selected_plmn.LWG
p340
aVtc_337_005_validation_move_manually_stopped_between_two_pool_moves_smooth_move.LWG
p341
aVtc_39_601_mas_unsucc_fwd_reloc_resp_mandatory_ie_missing_stop_source.LWG
p342
aVtc_261_42_isd_ef_mme_s1_ho_target_inter.LWG
p343
aVtc_195_416_ue_trace_deactivate_trace_s1_intra_system_handover_triggered.LWG
p344
aVtc_257_22_pws_etws_stop_warning_request_with_unknown_tai.LWG
p345
aVtc_179_318_Ccheck_TraceCollectionIpv6server.LWG
p346
aVtc_165_12_check_resource_alarms_dp.LWG
p347
aVtc_341_691_x2_activity_event_guti_reallocation_during_ue_restoration.LWG
p348
aVtc_11_369_activate_ipv6_pdp_context_isd_pdp_type_dynamic.LWG
p349
aVtc_73_21_itc_gtpu_s4_sgsn_send_echo_request_w.LWG
p350
aVtc_241_431_intra_rau_with_bearer_sgw_unchange_2_pdns_with_one_modify_no_response.LWG
p351
aVtc_291_40_action_ue_trace.LWG
p352
aVtc_346_717_pra_cn_predefined_lrc_optimization_x2_ho__lrc_start_enb_configuration_changed.LWG
p353
aVtc_193_065_attach_integrity_fails.LWG
p354
aVtc_23_09_transfer_to_primary_and_change_vip_addr.LWG
p355
aVtc_183_005_itc_folder_file_names.LWG
p356
aVtc_322_161_smooth_move_ef_nas_after_paging_response_ignore.LWG
p357
aVtc_319_033_act_pdp_mf_table_matched_low_priority.LWG
p358
aVtc_319_073_path_management_configured_timer_expired.LWG
p359
aVtc_23_09_transfer_to_primary_and_change_vip_addr.LW
p360
aVtc_23_13_israu_out.LW
p361
aVtc_293_222_X2_Based_HO_with_SGW_change__ue_release_request_then_back_to_old_eNodeB_with_SR_failed.LW
p362
aVtc_276_282_Inter_TAU_New_MME__Delete_Bearer_Request_change_to_non_3gpp_while_waiting_for_Modify_Bearer_Response.LW
p363
aVtc_326_368_Service_Request_with_unknown_STMSI_Restriction_imsi_undefined_emergency_unauthenticated.LW
p364
aVtc_324_006_mf_ser_req_signaling_after_ack_3gdt.LW
p365
aVtc_243_001_tau_from_sgsn_s3_keep_old_sgw.LW
p366
aVtc_322_146_smooth_move_ef_provide_location_request_with_pp_true_plr_true.LW
p367
aVtc_195_208_mme_logging_maximum_modify_eps_bearer_context.LW
p368
aVtc_11_369_activate_ipv6_pdp_context_isd_pdp_type_dynamic.LW
p369
aVtc_274_274_Intra_and_pTAU__Handover_Required_with_old_TA_MSC_change_while_waiting_for_Location_Update_response_TAU_IMSI_Detach.LW
p370
aVtc_298_702_pgw_init_modification_ef_ms_deact_req_tdi_false_ti_default_wf_modify_accept.LW
p371
aVtc_103_1101_resending_AIR_interfering_CLR.LW
p372
aVtc_103_1108_attach_resend_of_AIR_successful_last_retry.LW
p373
aVtc_194_505_Notification_during_Intra_TAU_without_SGW_Relocation_HSS_Reset_Before_TAU.LW
p374
aVtc_578_33_check_ebm_para_statistics_enb_sn.LW
p375
aVtc_578_32_check_ebm_para_statistics_ue_return_duration.LW
p376
aVtc_326_336_Service_Request_with_unknown_STMSI_Modify_Bearer_fail.L14b
p377
aVtc_44_301_sctp_counter_MessageSent_Received.L14b
p378
aVtc_44_551_s1ap_reset_reset_resource__ue_id.L14b
p379
aVtc_194_505_Notification_during_Intra_TAU_without_SGW_Relocation_HSS_Reset_Before_TAU.L14b
p380
aVtc_262_1031_emergency_imsi_attach_multiple_pgw_try_next_pgw_fqdn_error.L14b
p381
aVtc_197_537_intra_s1_handover_with_sgw_relocation_table_not_matched_snaptr.L14b
p382
aVtc_346_301_Combination__PGW_Selection_UserLocationChange.L14b
p383
aVtc_346_683_pra_cn_predefined_x2_ho_after_isc_tau_2pdns_out2in_and_out_out.L14b
p384
aVtc_346_717_pra_cn_predefined_lrc_optimization_x2_ho__lrc_start_enb_configuration_changed.L14b
p385
aVtc_346_726_pra_cn_predefined_lrc_optimization_x2_ho__lrc_failure_in_source_enb_ulc.L14b
p386
aVtc_202_01_ecm_connected_s1_release.L14b
p387
aVtc_202_18_downlink_data_after_s1_release.L14b
p388
aVtc_322_146_smooth_move_ef_provide_location_request_with_pp_true_plr_true.W14b
p389
aVtc_196_170_nrspca_ggsn_update_request_reject.W14b
p390
aVtc_26_106_SGSN_init_PDP_modify_ARP.W14b
p391
aVtc_298_440_ms_init_deact_ef_default_bearer_deact_with_rab_interfered_by_dedicate_bearer_deact_request.W14b
p392
aVtc_205_71_00_list_ss7_pm_types.LWG
p393
aVtc_305_057_oms_mmi_hwm.LWG
p394
aVtc_183_005_itc_folder_file_names.LWG
p395
aVtc_59_11_sequence_check_replica_values.LWG
p396
aVtc_59_12_sequence_on_demand_indexbased_replica_values_during_takeover.LWG
p397
aVtc_59_9_mtmsi_restart_counter.LWG
p398
aVtc_225_107_mo_call_active_mode_sms_only_attach.LWG
p399
aVtc_225_416_recv_service_while_waiting_extended_service_request.LWG
p400
aVtc_11_057_activate_interrupted_by_detach_ggsn_rejected.LWG
p401
aVtc_11_369_activate_ipv6_pdp_context_isd_pdp_type_dynamic.LWG
p402
aVtc_178_471_modify_ss7_sys_noss7.LWG
p403
aVtc_178_938_sctp_setprofile.LWG
p404
aVtc_179_318_Ccheck_TraceCollectionIpv6server.LWG
p405
aVtc_306_142_ef_seamless_move_source_receive_enodeb_configuation_update_wf_modify_bearer_response.LWG
p406
aVtc_103_1101_resending_AIR_interfering_CLR.LWG
p407
aVtc_318_265_sgw_restart_af_relocation_triggered_by_DDN_modify_bearer_request_timeout.LWG
p408
aVtc_362_241_RAU_LtoG_Combined_Node__Delete_UE_Backup.LWG
p409
aVtc_259_73_ef_isd_network_init_detach_s4_w.LWG
p410
aVtc_238_057_mme_eps_irat_ho_target__s1_reset_during_wf_forward_relocation_complete_ack.LWG
p411
aVtc_322_161_smooth_move_ef_nas_after_paging_response_ignore.LWG
p412
aVtc_166_293_intra_rau_new_rnc_qos_upgrade_teid_change.WG14a
p413
aVtc_322_126_smooth_move_ef_cancel_location_initialAttach_wf_cancel_location.WG14a
p414
aVtc_73_41_gtpu_sgsn_dont_send_gpu_echo_request_w.LWG
p415
aVtc_244_055_mt_lr_cancel_location_with_update_procedure_received_wf_location_report.LWG
p416
aVtc_225_811_mt_sms_idle_mode_extended_service_req_license_off_while_waiting_for_service_req.LWG
p417
aVtc_202_17_service_request_during_release_access_bearers.LWG
p418
aVtc_243_722_tau_from_sgsn_s3_active_flag_false_ddn_with_imsi_wf_ula.LWG
p419
aVtc_23_09_transfer_to_primary_and_change_vip_addr.LWG
p420
aVtc_204_901_mme_eps_ho_target_insert_subscriber_data_with_odb_bit0_during_wf_tau_complete.LWG
p421
aVtc_59_9_mtmsi_restart_counter.LWG
p422
aVtc_212_009_Ccheck_qos_policymap_w.LWG
p423
aVtc_362_241_RAU_LtoG_Combined_Node__Delete_UE_Backup.LWG
p424
aVtc_12_183_wcdma_repeat_paging_with_old_ptmsi_N3313_oldptmsi_0.W14b
p425
aVtc_236_040_s4_3gdt_detach_during_waiting_for_modify_bearer_rsp_in_service_request_procedure.W14b
p426
aVtc_26_065_israu_downgrade_requested_to_subscribed.W14b
p427
aVtc_322_161_smooth_move_ef_nas_after_paging_response_ignore.W14b
p428
aVtc_51_077_intra_srns_reloc_wf_reloc_req_ack_interrupted_by_deactivate_req.LW
p429
aVtc_204_901_mme_eps_ho_target_insert_subscriber_data_with_odb_bit0_during_wf_tau_complete.LW
p430
aVtc_243_770_tau_from_sgsn_s3_active_flag_true_SGW_unchange_no_2nd_modify_bearer_response.LW
p431
aVtc_311_204_intra_srns_reloc_s4_sgw_change_wf_reloc_req_ack_interrupted_by_cancel_loc_subscrip_withdrawn.LW
p432
aVtc_327_041_recovery_periodic_TAU__context_request_wf_CSR_due_to_S11_linkdown.LW
p433
aVtc_298_702_pgw_init_modification_ef_ms_deact_req_tdi_false_ti_default_wf_modify_accept.LW
p434
aVtc_298_783_S4_3GDT_downlink_data_notification_wait_MBR_ef_detach.LW
p435
aVtc_231_173_ms_init_detach_interfered_by_cancel_location_withdraw.LW
p436
aVtc_241_801_israu_interfering_context_request_no_cancel_location_s4.LW
p437
aVtc_335_143_Geo_Recovery_upon_DDN_with_IMSI_and_then_Service_Request.L14b
p438
aVtc_276_240_Inter_TAU_New_MME__Create_Bearer_Request_while_waiting_for_Modify_Bearer_Response.L14b
p439
aVtc_276_402_tau_inter_new_MBR_timeout__SGSN_Context_Request_wf_UE_Context_Release_Complete.L14b
p440
aVtc_295_124_tau_after_ho_tz_change_emm_information_meanwhile_handover_required_HO_success.L14b
p441
aVtc_238_052_mme_eps_irat_ho_target__tau_request_during_wf_handover_notify.L14b
p442
aVtc_238_243_mme_eps_irat_Gn_ho_target_unknown_HeNB_format_targetid_HeNB_GW_table_matched.L14b
p443
aVtc_326_622_S6a_Throttling_Service_Request_recovery_UL_successful_and_Emergency_Attach_not_throttled.L14b
p444
aVtc_273_027_tau_intra_normal_idle_bs_0_for_dedicated_icsr_timeout.L14b
p445
aVtc_44_301_sctp_counter_MessageSent_Received.L14b
p446
aVtc_44_551_s1ap_reset_reset_resource__ue_id.L14b
p447
aVtc_346_683_pra_cn_predefined_x2_ho_after_isc_tau_2pdns_out2in_and_out_out.L14b
p448
aVtc_346_716_pra_cn_predefined_lrc_optimization_x2_ho__lrc_start.L14b
p449
aVtc_297_407_move_at_periodic_rau.G14b
p450
aVtc_208_43_interception_after_small_restart.G14b
p451
aVtc_241_1636_israu_new_modify_bearer_response_timeout_followed_by_ms_init_deac.W14b
p452
aVtc_39_043_intra_rau_move_rau_unknown_sgsn.W14b
p453
aVtc_26_007_activate_primary_Qos_traffic_class_conversational_streaming_subscribed.W14b
p454
aVtc_236_045_s4_3gdt_iu_release_during_waiting_for_modify_bearer_rsp_in_service_request_procedure.W14b
p455
aVtc_236_288_Relocation_3gdt_switchback_iu_release_request_none_user_inactivity_received_wf_modify_bearer_response.W14b
p456
aVtc_322_173_smooth_move_ef_cli_s6d_delete_subscriber_data_wf_ptmsi_relocation_complete.WG14a
p457
aVtc_193_400_auth_vectors_mf_4_vectors.LWG
p458
aVtc_256_090_mme_eps_srvcc_ho_source_cs_only_handover_cancel_notification_ue_trace.LWG
p459
aVtc_103_1004_secondary_dpl_used_when_all_peers_in_dpl_unavailable_no_sls.LWG
p460
aVtc_295_010_Intra_S1_HO__Attach_req_from_target_eNB_while_wf_handover_notify.LWG
p461
aVtc_342_113_set_target_with_same_addr_diff_ccoutput_cc.LWG
p462
aVtc_342_864_online_change_LI_U.LWG
p463
aVtc_666_03_block_ss7_board.LWG
p464
aVtc_276_284_Inter_TAU_New_MME__Delete_Bearer_Request_change_to_non_3gpp_while_waiting_for_failing_Modify_Bearer_Response.LWG
p465
aVtc_337_005_validation_move_manually_stopped_between_two_pool_moves_smooth_move.LWG
p466
aVtc_341_601_x2_activity_event_tau_event_intra_sgw_unchanged_connected.LWG
p467
aVtc_241_462_israu_new_with_10_dedicated_bearers_sgw_not_change_mf_s4.LWG
p468
aVtc_241_801_israu_interfering_context_request_no_cancel_location_s4.LWG
p469
aVtc_231_113_rnc_reset_during_ms_act_si_ms_deact_rnc_contact.LWG
p470
aVtc_183_005_itc_folder_file_names.LWG
p471
aVtc_243_532_tau_from_sgsn_s3_active_flag_false_dl_data_notification_wf_tau_complete.LWG
p472
aVtc_220_411_csfb_to_1xrtt_in_ecm_connected_path_switch_request_subscription_cancelled.LWG
p473
aVtc_322_146_smooth_move_ef_provide_location_request_with_pp_true_plr_true.LWG
p474
aVtc_23_09_transfer_to_primary_and_change_vip_addr.LWG
p475
aVtc_218_302_tau_inter_new_new_sgw_too_high_QoS_for_one_default_and_one_dedicated_bearer_gn_sgsn.LWG
p476
aVtc_335_142_Geo_Recovery_upon_Inter_TAU.L14b
p477
aVtc_335_143_Geo_Recovery_upon_DDN_with_IMSI_and_then_Service_Request.L14b
p478
aVtc_346_683_pra_cn_predefined_x2_ho_after_isc_tau_2pdns_out2in_and_out_out.L14b
p479
aVtc_346_729_pra_cn_predefined_lrc_optimization_x2_ho__continuous_ho_1st_and_last_enb_lrc_needed.L14b
p480
aVtc_44_301_sctp_counter_MessageSent_Received.L14b
p481
aVtc_44_800_s1_mme_cli.L14b
p482
aVtc_304_236_isc_active_flag_on_control_mode_threshold_exceeded_ignore_replace_s1_wf_initial_context_setup_response.L14b
p483
aVtc_009_003_attach_cache_full.L14b
p484
aVtc_009_011_imsi_attach_coop_ta.L14b
p485
aVtc_327_312_recovery_service_request__initial_Attach_Request_while_waiting_for_Ue_Backup_Response.L14b
p486
aVtc_295_136_mo_call_during_s1_ho_tau_request_when_wf_handover_notify.L14b
p487
aVtc_103_901_load_sharing_realm_routing_remote_realm.L14b
p488
aVtc_103_903_primary_or_secondary_realm_routing_own_realm.L14b
p489
aVtc_262_1031_emergency_imsi_attach_multiple_pgw_try_next_pgw_fqdn_error.L14b
p490
aVtc_263_006_Attach_Flow__Attach_Request_Same_IEs_IP_OK_while_waiting_for_Attach_Complete.LW
p491
aVtc_346_364_handover_to_gn_sgsn_source_terminate_sx_session.LW
p492
aVtc_346_511_AF__TAU_Inter_New__2PDN_both_fail_in_enodeb.LW
p493
aVtc_241_752_W2W_GnSGSN_to_S4SGSN_one_pdp_arp_higher_than_policymap_sysprop_deactivate_pdp_after_tau_on.LW
p494
aVtc_241_754_intra_rau_with_multi_bearer_sgw_change_one_context_failed_node_function_deactivate_pdp_after_rau_on.LW
p495
aVtc_329_255_s1_inter_ho_source_rs_allow_rr_restrict_emergency.LW
p496
aVtc_218_207_1_TAU_from_SGSN__update_bearer_request_while_waiting_for_TAU_Complete.LW
p497
aVtc_256_018_mme_eps_srvcc_ho_source_cs_only_emergency_mf_after_emergency_attach_unauthenticated_imsi.LW
p498
aVtc_341_691_x2_activity_event_guti_reallocation_during_ue_restoration.LW
p499
aVtc_327_010_recovery_intra_TAU__uplink_Attach_Request_while_waiting_for_TAU_Complete.LW
p500
aVtc_261_46_isd_ef_tau_inter_old_sgw_unchanged.LW
p501
aVtc_306_1350_ef_seamless_move_target_buffer_provide_location_request_wf_frcn_with_lppa.LW
p502
aVtc_294_003_mme_handle_eps_handover_succesfully_with_nrr_cc91.LW
p503
aVtc_326_411_Inter_TAU_Recovery_Fail_Backup_Option_otherSubpool__No_MME_Status_Available_When_Retrieval.LW
p504
aVtc_326_444_Inter_TAU_Recovery_Unknown_GUTI__Transfer_Due_To_Wrong_AP_Index.LW
p505
aVtc_326_484_Inter_TAU_Recovery_Unknown_GUTI__UE_Trace.LW
p506
aVtc_326_524_Recovery_for_DDN__IMSI_analysis_failure_emergency_attached.LW
p507
aVtc_326_832_Inter_TAU_Recovery_Old_MME_Unavailable_SGW_Change_active_flag_on_no_modify_bearer_response.LW
p508
aVtc_201_009_authentication_network_failure_when_detached.LW
p509
aVtc_78_107_ptmsi_attach_with_selected_plmn.LW
p510
aVtc_342_910_six_x3_address.LW
p511
aVtc_298_019_nrspca_s4_idle_receive_paging_response_after_retransmission.LW
p512
aVtc_298_783_S4_3GDT_downlink_data_notification_wait_MBR_ef_detach.LW
p513
aVtc_211_023_streamed_cell_trace_mapping_log_only_ipv6.LW
p514
aVtc_315_021_inter_tau_new_mme_s4_sgsn_selection_in_pool_table_matched.LW
p515
aVtc_195_208_mme_logging_maximum_modify_eps_bearer_context.LW
p516
aVtc_195_416_ue_trace_deactivate_trace_s1_intra_system_handover_triggered.LW
p517
aVtc_345_111_af__mt_csfb_with_psho__ecm_idle_target_sgsn_not_found.LW
p518
aVtc_327_373_recovery_service_request__initial_extended_service_request_while_waiting_for_Location_Update_Response.LW
p519
aVtc_294_425_mme_handle_eps_handover_out_then_handover_back.LW
p520
aVtc_281_080_Activate_bearer__ERAB_Rel_Ind_Default_Bearer_while_wf_create_bearer_response.LW
p521
aVtc_260_070_mbms_session_start_af_gw_resend_request_msg_diff_absolute_time.LW
p522
aVtc_248_165_inter_l_to_w_new_iu_release_request_none_user_inactivity_received_wf_modify_bearer_response.LW
p523
aVtc_204_207_mme_eps_ho_target__multi_pdn_sgw_relocation__failed_modify_bearer_request.LW
p524
aVtc_39_601_mas_unsucc_fwd_reloc_resp_mandatory_ie_missing_stop_source.LW
p525
aVtc_256_382_Sv_Path_Mgt__available_MSC_disable_Sv.LW
p526
aVtc_298_783_S4_3GDT_downlink_data_notification_wait_MBR_ef_detach.LW
p527
aVtc_103_1004_secondary_dpl_used_when_all_peers_in_dpl_unavailable_no_sls.LW
p528
aVtc_78_058_intra_rau_intra_plmn_forced_csps_coord_accept_foreign_ms.LW
p529
aVtc_243_722_tau_from_sgsn_s3_active_flag_false_ddn_with_imsi_wf_ula.L14b
p530
aVtc_578_02_check_parse_ebm_and_ci_eci_l.L14b
p531
aVtc_578_33_check_ebm_para_statistics_enb_sn.L14b
p532
aVtc_327_012_recovery_intra_TAU__initial_Attach_Request_while_waiting_for_Ue_Backup_Response.L14b
p533
aVtc_327_015_recovery_intra_TAU__initial_Attach_Request_while_waiting_for_Update_Location_Response.L14b
p534
aVtc_327_114_recovery_intra_TAU__Insert_Subscriber_Data_while_waiting_for_Ue_Backup_Response.L14b
p535
aVtc_327_229_recovery_Service_Request__Transfer_with_unknown_STMSI_followed_by_Attach.L14b
p536
aVtc_263_091_Attach_Flow__Delete_Bearer_Request_while_waiting_for_Modify_Bearer_Response.L14b
p537
aVtc_346_683_pra_cn_predefined_x2_ho_after_isc_tau_2pdns_out2in_and_out_out.L14b
p538
aVtc_346_729_pra_cn_predefined_lrc_optimization_x2_ho__continuous_ho_1st_and_last_enb_lrc_needed.L14b
p539
aVtc_266_011_DownlinkDataNotification_interfering_ISD_sgsn00026976.L14b
p540
aVtc_103_1101_resending_AIR_interfering_CLR.L14b
p541
aVtc_310_310_S3_new_SGW_emergency_attach_sv_pool_on_msc_one_offloading_one_available.L14b
p542
aVtc_335_142_Geo_Recovery_upon_Inter_TAU.L14b
p543
aVtc_276_374_Inter_TAU_New_MME__New_TAU_Request_while_waiting_for_Location_Update_Response.L14b
p544
aVtc_276_402_tau_inter_new_MBR_timeout__SGSN_Context_Request_wf_UE_Context_Release_Complete.L14b
p545
aVtc_26_165_activate_pri_with_qos_earp_downgrade_by_ggsn_with_override.W14b
p546
aVtc_12_134_attach_with_extended_mmumoc_iu_inactivity_timer.W14b
p547
aVtc_324_368_ef_cancel_location_with_updateProcedure_wf_modify_bearer_response_after_ula_hss.W14b
p548
aVtc_236_040_s4_3gdt_detach_during_waiting_for_modify_bearer_rsp_in_service_request_procedure.W14b
p549
aVtc_297_407_move_at_periodic_rau.G14b
p550
aVtc_73_41_gtpu_sgsn_dont_send_gpu_echo_request_w.LWG
p551
aVtc_59_9_mtmsi_restart_counter.LWG
p552
aVtc_11_109_activate_interrupted_by_detach.LWG
p553
aVtc_326_622_S6a_Throttling_Service_Request_recovery_UL_successful_and_Emergency_Attach_not_throttled.LWG
p554
aVtc_334_286_path_failure_service_req_connected_3gdt_af_create_session_no_resp.LWG
p555
aVtc_219_511_tau_w_to_l_with_old_guti_type_mapped.LWG
p556
aVtc_284_350_pdn_connectivity_interrupted_by_path_switch_request.LWG
p557
aVtc_310_310_S3_new_SGW_emergency_attach_sv_pool_on_msc_one_offloading_one_available.LWG
p558
aVtc_248_09_inter_l_to_w_new_3gdt.LWG
p559
aVtc_362_241_RAU_LtoG_Combined_Node__Delete_UE_Backup.LWG
p560
aVtc_12_4_attach_ptmsi_signalling_connection_release.LWG
p561
aVtc_209_72_validate_imsi_and_msisdn_in_deactivation_event_generated_by_cancel_location.LWG
p562
aVtc_304_026_attach_successful_then_imsi_attach__control_mode_threshold_exceeded_usc_reject_illegal_ue.LWG
p563
aVtc_304_236_isc_active_flag_on_control_mode_threshold_exceeded_ignore_replace_s1_wf_initial_context_setup_response.LWG
p564
aVtc_103_1100_resending_AIR_dpl_changed.LWG
p565
aVtc_38_25_israu_new_sgsn_timeout_t3_response_timer.LWG
p566
a.