(lp0
Vtc_342_057_x2_isc_rau_g_to_w_with_one_pdp.W14b
p1
aVtc_342_930_x2_eventsn_continuous_after_x2_reconnect.W14b
p2
aVtc_245_342_israu_new_l_to_w_sgw_not_change_non_gbr_bearer_inactive.W14b
p3
aVtc_231_117_rnc_reset_when_sgsn_initiated_del_all_session.W14b
p4
aVtc_298_430_ms_init_deact_ef_delicated_bearer_deact_interfered_by_delete_bearer_request_with_ebi.W14b
p5
aVtc_324_371_ef_cancel_location_intialAttach_wf_modify_bearer_response_service_req_data.W14b
p6
aVtc_306_130_ef_seamless_move_source_receive_s1_setup_wf_frr_ecm_idle.L14b
p7
aVtc_306_1395_ef_seamless_move_target_ignore_ue_context_release_request_other_than_user_inactivity.L14b
p8
aVtc_257_30_pws_sctp_device_failure.L14b
p9
aVtc_244_806_mt_lr_donwlink_generic_nas_transport_meanwhile_handover_required_HO_success.L14b
p10
aVtc_274_267_Intra_and_pTAU__Path_Switch_Request_with_new_TA_while_waiting_for_TAU_Complete.L14b
p11
aVtc_326_344_Service_Request_with_unknown_STMSI_Update_Location_Answer_timeout.L14b
p12
aVtc_195_416_ue_trace_deactivate_trace_s1_intra_system_handover_triggered.L14b
p13
aVtc_242_001_rau_to_sgsn_s3_keep_sgw.L14b
p14
aVtc_267_230_Service_Request__Transfered_Attach_Request_while_waiting_for_Initial_Context_Setup_Response.L14b
p15
aVtc_262_1055_imsi_attach_with_csg_id_is_rejected.L14b
p16
aVtc_327_322_recovery_service_request__initial_Imsi_Attach_Request_while_waiting_for_Ue_Backup_Response.L14b
p17
aVtc_327_331_recovery_service_request__initial_Detach_Request_while_waiting_for_Sub_Procedure__Initial_Context_Setup_Response.L14b
p18
aVtc_327_351_recovery_service_request__initial_intra_TAU_while_waiting_for_Location_Update_Response.L14b
p19
aVtc_304_127_initial_ue_intra_tau_previous_one_is_rejected_control_mode_threshold_exceeded_usc_reject.L14b
p20
aVtc_193_005_service_req_resending_auth_req_abort.L14b
p21
aVtc_289_011_Modify_bearer__ERAB_modify_response_s1_intra_system_handover_triggered.L14b
p22
aVtc_289_054_Modify_bearer__UE_context_modification_failure_interaction_with_other_procedure_HO_undetected_retry_counter_exceed.L14b
p23
aVtc_194_135_cl_update_procedure_during_ms_auth.L14b
p24
aVtc_202_459_af_af_seamless_move_source_frcn_with_fail_cause_no_guti_reallocation_complete.L14b
p25
aVtc_346_445_AF__Intra_TAU_CCA_Update_timeout.L14b
p26
aVtc_346_584_sx_feature_off_intra_tau.L14b
p27
aVtc_310_121_af__No_Delete_Bearer_Request_received_from_SGW_after_Delete_Bearer_Command.L14b
p28
aVtc_225_402_mt_call_idle_mode_csfb_rejected.L14b
p29
aVtc_225_403_mt_call_idle_mode_no_page_response.L14b
p30
aVtc_214_093_cc_La_Check_Ga.L14b
p31
aVtc_214_703_combined_attach_MSC_selection_in_pool_with_inbound_filter_and_timeout.L14b
p32
aVtc_214_1073_la_selection_mf_oldmscpreferred_combined_intra_tau_la_with_old_msc_not_ue_capable.L14b
p33
aVtc_326_201_Intra_TAU_with_unknown_GUTI_with_active_flag.LW
p34
aVtc_241_638_intra_rau_with_bearer_sgw_change_with_3gdt_wait_create_session_resp_interfer_by_modify_pdp_req.LW
p35
aVtc_241_801_israu_interfering_context_request_no_cancel_location_s4.LW
p36
aVtc_103_1000_modify_diameter_peer_prio.LW
p37
aVtc_257_17_pws_etws_write_replace_warning_request_rejected_when_olp.LW
p38
aVtc_44_201_sctp_endpoint_config__modify_rt_Diameter.LW
p39
aVtc_44_004_small_restart__sctp_fe_restart.LW
p40
aVtc_318_103_sgw_restart_mf_multi_pdns_detach_when_APNList_empty.LW
p41
aVtc_318_150_sgw_restart_af_invalid_restart_counter.LW
p42
aVtc_231_173_ms_init_detach_interfered_by_cancel_location_withdraw.LW
p43
aVtc_335_35_wifi_to_mobility_in_ecm_idle_af__no_estimation_response_from_eNB_timeout_max_3000.LW
p44
aVtc_22_016_wcdma_change_of_position_reject_due_to_camel_no_answer.LW
p45
aVtc_32_61_israu_old_20_sec_interrupted_by_subscription_withdrawn.LW
p46
aVtc_12_512_pmm_undefined_attach_when_updating_location_interfered_by_rnc_reset.LW
p47
aVtc_342_057_x2_isc_rau_g_to_w_with_one_pdp.LW
p48
aVtc_33_17_isc_rau_authenticating_interrupted_by_subscription_withdrawn.WG14a
p49
aVtc_110_004_inbound_outbound_pf_rule_cli_udp_sctp_tcp.LWG
p50
aVtc_107_101_eth_vlan_cli.LWG
p51
aVtc_298_434_ms_init_deact_ef_default_bearer_deact_interfered_by_detach_request.LWG
p52
aVtc_298_438_ms_init_deact_ef_delicated_bearer_deact_interfered_by_deactivate_pdp_request_pdn_level.LWG
p53
aVtc_316_233_MME_Pool_Old_BMME_Removed_New_BMME_Selected_Add_Old_BMME_Delete_Old_Backup.LWG
p54
aVtc_241_619_intra_rau_with_dedicated_bearer_sgw_change_wait_security_mode_complete_handle_dbr.LWG
p55
aVtc_178_938_sctp_setprofile.LWG
p56
aVtc_178_970_m3_ietf_set_prim_ip_path.LWG
p57
aVtc_119_101_ospf_area_cli.LWG
p58
aVtc_119_202_ospf_interface_opt_vals.LWG
p59
aVtc_324_273_ef_reset_wf_security_mode_wf_update_location_hss_service_req_data.LWG
p60
aVtc_73_41_gtpu_sgsn_dont_send_gpu_echo_request_w.LWG
p61
aVtc_73_40_gtpu_sgsn_send_gpu_echo_request_w.LWG
p62
aVtc_195_520_mme_logging_initiated_deactivate_bearer_failure_indication_all_bearers_from_sgw.LWG
p63
aVtc_666_02_reboot_ss7_board.LWG
p64
aVtc_326_270_Periodic_Intra_TAU_with_unknown_GUTI_then_Service_Request.LWG
p65
aVtc_236_284_HO_over_S3_3GDT_switchback_ef_ms_deact_ti_dedicated_wf_rab_assignment_response.LWG
p66
aVtc_236_286_3gdt_swichback_delete_bearer_request_received_wf_modify_bearer_response.LWG
p67
aVtc_15_004_periodic_successful_followed_by_ptmsi_attach.LWG
p68
aVtc_59_9_mtmsi_restart_counter.LWG
p69
aVtc_179_350_Ccheck_itc_filter.LWG
p70
aVtc_297_407_move_at_periodic_rau.LWG
p71
aVtc_337_005_validation_move_manually_stopped_between_two_pool_moves_smooth_move.LWG
p72
aVtc_293_005_X2_Based_HO__Insert_subscriber_data_from_HSS_while_wf_modify_bearer_response.LWG
p73
aVtc_238_052_mme_eps_irat_ho_target__tau_request_during_wf_handover_notify.LWG
p74
aVtc_305_057_oms_mmi_hwm.LWG
p75
aVtc_39_922_ef_seamless_move_interrupted_by_transferred_rau.LWG
p76
aVtc_309_102_create_notification.LWG
p77
aVtc_309_121_replayComplete_notification.LWG
p78
aVtc_309_123_two_sessions_notification.LWG
p79
aVtc_309_107_moref_notification.LWG
p80
aVtc_06_153_activate_primary_APN_test_VII.LWG
p81
aVtc_06_159_ms_sm_status_during_bss_modify_procedure.LWG
p82
aVtc_06_167_activation_during_israu.LWG
p83
aVtc_06_171_apnresolving_apnopid_hplmn_present_apn_criteria_si.LWG
p84
aVtc_196_172_nrspca_during_t3385_when_receive_sgsn_context_ack_not_accepted.LWG
p85
aVtc_274_276_Intra_and_pTAU__Handover_Required_with_old_TA_MSC_change_while_waiting_for_Location_Update_response_TAU_IMSI_Detach_TAU.LWG
p86
aVtc_309_121_replayComplete_notification.LWG
p87
aVtc_309_102_create_notification.LWG
p88
aVtc_309_123_two_sessions_notification.LWG
p89
aVtc_309_107_moref_notification.LWG
p90
aVtc_250_105_ignore_IDR_when_EPS_sub_downgrade_GPRS_sub.LWG
p91
aVtc_359_065_handover_from_non3gpp_ef_create_bearer_request.LWG
p92
aVtc_197_321_visiting_multiple_pdn_connectivity_lbo_allowed_req_apn_oi_vplmn.LWG
p93
aVtc_335_35_wifi_to_mobility_in_ecm_idle_af__no_estimation_response_from_eNB_timeout_max_3000.LWG
p94
aVtc_289_047_Modify_bearer__ERAB_modify_response_s1_intra_system_handover_triggered_activate_dedicated_bearer_one_pdn_multiple_bearer.LWG
p95
aVtc_326_203_Intra_TAU_after_node_restart_with_two_retrieval_responses_with_SGW_change_with_emergency_PDN.LWG
p96
aVtc_12_134_attach_with_extended_mmumoc_iu_inactivity_timer.LWG
p97
aVtc_33_17_isc_rau_authenticating_interrupted_by_subscription_withdrawn.LWG
p98
aVtc_110_003_inbound_outbound_pf_rule_cli_icmp.LWG
p99
aVtc_110_005_inbound_outbound_pf_rule_cli_ip.LWG
p100
aVtc_209_44_sgsn_init_pdp_modification.LWG
p101
aVtc_195_511_mme_logging_new_mme_identification_request_with_old_guti_type.LWG
p102
aVtc_195_560_mt_lr_connected_mode.LWG
p103
aVtc_96_012_intra_sgsn_intra_ra_psho_llc_pdu_arrives_before_psho_complete.LWG
p104
aVtc_324_386_ef_mt_sms_wf_frcn_wf_frca_wf_ula.LWG
p105
aVtc_196_172_nrspca_during_t3385_when_receive_sgsn_context_ack_not_accepted.LWG
p106
aVtc_322_170_smooth_move_ef_gr_cli_delete_subscriber_data_wf_frr.LWG
p107
aVtc_59_9_mtmsi_restart_counter.LWG
p108
aVtc_297_407_move_at_periodic_rau.LWG
p109
aVtc_193_422_service_request_aia_dia_avp_unsupported_severe_nw_failure.LWG
p110
aVtc_193_400_auth_vectors_mf_4_vectors.LWG
p111
aVtc_239_112_inter_rau_new_unchanged_sgw_two_pdn_connection_report_sn_off.LWG
p112
aVtc_346_360_tau_inter_old_sgw_unchanged_terminate_sx_session.LWG
p113
aVtc_256_176_mme_eps_srvcc_ho_source_cs_only_ue_release_request_wf_srvcc_ps_to_cs_complete_notification.LWG
p114
aVtc_226_306_W__USC_Service_Request_ControlMode_On_PMM_Connected_Usc_Reject.LWG
p115
aVtc_119_101_ospf_area_cli.LWG
p116
aVtc_298_438_ms_init_deact_ef_delicated_bearer_deact_interfered_by_deactivate_pdp_request_pdn_level.LWG
p117
aVtc_204_254_mme_eps_ho_target_imei_check_no_answer.LWG
p118
aVtc_202_41_type_a_emergency_pdn_ecm_idle.LWG
p119
aVtc_306_135_ef_seamless_move_source_receive_s1_setup_wf_frcn.LWG
p120
aVtc_322_161_smooth_move_ef_nas_after_paging_response_ignore.WG14a
p121
aVtc_236_286_3gdt_swichback_delete_bearer_request_received_wf_modify_bearer_response.W14b
p122
aVtc_231_117_rnc_reset_when_sgsn_initiated_del_all_session.W14b
p123
aVtc_11_236_activate_primary_with_aace_mtz.W14b
p124
aVtc_324_456_ef_detach_request_poweroff_abort_wf_modify_bearer_response_wf_update_location_hlr_ack_timeout.W14b
p125
aVtc_322_161_smooth_move_ef_nas_after_paging_response_ignore.W14b
p126
aVtc_39_437_mas_one_pdp_downlink_data_3gdt_from_2_tunnle_to_1_tunnel_tac_only.W14b
p127
aVtc_274_083_Intra_and_pTAU__S1_Reset_while_waiting_for_Create_Session_Response.L14b
p128
aVtc_256_143_mme_eps_srvcc_ho_source_cs_only_initial_ue_extended_service_request_wf_srvcc_ps_to_cs_response.L14b
p129
aVtc_262_072_attach_second_attach_rejected_due_to_congestion.L14b
p130
aVtc_257_30_pws_sctp_device_failure.L14b
p131
aVtc_197_563_pgw_selection_modification_of_ip_address.L14b
p132
aVtc_242_001_rau_to_sgsn_s3_keep_sgw.L14b
p133
aVtc_306_132_ef_seamless_move_source_receive_s1_setup_wf_target_guti_reallocation_complete.L14b
p134
aVtc_202_200_timer_expiry_after_s1_release_ImplicitDetachTimer.L14b
p135
aVtc_329_003_attach_rs_allowed_emergency_plmn_change_ula_fails.L14b
p136
aVtc_329_150_intra_tau_rs_restricted.L14b
p137
aVtc_310_120_af__HO_Cancel_after_HO_Command_before_Complete_from_SGSN_after_Complete_from_MSC.L14b
p138
aVtc_214_093_cc_La_Check_Ga.L14b
p139
aVtc_214_1073_la_selection_mf_oldmscpreferred_combined_intra_tau_la_with_old_msc_not_ue_capable.L14b
p140
aVtc_346_571_AF__HO_Intra_ta_change_no_tau_request_terminate_sx.L14b
p141
aVtc_326_203_Intra_TAU_after_node_restart_with_two_retrieval_responses_with_SGW_change_with_emergency_PDN.L14b
p142
aVtc_304_026_attach_successful_then_imsi_attach__control_mode_threshold_exceeded_usc_reject_illegal_ue.L14b
p143
aVtc_304_214_inter_tau_different_ie_control_mode_threshold_exceeded_reject_wf_update_location_response.L14b
p144
aVtc_327_021_recovery_intra_TAU__uplink_Detach_Request_while_waiting_for_Update_Location_Response.L14b
p145
aVtc_225_309_mt_call_interfered_by_S1HO_including_TAU.L14b
p146
aVtc_194_811_isd_private_extension_of_lzone_from_invalid_to_lzone_followed_by_pdn_connectivity_request.L14b
p147
aVtc_194_072_cli_delete_subscriber_msisdn.L14b
p148
aVtc_103_705_delete_peer_send_DPR_timeout_on_DPA.L14b
p149
aVtc_103_860_ue_trace_retransmit.L14b
p150
aVtc_103_1108_attach_resend_of_AIR_successful_last_retry.L14b
p151
aVtc_103_905_proxy_node_s6a_s13.L14b
p152
aVtc_220_051_csfb_to_1xrtt_with_CSG_ID_is_rejected.L14b
p153
aVtc_275_611_emergency_tau_inter_new_attach_license_lte_sau_limit_reached.L14b
p154
aVtc_275_400_tau_inter_new_low_subscribed_rau_tau_timer.L14b
p155
aVtc_289_047_Modify_bearer__ERAB_modify_response_s1_intra_system_handover_triggered_activate_dedicated_bearer_one_pdn_multiple_bearer.L14b
p156
aVtc_44_004_small_restart__sctp_fe_restart.L14b
p157
aVtc_44_032_config_ep_2.L14b
p158
aVtc_276_045_Inter_TAU_New_MME__S1_Reset_while_waiting_for_Identity_Response__enhanced_imei_check.L14b
p159
aVtc_19_26_moving_2_mss_to_different_targets.G14b
p160
aVtc_335_35_wifi_to_mobility_in_ecm_idle_af__no_estimation_response_from_eNB_timeout_max_3000.LW
p161
aVtc_304_404_Service_Request__control_mode_threshold_not_reached.LW
p162
aVtc_23_13_israu_out.LW
p163
aVtc_103_1101_resending_AIR_interfering_CLR.LW
p164
aVtc_282_103_deactivate_bearer_all_failed_in_erab_release_response.LW
p165
aVtc_44_004_small_restart__sctp_fe_restart.LW
p166
aVtc_342_134_update_x3_address_multiple_pdp.LW
p167
aVtc_236_043_s4_3gdt_detach_during_waiting_for_release_bearer_rsp_in_rab_release_procedure.LW
p168
aVtc_236_062_s4_3gdt_reset_during_waiting_for_release_bearer_rsp_in_rab_release_procedure.LW
p169
aVtc_236_104_s4_3gdt_based_on_sr_inter_rau_then_rau_back_within_20s_with_new_ptmsi.LW
p170
aVtc_257_30_pws_sctp_device_failure.LW
p171
aVtc_578_32_check_ebm_para_statistics_ue_return_duration.LW
p172
aVtc_266_306_Service_Request_SGW_unavailable__create_session_two_PDN_one_failed.LW
p173
aVtc_214_066_combined_attach_combined_tau_interfering_combined_attach.LW
p174
aVtc_214_312_combined_tau_intra_la_change_new_msc_while_wf_tau_complete.LW
p175
aVtc_238_350_mme_eps_irat_ho_target__subscription_deleted__wf_handover_request_ack.LW
p176
aVtc_202_43_type_d_emergency_pdn_ecm_idle.LW
p177
aVtc_294_019_intra_mme_handover_with_ta_change_emergency.LW
p178
aVtc_277_009_tau_inter_old_no_context_ack.LW
p179
aVtc_39_601_mas_unsucc_fwd_reloc_resp_mandatory_ie_missing_stop_source.LW
p180
aVtc_346_361_rau_to_gn_sgsn_terminate_sx_session.LWG
p181
aVtc_346_463_AF__Service_Request_CCA_Update_Timeout.LWG
p182
aVtc_256_082_mme_eps_srvcc_ho_source_to_geran_cs_only_af_with_msc_pool_msc_select_failed_by_target_cell_id.LWG
p183
aVtc_263_241_Attach_Flow__Attach_Request_with_diff_IE_while_waiting_for_identification_response.LWG
p184
aVtc_263_004_Attach_Flow__Attach_Request_Same_IEs_IP_OK_while_waiting_for_Create_Session_Response.LWG
p185
aVtc_179_318_Ccheck_TraceCollectionIpv6server.LWG
p186
aVtc_241_801_israu_interfering_context_request_no_cancel_location_s4.LWG
p187
aVtc_239_011_israu_interfering_context_request_no_cancel_location_s4.LWG
p188
aVtc_205_71_08_SCTP_OctetsChunksSent.LWG
p189
aVtc_306_1130_ef_seamless_move_target_receive_detach_request_with_switchoff_wf_service_request.LWG
p190
aVtc_178_970_m3_ietf_set_prim_ip_path.LWG
p191
aVtc_19_26_moving_2_mss_to_different_targets.LWG
p192
aVtc_262_1055_imsi_attach_with_csg_id_is_rejected.LWG
p193
aVtc_309_102_create_notification.LWG
p194
aVtc_309_121_replayComplete_notification.LWG
p195
aVtc_309_123_two_sessions_notification.LWG
p196
aVtc_309_107_moref_notification.LWG
p197
aVtc_318_107_sgw_restart_mf_one_of_pdns_create_after_sgw_restart.LWG
p198
aVtc_44_004_small_restart__sctp_fe_restart.LWG
p199
aVtc_311_253_intra_srns_reloc_s4_sgw_change_with_sgw_restart_and_wf_rau_complete_interrupted_by_context_request.LWG
p200
aVtc_274_441_Intra_TAU_Detach_Request_while_waiting_for_Create_Session_Response_2PDNs_partially_failure_sgw_unavailable.LWG
p201
aVtc_298_115_EF_NRSPCA_S4_Detach_from_S4SGSN.LWG
p202
aVtc_298_438_ms_init_deact_ef_delicated_bearer_deact_interfered_by_deactivate_pdp_request_pdn_level.LWG
p203
aVtc_257_38_pws_etws_stop_warning_request_license_off_when_olp_rshl_false.LWG
p204
aVtc_103_702_CEA_timeout.LWG
p205
aVtc_327_022_recovery_intra_TAU__initial_Detach_Request_while_waiting_for_Ue_Backup_Response.LWG
p206
aVtc_327_555_Recovery_for_DDN__Recovery_TAU_Request_while_waiting_for_Ue_Backup_Response_Recovery_TAU_Retrial_failed.LWG
p207
aVtc_327_316_recovery_service_request__initial_Attach_Request_while_waiting_for_Sub_Procedure__Create_Session_Response_Old_Sgw_Unavailable.LWG
p208
aVtc_166_180_intra_srns_reloc_3gdt_flow.LWG
p209
aVtc_06_201_apnresolving_apnopid_hplmn_present_apn_criteria_ga.LWG
p210
aVtc_06_302_activate_deactivate_primary_ms_99_gtp_99_ipv4v6_static_ipv4.LWG
p211
aVtc_06_403_ggsn_selec_pgw4epc_2g_act_pdp_normal.LWG
p212
aVtc_293_041_X2_Based_HO__Sgw_reloc__Downlink_A21_AIS_while_wf_Delete_Session_Response.LWG
p213
aVtc_89_001_attach_after_restart.LWG
p214
aVtc_288_101_pgw_init_bearer_mod_one_bad_one_good_one_unknown_one_not_responding_bearer.LWG
p215
aVtc_202_431_mf_seamless_move_target_service_request_modifyBearerReq_onePdnMultiBearer_oneBearerFail.LWG
p216
aVtc_259_30_af_provide_subscriber_information_g_imsi_unknown.LWG
p217
aVtc_214_093_cc_La_Check_Ga.L14b
p218
aVtc_214_806_mo_sms_active_donwlink_nas_transport_meanwhile_handover_required_HO_success.L14b
p219
aVtc_347_322_Bearer_Modification__RAR_while_waiting_modify_ue_context_modification_response.L14b
p220
aVtc_243_711_tau_from_sgsn_s3_active_flag_true_no_2nd_modify_bearer_response.L14b
p221
aVtc_243_203_tau_from_sgsn_s3_get_new_sgw_two_pdn_connections_first_failed_second_ok.L14b
p222
aVtc_340_69_validation_move_l_filter_apn.L14b
p223
aVtc_280_144_activate_dedicated_bearer_qos_too_high_for_some_bearers.L14b
p224
aVtc_280_140_initial_context_setup_failure_create_bearer_request_implicit_detach.L14b
p225
aVtc_195_555_mme_logging_eps_handover_source_over_gn_inter_relocation_cancel_Request_with_imsi_using_imsi_trace.L14b
p226
aVtc_195_532_mme_logging_ue_unrechable.L14b
p227
aVtc_225_616_exp_flow_handover_required_intra_while_wf_modification_context_response.L14b
p228
aVtc_332_103_af__TAU_from_SGSN_rrc_cause_high_when_not_MPS_subscriber.L14b
p229
aVtc_278_013_Inter_TAU_Old_MME__Intra_TAU_while_waiting_for_delete_session_response.L14b
p230
aVtc_290_010_Timer_Based_GBR_Deact__attach_request_wf_release_access_bearer_response_before_timer_expires.L14b
p231
aVtc_326_469_Inter_TAU_Recovery_Unknown_GUTI__Emergency_Type_a_Mmtel_Feature_Off.L14b
p232
aVtc_326_705_Service_Request_Recovery_subscription_check_ODB_apn_in_odb_free_apn_list.L14b
p233
aVtc_326_810_Service_Request_Recovery_Transfer_Modify_Bearer_fail.L14b
p234
aVtc_283_050_GW_Delete_Bearer_Handover_to_non_3GPP__Ue_Release_while_wf_ERAB_Release_Response.L14b
p235
aVtc_257_30_pws_sctp_device_failure.L14b
p236
aVtc_203_440_mme_eps_ho_source__subscription_deleted_during_wf_ho_notify.L14b
p237
aVtc_199_83_imsi_attach_echo_alarm.L14b
p238
aVtc_346_558_AF__HO_Inter_Target_from_gn_no_tau_request_terminate_sx.L14b
p239
aVtc_304_478_uplink_nas_csfb_to_1xrtt_control_mode_threshold_exceeded_usc_detach_congestion_in_ecm_connected_wf_ue_modifacation.L14b
p240
aVtc_217_103_rau_to_sgsn_tau_request_when_wf_sgsn_context_ack_timeout_and_delete_subscriber_interfering.L14b
p241
aVtc_256_251_srvcc_ho_source_cs_only_emergency_mf_after_emergency_attach_authenticated_imsi_slr_handover_no_answ_gmlc1.L14b
p242
aVtc_103_603_georedundant_modify_diameter_peer.L14b
p243
aVtc_327_012_recovery_intra_TAU__initial_Attach_Request_while_waiting_for_Ue_Backup_Response.L14b
p244
aVtc_327_021_recovery_intra_TAU__uplink_Detach_Request_while_waiting_for_Update_Location_Response.L14b
p245
aVtc_202_41_type_a_emergency_pdn_ecm_idle.L14b
p246
aVtc_318_107_sgw_restart_mf_one_of_pdns_create_after_sgw_restart.L14b
p247
aVtc_261_52_isd_ef_extended_service_request.L14b
p248
aVtc_306_123_ef_seamless_move_source_receive_s1_reset_wf_modify_bearer_response.L14b
p249
aVtc_306_097_ef_seamless_move_source_receive_erab_release_indication_wf_source_guti_reallocation_complete.L14b
p250
aVtc_306_113_ef_seamless_move_source_receive_sgsn_context_request_wf_source_guti_reallocation_complete.L14b
p251
aVtc_306_1335_ef_seamless_move_target_receive_cli_delete_subscriber_wf_service_request.L14b
p252
aVtc_238_064_mme_eps_irat_ho_target__s1_reset_during_wf_delete_all_bearers_response.L14b
p253
aVtc_194_099_check_gauge_unstable_parked.L14b
p254
aVtc_293_025_X2_Based_HO__SGSN_Context_Request_while_waiting_for_TAU_Request.L14b
p255
aVtc_289_008_Modify_Bearer__Handover_Required_while_wf_ERAB_Modify_Bearer_Resp.L14b
p256
aVtc_289_011_Modify_bearer__ERAB_modify_response_s1_intra_system_handover_triggered.L14b
p257
aVtc_302_050_mt_csfb_to_1xrtt_main_flow_connected.L14b
p258
aVtc_273_033_tau_intra_normal_idle_authentication_timeout.L14b
p259
aVtc_311_253_intra_srns_reloc_s4_sgw_change_with_sgw_restart_and_wf_rau_complete_interrupted_by_context_request.WG14a
p260
aVtc_194_081_cl_subscription_withdrawn_during_auth.LW
p261
aVtc_194_082_consecutive_hss_resets.LW
p262
aVtc_194_991_downlink_A21_AIS_during_waiting_location_report__idr_flags_ef.LW
p263
aVtc_318_107_sgw_restart_mf_one_of_pdns_create_after_sgw_restart.LW
p264
aVtc_318_116_sgw_restart_mf_one_pdn_with_relocate_by_ReleaseAccessBearersResponse.LW
p265
aVtc_346_449_AF__Intra_TAU_CCA_Update_unknown_session_id_5002.LW
p266
aVtc_324_327_ef_service_req_data_direct_transfer_ingore.LW
p267
aVtc_257_19_pws_etws_resend_write_replace_warning_request_with_ta_list.LW
p268
aVtc_287_005_PDN_Disconnect__Path_Switch_Request_while_wf_delete_session_response.LW
p269
aVtc_103_1006_secondary_dpl_used_when_all_peers_in_dpl_unavailable_no_sls_peers_same_prio.LW
p270
aVtc_248_365_inter_l_to_w_new_iu_release_request_received_buffered_ubr_discarded.LW
p271
aVtc_293_005_X2_Based_HO__Insert_subscriber_data_from_HSS_while_wf_modify_bearer_response.LW
p272
aVtc_274_276_Intra_and_pTAU__Handover_Required_with_old_TA_MSC_change_while_waiting_for_Location_Update_response_TAU_IMSI_Detach_TAU.LW
p273
aVtc_12_512_pmm_undefined_attach_when_updating_location_interfered_by_rnc_reset.LW
p274
aVtc_322_161_smooth_move_ef_nas_after_paging_response_ignore.W14b
p275
aVtc_298_438_ms_init_deact_ef_delicated_bearer_deact_interfered_by_deactivate_pdp_request_pdn_level.W14b
p276
aVtc_209_31_sms_mo.W14b
p277
aVtc_209_44_sgsn_init_pdp_modification.W14b
p278
aVtc_26_006_activate_secondary_Qos_traffic_class_conversational_interactive_subscribed.W14b
p279
aVtc_231_117_rnc_reset_when_sgsn_initiated_del_all_session.W14b
p280
aVtc_297_407_move_at_periodic_rau.G14b
p281
aVtc_208_43_interception_after_small_restart.G14b
p282
aVtc_302_216_1xrtt_srvcc_ue_release_request_timeout.L14b
p283
aVtc_266_201_service_request_2_dedicated_bearers_1_failed_to_setup.L14b
p284
aVtc_273_201_tau_intra_roaming_restricted_plmn.L14b
p285
aVtc_273_249_tau_intra__sgw_reloc_mult_pdn_bearerstatus_mismatch.L14b
p286
aVtc_307_032_HSS_Init_QoS_Modification__APNAMBR_QCI_APR_Changed_2PDN_CSFB_to_WG_with_DTM.L14b
p287
aVtc_282_020_delete_bearer_request_handover_to_non_3GPP_ecm_connected_multi_pdn.L14b
p288
aVtc_214_093_cc_La_Check_Ga.L14b
p289
aVtc_214_312_combined_tau_intra_la_change_new_msc_while_wf_tau_complete.L14b
p290
aVtc_214_503_mt_sms_while_wf_lu_accept.L14b
p291
aVtc_214_1084_la_selection_mf_oldlapreferred_combined_attach_dyn_tailist.L14b
p292
aVtc_238_158_mme_eps_irat_Gn_ho_target__no_tau_request_after_ho.L14b
p293
aVtc_327_375_recovery_service_request__uplink_extended_service_request_while_waiting_for_Location_Update_Response.L14b
p294
aVtc_257_38_pws_etws_stop_warning_request_license_off_when_olp_rshl_false.L14b
p295
aVtc_257_30_pws_sctp_device_failure.L14b
p296
aVtc_347_269_PDN_Connectivity__RAR_while_waiting_CCA_Initial.L14b
p297
aVtc_347_341_SGW_Restart__RAR_while_waiting_Create_Session_Response.L14b
p298
aVtc_328_108_Backup_MME__MaximumNumberOfUeBackups_reached_replace_oldest_ue_backups.L14b
p299
aVtc_202_423_af_seamless_move_target_unsuccessful_modifyBearerReq_before_ulr_resourceNotAvailable.L14b
p300
aVtc_202_412_af_seamless_move_target_lur_resp_timeout_from_msc.L14b
p301
aVtc_221_054__Emergency_type_a_notification_on_normal_ebi_id_3_default.L14b
p302
aVtc_221_124_Downlink_Data_Notification_2_same_EBI_known.L14b
p303
aVtc_281_027_Activate_bearer__ERAB_setup_response_s1_intra_system_handover_triggered_two_pdn_uninvolved_default_bearer_fail.L14b
p304
aVtc_329_003_attach_rs_allowed_emergency_plmn_change_ula_fails.L14b
p305
aVtc_329_310_s1_inter_ho_target_rs_restricted.L14b
p306
aVtc_267_215_Service_Request__PDN_Connectivity_Request_while_waiting_for_Modify_Bearer_Response.L14b
p307
aVtc_44_004_small_restart__sctp_fe_restart.L14b
p308
aVtc_204_500_mme_eps_ho_target_emergency_type_a_imei_check_answer_blacklisted_before_tau_accept_ire_false.L14b
p309
aVtc_326_351_Service_Request_with_unknown_STMSI_ownSubPool_found_backup_in_itself.L14b
p310
aVtc_326_712_Intra_TAU_Recovery_subscription_check_ODB_Emergency_PDN_exist.L14b
p311
aVtc_276_045_Inter_TAU_New_MME__S1_Reset_while_waiting_for_Identity_Response__enhanced_imei_check.L14b
p312
aVtc_318_187_sgw_restart_ef_relocate_interrupt_by_CreateBearerReq.L14b
p313
aVtc_194_175_hss_reset_during_attach_before_successful_update_location.L14b
p314
aVtc_194_182_hss_reset_ue_activity_tau_request_after_handover.L14b
p315
aVtc_277_004_tau_inter_old_sgw_changed.L14b
p316
aVtc_274_220_Intra_and_pTAU__Update_Bearer_Request_while_waiting_for_Modify_Bearer_Response.L14b
p317
aVtc_274_400_DDN_interfere_intra_tau_without_sgw_change_active_flag_on.L14b
p318
aVtc_306_133_ef_seamless_move_source_receive_s1_setup_wf_source_guti_reallocation_complete.L14b
p319
aVtc_306_238_ef_seamless_move_source_receive_update_bearer_request_wf_modify_bearer_response.L14b
p320
aVtc_306_1300_ef_seamless_move_target_receive_uplink_nas_transport_bf_lur.L14b
p321
aVtc_324_371_ef_cancel_location_intialAttach_wf_modify_bearer_response_service_req_data.WG14a
p322
aVtc_298_434_ms_init_deact_ef_default_bearer_deact_interfered_by_detach_request.W14b
p323
aVtc_298_438_ms_init_deact_ef_delicated_bearer_deact_interfered_by_deactivate_pdp_request_pdn_level.W14b
p324
aVtc_231_117_rnc_reset_when_sgsn_initiated_del_all_session.W14b
p325
aVtc_11_235_ser_req_interfer_deactivation.W14b
p326
aVtc_11_329_serv_req_data_uplink_data_status_new_serv_req_before_rab_ass_resp.W14b
p327
aVtc_334_203_path_failure_intra_rau_inter_rnc_idle_3gdt_mf.W14b
p328
aVtc_23_40_same_cause_codes_with_same_message_type_and_source.W14b
p329
aVtc_306_1130_ef_seamless_move_target_receive_detach_request_with_switchoff_wf_service_request.LWG
p330
aVtc_08_021_fragment_gn_gb_packet.LWG
p331
aVtc_334_311_pgw_restart_after_s4_move_3gdt.LWG
p332
aVtc_132_002_create_ip_interface_eth.LWG
p333
aVtc_56_2_restart.LWG
p334
aVtc_178_471_modify_ss7_sys_noss7.LWG
p335
aVtc_178_970_m3_ietf_set_prim_ip_path.LWG
p336
aVtc_195_517_mme_logging_eps_handover_source_inter_relocation_cancel_Request.LWG
p337
aVtc_73_21_itc_gtpu_s4_sgsn_send_echo_request_w.LWG
p338
aVtc_309_102_create_notification.LWG
p339
aVtc_309_121_replayComplete_notification.LWG
p340
aVtc_309_107_moref_notification.LWG
p341
aVtc_309_123_two_sessions_notification.LWG
p342
aVtc_39_632_mas_dl_no_rab_assign_resp_target.LWG
p343
aVtc_284_330_delete_bearer_interfere_handover_to_non_3GPP_ecm_connected_multi_pdn.LWG
p344
aVtc_166_210_inter_irat_g_to_w_new_main_flow.LWG
p345
aVtc_311_28_intra_srns_reloc_s4_with_sgw_change_3gdt_two_pdns_service_request_frequency.LWG
p346
aVtc_220_005_csfb_to_1xrtt_ue_return_with_detach_request.LWG
p347
aVtc_257_19_pws_etws_resend_write_replace_warning_request_with_ta_list.LWG
p348
aVtc_666_06_block_rt_board.LWG
p349
aVtc_666_02_reboot_ss7_board.LWG
p350
aVtc_297_407_move_at_periodic_rau.LWG
p351
aVtc_33_17_isc_rau_authenticating_interrupted_by_subscription_withdrawn.LWG
p352
aVtc_208_43_interception_after_small_restart.LWG
p353
aVtc_19_26_moving_2_mss_to_different_targets.LWG
p354
aVtc_298_542_sgsn_init_pdn_deact_ef_cancellocation_subscriptionWithdraw_wf_deact_accept.LWG
p355
aVtc_119_202_ospf_interface_opt_vals.LWG
p356
aVtc_239_011_israu_interfering_context_request_no_cancel_location_s4.LWG
p357
aVtc_327_706_recovery_for_DDN__pdn_req_succ_while_wf_MBResp_fail.LWG
p358
aVtc_208_31_sms_mo.G14b
p359
aVtc_218_311_tau_from_sgsn_preserved_gbr_bearer_buffer_1_ubr_1_cbr.LW
p360
aVtc_241_066_israu_new_gn_to_s4_pdp_to_bearer_two_pdp_one_arp_higher_than_policy_map.LW
p361
aVtc_241_1562_intra_rau_with_bearer_sgw_change_create_session_rejected_interfere_by_DSD.LW
p362
aVtc_76_032_sgsn_initiated_modification_ggsn_delete_during_rnc_modify.LW
p363
aVtc_248_453_inter_l_to_w_new_partially_succ_interfering_attach_request_received_wf_rau_complete.LW
p364
aVtc_327_021_recovery_intra_TAU__uplink_Detach_Request_while_waiting_for_Update_Location_Response.LW
p365
aVtc_327_019_recovery_intra_TAU__uplink_Detach_Request_while_waiting_for_Create_Session_Response.LW
p366
aVtc_209_21_attach_detach_imsi.LW
p367
aVtc_209_44_sgsn_init_pdp_modification.LW
p368
aVtc_236_286_3gdt_swichback_delete_bearer_request_received_wf_modify_bearer_response.LW
p369
aVtc_47_002_imsi_attach_ap_gain.LW
p370
aVtc_282_131_deactivate_default_bearer.LW
p371
aVtc_346_600_Location_Based_Policies__User_Location_Changes_Sx_Only_2_CCR_for_same_PDN.LW
p372
aVtc_306_1130_ef_seamless_move_target_receive_detach_request_with_switchoff_wf_service_request.LW
p373
aVtc_250_105_ignore_IDR_when_EPS_sub_downgrade_GPRS_sub.LW
p374
aVtc_318_107_sgw_restart_mf_one_of_pdns_create_after_sgw_restart.LW
p375
aVtc_324_386_ef_mt_sms_wf_frcn_wf_frca_wf_ula.LW
p376
aVtc_298_145_EF_NRSPCA_interfere_Activation.LW
p377
aVtc_298_783_S4_3GDT_downlink_data_notification_wait_MBR_ef_detach.LW
p378
aVtc_311_204_intra_srns_reloc_s4_sgw_change_wf_reloc_req_ack_interrupted_by_cancel_loc_subscrip_withdrawn.LW
p379
aVtc_257_30_pws_sctp_device_failure.LW
p380
aVtc_208_31_sms_mo.G14b
p381
aVtc_295_130_Intra_S1_HO__Sgw_reloc__Downlink_A21_AIS_while_waiting_for_Delete_Session_Response.L14b
p382
aVtc_288_118_pgw_init_bearer_mod_paging_integrity_protection_nok.L14b
p383
aVtc_288_123_pgw_init_bearer_mod_paging_failed_due_to_ppf_cleared.L14b
p384
aVtc_294_412_mme_handle_eps_handover_SGW_unavailable_DNS_query_failure.L14b
p385
aVtc_273_400_tau_intra_bearer_status_ok.L14b
p386
aVtc_327_166_recovery_intra_TAU_SGSN_Context_Request_while_waiting_for_Update_Location_Answer_sgw_change.L14b
p387
aVtc_327_022_recovery_intra_TAU__initial_Detach_Request_while_waiting_for_Ue_Backup_Response.L14b
p388
aVtc_327_311_recovery_service_request__uplink_Attach_Request_while_waiting_for_Location_Update_Response.L14b
p389
aVtc_306_157_ef_seamless_move_source_receive_insert_subscription_data_tads_ecm_idle.L14b
p390
aVtc_306_134_ef_seamless_move_source_receive_s1_setup_wf_modify_bearer_response.L14b
p391
aVtc_306_104_ef_seamless_move_source_receive_ue_context_release_request_wf_source_guti_reallocation_complete.L14b
p392
aVtc_306_093_ef_seamless_move_source_receive_context_request_wf_source_guti_reallocation_complete.L14b
p393
aVtc_306_182_ef_seamless_move_source_receive_handover_required_wf_source_guti_reallocation_complete.L14b
p394
aVtc_257_30_pws_sctp_device_failure.L14b
p395
aVtc_257_17_pws_etws_write_replace_warning_request_rejected_when_olp.L14b
p396
aVtc_214_093_cc_La_Check_Ga.L14b
p397
aVtc_214_1221_mt_sms_while_ps_paging_no_page_response.L14b
p398
aVtc_242_602_rau_sgsn_s3_interrupted_by_tranfer_attach_when_wf_context_ack.L14b
p399
aVtc_242_001_rau_to_sgsn_s3_keep_sgw.L14b
p400
aVtc_318_111_sgw_restart_mf_one_pdn_with_relocate_s8_interface.L14b
p401
aVtc_304_201_inter_tau__control_mode_threshold_not_reached.L14b
p402
aVtc_262_1031_emergency_imsi_attach_multiple_pgw_try_next_pgw_fqdn_error.L14b
p403
aVtc_266_307_Service_Request_SGW_unavailable__initial_context_setup_failure.L14b
p404
aVtc_266_004_DownlinkDataNotification_PPF_Clear.L14b
p405
aVtc_326_423_Inter_TAU_Recovery_Fail__No_Identity_Response_After_T3470.L14b
p406
aVtc_194_502_Different_Notification_during_Attach_Procedure.L14b
p407
aVtc_286_100_pdn_disconnect_delete_session_resend_sgw.L14b
p408
aVtc_268_014_UE_Release_Flow__Downlink_A21_AIS_while_waiting_for_Relase_Access_Bearer_Response.L14b
p409
aVtc_290_043_Timer_Based_GBR_Deact__cancel_location_with_subscription_withdrawn_wf_ue_context_release_complete_before_timer_expires.L14b
p410
aVtc_202_10_downlink_data_during_paging.L14b
p411
aVtc_202_41_type_a_emergency_pdn_ecm_idle.L14b
p412
aVtc_195_034_trace_two_imsi_having_same_imeisv.L14b
p413
aVtc_195_537_mme_logging_tau_inter_old_s10_s3_the_same_address.L14b
p414
aVtc_276_045_Inter_TAU_New_MME__S1_Reset_while_waiting_for_Identity_Response__enhanced_imei_check.L14b
p415
aVtc_33_17_isc_rau_authenticating_interrupted_by_subscription_withdrawn.WG14a
p416
aVtc_284_575_emergency_pdn_connectivity_pb_activate_dedicated_bearer_after_configured_max_bearers_setup.LWG
p417
aVtc_165_10_check_resource_alarms_ap.LWG
p418
aVtc_56_2_restart.LWG
p419
aVtc_95_10_fingerprint.LWG
p420
aVtc_132_002_create_ip_interface_eth.LWG
p421
aVtc_309_121_replayComplete_notification.LWG
p422
aVtc_309_102_create_notification.LWG
p423
aVtc_309_123_two_sessions_notification.LWG
p424
aVtc_309_107_moref_notification.LWG
p425
aVtc_11_496_activate_ipv4_visitor_requested_ipv4_subscribed_ipv4v6_aifav_false_aifv_false.LWG
p426
aVtc_241_754_intra_rau_with_multi_bearer_sgw_change_one_context_failed_node_function_deactivate_pdp_after_rau_on.LWG
p427
aVtc_232_204_bfd__multiplier_variations_ipv6.LWG
p428
aVtc_289_070_GW_Init_Bearer_Modification_Flow_two_CBR_one_UBR_while_wf_modify_eps_bearer_context_accept.LWG
p429
aVtc_289_047_Modify_bearer__ERAB_modify_response_s1_intra_system_handover_triggered_activate_dedicated_bearer_one_pdn_multiple_bearer.LWG
p430
aVtc_202_41_type_a_emergency_pdn_ecm_idle.LWG
p431
aVtc_202_320_mf_seamless_move_by_mme_ue_ecm_idle_s1_sel_freq_1.LWG
p432
aVtc_178_970_m3_ietf_set_prim_ip_path.LWG
p433
aVtc_324_327_ef_service_req_data_direct_transfer_ingore.LWG
p434
aVtc_306_1130_ef_seamless_move_target_receive_detach_request_with_switchoff_wf_service_request.LWG
p435
aVtc_335_35_wifi_to_mobility_in_ecm_idle_af__no_estimation_response_from_eNB_timeout_max_3000.LWG
p436
aVtc_346_575_AF__HO_X2_1PDN_MBR_failure_terminate_sx.LWG
p437
aVtc_209_44_sgsn_init_pdp_modification.LWG
p438
aVtc_218_311_tau_from_sgsn_preserved_gbr_bearer_buffer_1_ubr_1_cbr.LWG
p439
aVtc_327_370_recovery_service_request__initial_extended_service_request_while_waiting_for_Sub_procedure_Initial_Context_Setup_Response.LWG
p440
aVtc_205_71_02_ss7_SCCP_UDT_XUDT.LWG
p441
aVtc_119_101_ospf_area_cli.LWG
p442
aVtc_59_9_mtmsi_restart_counter.LWG
p443
aVtc_666_06_block_rt_board.LWG
p444
aVtc_238_201_mme_eps_irat_Gn_ho_target__three_pdn_one_MBR_with_lbi.LW
p445
aVtc_44_004_small_restart__sctp_fe_restart.LW
p446
aVtc_009_015_cancel_location_after_restart.LW
p447
aVtc_241_301_israu_new_create_session_failed_and_paging_timeout.LW
p448
aVtc_204_207_mme_eps_ho_target__multi_pdn_sgw_relocation__failed_modify_bearer_request.LW
p449
aVtc_53_15_inter_new_srns_reloc_t_reloc_rau_timeout2.LW
p450
aVtc_306_1130_ef_seamless_move_target_receive_detach_request_with_switchoff_wf_service_request.LW
p451
aVtc_231_173_ms_init_detach_interfered_by_cancel_location_withdraw.LW
p452
aVtc_231_117_rnc_reset_when_sgsn_initiated_del_all_session.LW
p453
aVtc_298_783_S4_3GDT_downlink_data_notification_wait_MBR_ef_detach.LW
p454
aVtc_243_330_tau_from_sgsn_s3_emergency_type_a_no_restriction.LW
p455
aVtc_318_107_sgw_restart_mf_one_of_pdns_create_after_sgw_restart.LW
p456
aVtc_194_064_activate_loc_not_confirmed_ul_fails_network_failure.LW
p457
aVtc_194_170_hss_reset_ue_activity_service_request.LW
p458
aVtc_194_188_hss_reset_ef_wait_for_notify_response_with_full_imsi.LW
p459
aVtc_194_187_hss_reset_after_large_restart_with_full_imsi.LW
p460
aVtc_247_201_inter_w_to_l_old_two_pdns_with_dedicated_bearer_one_pdn_failed_with_sgw_change.LW
p461
aVtc_274_381_Intra_and_pTAU__Downlink_A21_AIS_while_waiting_for_Authentication_Response.LW
p462
aVtc_196_058_nrspca_alloc_with_diff_ti.LW
p463
aVtc_209_21_attach_detach_imsi.LW
p464
aVtc_245_338_israu_new_l_to_w_buffer_ubr_interferred_with_modify_pdp_request.W14b
p465
aVtc_241_115_intra_rau_with_bearer_sgw_unchange_modify_no_response_ap_takeover.W14b
p466
aVtc_209_44_sgsn_init_pdp_modification.W14b
p467
aVtc_322_161_smooth_move_ef_nas_after_paging_response_ignore.W14b
p468
aVtc_231_116_rnc_resetresource_when_ms_act_si_ms_deact_rab_est.W14b
p469
aVtc_231_173_ms_init_detach_interfered_by_cancel_location_withdraw.W14b
p470
aVtc_231_117_rnc_reset_when_sgsn_initiated_del_all_session.W14b
p471
aVtc_26_058_activate_3_primary_contexts_different_policy_maps.W14b
p472
aVtc_26_075_ms_initiated_pdp_context_modification_streaming_tft.W14b
p473
aVtc_298_536_sgsn_init_pdn_deact_ef_delete_bearer_req_by_pgw_contain_lbi_wf_delete_session_resp.W14b
p474
aVtc_52_12_inter_old_relocation_cancel_no_response.W14b
p475
aVtc_311_201_intra_srns_reloc_s4_sgw_change_wf_rau_req_interrupted_by_target_rnc_reset.W14b
p476
aVtc_11_237_context_modification_with_aace_mtz.W14b
p477
aVtc_33_17_isc_rau_authenticating_interrupted_by_subscription_withdrawn.LWG
p478
aVtc_248_365_inter_l_to_w_new_iu_release_request_received_buffered_ubr_discarded.LWG
p479
aVtc_289_047_Modify_bearer__ERAB_modify_response_s1_intra_system_handover_triggered_activate_dedicated_bearer_one_pdn_multiple_bearer.LWG
p480
aVtc_232_511_static_routes__bfd_supervision_of_static_route_v6_on_Gom.LWG
p481
aVtc_225_104_2_mo_call_active_mode_downlink_data_success.LWG
p482
aVtc_225_630_mobile_reachable_timer_longer_than_implicit_detach.LWG
p483
aVtc_274_380_Intra_and_pTAU__Downlink_A21_AIS_while_waiting_for_Create_Session_Response.LWG
p484
aVtc_178_938_sctp_setprofile.LWG
p485
aVtc_178_970_m3_ietf_set_prim_ip_path.LWG
p486
aVtc_77_5_attach_activate2_g_crash.LWG
p487
aVtc_208_22_attach_detach_imsi.LWG
p488
aVtc_208_31_sms_mo.LWG
p489
aVtc_306_1400_ef_seamless_move_target_sgs_release_request.LWG
p490
aVtc_44_004_small_restart__sctp_fe_restart.LWG
p491
aVtc_194_991_downlink_A21_AIS_during_waiting_location_report__idr_flags_ef.LWG
p492
aVtc_59_9_mtmsi_restart_counter.LWG
p493
aVtc_97_035_inter_sgsn_psho_mf_with_lawful_intercept.LWG
p494
aVtc_79_003_deactivate_sgsn_initiated_rab_failure.LWG
p495
aVtc_236_073_hard_ho_intra_rau_with_3gdt_bearer_sgw_nochange_without_seq.LWG
p496
aVtc_324_069_af_modify_bearer_dedicated_bearer_fail.LWG
p497
aVtc_231_245_PGW_init_modification_EF_ms_detach_idle.LWG
p498
aVtc_256_382_Sv_Path_Mgt__available_MSC_disable_Sv.LWG
p499
aVtc_204_256_mme_eps_ho_target_imei_check_no_imei_in_forward_relocation_request_ok.LWG
p500
aVtc_342_146_update_one_of_two_targets_x2_x3_address_ccoutput.LWG
p501
aVtc_100_21_inter_w_to_g_old_mf_with_lawful_intercept.LWG
p502
aVtc_179_321_Ccheck_ipsec_sa.LWG
p503
aVtc_284_135_emergency_pdn_connectivity_no_notify_request.LWG
p504
aVtc_284_156_pdn_connectivity_pb_activate_dedicated_bearer_for_other_pdn.LWG
p505
aVtc_241_043_israu_new_with_multi_bearer_sgw_change_one_failed.LWG
p506
aVtc_241_485_intra_rau_ignored_when_session_busy_temp_solution_as_initial_ue.LWG
p507
aVtc_309_102_create_notification.LWG
p508
aVtc_309_121_replayComplete_notification.LWG
p509
aVtc_309_123_two_sessions_notification.LWG
p510
aVtc_309_107_moref_notification.LWG
p511
aVtc_209_31_sms_mo.LWG
p512
aVtc_209_44_sgsn_init_pdp_modification.W14b
p513
aVtc_11_231_activate_primary_after_LR_II.W14b
p514
aVtc_39_187_detach_trigger_re_attach_new_iu.W14b
p515
aVtc_322_161_smooth_move_ef_nas_after_paging_response_ignore.W14b
p516
aVtc_231_117_rnc_reset_when_sgsn_initiated_del_all_session.W14b
p517
aVtc_26_060_israu_mbr_set_to_zero_conversational.W14b
p518
aVtc_241_460_israu_new_with_dedicated_bearer_sgw_not_change_non_gbr_bearer_inactive.W14b
p519
aVtc_241_710_intra_rau_dedicate_bearer_update_failed_and_pgw_delete_bearer_after_rau.W14b
p520
aVtc_334_255_service_req_multi_pdn_restart_counter_changed_3gdt.W14b
p521
aVtc_33_17_isc_rau_authenticating_interrupted_by_subscription_withdrawn.WG14a
p522
aVtc_324_425_ef_payload_buffered_wf_security_mode_complete_payload_different_pdn.LW
p523
aVtc_314_041_sgsn_init_qos_modification_intra_rau_l_to_w.LW
p524
aVtc_335_35_wifi_to_mobility_in_ecm_idle_af__no_estimation_response_from_eNB_timeout_max_3000.LW
p525
aVtc_231_173_ms_init_detach_interfered_by_cancel_location_withdraw.LW
p526
aVtc_244_535_SLg_Location_Request__Downlink_A21_AIS_wwf_Location_Response_from_ESMLC.LW
p527
aVtc_250_91_s6d_cli_get_subscriber_detail_eps_subscription.LW
p528
aVtc_306_1130_ef_seamless_move_target_receive_detach_request_with_switchoff_wf_service_request.LW
p529
aVtc_220_593_csfb_to_1xrtt_context_request_during_extended_service_request.LW
p530
aVtc_262_842_normal_attach_rejected_with_not_allowed_apn_in_odb_free_apn_list_for_roamer__odb_bit0.LW
p531
aVtc_262_751_attach_handover_indication_no_override_after_timeout.LW
p532
aVtc_260_070_mbms_session_start_af_gw_resend_request_msg_diff_absolute_time.LW
p533
aVtc_218_311_tau_from_sgsn_preserved_gbr_bearer_buffer_1_ubr_1_cbr.LW
p534
aVtc_196_172_nrspca_during_t3385_when_receive_sgsn_context_ack_not_accepted.LW
p535
aVtc_209_44_sgsn_init_pdp_modification.LW
p536
aVtc_103_705_delete_peer_send_DPR_timeout_on_DPA.LW
p537
aVtc_304_129_initial_ue_intra_tau_ecm_idle_control_mode_threshold_exceeded_usc_reject_wf_intra_tau_response.LW
p538
aVtc_202_10_downlink_data_during_paging.LW
p539
aVtc_202_02_ecm_idle_s1_release.LW
p540
aVtc_193_402_auth_vectors_answer_from_hss_with_more_vectors_than_requested.LW
p541
aVtc_327_404_recovery_service_request__Gn_Identification_Request_while_waiting_for_Sub_Procedure.LW
p542
aVtc_256_175_mme_eps_srvcc_ho_source_cs_only_ue_release_request_wf_srvcc_ps_to_cs_response.LW
p543
aVtc_256_135_mme_eps_srvcc_ho_source_cs_only_initial_ue_detach_request_wf_srvcc_ps_to_cs_complete_notification.LW
p544
aVtc_79_024_activate_secondary_no_rnc_response.LW
p545
aVtc_241_482_israu_new_with_dedicated_bearer_all_inactive_create_session_response_timeout.LW
p546
aVtc_295_130_Intra_S1_HO__Sgw_reloc__Downlink_A21_AIS_while_waiting_for_Delete_Session_Response.LW
p547
aVtc_195_208_mme_logging_maximum_modify_eps_bearer_context.LW
p548
aVtc_195_406_ue_trace_start_meanwhile_handover_required.LW
p549
aVtc_208_31_sms_mo.G14b
p550
aVtc_208_22_attach_detach_imsi.G14b
p551
aVtc_208_43_interception_after_small_restart.G14b
p552
aVtc_202_412_af_seamless_move_target_lur_resp_timeout_from_msc.L14b
p553
aVtc_202_421_af_seamless_move_target_initialCtxSetupResponse_noSuccDefaultBearer_implicit_detach.L14b
p554
aVtc_273_307_tau_intra_indicating_emergency_emergency_ongoing_update_location_fails.L14b
p555
aVtc_295_124_tau_after_ho_tz_change_emm_information_meanwhile_handover_required_HO_success.L14b
p556
aVtc_293_041_X2_Based_HO__Sgw_reloc__Downlink_A21_AIS_while_wf_Delete_Session_Response.L14b
p557
aVtc_267_511_Service_Request_SGW_unavailable__IDR_with_QoS_modification_while_wf_Create_Session_Response.L14b
p558
aVtc_214_093_cc_La_Check_Ga.L14b
p559
aVtc_214_100_sctp_alarms_two_sgs_peers.L14b
p560
aVtc_304_012_guti_attach_reject__control_mode_threshold_exceeded_transfer.L14b
p561
aVtc_304_134_uplink_nas_intra_tau_control_mode_threshold_exceeded_usc_continue_handover.L14b
p562
aVtc_304_261_tau_from_gnsgsn_2g_control_mode_wf_update_location_response_reject_congestion.L14b
p563
aVtc_304_006_attach_reject__control_mode_stop_discarding_when_control_period_ends.L14b
p564
aVtc_327_151_recovery_intra_TAU_Create_Bearer_Request_while_waiting_for_Modify_Bearer_Response.L14b
p565
aVtc_261_42_isd_ef_mme_s1_ho_target_inter.L14b
p566
aVtc_326_480_Inter_TAU_Recovery_Unknown_GUTI__No_TAU_Complete.L14b
p567
aVtc_257_30_pws_sctp_device_failure.L14b
p568
aVtc_335_122_Intra_S1_HO_AF__GA_change.L14b
p569
aVtc_282_150_deactivate_SGW_unavailable__create_session_dedicated_bearer_failed.L14b
p570
aVtc_197_573_sgw_selection_modification_of_ip_address.L14b
p571
aVtc_340_77_validation_move_l_af_forward_relocation_response_without_moveIndicator.L14b
p572
aVtc_268_014_UE_Release_Flow__Downlink_A21_AIS_while_waiting_for_Relase_Access_Bearer_Response.L14b
p573
aVtc_225_651_mt_call_active_mode_while_la_updating_no_lai_in_paging_req_param_tamr_true.L14b
p574
aVtc_346_512_AF__TAU_Inter_New__sgw_unavailable_terminate_sx.L14b
p575
aVtc_262_135_attach_with_homogeneous_voip_support.L14b
p576
aVtc_306_1087_ef_seamless_move_target_buffer_extended_service_request_wf_icsr.L14b
p577
aVtc_306_1141_ef_seamless_move_target_receive_path_switch_request_wf_modify_beaerer_response.L14b
p578
aVtc_310_244_ef__S1_Reset_wf_FR_Complete_PS_to_CS_Complete_received.L14b
p579
aVtc_194_187_hss_reset_after_large_restart_with_full_imsi.L14b
p580
aVtc_44_830_mme_assoc_reestablish__local_ep_restart_s1_mme.L14b
p581
aVtc_318_219_deactivate_non_last_pdn__Downlink_Data_Notification_while_waiting_for_Paging_Response.L14b
p582
aVtc_318_187_sgw_restart_ef_relocate_interrupt_by_CreateBearerReq.L14b
p583
aVtc_244_806_mt_lr_donwlink_generic_nas_transport_meanwhile_handover_required_HO_success.L14b
p584
aVtc_289_011_Modify_bearer__ERAB_modify_response_s1_intra_system_handover_triggered.L14b
p585
aVtc_231_116_rnc_resetresource_when_ms_act_si_ms_deact_rab_est.W14b
p586
aVtc_11_238_israu_new_sgsn_time_zone_in_gmm_info_and_ggsn.W14b
p587
aVtc_26_095_israu_rnc_change_to_old_neg.W14b
p588
aVtc_322_161_smooth_move_ef_nas_after_paging_response_ignore.W14b
p589
aVtc_209_44_sgsn_init_pdp_modification.W14b
p590
aVtc_298_438_ms_init_deact_ef_delicated_bearer_deact_interfered_by_deactivate_pdp_request_pdn_level.W14b
p591
aVtc_31_064_activate_loc_not_confirmed_ul_fails_network_failure.W14b
p592
aVtc_247_213_inter_w_to_l_old_with_sgw_relo_wf_cancel_location_interrupted_by_transfered_rau.W14b
p593
aVtc_194_008_cl_update_procedure_detached_unknown_mme.LW
p594
aVtc_194_203_isd_pdn_type_change_all_pdn_connections_impacted.LW
p595
aVtc_324_427_ef_payload_buffered_wf_sec_different_contextId_selective_service_request_on.LW
p596
aVtc_274_441_Intra_TAU_Detach_Request_while_waiting_for_Create_Session_Response_2PDNs_partially_failure_sgw_unavailable.LW
p597
aVtc_293_041_X2_Based_HO__Sgw_reloc__Downlink_A21_AIS_while_wf_Delete_Session_Response.LW
p598
aVtc_238_052_mme_eps_irat_ho_target__tau_request_during_wf_handover_notify.LW
p599
aVtc_26_210_activation_earp_disabled.LW
p600
aVtc_306_1130_ef_seamless_move_target_receive_detach_request_with_switchoff_wf_service_request.LW
p601
aVtc_306_1308_ef_seamless_move_target_buffer_update_bearer_request.LW
p602
aVtc_245_301_inter_rau_insert_entry_into_interface_cache.LW
p603
aVtc_304_003_attach_success__control_mode_threshold_exceeded.LW
p604
aVtc_78_083_israu_new_sgsn_accept_foreign_ms_no_redirect_attempt_flag.LW
p605
aVtc_236_107_s4_3gdt_based_on_sr_change_DtThresholdNumber.LW
p606
aVtc_268_014_UE_Release_Flow__Downlink_A21_AIS_while_waiting_for_Relase_Access_Bearer_Response.LW
p607
aVtc_44_870_mme_assoc_reestablish__board_block_deblock_s1_mme.LW
p608
aVtc_11_223_activate_primary_APN_test_V.LW
p609
aVtc_206_102_Ccheck_EventJob_EbmStream_with_FileOutputEnabled_true.LW
p610
aVtc_101_008_multiple_mbms_session_payload.LW
p611
aVtc_009_005_attach_after_purge.LW
p612
aVtc_23_501_cdr_format_r6_NO_hsdpa_qos.LW
p613
aVtc_243_202_tau_from_sgsn_s3_get_new_sgw_two_pdn_connections_first_ok_second_failed.LW
p614
aVtc_243_214_tau_from_sgsn_s3_new_sgw_two_pdn_connections_first_ok_second_unknown_in_ue.LW
p615
aVtc_243_205_tau_from_sgsn_s3_keep_old_sgw_two_pdn_connections_all_failed.LW
p616
aVtc_275_629_tau_inter_new_sgw_unavailable_no_other_sgw_found.LW
p617
aVtc_298_024_nrspca_s4_request_secondary_reject_activation_rejected_unspecified.LW
p618
aVtc_298_783_S4_3GDT_downlink_data_notification_wait_MBR_ef_detach.LW
p619
aVtc_318_116_sgw_restart_mf_one_pdn_with_relocate_by_ReleaseAccessBearersResponse.LW
p620
aVtc_196_058_nrspca_alloc_with_diff_ti.LW
p621
aVtc_166_334_activate_fail_interrupted_by_deactivate_req_when_updating_in_GGSN.WG14a
p622
aVtc_208_22_attach_detach_imsi.G14b
p623
aVtc_297_407_move_at_periodic_rau.G14b
p624
aVtc_06_630_plain_ggsn_support_dual_stack_with_neverTryPgw.G14b
p625
aVtc_92_0330_oms_pm_A43_01.LWG
p626
aVtc_322_172_smooth_move_ef_gr_cli_delete_subscriber_data_wf_security_mode_complete.LWG
p627
aVtc_666_02_reboot_ss7_board.LWG
p628
aVtc_666_06_block_rt_board.LWG
p629
aVtc_239_011_israu_interfering_context_request_no_cancel_location_s4.LWG
p630
aVtc_346_500_AF__TAU_Inter_New__CCR_Initial__no_CCA_received.LWG
p631
aVtc_346_501_AF__TAU_Inter_New__No_SAPC_configured.LWG
p632
aVtc_346_550_AF__HO_Inter_Target_from_gn_CCR_Initial_no_CCA_received.LWG
p633
aVtc_311_204_intra_srns_reloc_s4_sgw_change_wf_reloc_req_ack_interrupted_by_cancel_loc_subscrip_withdrawn.LWG
p634
aVtc_202_17_service_request_during_release_access_bearers.LWG
p635
aVtc_202_10_downlink_data_during_paging.LWG
p636
aVtc_202_362_mf_seamless_move_by_ue_5_subscribers_2_target_mmes.LWG
p637
aVtc_267_508_Service_Request_SGW_unavailable__Insert_Subscription_Data_while_wf_Create_Session_Response.LWG
p638
aVtc_208_22_attach_detach_imsi.LWG
p639
aVtc_289_047_Modify_bearer__ERAB_modify_response_s1_intra_system_handover_triggered_activate_dedicated_bearer_one_pdn_multiple_bearer.LWG
p640
aVtc_289_100_last_pdn_pgw_init_bearer_mod_wf_service_interrupted_by_dbr_with_lbi.LWG
p641
aVtc_73_41_gtpu_sgsn_dont_send_gpu_echo_request_w.LWG
p642
aVtc_257_17_pws_etws_write_replace_warning_request_rejected_when_olp.LWG
p643
aVtc_97_035_inter_sgsn_psho_mf_with_lawful_intercept.LWG
p644
aVtc_230_115_sgw_create_bearer_request_s4.LWG
p645
aVtc_281_011_Activate_bearer__Handover_required_while_wf_erab_setup_response.LWG
p646
aVtc_119_202_ospf_interface_opt_vals.LWG
p647
aVtc_306_131_ef_seamless_move_source_receive_s1_setup_wf_frr_ecm_connected.LWG
p648
aVtc_306_1130_ef_seamless_move_target_receive_detach_request_with_switchoff_wf_service_request.LWG
p649
aVtc_326_635_S6a_Throttling_Subscriber_Data_Flush_then_Restore_caused_Detach_Timer_Stopped_and_UE_not_Detached.LWG
p650
aVtc_178_938_sctp_setprofile.LWG
p651
aVtc_178_970_m3_ietf_set_prim_ip_path.LWG
p652
aVtc_43_101__removal_of_disconnected_eNodeBs__CLI_removal.LWG
p653
aVtc_298_074_s4_nrspca_activate_same_nsapi_of_dedicated_bearer_apn_failed.LWG
p654
aVtc_340_124_oms_consistence_check_for_action_pool_move_validation_start.LWG
p655
aVtc_309_102_create_notification.LWG
p656
aVtc_309_121_replayComplete_notification.LWG
p657
aVtc_309_123_two_sessions_notification.LWG
p658
aVtc_309_107_moref_notification.LWG
p659
aVtc_347_031_Inter_HO_Target__RAR_while_waiting_for_Create_Session_Response_and_Handover_Notify.LWG
p660
aVtc_195_406_ue_trace_start_meanwhile_handover_required.L14b
p661
aVtc_195_404_ue_trace_start_s1_intra_system_handover_triggered_HO_cancel.L14b
p662
aVtc_284_563_emergency_pdn_connectivity_all_pgw_in_list_fail.L14b
p663
aVtc_284_112_pdn_connectivity_activate_bearer_no_response_from_ue.L14b
p664
aVtc_318_120_sgw_restart_mf_both_s5_and_s8_interface.L14b
p665
aVtc_318_253_restoration_triggered_by_modify_bearer_response.L14b
p666
aVtc_346_501_AF__TAU_Inter_New__No_SAPC_configured.L14b
p667
aVtc_346_553_AF__HO_Inter_Target_from_gn_2PDN_one_fail_in_ho_request_ack.L14b
p668
aVtc_316_283_MME_Pool_Move_ECM_Connected_Source_MME__Delete_UE_Backup.L14b
p669
aVtc_316_404_Periodic_Backup_subsequent_backup_triggered_by_Service_Request.L14b
p670
aVtc_316_405_Periodic_Backup_IMEI_Attach_Emergency__No_UE_Backup.L14b
p671
aVtc_206_023_ebm_server_connection_failed.L14b
p672
aVtc_281_009_Activate_bearer__Handover_Required_while_wf_eps_bearer_context_accept.L14b
p673
aVtc_258_002_activate_cell_change_reporting_during_attach.L14b
p674
aVtc_345_141_af__mt_csfb_with_psho__ecm_idle_gsm_access.L14b
p675
aVtc_280_133_activate_4_dedicated_bearers_timeout_nas_partially_ok.L14b
p676
aVtc_214_093_cc_La_Check_Ga.L14b
p677
aVtc_304_266_tau_from_gnsgsn_2g_control_mode_wf_delete_all_bearers_response_exception_case_reject_congestion_subscriber_cancelled.L14b
p678
aVtc_202_41_type_a_emergency_pdn_ecm_idle.L14b
p679
aVtc_288_230_pgw_init_bearer_mod_QoS_UE_reject_dedicated_cc_neqs_invalid_bearer_one_conn.L14b
p680
aVtc_268_034_Timer_Based_GBR_Deact__No_UE_Context_Release_Complete_when_Timer_Expires.L14b
p681
aVtc_220_600_csfb_to_1xrtt_uplink_nas_transport_interfere_tau_intra.L14b
p682
aVtc_302_211_1xrtt_srvcc_ho_failure_status_from_iws_ue_idle.L14b
p683
aVtc_256_351_mme_eps_no_notify_request_after_intra_mme_tau_licence_off.L14b
p684
aVtc_306_018_ef_in_af_seamless_move_source_receive_detach_request_wf_modify_bearer_response_af.L14b
p685
aVtc_257_10_pws_etws_write_replace_warning_request_feature_off.L14b
p686
aVtc_257_30_pws_sctp_device_failure.L14b
p687
aVtc_194_187_hss_reset_after_large_restart_with_full_imsi.L14b
p688
aVtc_266_308_Service_Request_SGW_unavailable__GUTI_Reallocation_failure.L14b
p689
aVtc_267_225_Service_Request__Create_Bearer_Request_while_waiting_for_Modify_Bearer_Response.L14b
p690
aVtc_267_230_Service_Request__Transfered_Attach_Request_while_waiting_for_Initial_Context_Setup_Response.L14b
p691
aVtc_197_110_failure_at_dns_naptr_service_not_found.L14b
p692
aVtc_289_047_Modify_bearer__ERAB_modify_response_s1_intra_system_handover_triggered_activate_dedicated_bearer_one_pdn_multiple_bearer.L14b
p693
aVtc_326_634_S6a_Throttling_ULR_Congestion_Subscriber_Data_Flush_caused_Detach_Timer_Stopped_and_UE_not_Detached.L14b
p694
aVtc_243_334_tau_from_sgsn_s3_emergency_type_c_ptmsi_sign_mismatch.L14b
p695
aVtc_96_024_intra_sgsn_intra_ra_psho_llc_pdu_arrives_no_psho_complete_t14_expiry.G14b
p696
aVtc_322_161_smooth_move_ef_nas_after_paging_response_ignore.W14b
p697
aVtc_241_016_intra_rau_with_bearer_sgw_unchange_mf_s4_with_all_fTeid_undefined_service_request_data.W14b
p698
aVtc_11_231_activate_primary_after_LR_II.W14b
p699
aVtc_324_368_ef_cancel_location_with_updateProcedure_wf_modify_bearer_response_after_ula_hss.W14b
p700
aVtc_231_172_iu_release_request_interfere_ms_init_deactivation.W14b
p701
aVtc_231_117_rnc_reset_when_sgsn_initiated_del_all_session.W14b
p702
aVtc_231_113_rnc_reset_during_ms_act_si_ms_deact_rnc_contact.W14b
p703
aVtc_39_187_detach_trigger_re_attach_new_iu.W14b
p704
aVtc_209_44_sgsn_init_pdp_modification.W14b
p705
aVtc_289_015_Modify_bearer__ERAB_modify_response_s1_intra_system_handover_triggered_resend_2_times.L14b
p706
aVtc_256_150_mme_eps_srvcc_ho_source_cs_only_emergency_delete_bearer_request_non_3gpp_wf_delete_bearer_request.L14b
p707
aVtc_295_119_Intra_S1_HO__With_sgw_relocation_main_flow.L14b
p708
aVtc_327_354_recovery_service_request__initial_inter_TAU_while_waiting_for_Sub_Procedure__Auth_Response.L14b
p709
aVtc_327_605_Inter_TAU_Recovery__EnodeB_reset_while_waiting_for_Ue_Backup_Retrieval_Response.L14b
p710
aVtc_194_901_notification_during_attach__idr_flags.L14b
p711
aVtc_197_521_intra_tau_with_sgw_relocation_table_empty_type_a_failed.L14b
p712
aVtc_262_063_attach_tai_not_supported.L14b
p713
aVtc_332_080_mf__ps_paging_during_cs_paging_cs_is_not_mps_and_ps_is_mps.L14b
p714
aVtc_225_312_mt_call_active_mode_nas_non_delivery__s1_intra_system_handover_triggered_resend_2_times.L14b
p715
aVtc_274_381_Intra_and_pTAU__Downlink_A21_AIS_while_waiting_for_Authentication_Response.L14b
p716
aVtc_274_380_Intra_and_pTAU__Downlink_A21_AIS_while_waiting_for_Create_Session_Response.L14b
p717
aVtc_335_25_wifi_to_mobility_in_ecm_idle_mf__more_than_1_cell_infos_from_wic__all_cells_succeed_from_eNB.L14b
p718
aVtc_335_34_wifi_to_mobility_in_ecm_idle_af__feature_off_in_mme.L14b
p719
aVtc_292_015_x2_based_ho_with_ta_change_after_inter_tau_no_tau_complete_on_detached_ue.L14b
p720
aVtc_218_203_TAU_from_SGSN__Attach_Request_while_waiting_for_Context_Response.L14b
p721
aVtc_257_04_pws_etws_main_flow_write_replace_warning_request_with_2_cbc.L14b
p722
aVtc_257_30_pws_sctp_device_failure.L14b
p723
aVtc_326_346_Service_Request_with_unknown_STMSI_mismatch.L14b
p724
aVtc_326_504_Recovery_for_DDN__Retrieval_multiple_responses_and_Paging.L14b
p725
aVtc_326_423_Inter_TAU_Recovery_Fail__No_Identity_Response_After_T3470.L14b
p726
aVtc_214_093_cc_La_Check_Ga.L14b
p727
aVtc_214_702_msc_pool_intra_tau_with_associated_msc_info_la_change_msc_unreachable.L14b
p728
aVtc_214_810_mo_sms_active_nas_non_delivery_interaction_with_other_procedure_HO_undetected_retry_counter_exceed.L14b
p729
aVtc_211_024_streamed_cell_trace_mapping_alarm_ipv6.L14b
p730
aVtc_238_131_Report_SN_IRATHO_without_SGW_changed_PLMN_SN_diff_2_PDN.L14b
p731
aVtc_44_004_small_restart__sctp_fe_restart.L14b
p732
aVtc_44_870_mme_assoc_reestablish__board_block_deblock_s1_mme.L14b
p733
aVtc_261_42_isd_ef_mme_s1_ho_target_inter.L14b
p734
aVtc_244_806_mt_lr_donwlink_generic_nas_transport_meanwhile_handover_required_HO_success.L14b
p735
aVtc_281_009_Activate_bearer__Handover_Required_while_wf_eps_bearer_context_accept.L14b
p736
aVtc_217_010_rau_to_sgsn_rau_after_tau_to_gngp_sgsn.L14b
p737
aVtc_220_509_csfb_to_1xrtt_in_ecm_idle_extended_service_request_wf_initial_context_setup_response.L14b
p738
aVtc_193_001_resending_auth_req.L14b
p739
aVtc_304_217_inter_tau_different_ie_control_mode_threshold_exceeded_reject_wf_update_location_response_after_ho.L14b
p740
aVtc_306_1335_ef_seamless_move_target_receive_cli_delete_subscriber_wf_service_request.L14b
p741
aVtc_306_237_ef_seamless_move_source_receive_update_bearer_request_wf_source_guti_reallocation_complete.L14b
p742
aVtc_306_1370_ef_seamless_move_target_ignore_erab_release_indication_wf_ula_icsr.L14b
p743
aVtc_275_304_tau_inter_new_new_sgw_too_high_QoS_for_one_default_and_one_dedicated_bearer.L14b
p744
aVtc_237_062_mme_eps_irat_ho_source__equipement_blacklisted_wwf_Cancel_Location.L14b
p745
aVtc_237_032_mme_eps_irat_ho_source__service_request_after_cancel_location_req.L14b
p746
aVtc_290_001_UE_release__Delete_bearer_while_wf_context_release.L14b
p747
aVtc_290_096_Timer_Based_GBR_Deact__sgsn_context_request_wf_delete_bearer_request_after_timer_expires.L14b
p748
aVtc_202_551_af_seamless_move_target_mandatory_paging_failed_due_to_OLP.L14b
p749
aVtc_329_003_attach_rs_allowed_emergency_plmn_change_ula_fails.L14b
p750
aVtc_316_230_SRVCC_to_W_CS_With_Two_Voice_Bearer__Backup_UE.L14b
p751
aVtc_267_229_Service_Request__PDN_connectivity_request_while_wf_authentication_response.L14b
p752
aVtc_263_027_Attach_Flow__Attach_Request_Different_IEs_IP_OK_while_waiting_for_Identity_Response.L14b
p753
aVtc_263_003_Attach_Flow__Attach_Request_Same_IEs_IP_NOK_while_waiting_for_Delete_Session_Response.L14b
p754
aVtc_266_011_DownlinkDataNotification_interfering_ISD_sgsn00026976.L14b
p755
aVtc_266_020_DownlinkDataFailureInd_repeat_paging_timer_on.L14b
p756
aVtc_43_101__removal_of_disconnected_eNodeBs__CLI_removal.L14b
p757
aVtc_195_032_compare_trace_id_imeisv.L14b
p758
aVtc_195_022_deactivate_ue_trace.L14b
p759
aVtc_241_619_intra_rau_with_dedicated_bearer_sgw_change_wait_security_mode_complete_handle_dbr.LW
p760
aVtc_241_637_intra_rau_with_bearer_sgw_change_with_3gdt_wait_rau_complete_interfer_by_sgsn_context_req.LW
p761
aVtc_218_211_1_TAU_from_SGSN__downlink_data_notification_while_waiting_for_update_location_answer.LW
p762
aVtc_236_107_s4_3gdt_based_on_sr_change_DtThresholdNumber.LW
p763
aVtc_231_275_rab_release_si_deactivate_with_TDI_false_TI_dedicated_bearer.LW
p764
aVtc_231_242_PGW_init_modification_EF_pgw_deactivation_at_ran_idle.LW
p765
aVtc_324_424_ef_payload_buffered_wf_security_mode_complete_payload_different_contextId.LW
p766
aVtc_53_36_inter_new_srns_reloc_interfering_signal_cancel_location_wf_update_location_answer.LW
p767
aVtc_220_411_csfb_to_1xrtt_in_ecm_connected_path_switch_request_subscription_cancelled.LW
p768
aVtc_220_618_Extended_Service_Request__Attach_Request_while_waiting_for_Initial_Context_Setup_Response.LW
p769
aVtc_341_511_x2_activity_event_attached_user_notification.LW
p770
aVtc_204_1100_mme_eps_ho_target_emergency_type_a__Cancel_Location_from_HSS_while_wf_modify_bearer_response.LW
p771
aVtc_195_519_mme_logging_downlinkdataNotification_paging_failure_ue_not_responding.LW
p772
aVtc_194_1562_HSS_initiated_ISD_in_Idle_mode_when_current_CSG_Id_removed.LW
p773
aVtc_51_013_intra_srns_reloc_t_reloc_complete_intra_timeout.LW
p774
aVtc_303_003_Intra_S1_HO__Downlink_A21_AIS_while_wf_Handover_Request_Ack__Reset_from_source_eNB_while_wf_Handover_Notify.LW
p775
aVtc_303_004_X2_Based_HO__Downlink_A21_AIS_while_wf_TAU_Request_and_Emm_Information_in_nas_nondeliver.LW
p776
aVtc_276_283_Inter_TAU_New_MME__Delete_Bearer_Request_change_to_non_3gpp_while_waiting_for_TAU_Complete.LW
p777
aVtc_276_045_Inter_TAU_New_MME__S1_Reset_while_waiting_for_Identity_Response__enhanced_imei_check.LW
p778
aVtc_257_03_pws_etws_main_flow_stop_warning_request_with_ta_list.LW
p779
aVtc_306_1130_ef_seamless_move_target_receive_detach_request_with_switchoff_wf_service_request.LW
p780
aVtc_44_004_small_restart__sctp_fe_restart.LW
p781
aVtc_44_505_s1ap_id_checks__ho_request_ack_unknown_ids.LW
p782
aVtc_12_512_pmm_undefined_attach_when_updating_location_interfered_by_rnc_reset.LW
p783
aVtc_293_041_X2_Based_HO__Sgw_reloc__Downlink_A21_AIS_while_wf_Delete_Session_Response.LW
p784
aVtc_59_9_mtmsi_restart_counter.LWG
p785
aVtc_110_005_inbound_outbound_pf_rule_cli_ip.LWG
p786
aVtc_103_1102_fallback_to_imsins_success.LWG
p787
aVtc_341_533_x2_activity_event_emergency_attach_detach_roaming_restriction_imsi.LWG
p788
aVtc_309_121_replayComplete_notification.LWG
p789
aVtc_309_102_create_notification.LWG
p790
aVtc_309_123_two_sessions_notification.LWG
p791
aVtc_309_107_moref_notification.LWG
p792
aVtc_289_070_GW_Init_Bearer_Modification_Flow_two_CBR_one_UBR_while_wf_modify_eps_bearer_context_accept.LWG
p793
aVtc_289_101_multi_pdn_pgw_init_bearer_mod_wf_service_interrupted_by_dbr_with_lbi.LWG
p794
aVtc_284_576_emergency_pdn_connectivity_after_non_emergency_max_bearers_setup.LWG
p795
aVtc_292_135_x2_ho_with_sgw_relocation_no_tau_after_ho.LWG
p796
aVtc_225_109_service_reject_sgs_null_active_mode_emergency.LWG
p797
aVtc_346_600_Location_Based_Policies__User_Location_Changes_Sx_Only_2_CCR_for_same_PDN.LWG
p798
aVtc_162_1411_Ccheck_localSignPoint_opc_nw_nid.LWG
p799
aVtc_181_02_multiple_ip_deconf_iuandgngtp_traffic_w.LWG
p800
aVtc_208_22_attach_detach_imsi.LWG
p801
aVtc_119_101_ospf_area_cli.LWG
p802
aVtc_202_431_mf_seamless_move_target_service_request_modifyBearerReq_onePdnMultiBearer_oneBearerFail.LWG
p803
aVtc_202_455_af_seamless_move_source_unsuccessful_paging_no_response.LWG
p804
aVtc_209_44_sgsn_init_pdp_modification.LWG
p805
aVtc_178_938_sctp_setprofile.LWG
p806
aVtc_178_970_m3_ietf_set_prim_ip_path.LWG
p807
aVtc_198_018_ICMPv4DstUnreachSCTP.LWG
p808
aVtc_241_801_israu_interfering_context_request_no_cancel_location_s4.LWG
p809
aVtc_214_312_combined_tau_intra_la_change_new_msc_while_wf_tau_complete.LWG
p810
aVtc_132_002_create_ip_interface_eth.LWG
p811
aVtc_322_173_smooth_move_ef_cli_s6d_delete_subscriber_data_wf_ptmsi_relocation_complete.LWG
p812
aVtc_275_020_tau_inter_new_imsi_ns_access_restricted.LWG
p813
aVtc_160_206_initial_ue_error__corrupt_rau.LWG
p814
aVtc_666_06_block_rt_board.LWG
p815
aVtc_666_02_reboot_ss7_board.LWG
p816
aVtc_318_122_sgw_restart_mf_inter_tau_new_and_intra_tau_with_sgw_changed.LWG
p817
aVtc_19_26_moving_2_mss_to_different_targets.LWG
p818
aVtc_327_001_recovery_intra_TAU__uplink_Attach_Request_while_waiting_for_Identity_Response.LWG
p819
aVtc_146_005_filter_allowAllPkts_overEth.LWG
p820
aVtc_146_101_filter_TruncationAggregation.LWG
p821
aVtc_334_311_pgw_restart_after_s4_move_3gdt.LWG
p822
aVtc_44_071_attach_long_imsi.LWG
p823
aVtc_214_1092_la_selection_mf_oldmscpreferred_combined_intra_tau_with_imsi_attach_after_ue_initiated_imsi_detach.LW
p824
aVtc_211_022_streamed_cell_trace_mapping_stream_only_ipv6.LW
p825
aVtc_236_107_s4_3gdt_based_on_sr_change_DtThresholdNumber.LW
p826
aVtc_218_034_tau_from_sgsn_ue_auth_failure.LW
p827
aVtc_231_113_rnc_reset_during_ms_act_si_ms_deact_rnc_contact.LW
p828
aVtc_304_411_Service_Request_UE_Initiated__control_mode_threshold_exceeded_request_reject_connected_mode.LW
p829
aVtc_304_414_Service_Request_UE_Initiated__control_mode_threshold_exceeded_onging_intruder_UE_reject.LW
p830
aVtc_335_19_mobility_to_wifi_in_ecm_connected_af__eNB_not_support.LW
p831
aVtc_306_134_ef_seamless_move_source_receive_s1_setup_wf_modify_bearer_response.LW
p832
aVtc_347_250_UE_initiated_detach__location_report_while_waiting_for_delete_session_response_ue_context_release_complete.LW
p833
aVtc_241_1634_israu_new_create_session_failed_followed_by_resource_reset.LW
p834
aVtc_53_406_inter_new_srns_reloc_two_pdp_with_eps_subscription_data.LW
p835
aVtc_324_386_ef_mt_sms_wf_frcn_wf_frca_wf_ula.LW
p836
aVtc_26_149_inter_sgsn_back_before_20s_with_qos_upgradeAllowed.LW
p837
aVtc_275_054_tau_inter_new_active_flag_get_new_sgw_two_pdn_connections_first_ok_second_failed.LW
p838
aVtc_275_045_tau_inter_new_get_new_sgw_two_pdn_connections_first_ok_second_failed.LW
p839
aVtc_193_175_resending_smc_during_service_req_failed.LW
p840
aVtc_210_044_attach_reject_imsi_cc_96.LW
p841
aVtc_276_300_Inter_TAU_New_MME__Downlink_Data_Notification_while_waiting_for_Modify_Bearer_Response.LW
p842
aVtc_39_075_intra_rau_move_resend_rau_request_move_stopped.LW
p843
aVtc_194_130_cli_delete_subscriber_msisdn_reattach_not_required.LW
p844
aVtc_245_340_israu_new_l_to_w_with_GBR_dedicated_bearer_ipv6_3gdt.W14b
p845
aVtc_11_234_sgsn_modify_interfer_ser_req_II.W14b
p846
aVtc_322_161_smooth_move_ef_nas_after_paging_response_ignore.W14b
p847
aVtc_26_049_activate_secondary_with_qos.W14b
p848
aVtc_231_117_rnc_reset_when_sgsn_initiated_del_all_session.W14b
p849
aVtc_236_286_3gdt_swichback_delete_bearer_request_received_wf_modify_bearer_response.W14b
p850
aVtc_77_5_attach_activate2_g_crash.LWG
p851
aVtc_289_051_Modify_bearer__UE_context_modification_failure_x2_handover_triggered_two_pdn_involved_default_bearer_fail.LWG
p852
aVtc_220_409_csfb_to_1xrtt_in_ecm_connected_path_switch_request_HO_all_bearer_fail.LWG
p853
aVtc_24_128_msc_pool_la_update_intra_rau_combined_ra_la_update_diff_lai_keep_msc.LWG
p854
aVtc_335_35_wifi_to_mobility_in_ecm_idle_af__no_estimation_response_from_eNB_timeout_max_3000.LWG
p855
aVtc_80_151_bss_modify_policymap_changed_no_resources.LWG
p856
aVtc_324_137_af_service_request_data_only_utran_not_allowed_3gdt.LWG
p857
aVtc_284_311_mme_initiated_deactivate_bearer_2_ded_in_parallel.LWG
p858
aVtc_239_011_israu_interfering_context_request_no_cancel_location_s4.LWG
p859
aVtc_326_303_Service_Request_with_unknown_STMSI_found_backup_in_itself_emergency_PDN.LWG
p860
aVtc_178_471_modify_ss7_sys_noss7.LWG
p861
aVtc_178_970_m3_ietf_set_prim_ip_path.LWG
p862
aVtc_197_424_attach_combined_selection_fallback.LWG
p863
aVtc_306_1130_ef_seamless_move_target_receive_detach_request_with_switchoff_wf_service_request.LWG
p864
aVtc_298_438_ms_init_deact_ef_delicated_bearer_deact_interfered_by_deactivate_pdp_request_pdn_level.LWG
p865
aVtc_298_783_S4_3GDT_downlink_data_notification_wait_MBR_ef_detach.LWG
p866
aVtc_119_202_ospf_interface_opt_vals.LWG
p867
aVtc_110_005_inbound_outbound_pf_rule_cli_ip.LWG
p868
aVtc_110_003_inbound_outbound_pf_rule_cli_icmp.LWG
p869
aVtc_257_38_pws_etws_stop_warning_request_license_off_when_olp_rshl_false.LWG
p870
aVtc_262_1055_imsi_attach_with_csg_id_is_rejected.LWG
p871
aVtc_309_102_create_notification.LWG
p872
aVtc_309_121_replayComplete_notification.LWG
p873
aVtc_309_123_two_sessions_notification.LWG
p874
aVtc_309_107_moref_notification.LWG
p875
aVtc_214_806_mo_sms_active_donwlink_nas_transport_meanwhile_handover_required_HO_success.LWG
p876
aVtc_294_373_s1_intra_handover_type_a_no_tau_received.LWG
p877
aVtc_297_115_inter_rau_new_s4_roaming_restriction_cc11.LWG
p878
aVtc_666_06_block_rt_board.LWG
p879
aVtc_666_02_reboot_ss7_board.LWG
p880
aVtc_38_39_israu_new_sgsn_old_sgsn_supports_gtp_v0_no_resources_in_ggsn.LWG
p881
aVtc_231_281_activate_pdp_request_ignore_during_s4_pdp_deactivating.LWG
p882
aVtc_132_002_create_ip_interface_eth.LWG
p883
aVtc_179_321_Ccheck_ipsec_sa.LWG
p884
aVtc_202_421_af_seamless_move_target_initialCtxSetupResponse_noSuccDefaultBearer_implicit_detach.L14b
p885
aVtc_202_102_small_restart.L14b
p886
aVtc_194_610_DSD__PDN_subscription_contexts_Withdrawal_and_Subscribed_Charging_Characteristics_Withdrawal__Suspended.L14b
p887
aVtc_44_004_small_restart__sctp_fe_restart.L14b
p888
aVtc_304_033_attach_successful__control_mode_then_modify_control_period.L14b
p889
aVtc_304_303_Emergency_PDN_connectivity__control_mode_threshold_not_reached.L14b
p890
aVtc_327_164_recovery_intra_TAU_Context_Request_while_waiting_for_Modify_Bearer_Response.L14b
p891
aVtc_327_375_recovery_service_request__uplink_extended_service_request_while_waiting_for_Location_Update_Response.L14b
p892
aVtc_195_406_ue_trace_start_meanwhile_handover_required.L14b
p893
aVtc_316_215_Service_Request_With_Dedicated_Bearers_Partial_Success__Backup_UE.L14b
p894
aVtc_316_407_Periodic_Backup_feature_off_No_backup.L14b
p895
aVtc_218_410_TAU_from_SGSN__downlink_data_notification_while_waiting_for_update_location_answer_check_subscribed_apn_fail.L14b
p896
aVtc_214_093_cc_La_Check_Ga.L14b
p897
aVtc_214_1007_la_selection_mf_sms_only.L14b
p898
aVtc_214_702_msc_pool_intra_tau_with_associated_msc_info_la_change_msc_unreachable.L14b
p899
aVtc_273_161_tau_intra_periodic_idle_not_active_no_release_complete.L14b
p900
aVtc_273_045_tau_intra_on_ul_nas_transport_and_sec_exec_guti_realloc_no_tau_cmp.L14b
p901
aVtc_256_064_mme_eps_srvcc_ho_source_to_geran_cs_only_mf_after_tau_from_gn_sgsn_without_dtm_msc_pool_without_sgs.L14b
p902
aVtc_256_049_mme_eps_srvcc_ho_source_cs_only_normal_attach_emergency_delete_session_response_not_received.L14b
p903
aVtc_220_503_csfb_to_1xrtt_in_ecm_idle_tau_request_wf_initial_context_setup_response.L14b
p904
aVtc_257_30_pws_sctp_device_failure.L14b
p905
aVtc_281_011_Activate_bearer__Handover_required_while_wf_erab_setup_response.L14b
p906
aVtc_281_025_Activate_bearer__ERAB_setup_response_s1_intra_system_handover_triggered.L14b
p907
aVtc_281_029_Activate_bearer__ERAB_setup_response_s1_inta_system_handover_triggered_resend_2_times.L14b
p908
aVtc_284_550_pdn_connectivity_apn_resolution_ext_apn_based_with_msd_larger_than_msisdn.L14b
p909
aVtc_276_045_Inter_TAU_New_MME__S1_Reset_while_waiting_for_Identity_Response__enhanced_imei_check.L14b
p910
aVtc_225_309_mt_call_interfered_by_S1HO_including_TAU.L14b
p911
aVtc_225_650_mt_call_active_mode_no_lai_in_paging_req_param_tamr_true.L14b
p912
aVtc_225_631_implicit_detach_longer_than_mobile_reachable_timer.L14b
p913
aVtc_290_086_Timer_Based_GBR_Deact__cancel_location_with_subscription_withdrawn_wf_delete_bearer_request_after_timer_expires_with_emc_pdn.L14b
p914
aVtc_289_047_Modify_bearer__ERAB_modify_response_s1_intra_system_handover_triggered_activate_dedicated_bearer_one_pdn_multiple_bearer.L14b
p915
aVtc_329_801_geored_intra_tau_rs_restricted_plmn_change.L14b
p916
aVtc_347_010_Inter_TAU_New_MME__RAR_while_waiting_for_Initial_Context_Setup_Response.L14b
p917
aVtc_293_041_X2_Based_HO__Sgw_reloc__Downlink_A21_AIS_while_wf_Delete_Session_Response.L14b
p918
aVtc_283_038_GW_Deactivate_Bearer__Default_bearer_Delete_Interrupt_Dedicated_Bearer_Delete_no_response_from_ue_ecm_connected.L14b
p919
aVtc_267_302_Downlink_Data_Notification__Delete_Bearer_Request_while_wf_service_request_from_ue.L14b
p920
aVtc_267_524_Service_Request_SGW_unavailable__Context_Request_while_wf_GUTI_Reallocation_Complete.L14b
p921
aVtc_244_701_mt_lr_LPPa_mobility_unstable_before_lr.L14b
p922
aVtc_274_276_Intra_and_pTAU__Handover_Required_with_old_TA_MSC_change_while_waiting_for_Location_Update_response_TAU_IMSI_Detach_TAU.L14b
p923
aVtc_308_020_HSS_Init_QoS_Modification__ISD_with_odb_bit0_while_wf_update_bearer_request_after_ucm_resp.L14b
p924
aVtc_262_039_esm_information_reattach_timeout.L14b
p925
aVtc_238_052_mme_eps_irat_ho_target__tau_request_during_wf_handover_notify.L14b
p926
aVtc_346_446_AF__Intra_TAU_CCA_Update_result_code_5003.L14b
p927
aVtc_310_102_af__srvcc_on_ps_ho_off.L14b
p928
aVtc_310_122_af__Delete_Bearer_Request_from_SGW_with_different_scope_than_Delete_Bearer_Command.L14b
p929
aVtc_326_406_Inter_TAU_Recovery_Unkonwn_GUTI__1xrtt_CS_Registration_Then_CSFB_To_1xRTT.L14b
p930
aVtc_326_486_Inter_TAU_Recovery_Unknown_GUTI__Then_ISD_UE_AMBR_Change.L14b
p931
aVtc_306_158_ef_seamless_move_source_receive_insert_subscription_data_tads_ecm_connected.L14b
p932
aVtc_306_113_ef_seamless_move_source_receive_sgsn_context_request_wf_source_guti_reallocation_complete.L14b
p933
aVtc_217_008_rau_to_sgsn_no_delete_session_response.L14b
p934
aVtc_217_025_rau_to_sgsn_same_guti_attach_from_other_ue_when_wf_timeout.L14b
p935
aVtc_322_161_smooth_move_ef_nas_after_paging_response_ignore.W14b
p936
aVtc_28_018_mt_sms_active_pdp_context.W14b
p937
aVtc_209_31_sms_mo.W14b
p938
aVtc_245_342_israu_new_l_to_w_sgw_not_change_non_gbr_bearer_inactive.W14b
p939
aVtc_324_371_ef_cancel_location_intialAttach_wf_modify_bearer_response_service_req_data.W14b
p940
aVtc_43_101__removal_of_disconnected_eNodeBs__CLI_removal.L14b
p941
aVtc_221_121_Downlink_Data_Notification_1_EBI_unknown.L14b
p942
aVtc_318_121_sgw_restart_mf_tau_multi_ues.L14b
p943
aVtc_210_044_attach_reject_imsi_cc_96.L14b
p944
aVtc_260_355_sctp_disconnect_no_mce_reestablish_session_stop.L14b
p945
aVtc_295_124_tau_after_ho_tz_change_emm_information_meanwhile_handover_required_HO_success.L14b
p946
aVtc_288_105_pgw_init_bearer_mod_ue_not_responding_all_bearers.L14b
p947
aVtc_202_03_emm_deregistered_no_s1_release.L14b
p948
aVtc_327_161_recovery_intra_TAU_DDN_with_IMSI_while_waiting_for_Update_Location_Answer.L14b
p949
aVtc_327_467_recovery_service_request__DDN_with_IMSI_while_waiting_for_authentication_response.L14b
p950
aVtc_220_413_csfb_to_1xrtt_in_ecm_connected_handover_required_meanwhile_CBR_received.L14b
p951
aVtc_310_108_af__error_cause_code_in_Forward_Relocation_Response_from_SGSN.L14b
p952
aVtc_276_045_Inter_TAU_New_MME__S1_Reset_while_waiting_for_Identity_Response__enhanced_imei_check.L14b
p953
aVtc_218_311_tau_from_sgsn_preserved_gbr_bearer_buffer_1_ubr_1_cbr.L14b
p954
aVtc_289_032_Modify_bearer__Downlink_nas_transport_meanwhile_handover_required_HO_success.L14b
p955
aVtc_289_056_Modify_bearer__UE_context_modification_failure_s1_intra_system_handover_triggered_HO_failure.L14b
p956
aVtc_103_1101_resending_AIR_interfering_CLR.L14b
p957
aVtc_256_012_mme_eps_srvcc_ho_source_cs_only_mf_with_rau_to_s4_sgsn_for_multi_voice_bearers_in_multi_pdns.L14b
p958
aVtc_290_019_Timer_Based_GBR_Deact__s1_reset_wf_release_access_bearer_response_before_timer_expires.L14b
p959
aVtc_257_21_pws_etws_write_replace_warning_request_with_unknown_tai.L14b
p960
aVtc_257_35_pws_etws_write_replace_warning_request_when_olp_rshl_false.L14b
p961
aVtc_257_30_pws_sctp_device_failure.L14b
p962
aVtc_326_304_Service_Request_with_unknown_STMSI_MBR_partial_success_IPv6_address.L14b
p963
aVtc_326_634_S6a_Throttling_ULR_Congestion_Subscriber_Data_Flush_caused_Detach_Timer_Stopped_and_UE_not_Detached.L14b
p964
aVtc_244_903_mt_lr_ecm_idle_and_mobility_unstable_when_receiving_connected_oriented_info_with_LPPa.L14b
p965
aVtc_244_701_mt_lr_LPPa_mobility_unstable_before_lr.L14b
p966
aVtc_214_093_cc_La_Check_Ga.L14b
p967
aVtc_214_149_combined_tau_intra_interfering_mo_sms_license_off.L14b
p968
aVtc_214_332_mt_sms_idle_mode_ef_downlink_unitdata_wf_modify_bearer_response_timeout_in_service_request.L14b
p969
aVtc_214_312_combined_tau_intra_la_change_new_msc_while_wf_tau_complete.L14b
p970
aVtc_316_232_Service_Request_Need_AKA_SMC__Backup_UE.L14b
p971
aVtc_329_551_inter_tau_from_sgsn_rs_restricted_emergency.L14b
p972
aVtc_262_143_guti_attach_old_guti_unprotected.L14b
p973
aVtc_262_136_imsi_attach_piggybacking_not_supported.L14b
p974
aVtc_262_203_guti_attach_when_unauthenticated_attached.L14b
p975
aVtc_39_921_ef_seamless_move_interrupted_by_normal_attach.LW
p976
aVtc_314_001_hss_init_qos_modification_apn_ambr_higher_than_policymap.LW
p977
aVtc_326_406_Inter_TAU_Recovery_Unkonwn_GUTI__1xrtt_CS_Registration_Then_CSFB_To_1xRTT.LW
p978
aVtc_304_029_guti_attach_reject__control_mode_threshold_exceeded_then_action_stop.LW
p979
aVtc_26_155_activate_secondary_pdp_with_upgradeAllowed.LW
p980
aVtc_335_35_wifi_to_mobility_in_ecm_idle_af__no_estimation_response_from_eNB_timeout_max_3000.LW
p981
aVtc_12_41_detach_ms_initiated.LW
p982
aVtc_12_512_pmm_undefined_attach_when_updating_location_interfered_by_rnc_reset.LW
p983
aVtc_231_173_ms_init_detach_interfered_by_cancel_location_withdraw.LW
p984
aVtc_346_359_MME_Large_Restart_Origin_State_ID_increased.LW
p985
aVtc_324_425_ef_payload_buffered_wf_security_mode_complete_payload_different_pdn.LW
p986
aVtc_274_276_Intra_and_pTAU__Handover_Required_with_old_TA_MSC_change_while_waiting_for_Location_Update_response_TAU_IMSI_Detach_TAU.LW
p987
aVtc_78_135_intra_irat_handover_l_to_w_get_selected_plmn_from_handover_required.LW
p988
aVtc_289_020_Modify_bearer__ERAB_modify_request_meanwhile_handover_required_HO_success_TAU.LW
p989
aVtc_276_260_Inter_TAU_New_MME__Update_Bearer_Request_while_waiting_for_Create_Session_Response.LW
p990
aVtc_276_300_Inter_TAU_New_MME__Downlink_Data_Notification_while_waiting_for_Modify_Bearer_Response.LW
p991
aVtc_101_016_single_mbms_session_dp_restart.LW
p992
aVtc_194_078_cl_update_procedure_during_ul.LW
p993
aVtc_194_161_emergency_attach_loc_not_confirmed_ul_fails.LW
p994
aVtc_275_310_tau_inter_new_active_flag_keep_two_pdns_one_default_bearer_fail_in_eNB.LW
p995
aVtc_322_024_smooth_move_af_frr_without_moveIndicator.LW
p996
aVtc_103_1101_resending_AIR_interfering_CLR.LW
p997
aVtc_103_706_delete_peer_send_DPR_error_result_code_in_DPA.LW
p998
aVtc_211_015_streamed_cell_trace_mapping_alarm_cease.LW
p999
aVtc_17_102_inter_rau_new_one_context_with_ipv4v6_type_daf_off.G14b
p1000
aVtc_19_26_moving_2_mss_to_different_targets.G14b
p1001
aVtc_208_31_sms_mo.G14b
p1002
aVtc_311_204_intra_srns_reloc_s4_sgw_change_wf_reloc_req_ack_interrupted_by_cancel_loc_subscrip_withdrawn.WG14a
p1003
aVtc_54_101_intra_isc_ran_information_l_to_g.LWG
p1004
aVtc_208_31_sms_mo.LWG
p1005
aVtc_239_011_israu_interfering_context_request_no_cancel_location_s4.LWG
p1006
aVtc_275_550_inter_tau_new_detach_odb_bit0.LWG
p1007
aVtc_275_048_tau_inter_new_keep_old_sgw_two_pdn_connections_all_failed.LWG
p1008
aVtc_306_1335_ef_seamless_move_target_receive_cli_delete_subscriber_wf_service_request.LWG
p1009
aVtc_178_938_sctp_setprofile.LWG
p1010
aVtc_52_04_inter_old_srns_reloc_one_unstable_context.LWG
p1011
aVtc_231_275_rab_release_si_deactivate_with_TDI_false_TI_dedicated_bearer.LWG
p1012
aVtc_198_050_IPv4_traffic_flow.LWG
p1013
aVtc_44_870_mme_assoc_reestablish__board_block_deblock_s1_mme.LWG
p1014
aVtc_309_121_replayComplete_notification.LWG
p1015
aVtc_309_102_create_notification.LWG
p1016
aVtc_309_123_two_sessions_notification.LWG
p1017
aVtc_309_107_moref_notification.LWG
p1018
aVtc_324_239_ef_nas_ignore_update_loc_received_wf_modify_bearer_response.LWG
p1019
aVtc_347_250_UE_initiated_detach__location_report_while_waiting_for_delete_session_response_ue_context_release_complete.LWG
p1020
aVtc_202_43_type_d_emergency_pdn_ecm_idle.LWG
p1021
aVtc_281_073_conclude_dedicated_bearer_activation_for_interfered_s1_intra_handover_multiple_pdns.LWG
p1022
aVtc_19_26_moving_2_mss_to_different_targets.LWG
p1023
aVtc_132_002_create_ip_interface_eth.LWG
p1024
aVtc_95_7_negative_tests.LWG
p1025
aVtc_15_047_new_intra_normal_rau_during_inter_rau_new_sgsn.LWG
p1026
aVtc_119_101_ospf_area_cli.LWG
p1027
aVtc_318_150_sgw_restart_af_invalid_restart_counter.LWG
p1028
aVtc_238_131_Report_SN_IRATHO_without_SGW_changed_PLMN_SN_diff_2_PDN.LWG
p1029
aVtc_219_133_s3_handover_w_to_l_cl_time_out.LWG
p1030
aVtc_36_101_ggsn_initiated_modification_with_imsi.LWG
p1031
aVtc_166_409_israu_new_service_req_reestablish_streaming_dt_ggsn_address_2T.LWG
p1032
aVtc_241_801_israu_interfering_context_request_no_cancel_location_s4.LWG
p1033
aVtc_59_9_mtmsi_restart_counter.LWG
p1034
aVtc_220_586_csfb_to_1xrtt_in_extended_service_request_during_attach_wf_initial_context_setup_response.LWG
p1035
aVtc_289_047_Modify_bearer__ERAB_modify_response_s1_intra_system_handover_triggered_activate_dedicated_bearer_one_pdn_multiple_bearer.LWG
p1036
aVtc_103_003_destination_host_is_not_peer_and_not_in_same_realm.LWG
p1037
aVtc_257_30_pws_sctp_device_failure.L14b
p1038
aVtc_273_001_tau_intra_normal_idle.L14b
p1039
aVtc_306_1343_ef_seamless_move_target_receive_Insert_Subscription_Data_TADS_ecm_idle.L14b
p1040
aVtc_306_1333_ef_seamless_move_target_receive_cli_delete_subscriber_wf_ula.L14b
p1041
aVtc_263_043_Attach_Flow__Handover_Required_while_waiting_for_Modify_Bearer_Response.L14b
p1042
aVtc_316_206_TAU_From_S4_SGSN_Multiple_PDN_Connections_With_Max_Dedicated_Bearers__Backup_UE.L14b
p1043
aVtc_318_116_sgw_restart_mf_one_pdn_with_relocate_by_ReleaseAccessBearersResponse.L14b
p1044
aVtc_318_187_sgw_restart_ef_relocate_interrupt_by_CreateBearerReq.L14b
p1045
aVtc_294_412_mme_handle_eps_handover_SGW_unavailable_DNS_query_failure.L14b
p1046
aVtc_258_100_location_report_failure_indication_from_eNodeB.L14b
p1047
aVtc_194_505_Notification_during_Intra_TAU_without_SGW_Relocation_HSS_Reset_Before_TAU.L14b
p1048
aVtc_326_252_Intra_TAU_Recovery_after_node_restart_then_pool_move.L14b
p1049
aVtc_303_003_Intra_S1_HO__Downlink_A21_AIS_while_wf_Handover_Request_Ack__Reset_from_source_eNB_while_wf_Handover_Notify.L14b
p1050
aVtc_289_011_Modify_bearer__ERAB_modify_response_s1_intra_system_handover_triggered.L14b
p1051
aVtc_289_047_Modify_bearer__ERAB_modify_response_s1_intra_system_handover_triggered_activate_dedicated_bearer_one_pdn_multiple_bearer.L14b
p1052
aVtc_327_021_recovery_intra_TAU__uplink_Detach_Request_while_waiting_for_Update_Location_Response.L14b
p1053
aVtc_327_317_recovery_service_request__initial_Attach_Request_while_waiting_for_Sub_Procedure__Initial_Context_Setup_Response.L14b
p1054
aVtc_327_114_recovery_intra_TAU__Insert_Subscriber_Data_while_waiting_for_Ue_Backup_Response.L14b
p1055
aVtc_327_461_recovery_service_request__ERAB_release_indication_default_bearer_while_waiting_for_MBR_Response.L14b
p1056
aVtc_197_493_intra_tau_with_sgw_relocation_table_not_matched_snaptr.L14b
p1057
aVtc_197_540_inter_s1_handover_without_sgw_relocation_same_table_matched.L14b
p1058
aVtc_197_544_inter_s1_handover_without_sgw_relocation_table_not_matched_snaptr.L14b
p1059
aVtc_197_509_inter_tau_with_sgw_relocation_gw_selection_off_send_without_sgw_name.L14b
p1060
aVtc_266_011_DownlinkDataNotification_interfering_ISD_sgsn00026976.L14b
p1061
aVtc_266_020_DownlinkDataFailureInd_repeat_paging_timer_on.L14b
p1062
aVtc_266_016_downlink_data_notification_with_tau_as_paging_response_tau_fails.L14b
p1063
aVtc_310_116_1_af__HO_Cancel_before_Response_from_MSC_after_error_Response_from_SGSN.L14b
p1064
aVtc_310_111_af__timeout_on_FR_Response_from_SGSN.L14b
p1065
aVtc_202_201_timer_expiry_after_s1_release_MobileReachableTimer.L14b
p1066
aVtc_202_431_mf_seamless_move_target_service_request_modifyBearerReq_onePdnMultiBearer_oneBearerFail.L14b
p1067
aVtc_267_505_Service_Request_SGW_unavailable__Service_Request_while_wf_Create_Session_Response.L14b
p1068
aVtc_214_093_cc_La_Check_Ga.L14b
p1069
aVtc_214_312_combined_tau_intra_la_change_new_msc_while_wf_tau_complete.L14b
p1070
aVtc_214_503_mt_sms_while_wf_lu_accept.L14b
p1071
aVtc_225_315_mt_call_active_mode_nas_non_delivery__cs_service_notification_meanwhile_handover_required.L14b
p1072
aVtc_262_610_attach_when_already_attached_second_attach_rejected_due_to_congestion.L14b
p1073
aVtc_275_300_tau_inter_new_keep_old_sgw_pvi_pci_downgraded.L14b
p1074
aVtc_276_382_Inter_TAU_New_MME__active_flag_true_new_TAU_wf_Initial_Context_Setup_Response.L14b
p1075
aVtc_103_902_load_sharing_realm_routing_own_realm.L14b
p1076
aVtc_281_025_Activate_bearer__ERAB_setup_response_s1_intra_system_handover_triggered.L14b
p1077
aVtc_284_021_pdn_connectivity_with_static_pdn_address_paa_type_ipv4v6_addr_ipv4.L14b
p1078
aVtc_220_506_csfb_to_1xrtt_in_ecm_idle_service_request_wf_initial_context_setup_response.LWG
p1079
aVtc_209_31_sms_mo.LWG
p1080
aVtc_209_44_sgsn_init_pdp_modification.LWG
p1081
aVtc_210_100_pdn_connectivity_erab_setup_failure_response_from_enodeb.LWG
p1082
aVtc_23_13_israu_out.LWG
p1083
aVtc_346_566_AF__HO_Inter_Target_from_gn_higher_qos_for_really_default_bearer.LWG
p1084
aVtc_346_565_AF__HO_Inter_Target_from_gn_2PDN_BCM_Sx_only_one_CCA_U_timeout.LWG
p1085
aVtc_202_421_af_seamless_move_target_initialCtxSetupResponse_noSuccDefaultBearer_implicit_detach.LWG
p1086
aVtc_178_938_sctp_setprofile.LWG
p1087
aVtc_178_970_m3_ietf_set_prim_ip_path.LWG
p1088
aVtc_205_71_08_SCTP_OctetsChunksSent.LWG
p1089
aVtc_208_22_attach_detach_imsi.LWG
p1090
aVtc_208_43_interception_after_small_restart.LWG
p1091
aVtc_297_123_inter_rau_new_with_imsi_transfered_s4_roaming_accept.LWG
p1092
aVtc_257_21_pws_etws_write_replace_warning_request_with_unknown_tai.LWG
p1093
aVtc_276_371_Inter_TAU_New_MME__TAU_Request_while_waiting_for_Create_Session_Response_sgw_unavailable.LWG
p1094
aVtc_132_002_create_ip_interface_eth.LWG
p1095
aVtc_309_102_create_notification.LWG
p1096
aVtc_309_121_replayComplete_notification.LWG
p1097
aVtc_309_123_two_sessions_notification.LWG
p1098
aVtc_309_107_moref_notification.LWG
p1099
aVtc_31_082_consecutive_hlr_resets.LWG
p1100
aVtc_306_132_ef_seamless_move_source_receive_s1_setup_wf_target_guti_reallocation_complete.LWG
p1101
aVtc_306_1290_ef_seamless_move_target_receive_eNB_Configuration_Update_Handle_Continue_Current.LWG
p1102
aVtc_281_041_GW_Init_Bearer_Activation_Flow_two_pdn_UBR_while_wf_Erab_Setup_Resp_aborted_by_detach.LWG
p1103
aVtc_194_100_check_gauge_unstable_not_parked.LWG
p1104
aVtc_293_005_X2_Based_HO__Insert_subscriber_data_from_HSS_while_wf_modify_bearer_response.LWG
p1105
aVtc_119_203_ospf_interface_cli_alg_vals.LWG
p1106
aVtc_326_501_Recovery_for_DDN__Retrieval_and_Paging.LWG
p1107
aVtc_44_811_mme_assoc_reestablish__abort_sbc.LWG
p1108
aVtc_44_870_mme_assoc_reestablish__board_block_deblock_s1_mme.LWG
p1109
aVtc_263_320_Attach_Flow__Attach_Request_Different_IEs_IP_OK_while_waiting_for_Update_Location_Answer.LWG
p1110
aVtc_238_052_mme_eps_irat_ho_target__tau_request_during_wf_handover_notify.LWG
p1111
aVtc_110_005_inbound_outbound_pf_rule_cli_ip.LWG
p1112
aVtc_327_164_recovery_intra_TAU_Context_Request_while_waiting_for_Modify_Bearer_Response.LWG
p1113
aVtc_327_351_recovery_service_request__initial_intra_TAU_while_waiting_for_Location_Update_Response.LWG
p1114
aVtc_298_610_sgsn_init_bearer_deact_ef_iu_release_wf_delete_req.LW
p1115
aVtc_256_382_Sv_Path_Mgt__available_MSC_disable_Sv.LW
p1116
aVtc_78_036_imsi_attach_redirection_cause_14_from_hlr.LW
p1117
aVtc_78_135_intra_irat_handover_l_to_w_get_selected_plmn_from_handover_required.LW
p1118
aVtc_276_312_Inter_TAU_New_MME__DDN_with_error_indication_while_waiting_for_Modify_Bearer_Response.LW
p1119
aVtc_257_12_pws_etws_write_replace_warning_request_enb_failure.LW
p1120
aVtc_257_37_pws_etws_write_replace_warning_request_feature_off_when_olp_rshl_false.LW
p1121
aVtc_329_203_inter_tau_new_rs_restricted_emergency.LW
p1122
aVtc_11_333_apnresolving_apnopid_hplmn_present_apn_criteria_si_cc.LW
p1123
aVtc_44_050_sctp_s1ap_corrupt_data_length_6.LW
p1124
aVtc_44_004_small_restart__sctp_fe_restart.LW
p1125
aVtc_204_206_mme_eps_ho__multi_pdn_no_modify_response.LW
p1126
aVtc_243_210_tau_from_sgsn_s3_active_flag_get_new_sgw_two_pdn_connections_all_failed.LW
p1127
aVtc_241_619_intra_rau_with_dedicated_bearer_sgw_change_wait_security_mode_complete_handle_dbr.LW
p1128
aVtc_241_222_israu_old_sgsn_for_context_request_with_mocn_relay_mf.LW
p1129
aVtc_236_047_s4_3gdt_deactivation_during_waiting_for_modify_bearer_rsp_in_activation_procedure.LW
p1130
aVtc_31_064_activate_loc_not_confirmed_ul_fails_network_failure.LW
p1131
aVtc_193_400_auth_vectors_mf_4_vectors.LW
p1132
aVtc_324_424_ef_payload_buffered_wf_security_mode_complete_payload_different_contextId.LW
p1133
aVtc_306_1130_ef_seamless_move_target_receive_detach_request_with_switchoff_wf_service_request.LW
p1134
aVtc_284_135_emergency_pdn_connectivity_no_notify_request.LW
p1135
aVtc_273_246_tau_intra__sgw_relocation_mult_pdn_connections_2_ok_1_fail.LW
p1136
aVtc_219_131_s3_handover_w_to_l_with_cl_two_pdns_one_failed_sgw_relocation.LW
p1137
aVtc_209_21_attach_detach_imsi.LW
p1138
aVtc_39_771_mas_rnc_reset_when_wf_ptmsi_realloc_cmpl_source.LW
p1139
aVtc_245_342_israu_new_l_to_w_sgw_not_change_non_gbr_bearer_inactive.W14b
p1140
aVtc_359_132_handover_from_3gpp_PGW_init_deletion_EF_detach.W14b
p1141
aVtc_209_31_sms_mo.W14b
p1142
aVtc_28_052_mo_sms_homer_block_visiting_redirection.W14b
p1143
aVtc_322_161_smooth_move_ef_nas_after_paging_response_ignore.W14b
p1144
aVtc_11_253_apnresolving_vplmn_not_allowed_subscribed_apn_hplmn_apn_criteria_si.W14b
p1145
aVtc_231_117_rnc_reset_when_sgsn_initiated_del_all_session.W14b
p1146
aVtc_324_367_ef_cancel_location_with_subscriptionWithdraw_wf_modify_bearer_response_wf_isd_hlr.W14b
p1147
aVtc_208_31_sms_mo.G14b
p1148
aVtc_05_069_normal_attach_map_cellid_without_rau_sgsn_detach_interrupted_by_attach.G14b
p1149
aVtc_249_261_inter_rau_new_context_request_reject_due_to_dia_congestion.G14b
p1150
aVtc_284_053_emergency_pdn_connectivity_pb_activate_1_dedicated_bearer.LW
p1151
aVtc_284_351_pdn_connectivity_pb_activate_1_dedicated_bearer_interrupted_by_path_switch_request.LW
p1152
aVtc_324_422_ef_payload_buffered_wf_paging_reponse_payload.LW
p1153
aVtc_324_427_ef_payload_buffered_wf_sec_different_contextId_selective_service_request_on.LW
p1154
aVtc_260_070_mbms_session_start_af_gw_resend_request_msg_diff_absolute_time.LW
p1155
aVtc_298_317_EF_SIBD_S4_Create_Bearer_Request.LW
p1156
aVtc_310_264__ef__Initial_UE_Service_Request_wf_FR_Complete.LW
p1157
aVtc_310_221_ef__Ue_Release_Request_wf_PS_to_CS_Response.LW
p1158
aVtc_53_139_inter_new_ggsn_decrease_qos_rab_setup_qos_related_reject.LW
p1159
aVtc_262_800_emergency_type_d_attach_guti_attach_not_emergency_new_s1.LW
p1160
aVtc_303_002_Service_Request__Downlink_A21_AIS_while_wf_Initial_Context_Setup_Response__Extended_Service_Request_while_wf_Initial_Context_Setup_Response.LW
p1161
aVtc_311_221_intra_srns_reloc_s4_sgw_change_wf_delete_session_rsp_interrupted_by_downlink_data_notification_with_cause.LW
p1162
aVtc_306_1130_ef_seamless_move_target_receive_detach_request_with_switchoff_wf_service_request.LW
p1163
aVtc_322_172_smooth_move_ef_gr_cli_delete_subscriber_data_wf_security_mode_complete.LW
p1164
aVtc_275_037_tau_inter_new_bearer_status_mismatch.LW
p1165
aVtc_275_118_tau_inter_new_emergency_erroneous_ie_authenticated_no_imsi.LW
p1166
aVtc_236_286_3gdt_swichback_delete_bearer_request_received_wf_modify_bearer_response.LW
p1167
aVtc_314_015_hlr_init_qos_modification_sigind.LW
p1168
aVtc_304_029_guti_attach_reject__control_mode_threshold_exceeded_then_action_stop.LW
p1169
aVtc_304_412_Service_Request_UE_Initiated__control_mode_threshold_exceeded_onging_icsr_abort.LW
p1170
aVtc_304_263_tau_from_gnsgsn_when_wf_tau_complete_control_mode_reject_congestion.LW
p1171
aVtc_194_161_emergency_attach_loc_not_confirmed_ul_fails.LW
p1172
aVtc_194_140_cl_subscription_withdraw_idle_paging_ue_not_responding_with_gbr_bearers.LW
p1173
aVtc_326_406_Inter_TAU_Recovery_Unkonwn_GUTI__1xrtt_CS_Registration_Then_CSFB_To_1xRTT.LW
p1174
aVtc_326_622_S6a_Throttling_Service_Request_recovery_UL_successful_and_Emergency_Attach_not_throttled.LW
p1175
aVtc_289_028_Modify_bearer__Downlink_nas_non_delivery_s1_intra_system_handover_triggered.LW
p1176
aVtc_289_101_multi_pdn_pgw_init_bearer_mod_wf_service_interrupted_by_dbr_with_lbi.LW
p1177
aVtc_12_101_rau_when_wait_attach_complete_I.LW
p1178
aVtc_103_205_app_specific_realm_routing.L14b
p1179
aVtc_237_032_mme_eps_irat_ho_source__service_request_after_cancel_location_req.L14b
p1180
aVtc_244_535_SLg_Location_Request__Downlink_A21_AIS_wwf_Location_Response_from_ESMLC.L14b
p1181
aVtc_214_093_cc_La_Check_Ga.L14b
p1182
aVtc_214_1019_la_selection_mf_one_la_with_node_level_la_selection_profile.L14b
p1183
aVtc_214_701_ip_invalid_sip_valid.L14b
p1184
aVtc_275_104_Inter_TAU_New_MME__Imei_Check_Answer_Unknown_Equipment_before_TAU_Accept.L14b
p1185
aVtc_275_610_tau_inter_new_license_lte_sau_limit_reached.L14b
p1186
aVtc_268_001_release_request.L14b
p1187
aVtc_332_011_mf__paging_due_to_create_bearer_request.L14b
p1188
aVtc_306_033_ef_seamless_move_source_receive_tau_request_wf_source_guti_reallocation_complete.L14b
p1189
aVtc_306_182_ef_seamless_move_source_receive_handover_required_wf_source_guti_reallocation_complete.L14b
p1190
aVtc_306_291_ef_seamless_move_source_receive_provide_location_request_wf_source_guti_reallocation_complete.L14b
p1191
aVtc_306_1213_ef_seamless_move_target_receive_s1_setup_wf_icsr_and_ulr.L14b
p1192
aVtc_225_321_mt_call_active_mode_nas_non_delivery__cs_service_notification__handover_required_meanwhile_CBR_received.L14b
p1193
aVtc_225_695_mo_call_idle_mode_with_handover_timeout_and_s1_reset.L14b
p1194
aVtc_260_271_receive_sm_start_req_while_wf_setup_iteration.L14b
p1195
aVtc_578_32_check_ebm_para_statistics_ue_return_duration.L14b
p1196
aVtc_194_100_check_gauge_unstable_not_parked.L14b
p1197
aVtc_329_058_attach_rs_restricted_rr_restricted_emergency_type_b.L14b
p1198
aVtc_326_374_Service_Request_with_unknown_STMSI_Restriction_2_pdn_mmtel_off_emergency_pdn_deleted.L14b
p1199
aVtc_326_394_Service_Request_SGW_unavailable__create_session_dedicated_bearer_failed.L14b
p1200
aVtc_326_304_Service_Request_with_unknown_STMSI_MBR_partial_success_IPv6_address.L14b
p1201
aVtc_276_045_Inter_TAU_New_MME__S1_Reset_while_waiting_for_Identity_Response__enhanced_imei_check.L14b
p1202
aVtc_262_204_subscription_cancelled_when_wf_update_location_response.L14b
p1203
aVtc_262_198_new_mme_identification_procedure_n3t3_timeout_gn.L14b
p1204
aVtc_335_13_mobility_to_wifi_in_ecm_connected_af__no_decision_response_from_eNB_timeout_max_3000.L14b
p1205
aVtc_202_40_emergency_pdn_ecm_connected.L14b
p1206
aVtc_273_027_tau_intra_normal_idle_bs_0_for_dedicated_icsr_timeout.L14b
p1207
aVtc_256_390_mme_eps_srvcc_ho_source_cs_only_not_send_voice_bearer_in_handover_command.L14b
p1208
aVtc_294_035_s1_intra_handover_type_a_new_plmn_roaming_restricted_emc_sup_sim_only_same_profile.L14b
p1209
aVtc_294_082_mme_handle_eps_handover_with_hrl_no_apl.L14b
p1210
aVtc_294_357_intra_handover_sgw_relocation_sgw_not_respond_create_session_request.L14b
p1211
aVtc_44_054_sctp_s1ap_nas_pdu_length_268.L14b
p1212
aVtc_257_30_pws_sctp_device_failure.L14b
p1213
aVtc_346_418_AF__Attach__Create_Session_timeout_HO_Attach.L14b
p1214
aVtc_346_459_AF__Service_Request_InitialContextSetupResponse_Timeout.L14b
p1215
aVtc_274_141_Intra_and_pTAU__Imei_Check_Answer_Blacklisted_after_Emergency_Attach_Type_d_during_Intra_TAU_au_true_ire_false.L14b
p1216
aVtc_238_100_mme_eps_irat_ho_target_using_zuc_algorithm_eea3_eia3.L14b
p1217
aVtc_324_371_ef_cancel_location_intialAttach_wf_modify_bearer_response_service_req_data.W14b
p1218
aVtc_250_160_s6d_IDR_IDA_Change_GPRS_to_eps_subscription.W14b
p1219
aVtc_209_44_sgsn_init_pdp_modification.W14b
p1220
aVtc_241_045_intra_with_multi_bearer_sgw_change_try_next.W14b
p1221
aVtc_241_500_israu_new_gn_to_s4_pdp_to_bearer_one_pdp_conversational_mbr_0.W14b
p1222
aVtc_11_150_rab_reestablish_on_service_request_data_multiple_contexts.W14b
p1223
aVtc_241_801_israu_interfering_context_request_no_cancel_location_s4.LWG
p1224
aVtc_322_126_smooth_move_ef_cancel_location_initialAttach_wf_cancel_location.LWG
p1225
aVtc_324_225_ef_detach_request_abort_wf_rab_assignment_response_wf_update_location_hss_service_req_data.LWG
p1226
aVtc_324_137_af_service_request_data_only_utran_not_allowed_3gdt.LWG
p1227
aVtc_239_011_israu_interfering_context_request_no_cancel_location_s4.LWG
p1228
aVtc_290_024_Timer_Based_GBR_Deact__cancel_location_with_update_procedure_wf_release_access_bearer_response_before_timer_expires.LWG
p1229
aVtc_290_034_Timer_Based_GBR_Deact__service_request_wf_ue_context_release_complete_before_timer_expires.LWG
p1230
aVtc_60_4_small_restart_during_hlr_reset.LWG
p1231
aVtc_327_170_recovery_intra_TAU_SGSN_Context_Request_while_waiting_for_Create_Session_Response.LWG
p1232
aVtc_666_02_reboot_ss7_board.LWG
p1233
aVtc_262_182_new_mme_identification_procedure_with_cause_ptmsi_signature_mismatch_s3.LWG
p1234
aVtc_292_132_x2_ho_all_default_bearers_failed.LWG
p1235
aVtc_309_121_replayComplete_notification.LWG
p1236
aVtc_309_102_create_notification.LWG
p1237
aVtc_309_123_two_sessions_notification.LWG
p1238
aVtc_309_107_moref_notification.LWG
p1239
aVtc_178_970_m3_ietf_set_prim_ip_path.LWG
p1240
aVtc_267_011_Service_Request__Service_Request_while_waiting_for_Initial_Ctx_Setup_Response_Dedicated.LWG
p1241
aVtc_210_052_tau_inter_old.LWG
p1242
aVtc_12_144_detach_auth_res_failure_ok.LWG
p1243
aVtc_12_511_pmm_detached_attach_when_ciphering_interfered_by_rnc_reset.LWG
p1244
aVtc_275_037_tau_inter_new_bearer_status_mismatch.LWG
p1245
aVtc_194_920_ecm_connected__no_location_report__userstate_locationinfo_currentinfo__idr_flags.LWG
p1246
aVtc_194_1550_HSS_initiated_ISD_in_Connected_mode_when_current_CSG_Id_removed__S1_Handover.LWG
p1247
aVtc_316_225_PDN_Connectivity_Request_PDN_Type_IPv4v6_MmeAuthVectorPrefetching_Off__Backup_UE.LWG
p1248
aVtc_209_31_sms_mo.LWG
p1249
aVtc_311_204_intra_srns_reloc_s4_sgw_change_wf_reloc_req_ack_interrupted_by_cancel_loc_subscrip_withdrawn.LWG
p1250
aVtc_231_113_rnc_reset_during_ms_act_si_ms_deact_rnc_contact.LWG
p1251
aVtc_306_117_ef_seamless_move_source_receive_sgsn_context_request_wf_target_guti_reallocation_complete.LWG
p1252
aVtc_236_062_s4_3gdt_reset_during_waiting_for_release_bearer_rsp_in_rab_release_procedure.LWG
p1253
aVtc_204_046_inter_mme_handover_with_ta_change_tai_from_global_enodebid_s1ho.LWG
p1254
aVtc_297_407_move_at_periodic_rau.G14b
p1255
aVtc_208_40_sgsn_init_pdp_modification.G14b
p1256
aVtc_324_121_af_service_request_with_data_only_ulr_timeout_3gdt.WG14a
p1257
aVtc_322_050_smooth_move_ebt_rau_after_move.WG14a
p1258
aVtc_271_003_sctp_paging_olp_verify_pagingOlpDiscardAllCpuThreshold.LW
p1259
aVtc_26_168_irat_g_to_w_after_RAU_complete_with_subscriber_data_changed.LW
p1260
aVtc_44_004_small_restart__sctp_fe_restart.LW
p1261
aVtc_44_812_mme_assoc_reestablish__abort_m3.LW
p1262
aVtc_103_701_MME_restarts.LW
p1263
aVtc_298_073_s4_nrspca_activate_same_nsapi_of_dedicated_bearer_rab_released.LW
p1264
aVtc_326_218_Intra_TAU_Recovery_two_PDN_partial_fail.LW
p1265
aVtc_218_311_tau_from_sgsn_preserved_gbr_bearer_buffer_1_ubr_1_cbr.LW
p1266
aVtc_23_13_israu_out.LW
p1267
aVtc_12_134_attach_with_extended_mmumoc_iu_inactivity_timer.LW
p1268
aVtc_31_130_cli_delete_subscriber_msisdn_reattach_not_required.LW
p1269
aVtc_31_133_cli_delete_subscriber_msisdn_reattach_not_required_idle_state.LW
p1270
aVtc_31_129_cli_delete_subscriber_imsi_reattach_not_required.LW
p1271
aVtc_209_44_sgsn_init_pdp_modification.LW
p1272
aVtc_78_080_imsi_attach_accept_home_ms_no_redirect_attempt_flag.LW
p1273
aVtc_214_312_combined_tau_intra_la_change_new_msc_while_wf_tau_complete.LW
p1274
aVtc_241_710_intra_rau_dedicate_bearer_update_failed_and_pgw_delete_bearer_after_rau.LW
p1275
aVtc_241_801_israu_interfering_context_request_no_cancel_location_s4.LW
p1276
aVtc_289_101_multi_pdn_pgw_init_bearer_mod_wf_service_interrupted_by_dbr_with_lbi.LW
p1277
aVtc_282_131_deactivate_default_bearer.LWG
p1278
aVtc_178_902_11_2_modify_test_diameter_peer.LWG
p1279
aVtc_110_004_inbound_outbound_pf_rule_cli_udp_sctp_tcp.LWG
p1280
aVtc_208_22_attach_detach_imsi.LWG
p1281
aVtc_208_43_interception_after_small_restart.LWG
p1282
aVtc_243_213_tau_from_sgsn_s3_active_flag_get_new_sgw_two_pdn_connections_service_not_supported_at_modify.LWG
p1283
aVtc_243_205_tau_from_sgsn_s3_keep_old_sgw_two_pdn_connections_all_failed.LWG
p1284
aVtc_59_9_mtmsi_restart_counter.LWG
p1285
aVtc_304_461_initial_ue_service_request_then_csfb_to_1xrtt_control_mode_threshold_exceeded_usc_reject_implicit_detach.LWG
p1286
aVtc_259_30_af_provide_subscriber_information_g_imsi_unknown.LWG
p1287
aVtc_284_575_emergency_pdn_connectivity_pb_activate_dedicated_bearer_after_configured_max_bearers_setup.LWG
p1288
aVtc_289_101_multi_pdn_pgw_init_bearer_mod_wf_service_interrupted_by_dbr_with_lbi.LWG
p1289
aVtc_194_991_downlink_A21_AIS_during_waiting_location_report__idr_flags_ef.LWG
p1290
aVtc_204_000_mme_eps_handover_target_inter_main_flow.LWG
p1291
aVtc_326_245_Intra_TAU_Recovery_TAU_Complete_timeout.LWG
p1292
aVtc_326_406_Inter_TAU_Recovery_Unkonwn_GUTI__1xrtt_CS_Registration_Then_CSFB_To_1xRTT.LWG
p1293
aVtc_298_317_EF_SIBD_S4_Create_Bearer_Request.LWG
p1294
aVtc_666_06_block_rt_board.LWG
p1295
aVtc_666_02_reboot_ss7_board.LWG
p1296
aVtc_327_201_recovery_service_request__Cancel_Location_update_procedure_while_waiting_for_Ue_Backup_Response.LWG
p1297
aVtc_209_31_sms_mo.LWG
p1298
aVtc_238_260_mme_eps_irat_S3_ho_target__Create_Bearer_Request_while_wf_TAU_Accept.LWG
p1299
aVtc_238_131_Report_SN_IRATHO_without_SGW_changed_PLMN_SN_diff_2_PDN.LWG
p1300
aVtc_309_121_replayComplete_notification.LWG
p1301
aVtc_309_102_create_notification.LWG
p1302
aVtc_309_123_two_sessions_notification.LWG
p1303
aVtc_309_107_moref_notification.LWG
p1304
aVtc_231_113_rnc_reset_during_ms_act_si_ms_deact_rnc_contact.LWG
p1305
aVtc_132_002_create_ip_interface_eth.LWG
p1306
aVtc_324_006_mf_ser_req_signaling_after_ack_3gdt.LWG
p1307
aVtc_324_131_af_service_request_data_isd_timeout_3gdt.LWG
p1308
aVtc_324_386_ef_mt_sms_wf_frcn_wf_frca_wf_ula.LWG
p1309
aVtc_119_202_ospf_interface_opt_vals.LWG
p1310
aVtc_244_535_SLg_Location_Request__Downlink_A21_AIS_wwf_Location_Response_from_ESMLC.LWG
p1311
aVtc_292_191_X2_Based_ho_tac_based_roaming_restriction_table_matched_blacklist_exemptedlist.LWG
p1312
aVtc_179_321_Ccheck_ipsec_sa.LWG
p1313
aVtc_179_318_Ccheck_TraceCollectionIpv6server.LWG
p1314
aVtc_26_201_SGSN_init_PDP_modify_ARP_when_IU_released.W14b
p1315
aVtc_324_368_ef_cancel_location_with_updateProcedure_wf_modify_bearer_response_after_ula_hss.W14b
p1316
aVtc_39_187_detach_trigger_re_attach_new_iu.W14b
p1317
aVtc_231_117_rnc_reset_when_sgsn_initiated_del_all_session.W14b
p1318
aVtc_231_259_PGW_init_deletion_EF_iu_release.W14b
p1319
aVtc_236_049_s4_3gdt_rnc_reset_during_waiting_for_modify_beaer_rsp_in_service_request_procedure.W14b
p1320
aVtc_28_030_israu_new_sgsn_one_pdp_context_mo_sms.W14b
p1321
aVtc_208_31_sms_mo.G14b
p1322
aVtc_208_43_interception_after_small_restart.G14b
p1323
aVtc_244_701_mt_lr_LPPa_mobility_unstable_before_lr.L14b
p1324
aVtc_306_217_ef_seamless_move_source_receive_pdn_connectivity_request_wf_source_guti_reallocation_complete.L14b
p1325
aVtc_306_1055_ef_seamless_move_target_receive_cancel_location_withdraw_wf_lur_and_mbr_with_emergency_pdn.L14b
p1326
aVtc_306_1130_ef_seamless_move_target_receive_detach_request_with_switchoff_wf_service_request.L14b
p1327
aVtc_306_1335_ef_seamless_move_target_receive_cli_delete_subscriber_wf_service_request.L14b
p1328
aVtc_328_104_Backup_MME__Backup_received_when_feature_off.L14b
p1329
aVtc_318_120_sgw_restart_mf_both_s5_and_s8_interface.L14b
p1330
aVtc_217_022_rau_to_sgsn_guti_attach_when_wf_session_response.L14b
p1331
aVtc_260_244_receive_m3_reset_req_while_wf_m3_stop_resp_timeout.L14b
p1332
aVtc_326_326_Service_Reject_wrong_TA.L14b
p1333
aVtc_326_327_Service_Reject_no_Authentication_vector_from_HSS_then_SR_Recovery.L14b
p1334
aVtc_326_339_Service_Request_with_unknown_STMSI_retrieval_response_with_unexpected_revision_number.L14b
p1335
aVtc_326_229_Intra_TAU_Recovery_fail_Authentication_timeout_from_UE.L14b
p1336
aVtc_326_351_Service_Request_with_unknown_STMSI_ownSubPool_found_backup_in_itself.L14b
p1337
aVtc_326_372_Service_Request_with_unknown_STMSI_Restriction_2_pdn_roaming_restriction_emergency_pdn_recovered.L14b
p1338
aVtc_326_368_Service_Request_with_unknown_STMSI_Restriction_imsi_undefined_emergency_unauthenticated.L14b
p1339
aVtc_326_332_Service_Request_with_unknown_STMSI_Security_Mode_Complete_timeout.L14b
p1340
aVtc_326_406_Inter_TAU_Recovery_Unkonwn_GUTI__1xrtt_CS_Registration_Then_CSFB_To_1xRTT.L14b
p1341
aVtc_326_457_Inter_TAU_Recovery_Fail__Update_Location_Fail_Emergency_Type_a.L14b
p1342
aVtc_44_004_small_restart__sctp_fe_restart.L14b
p1343
aVtc_44_071_attach_long_imsi.L14b
p1344
aVtc_316_284_MME_Pool_Seamless_Move_Ecm_Idle_Source_MME__Delete_UE_Backup.L14b
p1345
aVtc_316_402_Periodic_Backup_first_backup_triggered_by_Service_Request.L14b
p1346
aVtc_103_602_georedundant_realm_routing.L14b
p1347
aVtc_225_321_mt_call_active_mode_nas_non_delivery__cs_service_notification__handover_required_meanwhile_CBR_received.L14b
p1348
aVtc_329_020_attach_rs_allowed_rr_restricted_forbidden_tas.L14b
p1349
aVtc_329_310_s1_inter_ho_target_rs_restricted.L14b
p1350
aVtc_304_236_isc_active_flag_on_control_mode_threshold_exceeded_ignore_replace_s1_wf_initial_context_setup_response.L14b
p1351
aVtc_304_402_Service_Request_NW_Initiated__control_mode_threshold_exceeded.L14b
p1352
aVtc_274_401_DDN_with_cc6_interfere_intra_tau_without_sgw_change_active_flag_on.L14b
p1353
aVtc_274_380_Intra_and_pTAU__Downlink_A21_AIS_while_waiting_for_Create_Session_Response.L14b
p1354
aVtc_266_011_DownlinkDataNotification_interfering_ISD_sgsn00026976.L14b
p1355
aVtc_266_020_DownlinkDataFailureInd_repeat_paging_timer_on.L14b
p1356
aVtc_266_026_DownlinkDataFailureInd_repeat_paging_timer_small_local_restart.L14b
p1357
aVtc_220_020_csfb_to_1xrtt_ue_suspended_delete_bearer_request_last_pdn_connection.L14b
p1358
aVtc_276_045_Inter_TAU_New_MME__S1_Reset_while_waiting_for_Identity_Response__enhanced_imei_check.L14b
p1359
aVtc_292_175_nw_init_create_bearer_after_x2_handover.L14b
p1360
aVtc_262_1070_attach_tac_based_apn_redirection_table_matched_rejected.L14b
p1361
aVtc_327_540_recovery_service_request__Msc_Reset_while_waiting_for_Identity_Response.L14b
p1362
aVtc_346_448_AF__Intra_TAU_CCA_Update_authentication_rejected_4001.L14b
p1363
aVtc_346_890_3gpp_move_source_ecm_connected_terminate_sx.L14b
p1364
aVtc_273_005_tau_intra_deregistered.L14b
p1365
aVtc_273_551_tau_intra__sgw_relocation_with_csg_id_feature_off.L14b
p1366
aVtc_194_100_check_gauge_unstable_not_parked.L14b
p1367
aVtc_194_400_attach_ul_fails_emm_deregistered.L14b
p1368
aVtc_194_402_tau_ul_fails_imsi_unknown_remap_15.L14b
p1369
aVtc_268_039_Timer_Based_GBR_Deact__Receive_DDN_before_Release_Access_Bearer_Response.L14b
p1370
aVtc_268_022_UE_Release__initial_ue_service_request_wf_release_access_bearer_resp.L14b
p1371
aVtc_234_017_update_unknown_case.L14b
p1372
aVtc_214_312_combined_tau_intra_la_change_new_msc_while_wf_tau_complete.L14b
p1373
aVtc_73_33_gn_gsm_payload_97.WG14a
p1374
aVtc_172_11_record_cause_code_for_ps_handover_required_if_cause_same_with_ps_handover_request.G14b
p1375
aVtc_208_43_interception_after_small_restart.G14b
p1376
aVtc_236_284_HO_over_S3_3GDT_switchback_ef_ms_deact_ti_dedicated_wf_rab_assignment_response.LW
p1377
aVtc_209_44_sgsn_init_pdp_modification.LW
p1378
aVtc_301_002_activate_ipv6_visitor_requested_ipv6_subscribed_ipv6_aifav_false_aifv_true.LW
p1379
aVtc_298_438_ms_init_deact_ef_delicated_bearer_deact_interfered_by_deactivate_pdp_request_pdn_level.LW
p1380
aVtc_326_406_Inter_TAU_Recovery_Unkonwn_GUTI__1xrtt_CS_Registration_Then_CSFB_To_1xRTT.LW
p1381
aVtc_321_091_mt_sms_mf.LW
p1382
aVtc_321_090_mo_sms_mf.LW
p1383
aVtc_281_011_Activate_bearer__Handover_required_while_wf_erab_setup_response.LW
p1384
aVtc_313_202_inter_new_srns_reloc_s16_with_sgw_change_attach_request_initial_ue_received_wf_reloc_req_ack.LW
p1385
aVtc_101_008_multiple_mbms_session_payload.LW
p1386
aVtc_44_071_attach_long_imsi.LW
p1387
aVtc_103_1004_secondary_dpl_used_when_all_peers_in_dpl_unavailable_no_sls.LW
p1388
aVtc_250_160_s6d_IDR_IDA_Change_GPRS_to_eps_subscription.LW
p1389
aVtc_298_434_ms_init_deact_ef_default_bearer_deact_interfered_by_detach_request.W14b
p1390
aVtc_298_695_S4_3GDT_Service_request_wait_rnc_resp_ef_deactivate_pdp_context_request_dedicate.W14b
p1391
aVtc_209_31_sms_mo.W14b
p1392
aVtc_245_342_israu_new_l_to_w_sgw_not_change_non_gbr_bearer_inactive.W14b
p1393
aVtc_231_173_ms_init_detach_interfered_by_cancel_location_withdraw.W14b
p1394
aVtc_231_113_rnc_reset_during_ms_act_si_ms_deact_rnc_contact.W14b
p1395
aVtc_231_117_rnc_reset_when_sgsn_initiated_del_all_session.W14b
p1396
aVtc_101_009_multiple_mbms_session_cli_test.W14b
p1397
aVtc_28_024_mt_sms_segmented.W14b
p1398
aVtc_99_051_inter_g_to_w_new_main_flow_with_payload.WG14a
p1399
aVtc_266_306_Service_Request_SGW_unavailable__create_session_two_PDN_one_failed.LWG
p1400
aVtc_119_101_ospf_area_cli.LWG
p1401
aVtc_322_050_smooth_move_ebt_rau_after_move.LWG
p1402
aVtc_295_130_Intra_S1_HO__Sgw_reloc__Downlink_A21_AIS_while_waiting_for_Delete_Session_Response.LWG
p1403
aVtc_194_100_check_gauge_unstable_not_parked.LWG
p1404
aVtc_59_9_mtmsi_restart_counter.LWG
p1405
aVtc_95_10_fingerprint.LWG
p1406
aVtc_304_323_PDN_connectivity__control_mode_threshold_exceeded_action_reject_while_service_req_ongoing.LWG
p1407
aVtc_666_06_block_rt_board.LWG
p1408
aVtc_666_02_reboot_ss7_board.LWG
p1409
aVtc_178_938_sctp_setprofile.LWG
p1410
aVtc_236_107_s4_3gdt_based_on_sr_change_DtThresholdNumber.LWG
p1411
aVtc_236_307_Activation_DtSelMode_5_APN_requested_wrong_SGSN_default_APN_in_APN_list_TAC_in_TAC_list.LWG
p1412
aVtc_132_002_create_ip_interface_eth.LWG
p1413
aVtc_318_107_sgw_restart_mf_one_of_pdns_create_after_sgw_restart.LWG
p1414
aVtc_291_2_ebm_log_no_license.LWG
p1415
aVtc_214_910_combined_tau_intra_insert_subscriber_data_interference.LWG
p1416
aVtc_239_011_israu_interfering_context_request_no_cancel_location_s4.LWG
p1417
aVtc_96_026_intra_sgsn_inter_ra_psho_cancel_wf_request_ack.LWG
p1418
aVtc_298_438_ms_init_deact_ef_delicated_bearer_deact_interfered_by_deactivate_pdp_request_pdn_level.LWG
p1419
aVtc_324_131_af_service_request_data_isd_timeout_3gdt.LWG
p1420
aVtc_324_386_ef_mt_sms_wf_frcn_wf_frca_wf_ula.LWG
p1421
aVtc_268_025_UE_Release__initial_ue_tau_request_wf_release_access_bearer_resp.LWG
p1422
aVtc_44_071_attach_long_imsi.L14b
p1423
aVtc_44_895_mme_assoc_reestablish__s1_setup_when_iterator_started_finished.L14b
p1424
aVtc_103_1102_fallback_to_imsins_success.L14b
p1425
aVtc_262_802_guti_attach_initial_context_setup_failure_reattach.L14b
p1426
aVtc_316_218_ISD_Only_UE_AMBR_Changed_ECM_Connected__Backup_UE.L14b
p1427
aVtc_214_806_mo_sms_active_donwlink_nas_transport_meanwhile_handover_required_HO_success.L14b
p1428
aVtc_274_281_Intra_and_pTAU__Context_Request_while_wating_for_Initial_Context_Setup_Response.L14b
p1429
aVtc_304_473_initial_ue_csfb_to_wg_control_mode_threshold_exceeded_usc_ignore_wf_icsr.L14b
p1430
aVtc_220_005_csfb_to_1xrtt_ue_return_with_detach_request.L14b
p1431
aVtc_318_120_sgw_restart_mf_both_s5_and_s8_interface.L14b
p1432
aVtc_326_212_Intra_TAU_Recovery_after_node_restart_Update_Location_timeout_TAU_Complete_timeout.L14b
p1433
aVtc_326_406_Inter_TAU_Recovery_Unkonwn_GUTI__1xrtt_CS_Registration_Then_CSFB_To_1xRTT.L14b
p1434
aVtc_326_454_Inter_TAU_Recovery_Fail__No_Security_Mode_Complete.L14b
p1435
aVtc_284_330_delete_bearer_interfere_handover_to_non_3GPP_ecm_connected_multi_pdn.L14b
p1436
aVtc_197_410_attach_table_matched_standalone_gtp.L14b
p1437
aVtc_203_442_mme_eps_handover_source_inter_af_tenb_not_support_forwarding.L14b
p1438
aVtc_288_210_pgw_init_bearer_mod_QoS_ecm_idle_ue_not_responding_to_paging.L14b
p1439
aVtc_346_505_AF__TAU_Inter_New__get_new_sgw__2PDN_CSR_failure_for_1PDN_terminate_1Sx.L14b
p1440
aVtc_276_045_Inter_TAU_New_MME__S1_Reset_while_waiting_for_Identity_Response__enhanced_imei_check.L14b
p1441
aVtc_43_101__removal_of_disconnected_eNodeBs__CLI_removal.L14b
p1442
aVtc_335_84_From_Wifi_ECM_Connected_AF__No_Decision_Response_from_eNB_Timeout.L14b
p1443
aVtc_217_111_rau_to_gn_sgsn_timeout_when_wf_delete_session_response_with_emergency_pdn.L14b
p1444
aVtc_289_031_Modify_bearer__Downlink_nas_transport_meanwhile_path_switch_request_HO_success.L14b
p1445
aVtc_306_046_ef_seamless_move_source_receive_cancel_location_withdraw_wf_frr_ecm_idle.L14b
p1446
aVtc_327_510_recovery_service_request__ue_context_release_request.L14b
p1447
aVtc_327_600_Inter_TAU_Recovery__Attach_Request_IMSI_while_waiting_for_ue_backup_retrieval_Response.L14b
p1448
aVtc_327_602_Inter_TAU_Recovery__Attach_Request_while_waiting_for_Ue_Authentication_Response.L14b
p1449
aVtc_327_708_recovery_for_DDN__pdn_req_succ_while_wf_ULA_congestion.L14b
p1450
aVtc_295_137_mt_call_during_s1_ho_tau_request_when_wf_handover_notify.L14b
p1451
aVtc_244_535_SLg_Location_Request__Downlink_A21_AIS_wwf_Location_Response_from_ESMLC.L14b
p1452
aVtc_578_33_check_ebm_para_statistics_enb_sn.L14b
p1453
aVtc_578_32_check_ebm_para_statistics_ue_return_duration.L14b
p1454
aVtc_273_362_tau_intra_normal_between_ipv4_and_ipv6.L14b
p1455
aVtc_281_009_Activate_bearer__Handover_Required_while_wf_eps_bearer_context_accept.L14b
p1456
aVtc_281_011_Activate_bearer__Handover_required_while_wf_erab_setup_response.L14b
p1457
aVtc_243_311_tau_from_sgsn_s3_security_failure_no_auth_response.L14b
p1458
aVtc_329_003_attach_rs_allowed_emergency_plmn_change_ula_fails.L14b
p1459
aVtc_96_012_intra_sgsn_intra_ra_psho_llc_pdu_arrives_before_psho_complete.LWG
p1460
aVtc_208_43_interception_after_small_restart.LWG
p1461
aVtc_259_102_ef_tads_s4_interfere_inter_rau_old_g.LWG
p1462
aVtc_196_172_nrspca_during_t3385_when_receive_sgsn_context_ack_not_accepted.LWG
p1463
aVtc_13_20_gprs_imsi_attach_new_sgsn_security_off.LWG
p1464
aVtc_205_71_08_SCTP_OctetsChunksSent.LWG
p1465
aVtc_214_1139_la_selection_mf_reselection_ptau_during_ue_restoration.LWG
p1466
aVtc_266_159_DownlinkDataNotification_without_too_big_CSG_Id_list_to_HeNB_GW.LWG
p1467
aVtc_266_303_Service_Request_SGW_unavailable__DNS_Query_failure.LWG
p1468
aVtc_306_1130_ef_seamless_move_target_receive_detach_request_with_switchoff_wf_service_request.LWG
p1469
aVtc_306_1335_ef_seamless_move_target_receive_cli_delete_subscriber_wf_service_request.LWG
p1470
aVtc_306_1308_ef_seamless_move_target_buffer_update_bearer_request.LWG
p1471
aVtc_239_011_israu_interfering_context_request_no_cancel_location_s4.LWG
p1472
aVtc_79_025_sgsn_init_modification_rnc_not_supporting_modify.LWG
p1473
aVtc_318_116_sgw_restart_mf_one_pdn_with_relocate_by_ReleaseAccessBearersResponse.LWG
p1474
aVtc_110_003_inbound_outbound_pf_rule_cli_icmp.LWG
p1475
aVtc_110_004_inbound_outbound_pf_rule_cli_udp_sctp_tcp.LWG
p1476
aVtc_263_242_Attach_Flow__Attach_Request_with_diff_IE_while_waiting_for_gts_identification_response.LWG
p1477
aVtc_178_970_m3_ietf_set_prim_ip_path.LWG
p1478
aVtc_33_17_isc_rau_authenticating_interrupted_by_subscription_withdrawn.LWG
p1479
aVtc_157_5_snmp_ipv6_consistent.LWG
p1480
aVtc_304_410_Service_Request_UE_Initiated__control_mode_threshold_exceeded_request_reject_idle_mode.LWG
p1481
aVtc_132_002_create_ip_interface_eth.LWG
p1482
aVtc_194_084_hss_reset_after_large_restart.LWG
p1483
aVtc_275_020_tau_inter_new_imsi_ns_access_restricted.LWG
p1484
aVtc_275_118_tau_inter_new_emergency_erroneous_ie_authenticated_no_imsi.LWG
p1485
aVtc_298_145_EF_NRSPCA_interfere_Activation.LWG
p1486
aVtc_326_207_Intra_TAU_Recovery_with_1xrtt_cs_registration_then_CSFB_to_1xrtt.LWG
p1487
aVtc_326_406_Inter_TAU_Recovery_Unkonwn_GUTI__1xrtt_CS_Registration_Then_CSFB_To_1xRTT.LWG
p1488
aVtc_221_43_paging_double.LWG
p1489
aVtc_225_636_exp_flow_handover_required_inter_while_wf_modification_context_response.LWG
p1490
aVtc_179_321_Ccheck_ipsec_sa.LWG
p1491
aVtc_179_318_Ccheck_TraceCollectionIpv6server.LWG
p1492
aVtc_666_06_block_rt_board.LWG
p1493
aVtc_666_02_reboot_ss7_board.LWG
p1494
aVtc_77_5_attach_activate2_g_crash.LWG
p1495
aVtc_44_812_mme_assoc_reestablish__abort_m3.LW
p1496
aVtc_44_870_mme_assoc_reestablish__board_block_deblock_s1_mme.LW
p1497
aVtc_298_109_EF_NRSPCA_S4_SM_Status.LW
p1498
aVtc_298_145_EF_NRSPCA_interfere_Activation.LW
p1499
aVtc_298_317_EF_SIBD_S4_Create_Bearer_Request.LW
p1500
aVtc_298_438_ms_init_deact_ef_delicated_bearer_deact_interfered_by_deactivate_pdp_request_pdn_level.LW
p1501
aVtc_318_116_sgw_restart_mf_one_pdn_with_relocate_by_ReleaseAccessBearersResponse.LW
p1502
aVtc_313_218_inter_new_srns_reloc_s16_with_sgw_change_detach_request_direct_transfer_received_wf_modify_bearer_response.LW
p1503
aVtc_39_436_mas_one_pdp_srv_req_3gdt_switchback_target.LW
p1504
aVtc_326_406_Inter_TAU_Recovery_Unkonwn_GUTI__1xrtt_CS_Registration_Then_CSFB_To_1xRTT.LW
p1505
aVtc_262_041_imsi_attach_NOK_emm_deregistered.LW
p1506
aVtc_241_151_intra_rau_wait_for_modify_bearer_resp_interfere_by_poweroff_detach.LW
p1507
aVtc_241_801_israu_interfering_context_request_no_cancel_location_s4.LW
p1508
aVtc_243_202_tau_from_sgsn_s3_get_new_sgw_two_pdn_connections_first_ok_second_failed.LW
p1509
aVtc_257_12_pws_etws_write_replace_warning_request_enb_failure.LW
p1510
aVtc_324_006_mf_ser_req_signaling_after_ack_3gdt.LW
p1511
aVtc_194_008_cl_update_procedure_detached_unknown_mme.LW
p1512
aVtc_194_063_hss_reset.LW
p1513
aVtc_274_380_Intra_and_pTAU__Downlink_A21_AIS_while_waiting_for_Create_Session_Response.LW
p1514
aVtc_274_381_Intra_and_pTAU__Downlink_A21_AIS_while_waiting_for_Authentication_Response.LW
p1515
aVtc_284_051_emergency_pdn_connectivity_emergency_attached_ue.LW
p1516
aVtc_04_25_gprs_ptmsi_attach_ms_not_known_in_old_sgsn.G14b
p1517
aVtc_208_22_attach_detach_imsi.G14b
p1518
aVtc_208_43_interception_after_small_restart.G14b
p1519
aVtc_324_069_af_modify_bearer_dedicated_bearer_fail.WG14a
p1520
aVtc_103_850_error_code_DIAMETER_REALM_NOT_SERVED.L14b
p1521
aVtc_103_903_primary_or_secondary_realm_routing_own_realm.L14b
p1522
aVtc_268_001_release_request.L14b
p1523
aVtc_329_800_geored_intra_tau_rr_restricted_after_update_location.L14b
p1524
aVtc_197_702_apn_oi_replacement_attach_apn_level_only_local_breakout.L14b
p1525
aVtc_326_432_Inter_TAU_Recovery_Fail__MMEC_Not_Configured_In_MMEC_Table.L14b
p1526
aVtc_44_004_small_restart__sctp_fe_restart.L14b
p1527
aVtc_306_1124_ef_seamless_move_target_receive_detach_request_with_switchoff_wf_mbr.L14b
p1528
aVtc_211_023_streamed_cell_trace_mapping_log_only_ipv6.L14b
p1529
aVtc_275_550_inter_tau_new_detach_odb_bit0.L14b
p1530
aVtc_304_114_initial_ue_intra_tau_control_mode_threshold_exceeded_usc_ignore_replace_s1.L14b
p1531
aVtc_262_001_imsi_attach.L14b
p1532
aVtc_318_107_sgw_restart_mf_one_of_pdns_create_after_sgw_restart.L14b
p1533
aVtc_214_312_combined_tau_intra_la_change_new_msc_while_wf_tau_complete.L14b
p1534
aVtc_265_102_Detach_Flow_NW_init__Reattach_Required_Attach_Request_while_waiting_for_Context_Release_Complete.L14b
p1535
aVtc_225_658_mt_call_active_mode_no_lai_in_paging_req_non_associated_param_tamr_true.L14b
p1536
aVtc_225_692_mt_call_paging_req_no_lai_non_associated_msc_while_waiting_to_imsi_detach.L14b
p1537
aVtc_244_535_SLg_Location_Request__Downlink_A21_AIS_wwf_Location_Response_from_ESMLC.L14b
p1538
aVtc_31_019_attach_ul_fails_network_failure_when_data_not_confirmed.W14b
p1539
aVtc_231_173_ms_init_detach_interfered_by_cancel_location_withdraw.W14b
p1540
aVtc_231_117_rnc_reset_when_sgsn_initiated_del_all_session.W14b
p1541
aVtc_209_44_sgsn_init_pdp_modification.W14b
p1542
aVtc_298_690_S4_3GDT_Service_request_wait_MBR_ef_delete_bearer_request_lbi.W14b
p1543
aVtc_275_046_tau_inter_new_get_new_sgw_two_pdn_connections_first_failed_second_ok.LWG
p1544
aVtc_157_5_snmp_ipv6_consistent.LWG
p1545
aVtc_289_047_Modify_bearer__ERAB_modify_response_s1_intra_system_handover_triggered_activate_dedicated_bearer_one_pdn_multiple_bearer.LWG
p1546
aVtc_289_103_multi_pdns_pgw_init_bearer_mod_ecm_idle_interrupted_by_dbr_with_lbi.LWG
p1547
aVtc_40_008_mo_sms_camel_request_success_report.LWG
p1548
aVtc_314_087_hss_init_qos_mod_wf_ubr_ef_create_bearer_request.LWG
p1549
aVtc_326_406_Inter_TAU_Recovery_Unkonwn_GUTI__1xrtt_CS_Registration_Then_CSFB_To_1xRTT.LWG
p1550
aVtc_165_11_check_hwloss_alarm_ap.LWG
p1551
aVtc_324_327_ef_service_req_data_direct_transfer_ingore.LWG
p1552
aVtc_44_004_small_restart__sctp_fe_restart.LWG
p1553
aVtc_327_221_recovery_service_request__Insert_Subscriber_Data_while_waiting_for_Guti_Reallocation_Complete.LWG
p1554
aVtc_283_050_GW_Delete_Bearer_Handover_to_non_3GPP__Ue_Release_while_wf_ERAB_Release_Response.LWG
p1555
aVtc_04_11_gprs_imsi_attach_hard_sau_limit_exceeded.LWG
p1556
aVtc_273_061_two_guti_after_realloc_detach_on_old_attach_on_new.LWG
p1557
aVtc_202_421_af_seamless_move_target_initialCtxSetupResponse_noSuccDefaultBearer_implicit_detach.LWG
p1558
aVtc_256_382_Sv_Path_Mgt__available_MSC_disable_Sv.LWG
p1559
aVtc_666_06_block_rt_board.LWG
p1560
aVtc_666_02_reboot_ss7_board.LWG
p1561
aVtc_204_901_mme_eps_ho_target_insert_subscriber_data_with_odb_bit0_during_wf_tau_complete.LWG
p1562
aVtc_06_057_activate_reject_primary_bss_lower_abqp_GGSN_timeout.LWG
p1563
aVtc_31_057_standalone_isd_when_active.LWG
p1564
aVtc_241_801_israu_interfering_context_request_no_cancel_location_s4.LWG
p1565
aVtc_43_103__plmn_mismatch_on_disconnected_node.LWG
p1566
aVtc_231_113_rnc_reset_during_ms_act_si_ms_deact_rnc_contact.LWG
p1567
aVtc_231_275_rab_release_si_deactivate_with_TDI_false_TI_dedicated_bearer.LWG
p1568
aVtc_59_9_mtmsi_restart_counter.LWG
p1569
aVtc_179_321_Ccheck_ipsec_sa.LWG
p1570
aVtc_178_970_m3_ietf_set_prim_ip_path.LWG
p1571
aVtc_110_004_inbound_outbound_pf_rule_cli_udp_sctp_tcp.LWG
p1572
aVtc_276_240_Inter_TAU_New_MME__Create_Bearer_Request_while_waiting_for_Modify_Bearer_Response.LWG
p1573
aVtc_306_1130_ef_seamless_move_target_receive_detach_request_with_switchoff_wf_service_request.LWG
p1574
aVtc_119_101_ospf_area_cli.LWG
p1575
aVtc_95_7_negative_tests.LWG
p1576
aVtc_103_901_load_sharing_realm_routing_remote_realm.L14b
p1577
aVtc_103_1101_resending_AIR_interfering_CLR.L14b
p1578
aVtc_257_30_pws_sctp_device_failure.L14b
p1579
aVtc_327_012_recovery_intra_TAU__initial_Attach_Request_while_waiting_for_Ue_Backup_Response.L14b
p1580
aVtc_327_170_recovery_intra_TAU_SGSN_Context_Request_while_waiting_for_Create_Session_Response.L14b
p1581
aVtc_327_322_recovery_service_request__initial_Imsi_Attach_Request_while_waiting_for_Ue_Backup_Response.L14b
p1582
aVtc_327_510_recovery_service_request__ue_context_release_request.L14b
p1583
aVtc_295_130_Intra_S1_HO__Sgw_reloc__Downlink_A21_AIS_while_waiting_for_Delete_Session_Response.L14b
p1584
aVtc_221_120_Downlink_Data_Notification_1_EBI_known_QCI_higher_than_9.L14b
p1585
aVtc_306_121_ef_seamless_move_source_receive_s1_reset_wf_target_guti_reallocation_complete.L14b
p1586
aVtc_306_076_ef_seamless_move_source_receive_extended_service_request_wf_cancel_location_request.L14b
p1587
aVtc_306_004_ef_seamless_move_source_receive_attach_request_wf_source_guti_reallocation_complete.L14b
p1588
aVtc_306_113_ef_seamless_move_source_receive_sgsn_context_request_wf_source_guti_reallocation_complete.L14b
p1589
aVtc_306_1216_ef_seamless_move_target_receive_s1_setup_ecm_idle.L14b
p1590
aVtc_328_102_Backup_MME__Bakcup_twice_for_1_IMSI_from_2_MME__Retrieval.L14b
p1591
aVtc_204_810_inter_s1ho__successful_retransmission_of_identity_request_after_four_timeouts__enhanced_imei_check.L14b
p1592
aVtc_211_012_streamed_cell_trace_mapping_stream_only.L14b
p1593
aVtc_265_160_Detach_Flow_NW_init__Ue_moved_to_non_3gpp_while_imsi_detach.L14b
p1594
aVtc_260_352_cli_delete_mce_all_two_mces_disconnected.L14b
p1595
aVtc_244_701_mt_lr_LPPa_mobility_unstable_before_lr.L14b
p1596
aVtc_288_118_pgw_init_bearer_mod_paging_integrity_protection_nok.L14b
p1597
aVtc_293_206_X2_Based_HO__Path_Switch_Request_with_new_TA_while_waiting_for_TAU_Complete.L14b
p1598
aVtc_256_175_mme_eps_srvcc_ho_source_cs_only_ue_release_request_wf_srvcc_ps_to_cs_response.L14b
p1599
aVtc_214_312_combined_tau_intra_la_change_new_msc_while_wf_tau_complete.L14b
p1600
aVtc_266_020_DownlinkDataFailureInd_repeat_paging_timer_on.L14b
p1601
aVtc_326_276_Periodic_Intra_TAU_with_unknown_GUTI_TAI_not_in_backup_TAI_list.L14b
p1602
aVtc_326_301_Service_Request_with_unknown_STMSI.L14b
p1603
aVtc_326_406_Inter_TAU_Recovery_Unkonwn_GUTI__1xrtt_CS_Registration_Then_CSFB_To_1xRTT.L14b
p1604
aVtc_281_011_Activate_bearer__Handover_required_while_wf_erab_setup_response.L14b
p1605
aVtc_268_032_Timer_Based_GBR_Deact__Receive_DDN_Only_GBR_in_PE_before_Timer_Expires.L14b
p1606
aVtc_345_161_af__mt_csfb_with_psho__ecm_connected_failure_cause_in_release_from_eNodeB_when_ho_failed.L14b
p1607
aVtc_316_270_RAU_To_Gn_SGSN_With_Dedicated_Bearers_Backup_Option_Change__Delete_UE_Backup.L14b
p1608
aVtc_316_206_TAU_From_S4_SGSN_Multiple_PDN_Connections_With_Max_Dedicated_Bearers__Backup_UE.L14b
p1609
aVtc_44_004_small_restart__sctp_fe_restart.L14b
p1610
aVtc_44_301_sctp_counter_MessageSent_Received.L14b
p1611
aVtc_44_870_mme_assoc_reestablish__board_block_deblock_s1_mme.L14b
p1612
aVtc_292_132_x2_ho_all_default_bearers_failed.L14b
p1613
aVtc_31_092_concurrent_msd_while_ul_that_fails.W14b
p1614
aVtc_236_073_hard_ho_intra_rau_with_3gdt_bearer_sgw_nochange_without_seq.W14b
p1615
aVtc_342_092_modify_tx2n.W14b
p1616
aVtc_322_161_smooth_move_ef_nas_after_paging_response_ignore.W14b
p1617
aVtc_245_342_israu_new_l_to_w_sgw_not_change_non_gbr_bearer_inactive.W14b
p1618
aVtc_231_113_rnc_reset_during_ms_act_si_ms_deact_rnc_contact.W14b
p1619
aVtc_298_434_ms_init_deact_ef_default_bearer_deact_interfered_by_detach_request.W14b
p1620
aVtc_44_071_attach_long_imsi.LW
p1621
aVtc_44_004_small_restart__sctp_fe_restart.LW
p1622
aVtc_274_403_DDN_with_cc6_interfere_intra_tau_with_sgw_change_active_flag_on.LW
p1623
aVtc_274_450_tau_intra__sgw_relocation_with_csg_id_plmn_change_during_service_request_reject.LW
p1624
aVtc_218_311_tau_from_sgsn_preserved_gbr_bearer_buffer_1_ubr_1_cbr.LW
p1625
aVtc_256_130_mme_eps_srvcc_ho_source_cs_only_initial_ue_attach_request_wf_srvcc_ps_to_cs_response.LW
p1626
aVtc_316_405_Periodic_Backup_IMEI_Attach_Emergency__No_UE_Backup.LW
p1627
aVtc_289_020_Modify_bearer__ERAB_modify_request_meanwhile_handover_required_HO_success_TAU.LW
p1628
aVtc_284_575_emergency_pdn_connectivity_pb_activate_dedicated_bearer_after_configured_max_bearers_setup.LW
p1629
aVtc_243_330_tau_from_sgsn_s3_emergency_type_a_no_restriction.LW
p1630
aVtc_293_031_tau_after_ho_tz_change_nas_non_delivery_x2_handover_triggered.LW
p1631
aVtc_298_317_EF_SIBD_S4_Create_Bearer_Request.LW
p1632
aVtc_298_438_ms_init_deact_ef_delicated_bearer_deact_interfered_by_deactivate_pdp_request_pdn_level.LW
p1633
aVtc_39_622_no_fwd_reloc_cmpl_ack_no_srv_req_move_success_target_sgsn.LW
p1634
aVtc_306_1214_ef_seamless_move_target_receive_s1_setup_wf_icsr_and_lur.LW
p1635
aVtc_11_311_rab_setup_interrupted_by_service_request_iu_release_and_rnc_reset.LW
p1636
aVtc_324_420_ef_payload_buffered.LW
p1637
aVtc_324_424_ef_payload_buffered_wf_security_mode_complete_payload_different_contextId.LW
p1638
aVtc_241_431_intra_rau_with_bearer_sgw_unchange_2_pdns_with_one_modify_no_response.LW
p1639
aVtc_231_117_rnc_reset_when_sgsn_initiated_del_all_session.LW
p1640
aVtc_326_406_Inter_TAU_Recovery_Unkonwn_GUTI__1xrtt_CS_Registration_Then_CSFB_To_1xRTT.LW
p1641
aVtc_273_022_tau_intra_normal_idle_tai_unknown.LW
p1642
aVtc_273_254_tau_intra__sgw_relocation_no_resp_delete_bearer_command_mult_pdn.LW
p1643
aVtc_194_079_cl_subscription_withdrawn_during_ul.LW
p1644
aVtc_194_081_cl_subscription_withdrawn_during_auth.LW
p1645
aVtc_194_010_cl_subscription_withdrawn_detached.LW
p1646
aVtc_208_22_attach_detach_imsi.G14b
p1647
aVtc_208_40_sgsn_init_pdp_modification.G14b
p1648
aVtc_276_280_Inter_TAU_New_MME__Delete_Bearer_Request_while_waiting_for_Modify_Bearer_Response.L14b
p1649
aVtc_276_022_Inter_TAU_New_MME__New_TAU_Request_while_waiting_for_Modify_Bearer_Response.L14b
p1650
aVtc_276_264_Inter_TAU_New_MME__Update_Bearer_Request_while_waiting_for_first_Modify_Bearer_Response.L14b
p1651
aVtc_304_119_initial_ue_intra_tau_two_pdn_control_mode_threshold_exceeded_usc_reject_lead_to_implicit_detach_wf_icsr.L14b
p1652
aVtc_304_318_PDN_connectivity__control_mode_threshold_exceeded_action_reject_while_different_pdn_connectivity_ongoing_wf_create_session_response.L14b
p1653
aVtc_304_201_inter_tau__control_mode_threshold_not_reached.L14b
p1654
aVtc_304_313_PDN_connectivity__control_mode_threshold_exceeded_action_reject_while_same_pdn_connectivity_ongoing_wf_nas_default_bearer_activation_accept.L14b
p1655
aVtc_304_004_attach_success__only_measurement_mode_threshold_reached.L14b
p1656
aVtc_304_003_attach_success__control_mode_threshold_exceeded.L14b
p1657
aVtc_267_011_Service_Request__Service_Request_while_waiting_for_Initial_Ctx_Setup_Response_Dedicated.L14b
p1658
aVtc_306_131_ef_seamless_move_source_receive_s1_setup_wf_frr_ecm_connected.L14b
p1659
aVtc_306_1335_ef_seamless_move_target_receive_cli_delete_subscriber_wf_service_request.L14b
p1660
aVtc_302_216_1xrtt_srvcc_ue_release_request_timeout.L14b
p1661
aVtc_220_560_csfb_to_1xrtt_in_ecm_idle_extended_service_request_wf_ue_context_release_request.L14b
p1662
aVtc_103_1101_resending_AIR_interfering_CLR.L14b
p1663
aVtc_274_020_Intra_and_pTAU__Detach_Request_while_waiting_for_Initial_Context_Setup_Response.L14b
p1664
aVtc_274_380_Intra_and_pTAU__Downlink_A21_AIS_while_waiting_for_Create_Session_Response.L14b
p1665
aVtc_225_321_mt_call_active_mode_nas_non_delivery__cs_service_notification__handover_required_meanwhile_CBR_received.L14b
p1666
aVtc_225_616_exp_flow_handover_required_intra_while_wf_modification_context_response.L14b
p1667
aVtc_292_110_x2_ho_1_pdn_fail_in_enb_1_pdn_fail_in_sgw_1_dedicated_failed.L14b
p1668
aVtc_199_83_imsi_attach_echo_alarm.L14b
p1669
aVtc_194_072_cli_delete_subscriber_msisdn.L14b
p1670
aVtc_202_17_service_request_during_release_access_bearers.L14b
p1671
aVtc_202_535_seamless_move_target_detach_with_cause_of_reattach_required_with_not_allowed_apn_in_odb_free_apn_list_for_roamer__odb_bit0.L14b
p1672
aVtc_202_564_seamless_move_target_Connected_mode_Emergency_Type_A__service_request_with_CSG_Id_after_ULA.L14b
p1673
aVtc_202_457_af_seamless_move_source_unsuccessful_no_GUTI_reallocation_complete_reallocate_GUTI.L14b
p1674
aVtc_262_063_attach_tai_not_supported.L14b
p1675
aVtc_268_014_UE_Release_Flow__Downlink_A21_AIS_while_waiting_for_Relase_Access_Bearer_Response.L14b
p1676
aVtc_263_051_Attach_Flow__UE_Context_Release_Request_while_waiting_for_Modify_Bearer_Response.L14b
p1677
aVtc_258_109_location_report_from_eNodeB_several_PDN_connections.L14b
p1678
aVtc_284_510_pdn_connectivity_activate_bearer_with_cause_33.L14b
p1679
aVtc_281_064_Activate_bearer__Service_Request_NOK_OK_Integrity_check_while_wf_erab_setup_response.L14b
p1680
aVtc_307_004_HSS_Init_QoS_Modification__RFSP_changed_Roaming_UE_CONNECTED.L14b
p1681
aVtc_256_060_mme_eps_srvcc_ho_source_to_geran_cs_only_mf_after_attach_with_dtm.L14b
p1682
aVtc_214_048_combined_tau_inter_new_interfering_s1_reset.L14b
p1683
aVtc_214_409_combined_attach_vlr_reset_imsi_detach_interferred_by_combined_tau_active.L14b
p1684
aVtc_214_910_combined_tau_intra_insert_subscriber_data_interference.L14b
p1685
aVtc_214_710_combined_tau_intra_eps_attach_interfering_mt_sms_paging_wf_tau_complete_then_ddn.L14b
p1686
aVtc_289_015_Modify_bearer__ERAB_modify_response_s1_intra_system_handover_triggered_resend_2_times.L14b
p1687
aVtc_289_032_Modify_bearer__Downlink_nas_transport_meanwhile_handover_required_HO_success.L14b
p1688
aVtc_318_158_sgw_restart_af_relocation_triggered_by_intra_tau_procedure_fail.L14b
p1689
aVtc_318_252_restoration_triggered_by_create_session_response.L14b
p1690
aVtc_327_022_recovery_intra_TAU__initial_Detach_Request_while_waiting_for_Ue_Backup_Response.L14b
p1691
aVtc_327_510_recovery_service_request__ue_context_release_request.L14b
p1692
aVtc_279_040_tai_list_attach_last_tai_tac_based_roaming_restriction.L14b
p1693
aVtc_236_091_service_request_si_iu_release_at_sgw_flow_si_cancel_location.W14b
p1694
aVtc_241_460_israu_new_with_dedicated_bearer_sgw_not_change_non_gbr_bearer_inactive.W14b
p1695
aVtc_39_433_mas_one_pdp_downlink_data_3gdt_upd_loc_ack_b4_upd_pdp_ctx_resp_target.W14b
p1696
aVtc_245_342_israu_new_l_to_w_sgw_not_change_non_gbr_bearer_inactive.W14b
p1697
aVtc_245_301_inter_rau_insert_entry_into_interface_cache.W14b
p1698
aVtc_11_335_apnresolving_cc27_check_session_log.W14b
p1699
aVtc_26_200_GGSN_init_PDP_modify_ARP_when_iu_released.W14b
p1700
aVtc_244_535_SLg_Location_Request__Downlink_A21_AIS_wwf_Location_Response_from_ESMLC.LW
p1701
aVtc_342_140_update_one_of_two_targets_x2_address.LW
p1702
aVtc_275_057_tau_inter_new_active_flag_get_new_sgw_two_pdn_connections_service_not_supported_at_modify.LW
p1703
aVtc_217_008_rau_to_sgsn_no_delete_session_response.LW
p1704
aVtc_346_160_Location_Based_Policies__User_Location_Change_Event_Trigger_only_in_2nd_PDN_Intra_TAU_ActiveFlag.LW
p1705
aVtc_346_383_handover_inter_target_from_gn_establish_sx_session_with_bearer_control_mode_sx_only.LW
p1706
aVtc_195_553_mme_logging_inter_rau_source_over_gn.LW
p1707
aVtc_293_040_X2_Based_HO__Downlink_A21_AIS_while_wf_Modify_Bearer_Response.LW
p1708
aVtc_39_601_mas_unsucc_fwd_reloc_resp_mandatory_ie_missing_stop_source.LW
p1709
aVtc_274_380_Intra_and_pTAU__Downlink_A21_AIS_while_waiting_for_Create_Session_Response.LW
p1710
aVtc_236_286_3gdt_swichback_delete_bearer_request_received_wf_modify_bearer_response.LW
p1711
aVtc_243_200_tau_from_sgsn_s3_get_new_sgw_two_pdn_connections_all_ok.LW
p1712
aVtc_243_206_tau_from_sgsn_s3_keep_old_sgw_two_pdn_connections_first_ok_second_failed.LW
p1713
aVtc_304_266_tau_from_gnsgsn_2g_control_mode_wf_delete_all_bearers_response_exception_case_reject_congestion_subscriber_cancelled.LW
p1714
aVtc_304_400_Service_Request_UE_Initiated__control_mode_threshold_exceeded.LW
p1715
aVtc_326_406_Inter_TAU_Recovery_Unkonwn_GUTI__1xrtt_CS_Registration_Then_CSFB_To_1xRTT.LW
p1716
aVtc_194_063_hss_reset.LW
p1717
aVtc_209_21_attach_detach_imsi.LW
p1718
aVtc_218_311_tau_from_sgsn_preserved_gbr_bearer_buffer_1_ubr_1_cbr.LW
p1719
aVtc_241_445_israu_new_with_dedicated_bearer_create_session_response_all_bearers_failed.LW
p1720
aVtc_241_801_israu_interfering_context_request_no_cancel_location_s4.LW
p1721
aVtc_289_063_Modify_bearer__UE_context_modification_request_meanwhile_path_switch_request_SGW_change_new_SGW_resends_UBR.LW
p1722
aVtc_28_016_mt_sms_paging_request_no_response_mo_sms_inform_hlr.LW
p1723
aVtc_306_1130_ef_seamless_move_target_receive_detach_request_with_switchoff_wf_service_request.LW
p1724
aVtc_306_1040_ef_seamless_move_target_receive_cancel_location_withdraw_wf_ulr_with_emergency_pdn.LW
p1725
aVtc_103_603_georedundant_modify_diameter_peer.LW
p1726
aVtc_578_32_check_ebm_para_statistics_ue_return_duration.LW
p1727
aVtc_295_124_tau_after_ho_tz_change_emm_information_meanwhile_handover_required_HO_success.LW
p1728
aVtc_298_438_ms_init_deact_ef_delicated_bearer_deact_interfered_by_deactivate_pdp_request_pdn_level.LW
p1729
aVtc_59_9_mtmsi_restart_counter.LWG
p1730
aVtc_178_970_m3_ietf_set_prim_ip_path.LWG
p1731
aVtc_225_108_mo_call_emergency_active_mode.LWG
p1732
aVtc_157_5_snmp_ipv6_consistent.LWG
p1733
aVtc_241_801_israu_interfering_context_request_no_cancel_location_s4.LWG
p1734
aVtc_39_440_mas_one_pdp_srv_req_3gdt_target_switchback_dtselmode_5.LWG
p1735
aVtc_39_780_smooth_move_service_request_wf_move_ms_finished.LWG
p1736
aVtc_257_12_pws_etws_write_replace_warning_request_enb_failure.LWG
p1737
aVtc_250_67_s6d_activation_with_EPS_data_s4_license_off.LWG
p1738
aVtc_293_041_X2_Based_HO__Sgw_reloc__Downlink_A21_AIS_while_wf_Delete_Session_Response.LWG
p1739
aVtc_12_512_pmm_undefined_attach_when_updating_location_interfered_by_rnc_reset.LWG
p1740
aVtc_73_21_itc_gtpu_s4_sgsn_send_echo_request_w.LWG
p1741
aVtc_268_050_Timer_Based_GBR_Deact__Service_Request_Before_timer_expires_Multiple_PDNs.LWG
p1742
aVtc_346_710_handover_inter_target_establish_sx_session_rfsp_in_tau_accept.LWG
p1743
aVtc_107_101_eth_vlan_cli.LWG
p1744
aVtc_262_084_emergency_imsi_attach_unauthentication_fails_in_hss.LWG
p1745
aVtc_110_003_inbound_outbound_pf_rule_cli_icmp.LWG
p1746
aVtc_110_005_inbound_outbound_pf_rule_cli_ip.LWG
p1747
aVtc_132_002_create_ip_interface_eth.LWG
p1748
aVtc_214_312_combined_tau_intra_la_change_new_msc_while_wf_tau_complete.LWG
p1749
aVtc_306_1063_ef_seamless_move_target_handle_second_service_request_wf_icsr_no_ddn.LWG
p1750
aVtc_306_1200_ef_seamless_move_target_receive_hss_reset.LWG
p1751
aVtc_04_03_normal_gprs_imsi_attach_detach_ptmsi_attach_detach.LWG
p1752
aVtc_209_44_sgsn_init_pdp_modification.LWG
p1753
aVtc_210_052_tau_inter_old.LWG
p1754
aVtc_11_139_rnc_reset_context_active_mf_mtz.LWG
p1755
aVtc_19_26_moving_2_mss_to_different_targets.LWG
p1756
aVtc_264_080_MME_Initiated_Detach__UE_ECM_Idle__Paging_Failed_due_to_OLP.LWG
p1757
aVtc_208_31_sms_mo.LWG
p1758
aVtc_179_321_Ccheck_ipsec_sa.LWG
p1759
aVtc_666_06_block_rt_board.LWG
p1760
aVtc_666_02_reboot_ss7_board.LWG
p1761
aVtc_30_112_payload_ul_fails_access_restricted_diff_plmn.LWG
p1762
aVtc_103_208_hostname_in_conf_unavail.LWG
p1763
aVtc_103_702_CEA_timeout.LWG
p1764
aVtc_231_113_rnc_reset_during_ms_act_si_ms_deact_rnc_contact.LWG
p1765
aVtc_43_101__removal_of_disconnected_eNodeBs__CLI_removal.LWG
p1766
aVtc_327_604_Inter_TAU_Recovery__TAU_Request_while_waiting_for_Ue_Backup_Retrieval_Response.LWG
p1767
aVtc_306_1130_ef_seamless_move_target_receive_detach_request_with_switchoff_wf_service_request.LWG
p1768
aVtc_306_1335_ef_seamless_move_target_receive_cli_delete_subscriber_wf_service_request.LWG
p1769
aVtc_666_06_block_rt_board.LWG
p1770
aVtc_666_02_reboot_ss7_board.LWG
p1771
aVtc_204_500_mme_eps_ho_target_emergency_type_a_imei_check_answer_blacklisted_before_tau_accept_ire_false.LWG
p1772
aVtc_157_5_snmp_ipv6_consistent.LWG
p1773
aVtc_44_004_small_restart__sctp_fe_restart.LWG
p1774
aVtc_202_10_downlink_data_during_paging.LWG
p1775
aVtc_346_500_AF__TAU_Inter_New__CCR_Initial__no_CCA_received.LWG
p1776
aVtc_210_052_tau_inter_old.LWG
p1777
aVtc_52_12_inter_old_relocation_cancel_no_response.LWG
p1778
aVtc_78_249_mocn_off_own_ra_nri_equal_ptmsi_unknown_new_sgsn_have_no_mm_context_reject_with_cause_code_10.LWG
p1779
aVtc_289_070_GW_Init_Bearer_Modification_Flow_two_CBR_one_UBR_while_wf_modify_eps_bearer_context_accept.LWG
p1780
aVtc_225_400_mt_call_idle_mode.LWG
p1781
aVtc_100_21_inter_w_to_g_old_mf_with_lawful_intercept.LWG
p1782
aVtc_326_380_Service_Request_with_unknown_STMSI_multiple_retrieve_responses.LWG
p1783
aVtc_326_406_Inter_TAU_Recovery_Unkonwn_GUTI__1xrtt_CS_Registration_Then_CSFB_To_1xRTT.LWG
p1784
aVtc_208_22_attach_detach_imsi.LWG
p1785
aVtc_297_407_move_at_periodic_rau.LWG
p1786
aVtc_236_286_3gdt_swichback_delete_bearer_request_received_wf_modify_bearer_response.LWG
p1787
aVtc_178_938_sctp_setprofile.LWG
p1788
aVtc_178_970_m3_ietf_set_prim_ip_path.LWG
p1789
aVtc_232_205_bfd__udp_port_no_ipv6.LWG
p1790
aVtc_297_407_move_at_periodic_rau.G14b
p1791
aVtc_208_22_attach_detach_imsi.G14b
p1792
aVtc_208_31_sms_mo.G14b
p1793
aVtc_286_125_pdn_disconnect_erab_release_no_response_from_enodeb.L14b
p1794
aVtc_277_016_tau_inter_old_dedicated_bearer_unstable_no_cancel_location.L14b
p1795
aVtc_310_124_af__SGSN_accepted_only_a_subset_of_PDN_Connections_in_FRResponse_new_SGW.L14b
p1796
aVtc_310_110_af__timeout_on_PS_to_CS_Response_from_MSC.L14b
p1797
aVtc_266_020_DownlinkDataFailureInd_repeat_paging_timer_on.L14b
p1798
aVtc_289_065_Modify_bearer__UE_context_modification_failure_x2_ho_triggered_SGW_resend_UBR_before_ho_finish.L14b
p1799
aVtc_327_510_recovery_service_request__ue_context_release_request.L14b
p1800
aVtc_278_003_Inter_TAU_Old_MME__Same_Guti_Attach_From_Other_Ue_when_waiting_for_Timeout.L14b
p1801
aVtc_335_122_Intra_S1_HO_AF__GA_change.L14b
p1802
aVtc_44_071_attach_long_imsi.L14b
p1803
aVtc_306_312_ef_seamless_move_source_receive_connection_oriented_information_lppa_wf_source_guti_reallocation_complete.L14b
p1804
aVtc_306_093_ef_seamless_move_source_receive_context_request_wf_source_guti_reallocation_complete.L14b
p1805
aVtc_306_241_ef_seamless_move_source_receive_pdn_disconnect_request_wf_source_guti_reallocation_complete.L14b
p1806
aVtc_306_1333_ef_seamless_move_target_receive_cli_delete_subscriber_wf_ula.L14b
p1807
aVtc_256_372_srvcc_ho_source_cs_only_failed_sv_pool_on_only_one_sgs_msc_unavailable.L14b
p1808
aVtc_237_001_mme_eps_irat_ho_source__main_flow.L14b
p1809
aVtc_303_003_Intra_S1_HO__Downlink_A21_AIS_while_wf_Handover_Request_Ack__Reset_from_source_eNB_while_wf_Handover_Notify.L14b
p1810
aVtc_326_412_Combined_TAU_Recovery_Context_Respone_With_Cause_IMSI_Not_Known__Location_Update.L14b
p1811
aVtc_326_810_Service_Request_Recovery_Transfer_Modify_Bearer_fail.L14b
p1812
aVtc_263_022_Attach_Flow__Attach_Request_Different_IEs_IP_OK_while_waiting_for_Attach_Complete.L14b
p1813
aVtc_304_106_intra_tau_as_uplink_nas__control_mode_threshold_exceeded.L14b
p1814
aVtc_275_054_tau_inter_new_active_flag_get_new_sgw_two_pdn_connections_first_ok_second_failed.L14b
p1815
aVtc_275_032_tau_inter_new_integrity_alg_mismatch_no_security_mode_complete.L14b
p1816
aVtc_194_180_hss_reset_with_user_id_list_no_subscriber_impacted.L14b
p1817
aVtc_194_404_attach_ul_fails_roaming_not_allowed_remap_on_without_err_diag.L14b
p1818
aVtc_214_312_combined_tau_intra_la_change_new_msc_while_wf_tau_complete.L14b
p1819
aVtc_214_1092_la_selection_mf_oldmscpreferred_combined_intra_tau_with_imsi_attach_after_ue_initiated_imsi_detach.L14b
p1820
aVtc_262_102_emergency_imsi_attach_imsi_undefined_in_mme.L14b
p1821
aVtc_103_410_diameterConnectionDown_alarm_cleared_and_raised_if_pn_changed.L14b
p1822
aVtc_103_1101_resending_AIR_interfering_CLR.L14b
p1823
aVtc_261_04_inter_tau_isd_voip_restricted_ga_cc91.L14b
p1824
aVtc_346_204_RFSP__CCA_Initial_with_RFSP__RAR_in_ECM_Idle__Intra_TAU_CCA_Update_with_new_RFSP.L14b
p1825
aVtc_346_800_outbound_olp_sx_reject_by_rate.L14b
p1826
aVtc_302_100_mme_relocation_seamless_move_source_connected.L14b
p1827
aVtc_279_018_tai_list_attach_3_intra_tau_diff_epl.L14b
p1828
aVtc_44_071_attach_long_imsi.LW
p1829
aVtc_244_535_SLg_Location_Request__Downlink_A21_AIS_wwf_Location_Response_from_ESMLC.LW
p1830
aVtc_275_065_tau_inter_new_roaming_restricted_transfer_due_to_wrong_ap_index.LW
p1831
aVtc_346_600_Location_Based_Policies__User_Location_Changes_Sx_Only_2_CCR_for_same_PDN.LW
p1832
aVtc_241_619_intra_rau_with_dedicated_bearer_sgw_change_wait_security_mode_complete_handle_dbr.LW
p1833
aVtc_209_31_sms_mo.LW
p1834
aVtc_326_267_Intra_TAU_with_unknown_GUTI_Restriction_2_pdn_SAU_license_limit_reached.LW
p1835
aVtc_194_081_cl_subscription_withdrawn_during_auth.LW
p1836
aVtc_194_080_cl_update_procedure_during_auth.LW
p1837
aVtc_306_1130_ef_seamless_move_target_receive_detach_request_with_switchoff_wf_service_request.LW
p1838
aVtc_306_133_ef_seamless_move_source_receive_s1_setup_wf_source_guti_reallocation_complete.LW
p1839
aVtc_293_041_X2_Based_HO__Sgw_reloc__Downlink_A21_AIS_while_wf_Delete_Session_Response.LW
p1840
aVtc_304_411_Service_Request_UE_Initiated__control_mode_threshold_exceeded_request_reject_connected_mode.LW
p1841
aVtc_243_206_tau_from_sgsn_s3_keep_old_sgw_two_pdn_connections_first_ok_second_failed.LW
p1842
aVtc_262_064_attach_when_attached.LW
p1843
aVtc_324_006_mf_ser_req_signaling_after_ack_3gdt.LW
p1844
aVtc_217_701_rau_to_sgsn_type_c_emergency_allowed.LW
p1845
aVtc_324_371_ef_cancel_location_intialAttach_wf_modify_bearer_response_service_req_data.WG14a
p1846
aVtc_241_045_intra_with_multi_bearer_sgw_change_try_next.W14b
p1847
aVtc_52_59_inter_old_relocation_cancel_radio_connection_lost.W14b
p1848
aVtc_11_235_ser_req_interfer_deactivation.W14b
p1849
aVtc_22_009_wcdma_disconnect_during_activation_ggsn_reject.W14b
p1850
a.