(lp0
Vtc_297_407_move_at_periodic_rau.G14b
p1
aVtc_30_139_hlr_reset_dp_unavailable.G14b
p2
aVtc_239_620_inter_rau_new_with_bearer_sgw_not_change_isd_odb_bit0_wf_rau_compl_deactivation.G14b
p3
aVtc_322_023_smooth_move_af_frr_with_request_rejected.WG14a
p4
aVtc_103_201_realm_routing_s6a_only.L14b
p5
aVtc_103_1002_no_loadsharing_different_prio.L14b
p6
aVtc_225_103_csfb_stand_alone_ue_context_release_active_mode.L14b
p7
aVtc_341_682_x2_activity_event_handover_inter_s1_new.L14b
p8
aVtc_284_351_pdn_connectivity_pb_activate_1_dedicated_bearer_interrupted_by_path_switch_request.L14b
p9
aVtc_284_350_pdn_connectivity_interrupted_by_path_switch_request.L14b
p10
aVtc_286_118_pdn_disconnect_finished_pdn_connectivity_with_same_pti.L14b
p11
aVtc_288_365_pgw_init_bearer_mod_qci_counters__qci4_8_128_129_254_255.L14b
p12
aVtc_220_587_csfb_to_1xrtt_in_extended_service_request_during_attach_waiting_for_modify_bearer_response.L14b
p13
aVtc_101_015_single_mbms_session_large_restart.W14b
p14
aVtc_241_318_israu_new_gn_to_s4_two_pdp_to_bearer_3gdt_off_to_on.W14b
p15
aVtc_59_9_mtmsi_restart_counter.LWG
p16
aVtc_251_62_l_to_w_to_l_with_cl_type_updateProcedure.LWG
p17
aVtc_262_192_new_mme_identification_procedure_gn.LWG
p18
aVtc_219_131_s3_handover_w_to_l_with_cl_two_pdns_one_failed_sgw_relocation.LWG
p19
aVtc_183_005_itc_folder_file_names.LWG
p20
aVtc_183_008_itc_sctp_encrypted.LWG
p21
aVtc_225_103_csfb_stand_alone_ue_context_release_active_mode.LWG
p22
aVtc_208_43_interception_after_small_restart.LWG
p23
aVtc_236_307_Activation_DtSelMode_5_APN_requested_wrong_SGSN_default_APN_in_APN_list_TAC_in_TAC_list.LWG
p24
aVtc_244_049_mt_lr_cancel_location_with_subscription_withdraw_received_wf_location_report.LWG
p25
aVtc_103_1004_secondary_dpl_used_when_all_peers_in_dpl_unavailable_no_sls.LWG
p26
aVtc_103_708_modify_peer_send_DPR.LWG
p27
aVtc_103_704_delete_peer_send_DPR.LWG
p28
aVtc_103_706_delete_peer_send_DPR_error_result_code_in_DPA.LWG
p29
aVtc_103_1155_sx_retransmit__Small_restart_terminate_request.LWG
p30
aVtc_341_682_x2_activity_event_handover_inter_s1_new.LWG
p31
aVtc_195_208_mme_logging_maximum_modify_eps_bearer_context.LWG
p32
aVtc_288_365_pgw_init_bearer_mod_qci_counters__qci4_8_128_129_254_255.LWG
p33
aVtc_286_118_pdn_disconnect_finished_pdn_connectivity_with_same_pti.LWG
p34
aVtc_197_449_pdn_connectivity_legacy_static_gw_selection_flag_off.LW
p35
aVtc_286_118_pdn_disconnect_finished_pdn_connectivity_with_same_pti.LW
p36
aVtc_32_51_israu_new_updating_location_interrupted_by_subscription_withdrawn.LW
p37
aVtc_23_09_transfer_to_primary_and_change_vip_addr.LW
p38
aVtc_316_242_MME_Pool_Seamless_Move_No_Forward_Relocation_Complete_Notification_GUTI_Reallocation__No_UE_Backup.LW
p39
aVtc_288_365_pgw_init_bearer_mod_qci_counters__qci4_8_128_129_254_255.LW
p40
aVtc_284_351_pdn_connectivity_pb_activate_1_dedicated_bearer_interrupted_by_path_switch_request.LW
p41
aVtc_103_704_delete_peer_send_DPR.LW
p42
aVtc_103_708_modify_peer_send_DPR.LW
p43
aVtc_103_703_duplicate_peer_ips.LW
p44
aVtc_341_682_x2_activity_event_handover_inter_s1_new.LW
p45
aVtc_298_424_ms_init_deact_ef_delicated_non_gbr_bearer_deact_interfered_by_rab_release_request.LW
p46
aVtc_225_103_csfb_stand_alone_ue_context_release_active_mode.LW
p47
aVtc_322_161_smooth_move_ef_nas_after_paging_response_ignore.W14b
p48
aVtc_12_512_pmm_undefined_attach_when_updating_location_interfered_by_rnc_reset.W14b
p49
aVtc_208_43_interception_after_small_restart.LWG
p50
aVtc_578_02_check_parse_ebm_and_ci_eci_l.LWG
p51
aVtc_34_76_pool_move_by_ues_2w3g_2gSGSN_2wSGSN.LWG
p52
aVtc_211_015_streamed_cell_trace_mapping_alarm_cease.LWG
p53
aVtc_44_004_small_restart__sctp_fe_restart.LWG
p54
aVtc_231_281_activate_pdp_request_ignore_during_s4_pdp_deactivating.LWG
p55
aVtc_310_400_srvcc_ps_cs_mt_csfb_wf_forward_relocation_response_esr_send_before_fr_response.LWG
p56
aVtc_286_118_pdn_disconnect_finished_pdn_connectivity_with_same_pti.LWG
p57
aVtc_08_021_fragment_gn_gb_packet.LWG
p58
aVtc_23_09_transfer_to_primary_and_change_vip_addr.LWG
p59
aVtc_243_753_tau_from_sgsn_s3_change_sgw_emergency_type_a_not_allowed_in_csg.LWG
p60
aVtc_103_708_modify_peer_send_DPR.LWG
p61
aVtc_103_903_primary_or_secondary_realm_routing_own_realm.LWG
p62
aVtc_103_704_delete_peer_send_DPR.LWG
p63
aVtc_103_1155_sx_retransmit__Small_restart_terminate_request.LWG
p64
aVtc_288_365_pgw_init_bearer_mod_qci_counters__qci4_8_128_129_254_255.LWG
p65
aVtc_341_682_x2_activity_event_handover_inter_s1_new.LWG
p66
aVtc_73_21_itc_gtpu_s4_sgsn_send_echo_request_w.LWG
p67
aVtc_73_41_gtpu_sgsn_dont_send_gpu_echo_request_w.LWG
p68
aVtc_318_261_sgw_restart_af_relocation_triggered_by_DDN_create_session_request_timeout.LWG
p69
aVtc_59_12_sequence_on_demand_indexbased_replica_values_during_takeover.LWG
p70
aVtc_59_9_mtmsi_restart_counter.LWG
p71
aVtc_79_048_subscriber_data_downgrade_streaming_to_interactive.LWG
p72
aVtc_183_008_itc_sctp_encrypted.LWG
p73
aVtc_225_103_csfb_stand_alone_ue_context_release_active_mode.LWG
p74
aVtc_251_62_l_to_w_to_l_with_cl_type_updateProcedure.LWG
p75
aVtc_208_43_interception_after_small_restart.G14b
p76
aVtc_268_031_Timer_Based_GBR_Deact__Receive_DDN_Only_GBR_in_EBI_before_UE_Context_Release_Complete.LW
p77
aVtc_286_118_pdn_disconnect_finished_pdn_connectivity_with_same_pti.LW
p78
aVtc_26_011_activate_primary_requested_qos_zero_subscribed_background.LW
p79
aVtc_322_029_smooth_move_af_security_mode_reject.LW
p80
aVtc_225_103_csfb_stand_alone_ue_context_release_active_mode.LW
p81
aVtc_288_365_pgw_init_bearer_mod_qci_counters__qci4_8_128_129_254_255.LW
p82
aVtc_103_708_modify_peer_send_DPR.LW
p83
aVtc_103_704_delete_peer_send_DPR.LW
p84
aVtc_250_105_ignore_IDR_when_EPS_sub_downgrade_GPRS_sub.LW
p85
aVtc_341_682_x2_activity_event_handover_inter_s1_new.LW
p86
aVtc_220_618_Extended_Service_Request__Attach_Request_while_waiting_for_Initial_Context_Setup_Response.L14b
p87
aVtc_103_024_modify_diameter_peer_switch_peer_numbers.L14b
p88
aVtc_103_704_delete_peer_send_DPR.L14b
p89
aVtc_103_708_modify_peer_send_DPR.L14b
p90
aVtc_286_118_pdn_disconnect_finished_pdn_connectivity_with_same_pti.L14b
p91
aVtc_263_003_Attach_Flow__Attach_Request_Same_IEs_IP_NOK_while_waiting_for_Delete_Session_Response.L14b
p92
aVtc_225_103_csfb_stand_alone_ue_context_release_active_mode.L14b
p93
aVtc_288_365_pgw_init_bearer_mod_qci_counters__qci4_8_128_129_254_255.L14b
p94
aVtc_346_494_Small_Local_Restart__Terminate_when_UE1_PDN_Connectivity_waiting_for_CCAI_UE2_Location_Report_waiting_for_CCAU.L14b
p95
aVtc_341_682_x2_activity_event_handover_inter_s1_new.L14b
p96
aVtc_316_242_MME_Pool_Seamless_Move_No_Forward_Relocation_Complete_Notification_GUTI_Reallocation__No_UE_Backup.L14b
p97
aVtc_282_020_delete_bearer_request_handover_to_non_3GPP_ecm_connected_multi_pdn.L14b
p98
aVtc_208_43_interception_after_small_restart.G14b
p99
aVtc_297_407_move_at_periodic_rau.G14b
p100
aVtc_324_239_ef_nas_ignore_update_loc_received_wf_modify_bearer_response.LW
p101
aVtc_225_103_csfb_stand_alone_ue_context_release_active_mode.LW
p102
aVtc_310_116_1_af__HO_Cancel_before_Response_from_MSC_after_error_Response_from_SGSN.LW
p103
aVtc_47_001_imsi_attach_ap_loss.LW
p104
aVtc_286_118_pdn_disconnect_finished_pdn_connectivity_with_same_pti.LW
p105
aVtc_341_682_x2_activity_event_handover_inter_s1_new.LW
p106
aVtc_358_016_lte_remove_ra_from_ip_area_with_ipAddressReset_irrEnabled_nrrEnabled_false_while_one_pdn_in_unrestricted_ip_area.LW
p107
aVtc_316_242_MME_Pool_Seamless_Move_No_Forward_Relocation_Complete_Notification_GUTI_Reallocation__No_UE_Backup.LW
p108
aVtc_288_365_pgw_init_bearer_mod_qci_counters__qci4_8_128_129_254_255.LW
p109
aVtc_103_704_delete_peer_send_DPR.LW
p110
aVtc_103_708_modify_peer_send_DPR.LW
p111
aVtc_103_902_load_sharing_realm_routing_own_realm.LW
p112
aVtc_298_319_EF_SIBD_S4_RAB_Release.LW
p113
aVtc_327_269_recovery_service_request_MBR_timeout__FRR_wf_Guti_Reallocation_Complete.LW
p114
aVtc_306_1305_ef_seamless_move_target_buffer_create_bearer_request.LW
p115
aVtc_23_13_israu_out.LW
p116
aVtc_23_09_transfer_to_primary_and_change_vip_addr.LW
p117
aVtc_304_266_tau_from_gnsgsn_2g_control_mode_wf_delete_all_bearers_response_exception_case_reject_congestion_subscriber_cancelled.L14b
p118
aVtc_288_365_pgw_init_bearer_mod_qci_counters__qci4_8_128_129_254_255.L14b
p119
aVtc_225_103_csfb_stand_alone_ue_context_release_active_mode.L14b
p120
aVtc_341_682_x2_activity_event_handover_inter_s1_new.L14b
p121
aVtc_103_704_delete_peer_send_DPR.L14b
p122
aVtc_103_708_modify_peer_send_DPR.L14b
p123
aVtc_273_311_tau_periodic_emergency_mobile_reachable_expired.L14b
p124
aVtc_286_118_pdn_disconnect_finished_pdn_connectivity_with_same_pti.L14b
p125
aVtc_220_587_csfb_to_1xrtt_in_extended_service_request_during_attach_waiting_for_modify_bearer_response.L14b
p126
aVtc_11_109_activate_interrupted_by_detach.W14b
p127
aVtc_39_135_subscription_withdrawn_after_complete.W14b
p128
aVtc_294_350_intra_handover_with_sgw_relocation_2_pdns_one_fail.LWG
p129
aVtc_288_365_pgw_init_bearer_mod_qci_counters__qci4_8_128_129_254_255.LWG
p130
aVtc_202_431_mf_seamless_move_target_service_request_modifyBearerReq_onePdnMultiBearer_oneBearerFail.LWG
p131
aVtc_183_008_itc_sctp_encrypted.LWG
p132
aVtc_103_708_modify_peer_send_DPR.LWG
p133
aVtc_103_704_delete_peer_send_DPR.LWG
p134
aVtc_103_1155_sx_retransmit__Small_restart_terminate_request.LWG
p135
aVtc_251_62_l_to_w_to_l_with_cl_type_updateProcedure.LWG
p136
aVtc_210_062_tau_from_sgsn_no_pdp_context_from_old_sgsn.LWG
p137
aVtc_286_118_pdn_disconnect_finished_pdn_connectivity_with_same_pti.LWG
p138
aVtc_23_09_transfer_to_primary_and_change_vip_addr.LWG
p139
aVtc_250_105_ignore_IDR_when_EPS_sub_downgrade_GPRS_sub.LWG
p140
aVtc_79_035_israu_new_streaming_context_MBR_not_zero.LWG
p141
aVtc_39_601_mas_unsucc_fwd_reloc_resp_mandatory_ie_missing_stop_source.LWG
p142
aVtc_256_074_mme_eps_srvcc_ho_source_to_geran_cs_only_emergency_mf_without_DTM_unauthenticated_imsi_no_GBR_bearers.LWG
p143
aVtc_341_682_x2_activity_event_handover_inter_s1_new.LWG
p144
aVtc_327_510_recovery_service_request__ue_context_release_request.LWG
p145
aVtc_225_103_csfb_stand_alone_ue_context_release_active_mode.LWG
p146
aVtc_318_266_sgw_restart_af_relocation_triggered_by_DDN_modify_bearer_request_failure.LWG
p147
aVtc_56_21_sending_recognized_information_in_log.LWG
p148
aVgn_wcdma_payload_no_context_ensure_stored.LWG
p149
aVtc_274_044_Intra_and_pTAU__Intra_TAU_other_ta_while_waiting_for_TAU_Complete.LWG
p150
aVtc_24_110_msc_pool_off_comb_proc_on_create_new_msc_to_la_with_no_default_msc.LWG
p151
aVtc_73_21_itc_gtpu_s4_sgsn_send_echo_request_w.LWG
p152
aVtc_73_40_gtpu_sgsn_send_gpu_echo_request_w.LWG
p153
aVtc_73_07_itc_encrypted_gtpu_s4_payload_w.LWG
p154
aVtc_310_265__ef__Initial_UE_Service_Request_wf_PS_to_CS_Complete.LWG
p155
aVtc_326_664_tau_intra_periodic_SGW_unavailable_after_MME_large_restart__create_session_partition_fail.LWG
p156
aVtc_306_1351_ef_seamless_move_target_buffer_provide_location_request_wf_release_old_s1_mbr_with_lpp.LWG
p157
aVtc_219_131_s3_handover_w_to_l_with_cl_two_pdns_one_failed_sgw_relocation.LWG
p158
aVtc_219_233_TAU_Dual_Access_WtoL_without_SGW_Change_SGW_unavailable_no_other_SGW.LWG
p159
aVtc_251_62_l_to_w_to_l_with_cl_type_updateProcedure.LWG
p160
aVtc_273_607_tau_intra_periodic_SGW_unavailable__create_session_fail.LWG
p161
aVtc_273_360_tau_intra_normal_between_ipv4_and_ipv6.LWG
p162
aVtc_220_509_csfb_to_1xrtt_in_ecm_idle_extended_service_request_wf_initial_context_setup_response.LWG
p163
aVtc_241_1694_intra_rau_without_sgw_change_interferred_by_reset_resource_after_modify_bearer_request.LWG
p164
aVtc_326_274_Periodic_Intra_TAU_with_unknown_GUTI_old_SGW_unavailable.LWG
p165
aVtc_225_103_csfb_stand_alone_ue_context_release_active_mode.LWG
p166
aVtc_232_401_bfd__ipv4_alarm.LWG
p167
aVtc_24_122_msc_pool_associated_combined_attach_la_not_supported_select_msc_algorithm.LWG
p168
aVtc_275_073_tau_inter_new_no_update_location_response_sgsn00040258.LWG
p169
aVtc_275_001_tau_inter_new_keep_old_sgw.LWG
p170
aVtc_208_43_interception_after_small_restart.LWG
p171
aVtc_103_708_modify_peer_send_DPR.LWG
p172
aVtc_103_704_delete_peer_send_DPR.LWG
p173
aVtc_103_1155_sx_retransmit__Small_restart_terminate_request.LWG
p174
aVtc_92_06_20_pm_job_log_content.LWG
p175
aVtc_92_06_10_pm_job_log_content.LWG
p176
aVtc_44_070_sctp_large_message.LWG
p177
aVtc_179_318_Ccheck_TraceCollectionIpv6server.LWG
p178
aVtc_302_121_1xrtt_cs_registration_main_flow_imsi_min.LWG
p179
aVtc_316_242_MME_Pool_Seamless_Move_No_Forward_Relocation_Complete_Notification_GUTI_Reallocation__No_UE_Backup.LWG
p180
aVtc_59_9_mtmsi_restart_counter.LWG
p181
aVgn_wcdma_payload_no_context_ensure_stored.LWG
p182
aVtc_219_131_s3_handover_w_to_l_with_cl_two_pdns_one_failed_sgw_relocation.LWG
p183
aVtc_288_365_pgw_init_bearer_mod_qci_counters__qci4_8_128_129_254_255.LWG
p184
aVtc_298_059_S4_nrspca_s4_connected_TI_not_in_List_Reject_to_UE.LWG
p185
aVtc_183_005_itc_folder_file_names.LWG
p186
aVtc_183_008_itc_sctp_encrypted.LWG
p187
aVtc_286_118_pdn_disconnect_finished_pdn_connectivity_with_same_pti.LWG
p188
aVtc_310_335_ef_dbr_non_voice_bearer_wf_forward_relocation_complete_and_forward_relocation_complete_ack.LWG
p189
aVtc_341_682_x2_activity_event_handover_inter_s1_new.LWG
p190
aVtc_73_07_itc_encrypted_gtpu_s4_payload_w.WG14a
p191
aVtc_226_318_W__USC_Service_Request_ControlMode_On_Detach_Detach_Accept_comes_first.WG14a
p192
aVtc_12_512_pmm_undefined_attach_when_updating_location_interfered_by_rnc_reset.W14b
p193
aVtc_262_084_emergency_imsi_attach_unauthentication_fails_in_hss.LW
p194
aVtc_341_682_x2_activity_event_handover_inter_s1_new.LW
p195
aVtc_302_070_mt_sms_main_flow_connected.LW
p196
aVtc_194_506_Notification_during_Intra_MME_TAU_without_SGW_Relocation_Procedure.LW
p197
aVtc_194_505_Notification_during_Intra_TAU_without_SGW_Relocation_HSS_Reset_Before_TAU.LW
p198
aVtc_288_365_pgw_init_bearer_mod_qci_counters__qci4_8_128_129_254_255.LW
p199
aVtc_325_010_inter_old_srns_reloc_s4_to_gn_no_cancel_location_from_hss_purge_ue.LW
p200
aVtc_256_176_mme_eps_srvcc_ho_source_cs_only_ue_release_request_wf_srvcc_ps_to_cs_complete_notification.LW
p201
aVtc_310_310_S3_new_SGW_emergency_attach_sv_pool_on_msc_one_offloading_one_available.LW
p202
aVtc_26_132_actiavet_pri_visitor_allowed_ARP.LW
p203
aVtc_103_704_delete_peer_send_DPR.LW
p204
aVtc_103_708_modify_peer_send_DPR.LW
p205
aVtc_11_350_apn_redirect_to_SubscribedApn_ApnRedirectForMultipleApn_lowestpdpcontextid_S3.LW
p206
aVtc_11_357_sgsn_init_deactivation_ggsn_restarted_update_req.LW
p207
aVtc_23_09_transfer_to_primary_and_change_vip_addr.LW
p208
aVtc_225_103_csfb_stand_alone_ue_context_release_active_mode.LW
p209
aVtc_275_118_tau_inter_new_emergency_erroneous_ie_authenticated_no_imsi.LW
p210
aVtc_286_118_pdn_disconnect_finished_pdn_connectivity_with_same_pti.LW
p211
aVtc_286_118_pdn_disconnect_finished_pdn_connectivity_with_same_pti.L14b
p212
aVtc_288_365_pgw_init_bearer_mod_qci_counters__qci4_8_128_129_254_255.L14b
p213
aVtc_316_242_MME_Pool_Seamless_Move_No_Forward_Relocation_Complete_Notification_GUTI_Reallocation__No_UE_Backup.L14b
p214
aVtc_194_506_Notification_during_Intra_MME_TAU_without_SGW_Relocation_Procedure.L14b
p215
aVtc_260_272_receive_sm_stop_req_while_wf_setup_iteration.L14b
p216
aVtc_327_333_recovery_service_request__initial_Detach_Request_while_waiting_for_Sub_Procedure__Modify_Bearer_Response.L14b
p217
aVtc_327_330_recovery_service_request__uplink_Detach_Request_while_waiting_for_Location_Update_Response.L14b
p218
aVtc_341_682_x2_activity_event_handover_inter_s1_new.L14b
p219
aVtc_44_301_sctp_counter_MessageSent_Received.L14b
p220
aVtc_44_551_s1ap_reset_reset_resource__ue_id.L14b
p221
aVtc_204_427_mme_eps_ho_target_type_a_then_delete_dedicated_bearer_then_delete_pdn.L14b
p222
aVtc_301_006_activate_ipv6_homer_requested_ipv6_subscribed_ipv6_aifav_false_aifv_false.L14b
p223
aVtc_308_040_IRAT_TAU_HSS_Init_QoS_modification_path_switch_request_waiting_for_erab_modify_response.L14b
p224
aVtc_262_1055_imsi_attach_with_csg_id_is_rejected.L14b
p225
aVtc_263_204_Attach_Flow_Pb__Attach_Request_Same_IEs_while_waiting_for_Attach_Complete.L14b
p226
aVtc_225_103_csfb_stand_alone_ue_context_release_active_mode.L14b
p227
aVtc_103_024_modify_diameter_peer_switch_peer_numbers.L14b
p228
aVtc_103_701_MME_restarts.L14b
p229
aVtc_103_704_delete_peer_send_DPR.L14b
p230
aVtc_103_708_modify_peer_send_DPR.L14b
p231
aVtc_346_890_3gpp_move_source_ecm_connected_terminate_sx.L14b
p232
aVtc_341_682_x2_activity_event_handover_inter_s1_new.L14b
p233
aVtc_243_330_tau_from_sgsn_s3_emergency_type_a_no_restriction.L14b
p234
aVtc_43_101__removal_of_disconnected_eNodeBs__CLI_removal.L14b
p235
aVtc_286_118_pdn_disconnect_finished_pdn_connectivity_with_same_pti.L14b
p236
aVtc_206_021_ebm_server_crashes_and_recovers_while_attached.L14b
p237
aVtc_327_172_recovery_intra_TAU_SGSN_Context_Request_while_waiting_for_Location_Update_Response.L14b
p238
aVtc_263_001_Attach_Flow__Attach_Request_Same_IEs_IP_OK_new_KSI_while_waiting_for_Delete_Session_Response.L14b
p239
aVtc_288_365_pgw_init_bearer_mod_qci_counters__qci4_8_128_129_254_255.L14b
p240
aVtc_225_103_csfb_stand_alone_ue_context_release_active_mode.L14b
p241
aVtc_199_120_s11_path_management_small_restarted.L14b
p242
aVtc_103_708_modify_peer_send_DPR.LW
p243
aVtc_103_704_delete_peer_send_DPR.LW
p244
aVtc_225_103_csfb_stand_alone_ue_context_release_active_mode.LW
p245
aVtc_288_365_pgw_init_bearer_mod_qci_counters__qci4_8_128_129_254_255.LW
p246
aVtc_318_104_sgw_restart_mf_multi_pdns_clean_all_when_APNList_empty.LW
p247
aVtc_341_682_x2_activity_event_handover_inter_s1_new.LW
p248
aVtc_286_118_pdn_disconnect_finished_pdn_connectivity_with_same_pti.LW
p249
aVtc_23_09_transfer_to_primary_and_change_vip_addr.LW
p250
aVtc_44_004_small_restart__sctp_fe_restart.LW
p251
aVtc_39_601_mas_unsucc_fwd_reloc_resp_mandatory_ie_missing_stop_source.LW
p252
aVtc_236_026_s4_3gdt_rnc_reset.LW
p253
aVtc_578_52_check_uetracer_parser.LW
p254
aVtc_357_411_wcdma_national_roaming_user_reject_intra_rau_non_ip_area_to_nrr_ip_area.W14b
p255
aVtc_208_43_interception_after_small_restart.G14b
p256
aVtc_73_41_gtpu_sgsn_dont_send_gpu_echo_request_w.LWG
p257
aVtc_56_21_sending_recognized_information_in_log.LWG
p258
aVtc_183_005_itc_folder_file_names.LWG
p259
aVtc_183_008_itc_sctp_encrypted.LWG
p260
aVtc_103_708_modify_peer_send_DPR.LWG
p261
aVtc_103_704_delete_peer_send_DPR.LWG
p262
aVtc_103_1155_sx_retransmit__Small_restart_terminate_request.LWG
p263
aVtc_341_682_x2_activity_event_handover_inter_s1_new.LWG
p264
aVtc_23_13_israu_out.LWG
p265
aVtc_23_09_transfer_to_primary_and_change_vip_addr.LWG
p266
aVtc_209_34_start_of_interception_two_contexts.LWG
p267
aVtc_259_116_ef_s6d_tads_interfere_inter_rau_old_w.LWG
p268
aVtc_286_118_pdn_disconnect_finished_pdn_connectivity_with_same_pti.LWG
p269
aVtc_24_186_msc_pool_sgsn_pool_move_lu_reject_imsi_unknown_hlr.LWG
p270
aVtc_363_011_cli_get_ra.LWG
p271
aVtc_218_117_tau_from_sgsn_two_pdn_connections.LWG
p272
aVtc_218_542_rau_to_sgsn_and_tau_back_to_mme__cancel_location_while_waiting_for_authentication_information_answer.LWG
p273
aVtc_265_161_Detach_Flow_NW_init__Delete_default_bearer_while_imsi_detach.LWG
p274
aVtc_319_200_sgwTempUnavailableDuration_timeout_before_path_detection_interval.LWG
p275
aVtc_298_531_sgsn_init_pdn_deact_ef_deact_req_ti_dedicated_bearer_wf_delete_session_resp.LWG
p276
aVtc_316_242_MME_Pool_Seamless_Move_No_Forward_Relocation_Complete_Notification_GUTI_Reallocation__No_UE_Backup.LWG
p277
aVtc_236_307_Activation_DtSelMode_5_APN_requested_wrong_SGSN_default_APN_in_APN_list_TAC_in_TAC_list.LWG
p278
aVtc_225_103_csfb_stand_alone_ue_context_release_active_mode.LWG
p279
aVtc_251_62_l_to_w_to_l_with_cl_type_updateProcedure.LWG
p280
aVtc_346_576_AF__HO_X2_2PDN_CSR_failure_for_1PDN_terminate_sx.LWG
p281
aVtc_327_037_recovery_intra_TAU_active_off_sgw_unchanged__RAR_wf_CSR_due_to_S11_linkdown.LWG
p282
aVtc_214_330_mt_sms_idle_mode_ef_downlink_unitdata_wf_modify_bearer_response_in_service_request.LWG
p283
aVtc_288_365_pgw_init_bearer_mod_qci_counters__qci4_8_128_129_254_255.LWG
p284
aVtc_322_161_smooth_move_ef_nas_after_paging_response_ignore.WG14a
p285
aVtc_256_382_Sv_Path_Mgt__available_MSC_disable_Sv.LWG
p286
aVtc_251_62_l_to_w_to_l_with_cl_type_updateProcedure.LWG
p287
aVtc_43_101__removal_of_disconnected_eNodeBs__CLI_removal.LWG
p288
aVtc_327_022_recovery_intra_TAU__initial_Detach_Request_while_waiting_for_Ue_Backup_Response.LWG
p289
aVtc_341_682_x2_activity_event_handover_inter_s1_new.LWG
p290
aVtc_183_008_itc_sctp_encrypted.LWG
p291
aVtc_246_061_israu_new_l_to_g_sgw_change_one_pdn_ubr_before_rau_complete_interfered_by_inter_rau_request.LWG
p292
aVgn_wcdma_payload_no_context_ensure_stored.LWG
p293
aVtc_39_442_mas_one_pdp_hlr_no_response_then_service_req_with_update_pdp_fail_3gdt_target.LWG
p294
aVtc_310_335_ef_dbr_non_voice_bearer_wf_forward_relocation_complete_and_forward_relocation_complete_ack.LWG
p295
aVtc_225_103_csfb_stand_alone_ue_context_release_active_mode.LWG
p296
aVtc_275_073_tau_inter_new_no_update_location_response_sgsn00040258.LWG
p297
aVtc_275_626_tau_inter_new_sgw_unavailable_create_session_failure.LWG
p298
aVtc_23_09_transfer_to_primary_and_change_vip_addr.LWG
p299
aVtc_194_065_activate_loc_not_confirmed_ul_fails_other_failure.LWG
p300
aVtc_73_21_itc_gtpu_s4_sgsn_send_echo_request_w.LWG
p301
aVtc_220_618_Extended_Service_Request__Attach_Request_while_waiting_for_Initial_Context_Setup_Response.LWG
p302
aVtc_264_080_MME_Initiated_Detach__UE_ECM_Idle__Paging_Failed_due_to_OLP.LWG
p303
aVtc_202_431_mf_seamless_move_target_service_request_modifyBearerReq_onePdnMultiBearer_oneBearerFail.LWG
p304
aVtc_206_021_ebm_server_crashes_and_recovers_while_attached.LWG
p305
aVtc_103_708_modify_peer_send_DPR.LWG
p306
aVtc_103_704_delete_peer_send_DPR.LWG
p307
aVtc_288_365_pgw_init_bearer_mod_qci_counters__qci4_8_128_129_254_255.LWG
p308
aVtc_286_118_pdn_disconnect_finished_pdn_connectivity_with_same_pti.LWG
p309
aVtc_289_103_multi_pdns_pgw_init_bearer_mod_ecm_idle_interrupted_by_dbr_with_lbi.LWG
p310
aVtc_226_061_Intra_ISC_L2G_reject_measurement_only_exceed_threshold.LWG
p311
aVtc_44_004_small_restart__sctp_fe_restart.LWG
p312
aVtc_202_431_mf_seamless_move_target_service_request_modifyBearerReq_onePdnMultiBearer_oneBearerFail.LW
p313
aVtc_268_100_release_request_wf_response_interfer_by_s1_reset_and_service_request.LW
p314
aVtc_322_170_smooth_move_ef_gr_cli_delete_subscriber_data_wf_frr.LW
p315
aVtc_326_837_Intra_TAU_Recovery_after_Node_Restart_SGW_Change_active_flag_on_no_modify_bearer_response_two_pdn.LW
p316
aVtc_225_103_csfb_stand_alone_ue_context_release_active_mode.LW
p317
aVtc_256_371_srvcc_ho_source_cs_only_sv_pool_off_only_one_msc.LW
p318
aVtc_248_303_inter_l_to_w_new_ms_connected_handover_from_mme.LW
p319
aVtc_281_024_Activate_bearer__ERAB_setup_request_s1_intra_system_handover_triggered_multiple_bearer.LW
p320
aVtc_288_365_pgw_init_bearer_mod_qci_counters__qci4_8_128_129_254_255.LW
p321
aVtc_195_208_mme_logging_maximum_modify_eps_bearer_context.LW
p322
aVtc_26_133_actiavet_pri_visitor_not_allowed_ARP.LW
p323
aVtc_284_351_pdn_connectivity_pb_activate_1_dedicated_bearer_interrupted_by_path_switch_request.LW
p324
aVtc_346_493_Small_Local_Restart__Terminate_when_UE_S1_release.LW
p325
aVtc_275_073_tau_inter_new_no_update_location_response_sgsn00040258.LW
p326
aVtc_318_130_sgw_restart_mf_relocation_triggered_by_service_request.LW
p327
aVtc_341_682_x2_activity_event_handover_inter_s1_new.LW
p328
aVtc_267_730_Service_Request__CS_paging_while_waiting_for_Modify_Bearer_Response.LW
p329
aVtc_103_708_modify_peer_send_DPR.LW
p330
aVtc_103_704_delete_peer_send_DPR.LW
p331
aVtc_103_603_georedundant_modify_diameter_peer.LW
p332
aVtc_286_118_pdn_disconnect_finished_pdn_connectivity_with_same_pti.LW
p333
aVtc_322_126_smooth_move_ef_cancel_location_initialAttach_wf_cancel_location.W14b
p334
aVtc_79_036_israu_new_streaming_context_MBR_not_zero_service_request.W14b
p335
aVtc_341_682_x2_activity_event_handover_inter_s1_new.L14b
p336
aVtc_44_850_mme_assoc_reestablish__board_restart_s1_mme.L14b
p337
aVtc_335_82_From_Wifi_ECM_Connected_AF__All_Cells_from_WIC_can_not_recognize_by_MME.L14b
p338
aVtc_214_503_mt_sms_while_wf_lu_accept.L14b
p339
aVtc_288_365_pgw_init_bearer_mod_qci_counters__qci4_8_128_129_254_255.L14b
p340
aVtc_275_073_tau_inter_new_no_update_location_response_sgsn00040258.L14b
p341
aVtc_220_587_csfb_to_1xrtt_in_extended_service_request_during_attach_waiting_for_modify_bearer_response.L14b
p342
aVtc_286_118_pdn_disconnect_finished_pdn_connectivity_with_same_pti.L14b
p343
aVtc_103_708_modify_peer_send_DPR.L14b
p344
aVtc_194_505_Notification_during_Intra_TAU_without_SGW_Relocation_HSS_Reset_Before_TAU.L14b
p345
aVtc_237_354_mme_eps_irat_ho_source__context_request_after_s1rh_timeout.L14b
p346
aVtc_225_103_csfb_stand_alone_ue_context_release_active_mode.L14b
p347
aVtc_199_82_tau_from_sgsn_s3_get_new_sgw_echo.L14b
p348
aVtc_39_433_mas_one_pdp_downlink_data_3gdt_upd_loc_ack_b4_upd_pdp_ctx_resp_target.W14b
p349
aVtc_298_826_NRSPCA_S4_nsapi_collision_receiving_detach_request_while_waiting_for_delete_bearer_request.W14b
p350
aVtc_316_242_MME_Pool_Seamless_Move_No_Forward_Relocation_Complete_Notification_GUTI_Reallocation__No_UE_Backup.LWG
p351
aVtc_297_407_move_at_periodic_rau.LWG
p352
aVtc_225_103_csfb_stand_alone_ue_context_release_active_mode.LWG
p353
aVtc_73_21_itc_gtpu_s4_sgsn_send_echo_request_w.LWG
p354
aVtc_73_41_gtpu_sgsn_dont_send_gpu_echo_request_w.LWG
p355
aVtc_23_09_transfer_to_primary_and_change_vip_addr.LWG
p356
aVtc_44_004_small_restart__sctp_fe_restart.LWG
p357
aVtc_39_111_attach_move_interfering_imsi_attach_after_complete.LWG
p358
aVtc_141_032_eth_v4_v6_traffic_vlan.LWG
p359
aVtc_341_682_x2_activity_event_handover_inter_s1_new.LWG
p360
aVtc_251_62_l_to_w_to_l_with_cl_type_updateProcedure.LWG
p361
aVtc_101_001_single_mbms_session.LWG
p362
aVtc_59_11_sequence_check_replica_values.LWG
p363
aVtc_241_431_intra_rau_with_bearer_sgw_unchange_2_pdns_with_one_modify_no_response.LWG
p364
aVtc_166_293_intra_rau_new_rnc_qos_upgrade_teid_change.LWG
p365
aVtc_286_118_pdn_disconnect_finished_pdn_connectivity_with_same_pti.LWG
p366
aVtc_288_365_pgw_init_bearer_mod_qci_counters__qci4_8_128_129_254_255.LWG
p367
aVtc_194_505_Notification_during_Intra_TAU_without_SGW_Relocation_HSS_Reset_Before_TAU.LWG
p368
aVtc_183_005_itc_folder_file_names.LWG
p369
aVtc_183_008_itc_sctp_encrypted.LWG
p370
aVtc_103_708_modify_peer_send_DPR.LWG
p371
aVtc_103_704_delete_peer_send_DPR.LWG
p372
aVtc_103_1155_sx_retransmit__Small_restart_terminate_request.LWG
p373
aVtc_202_431_mf_seamless_move_target_service_request_modifyBearerReq_onePdnMultiBearer_oneBearerFail.LWG
p374
aVtc_166_233_error_indication_from_ggsn_for_primary_context.WG14a
p375
aVtc_325_229_inter_old_srns_reloc_s4_to_gn_wf_fwd_reloc_resp_interrupted_by_rnc_reset.WG14a
p376
aVtc_288_365_pgw_init_bearer_mod_qci_counters__qci4_8_128_129_254_255.LW
p377
aVtc_195_208_mme_logging_maximum_modify_eps_bearer_context.LW
p378
aVtc_103_708_modify_peer_send_DPR.LW
p379
aVtc_103_704_delete_peer_send_DPR.LW
p380
aVtc_310_123_af__SGSN_accepted_only_a_subset_of_PDN_Connections_in_FRResponse_same_SGW.LW
p381
aVtc_225_103_csfb_stand_alone_ue_context_release_active_mode.LW
p382
aVtc_346_465_AF__Service_Request_CCA_Update_with_Result_Code_5012_5030.LW
p383
aVtc_286_118_pdn_disconnect_finished_pdn_connectivity_with_same_pti.LW
p384
aVtc_214_042_combined_attach_combined_attach.LW
p385
aVtc_326_263_Intra_TAU_with_unknown_GUTI_Restriction_2_pdn_roaming_restriction_emergency_pdn_recovered.LW
p386
aVtc_275_073_tau_inter_new_no_update_location_response_sgsn00040258.LW
p387
aVtc_341_682_x2_activity_event_handover_inter_s1_new.LW
p388
aVtc_52_52_reloc_wf_forw_rel_resp_interrupted_by_rnc_reset.LW
p389
aVtc_288_365_pgw_init_bearer_mod_qci_counters__qci4_8_128_129_254_255.L14b
p390
aVtc_286_118_pdn_disconnect_finished_pdn_connectivity_with_same_pti.L14b
p391
aVtc_341_682_x2_activity_event_handover_inter_s1_new.L14b
p392
aVtc_243_092_tau_from_sgsn_s3_with_dedicated_bearers_mbr_0.L14b
p393
aVtc_243_712_tau_from_sgsn_s3_ue_already_registered_in_mme.L14b
p394
aVtc_304_121_initial_ue_intra_tau_control_mode_threshold_exceeded_usc_detach_wf_release_request_response.L14b
p395
aVtc_225_103_csfb_stand_alone_ue_context_release_active_mode.L14b
p396
aVtc_306_032_ef_seamless_move_source_receive_tau_request_wf_guti_reallocation_complete.L14b
p397
aVtc_44_004_small_restart__sctp_fe_restart.L14b
p398
aVtc_44_301_sctp_counter_MessageSent_Received.L14b
p399
aVtc_44_501_s1ap_id_checks__path_sw_request_reuse_enb_id.L14b
p400
aVtc_103_704_delete_peer_send_DPR.L14b
p401
aVtc_103_708_modify_peer_send_DPR.L14b
p402
aVtc_256_175_mme_eps_srvcc_ho_source_cs_only_ue_release_request_wf_srvcc_ps_to_cs_response.LW
p403
aVtc_288_365_pgw_init_bearer_mod_qci_counters__qci4_8_128_129_254_255.LW
p404
aVtc_267_730_Service_Request__CS_paging_while_waiting_for_Modify_Bearer_Response.LW
p405
aVtc_193_401_auth_vectors_mf_6_vectors.LW
p406
aVtc_341_682_x2_activity_event_handover_inter_s1_new.LW
p407
aVtc_286_118_pdn_disconnect_finished_pdn_connectivity_with_same_pti.LW
p408
aVtc_103_708_modify_peer_send_DPR.LW
p409
aVtc_103_704_delete_peer_send_DPR.LW
p410
aVtc_225_103_csfb_stand_alone_ue_context_release_active_mode.LW
p411
aVtc_322_107_smooth_move_ef_reset_resource_wf_security_mode_complete.LW
p412
aVtc_322_302_smooth_move_3GDT_with_one_PDN_TZCR_set.LW
p413
aVtc_298_440_ms_init_deact_ef_default_bearer_deact_with_rab_interfered_by_dedicate_bearer_deact_request.LW
p414
aVtc_326_680_tau_intra_SGW_unavailable_active_flag_off_after_MME_large_restart__two_pdn.LW
p415
aVtc_328_108_Backup_MME__MaximumNumberOfUeBackups_reached_replace_oldest_ue_backups.LWG
p416
aVtc_73_41_gtpu_sgsn_dont_send_gpu_echo_request_w.LWG
p417
aVtc_298_547_sgsn_init_pdn_deact_ef_deact_req_tdi_true_wf_delete_session_resp.LWG
p418
aVtc_251_62_l_to_w_to_l_with_cl_type_updateProcedure.LWG
p419
aVtc_239_111_inter_rau_new_unchanged_sgw_two_pdn_connection_report_sn.LWG
p420
aVtc_286_118_pdn_disconnect_finished_pdn_connectivity_with_same_pti.LWG
p421
aVtc_288_365_pgw_init_bearer_mod_qci_counters__qci4_8_128_129_254_255.LWG
p422
aVtc_103_1140_sx_resend__resend_to_another_sapc.LWG
p423
aVtc_103_708_modify_peer_send_DPR.LWG
p424
aVtc_103_704_delete_peer_send_DPR.LWG
p425
aVtc_103_702_CEA_timeout.LWG
p426
aVtc_225_103_csfb_stand_alone_ue_context_release_active_mode.LWG
p427
aVtc_320_062_sm_status_from_ms.LWG
p428
aVtc_316_234_MME_Pool_Link_to_BMME_Fail_Select_New_BMME_Delete_Old_Backup.LWG
p429
aVtc_327_023_recovery_intra_TAU__initial_Detach_Request_while_waiting_for_Create_Session_Response.LWG
p430
aVtc_92_06_10_pm_job_log_content.LWG
p431
aVtc_92_06_20_pm_job_log_content.LWG
p432
aVtc_259_99_ef_s6d_s4_attach_old_w.LWG
p433
aVtc_183_008_itc_sctp_encrypted.LWG
p434
aVtc_204_207_mme_eps_ho_target__multi_pdn_sgw_relocation__failed_modify_bearer_request.LWG
p435
aVtc_204_902_mme_eps_ho_target_with_odb_bit0_pdn_connectivity_request_wf_tau_complete.LWG
p436
aVtc_341_682_x2_activity_event_handover_inter_s1_new.LWG
p437
aVtc_23_09_transfer_to_primary_and_change_vip_addr.LWG
p438
aVtc_340_124_oms_consistence_check_for_action_pool_move_validation_start.LWG
p439
aVtc_39_601_mas_unsucc_fwd_reloc_resp_mandatory_ie_missing_stop_source.LWG
p440
aVtc_97_035_inter_sgsn_psho_mf_with_lawful_intercept.LWG
p441
aVtc_324_006_mf_ser_req_signaling_after_ack_3gdt.LWG
p442
aVtc_56_21_sending_recognized_information_in_log.LWG
p443
aVtc_327_037_recovery_intra_TAU_active_off_sgw_unchanged__RAR_wf_CSR_due_to_S11_linkdown.L14b
p444
aVtc_243_712_tau_from_sgsn_s3_ue_already_registered_in_mme.L14b
p445
aVtc_277_103_tau_inter_old_plmn_change_unauthenticated_emergency_ongoing_implicit_detach.L14b
p446
aVtc_244_603_modify_eslmc_port.L14b
p447
aVtc_194_505_Notification_during_Intra_TAU_without_SGW_Relocation_HSS_Reset_Before_TAU.L14b
p448
aVtc_341_682_x2_activity_event_handover_inter_s1_new.L14b
p449
aVtc_346_463_AF__Service_Request_CCA_Update_Timeout.L14b
p450
aVtc_286_118_pdn_disconnect_finished_pdn_connectivity_with_same_pti.L14b
p451
aVtc_193_190_smc_during_service_req_eea3_eia2.L14b
p452
aVtc_225_103_csfb_stand_alone_ue_context_release_active_mode.L14b
p453
aVtc_44_301_sctp_counter_MessageSent_Received.L14b
p454
aVtc_44_750_s1_with_two_sctp_endpoints.L14b
p455
aVtc_197_592_load_sharing_sgw_selection_wrr.L14b
p456
aVtc_288_365_pgw_init_bearer_mod_qci_counters__qci4_8_128_129_254_255.L14b
p457
aVtc_298_440_ms_init_deact_ef_default_bearer_deact_with_rab_interfered_by_dedicate_bearer_deact_request.W14b
p458
aVtc_298_826_NRSPCA_S4_nsapi_collision_receiving_detach_request_while_waiting_for_delete_bearer_request.W14b
p459
aVtc_314_048_sgsn_init_qos_modification_handover_l_to_w_interrupt_by_reset_paging_fail.W14b
p460
aVtc_314_049_sgsn_init_qos_modification_handover_l_to_w_interrupt_by_reset_paging_succ.W14b
p461
aVtc_236_040_s4_3gdt_detach_during_waiting_for_modify_bearer_rsp_in_service_request_procedure.W14b
p462
aVtc_39_608_mas_security_mode_rej_fail_source.W14b
p463
aVtc_52_17_inter_old_treloccomplete_timeout_before_ack.W14b
p464
aVtc_39_212_detach_trigger_paging_fails.LW
p465
aVtc_39_601_mas_unsucc_fwd_reloc_resp_mandatory_ie_missing_stop_source.LW
p466
aVtc_39_748_cancel_loc_subWithdrawn_after_fwd_reloc_cmpl_abort_source.LW
p467
aVtc_341_682_x2_activity_event_handover_inter_s1_new.LW
p468
aVtc_204_207_mme_eps_ho_target__multi_pdn_sgw_relocation__failed_modify_bearer_request.LW
p469
aVtc_225_103_csfb_stand_alone_ue_context_release_active_mode.LW
p470
aVtc_23_09_transfer_to_primary_and_change_vip_addr.LW
p471
aVtc_11_113_sgsn_initiated_pdp_context_modification.LW
p472
aVtc_260_124_mbms_session_stop_mf_cli_trigger_with_no_flowId.LW
p473
aVtc_103_701_MME_restarts.LW
p474
aVtc_103_708_modify_peer_send_DPR.LW
p475
aVtc_103_704_delete_peer_send_DPR.LW
p476
aVtc_275_073_tau_inter_new_no_update_location_response_sgsn00040258.LW
p477
aVtc_286_118_pdn_disconnect_finished_pdn_connectivity_with_same_pti.LW
p478
aVtc_280_043_create_dedicated_bearers_qci_counters__qci1_2_3_4_5_6_qci64.LW
p479
aVtc_288_365_pgw_init_bearer_mod_qci_counters__qci4_8_128_129_254_255.LW
p480
aVtc_286_118_pdn_disconnect_finished_pdn_connectivity_with_same_pti.L14b
p481
aVtc_225_103_csfb_stand_alone_ue_context_release_active_mode.L14b
p482
aVtc_244_602_delete_eslmc.L14b
p483
aVtc_44_301_sctp_counter_MessageSent_Received.L14b
p484
aVtc_44_700_ip_invalid_sip_valid.L14b
p485
aVtc_199_83_imsi_attach_S11_echo_alarm.L14b
p486
aVtc_43_005_s1ap_setup.L14b
p487
aVtc_195_501_mme_logging_tau_inter_old_sgw_unchanged.L14b
p488
aVtc_288_365_pgw_init_bearer_mod_qci_counters__qci4_8_128_129_254_255.L14b
p489
aVtc_304_029_guti_attach_reject__control_mode_threshold_exceeded_then_action_stop.L14b
p490
aVtc_341_682_x2_activity_event_handover_inter_s1_new.L14b
p491
aVtc_103_903_primary_or_secondary_realm_routing_own_realm.L14b
p492
aVtc_103_1006_secondary_dpl_used_when_all_peers_in_dpl_unavailable_no_sls_peers_same_prio.L14b
p493
aVtc_275_058_tau_inter_new_with_dedicated_bearers_feature_off_keep_old_sgw.L14b
p494
aVtc_297_407_move_at_periodic_rau.G14b
p495
aVtc_298_440_ms_init_deact_ef_default_bearer_deact_with_rab_interfered_by_dedicate_bearer_deact_request.W14b
p496
aVtc_248_453_inter_l_to_w_new_partially_succ_interfering_attach_request_received_wf_rau_complete.W14b
p497
aVtc_23_09_transfer_to_primary_and_change_vip_addr.LWG
p498
aVtc_225_103_csfb_stand_alone_ue_context_release_active_mode.LWG
p499
aVtc_215_003_ipv6_InTruncatedPkts.LWG
p500
aVtc_103_708_modify_peer_send_DPR.LWG
p501
aVtc_103_704_delete_peer_send_DPR.LWG
p502
aVtc_103_1155_sx_retransmit__Small_restart_terminate_request.LWG
p503
aVtc_286_118_pdn_disconnect_finished_pdn_connectivity_with_same_pti.LWG
p504
aVtc_324_006_mf_ser_req_signaling_after_ack_3gdt.LWG
p505
aVtc_324_420_ef_payload_buffered.LWG
p506
aVtc_56_21_sending_recognized_information_in_log.LWG
p507
aVtc_251_62_l_to_w_to_l_with_cl_type_updateProcedure.LWG
p508
aVtc_288_365_pgw_init_bearer_mod_qci_counters__qci4_8_128_129_254_255.LWG
p509
aVtc_179_318_Ccheck_TraceCollectionIpv6server.LWG
p510
aVtc_241_1636_israu_new_modify_bearer_response_timeout_followed_by_ms_init_deac.LWG
p511
aVtc_73_07_itc_encrypted_gtpu_s4_payload_w.LWG
p512
aVtc_216_001_icmpv6_inMsgs.LWG
p513
aVtc_216_002_icmpv6_inEchos.LWG
p514
aVtc_216_103_icmpv6_outEchoReply.LWG
p515
aVtc_216_105_icmpv6_outNeighborAds.LWG
p516
aVtc_204_015_mme_eps_handover_target_inter_multi_plmn_main_flow_with_sgw_relocation.LWG
p517
aVtc_214_1099_la_selection_mf_reselection_combined_tau_with_imsi_attach_after_mme_triggered_imsi_detach_when_handling_sgs_paging.LWG
p518
aVtc_77_5_attach_activate2_g_crash.LWG
p519
aVtc_322_029_smooth_move_af_security_mode_reject.LWG
p520
aVtc_183_008_itc_sctp_encrypted.LWG
p521
aVtc_341_682_x2_activity_event_handover_inter_s1_new.LWG
p522
aVtc_306_1343_ef_seamless_move_target_receive_Insert_Subscription_Data_TADS_ecm_idle.LWG
p523
aVtc_79_022_activate_reject_rab_fail_qos_cause_115_fallback.W14b
p524
aVtc_297_407_move_at_periodic_rau.G14b
p525
aVtc_23_09_transfer_to_primary_and_change_vip_addr.LW
p526
aVtc_225_103_csfb_stand_alone_ue_context_release_active_mode.LW
p527
aVtc_250_160_s6d_IDR_IDA_Change_GPRS_to_eps_subscription.LW
p528
aVtc_341_682_x2_activity_event_handover_inter_s1_new.LW
p529
aVtc_289_017_Modify_bearer__ERAB_modify_request_meanwhile_path_switch_request_HO_success.LW
p530
aVtc_286_118_pdn_disconnect_finished_pdn_connectivity_with_same_pti.LW
p531
aVtc_288_365_pgw_init_bearer_mod_qci_counters__qci4_8_128_129_254_255.LW
p532
aVtc_316_298_GUTI_Attach_Known_Large_Restart_Broadcast_Force_Delete_Among_Pool.LW
p533
aVtc_44_004_small_restart__sctp_fe_restart.LW
p534
aVtc_39_601_mas_unsucc_fwd_reloc_resp_mandatory_ie_missing_stop_source.LW
p535
aVtc_225_103_csfb_stand_alone_ue_context_release_active_mode.L14b
p536
aVtc_275_073_tau_inter_new_no_update_location_response_sgsn00040258.L14b
p537
aVtc_238_162_mme_eps_irat_Gn_ho_target__Relocation_cancel_when_wf_handover_notify.L14b
p538
aVtc_327_316_recovery_service_request__initial_Attach_Request_while_waiting_for_Sub_Procedure__Create_Session_Response_Old_Sgw_Unavailable.L14b
p539
aVtc_43_101__removal_of_disconnected_eNodeBs__CLI_removal.L14b
p540
aVtc_285_006_PDN_Connectivity_Pb__Delete_default_bearer_request_while_wf_modify_bearer_response.L14b
p541
aVtc_286_118_pdn_disconnect_finished_pdn_connectivity_with_same_pti.L14b
p542
aVtc_341_682_x2_activity_event_handover_inter_s1_new.L14b
p543
aVtc_214_601_combined_attach_MSC_selection_in_pool.L14b
p544
aVtc_578_32_check_ebm_para_statistics_ue_return_duration.L14b
p545
aVtc_288_365_pgw_init_bearer_mod_qci_counters__qci4_8_128_129_254_255.L14b
p546
aVtc_324_388_ef_mo_sms_wf_ula.WG14a
p547
aVtc_251_62_l_to_w_to_l_with_cl_type_updateProcedure.LWG
p548
aVtc_23_09_transfer_to_primary_and_change_vip_addr.LWG
p549
aVtc_225_103_csfb_stand_alone_ue_context_release_active_mode.LWG
p550
aVtc_59_9_mtmsi_restart_counter.LWG
p551
aVtc_28_002_mo_sms_service_request.LWG
p552
aVtc_288_365_pgw_init_bearer_mod_qci_counters__qci4_8_128_129_254_255.LWG
p553
aVtc_183_008_itc_sctp_encrypted.LWG
p554
aVtc_286_118_pdn_disconnect_finished_pdn_connectivity_with_same_pti.LWG
p555
aVtc_341_682_x2_activity_event_handover_inter_s1_new.LWG
p556
aVtc_273_403_tau_intra_active_bearer_status_mismatch_delete_dedicated.LWG
p557
aVtc_95_10_fingerprint.LWG
p558
aVtc_11_187_subscriber_modified_during_activation_qos_changed.W14b
p559
aVtc_348_174_israu_af__new_sgsn_CCA_I_all_with_failure_cause_5003_and_update_ggsn_failed.W14b
p560
aVtc_298_610_sgsn_init_bearer_deact_ef_iu_release_wf_delete_req.LW
p561
aVtc_194_508_Notification_during_Intra_TAU_without_SGW_Relocation_HSS_Reset_after_SMC.LW
p562
aVtc_218_213_3_TAU_from_SGSN__downlink_data_notification_while_waiting_for_Initial_Context_Setup_Response.LW
p563
aVtc_341_682_x2_activity_event_handover_inter_s1_new.LW
p564
aVtc_341_950_test_event_serial_number.LW
p565
aVtc_236_048_s4_3gdt_deactivation_during_waiting_for_modify_bearer_rsp_in_activation_procedure_no_context.LW
p566
aVtc_316_242_MME_Pool_Seamless_Move_No_Forward_Relocation_Complete_Notification_GUTI_Reallocation__No_UE_Backup.LW
p567
aVtc_288_365_pgw_init_bearer_mod_qci_counters__qci4_8_128_129_254_255.LW
p568
aVtc_262_1055_imsi_attach_with_csg_id_is_rejected.LW
p569
aVtc_286_118_pdn_disconnect_finished_pdn_connectivity_with_same_pti.LW
p570
aVtc_43_101__removal_of_disconnected_eNodeBs__CLI_removal.LW
p571
aVtc_310_335_ef_dbr_non_voice_bearer_wf_forward_relocation_complete_and_forward_relocation_complete_ack.LW
p572
aVtc_225_103_csfb_stand_alone_ue_context_release_active_mode.LW
p573
aVtc_214_061_combined_attach_combined_tau_interfering_non_combined_attach.LW
p574
aVtc_314_018_hss_init_qos_modification_apn_ambr_3gdt.LW
p575
aVtc_43_101__removal_of_disconnected_eNodeBs__CLI_removal.L14b
p576
aVtc_346_535_AF__HO_Inter_Target__2PDN_MBR_failure_for_1PDN_terminate_1Sx.L14b
p577
aVtc_225_103_csfb_stand_alone_ue_context_release_active_mode.L14b
p578
aVtc_288_365_pgw_init_bearer_mod_qci_counters__qci4_8_128_129_254_255.L14b
p579
aVtc_341_682_x2_activity_event_handover_inter_s1_new.L14b
p580
aVtc_295_136_mo_call_during_s1_ho_tau_request_when_wf_handover_notify.L14b
p581
aVtc_243_712_tau_from_sgsn_s3_ue_already_registered_in_mme.L14b
p582
aVtc_286_118_pdn_disconnect_finished_pdn_connectivity_with_same_pti.L14b
p583
aVtc_92_09_20_autoupdate.LWG
p584
aVtc_73_21_itc_gtpu_s4_sgsn_send_echo_request_w.LWG
p585
aVtc_73_07_itc_encrypted_gtpu_s4_payload_w.LWG
p586
aVtc_334_281_path_failure_service_req_af_multi_pdn_create_session_no_resp.LWG
p587
aVtc_23_13_israu_out.LWG
p588
aVtc_244_051_mt_lr_delete_bearer_request_received_wf_location_report.LWG
p589
aVtc_251_62_l_to_w_to_l_with_cl_type_updateProcedure.LWG
p590
aVtc_329_202_inter_tau_new_rs_restricted.LWG
p591
aVtc_329_401_x2_ho_rs_restrict_plmn_change.LWG
p592
aVtc_183_008_itc_sctp_encrypted.LWG
p593
aVtc_335_21_wifi_to_mobility_in_ecm_idle_mf__one_cell_info_from_wic__all_cells_succeed_from_eNB.LWG
p594
aVtc_205_71_01_ss7_SCCP_CR_DT1_RLSD.LWG
p595
aVtc_326_677_tau_intra_SGW_unavailable_active_flag_off_after_MME_large_restart__create_session_fail.LWG
p596
aVtc_202_431_mf_seamless_move_target_service_request_modifyBearerReq_onePdnMultiBearer_oneBearerFail.LWG
p597
aVtc_225_103_csfb_stand_alone_ue_context_release_active_mode.LWG
p598
aVtc_288_365_pgw_init_bearer_mod_qci_counters__qci4_8_128_129_254_255.LWG
p599
aVtc_286_118_pdn_disconnect_finished_pdn_connectivity_with_same_pti.LWG
p600
aVtc_179_318_Ccheck_TraceCollectionIpv6server.LWG
p601
aVtc_208_43_interception_after_small_restart.LWG
p602
aVtc_208_155_ul_payload_imsi_udp.LWG
p603
aVtc_56_21_sending_recognized_information_in_log.LWG
p604
aVtc_341_682_x2_activity_event_handover_inter_s1_new.LWG
p605
aVtc_59_9_mtmsi_restart_counter.LWG
p606
aVtc_327_167_recovery_intra_TAU_SGSN_Context_Request_while_waiting_for_Update_Location_Answer.L14b
p607
aVtc_288_365_pgw_init_bearer_mod_qci_counters__qci4_8_128_129_254_255.L14b
p608
aVtc_326_655_tau_intra_periodic_SGW_unavailable_after_MME_large_restart__DNS_only_response_unavailable_SGW.L14b
p609
aVtc_326_847_Geo_Service_Request_node_restart_two_pdn_Modify_Bearer_timeout_rollback_GUTI.L14b
p610
aVtc_225_103_csfb_stand_alone_ue_context_release_active_mode.L14b
p611
aVtc_214_503_mt_sms_while_wf_lu_accept.L14b
p612
aVtc_256_010_mme_eps_srvcc_ho_source_cs_only_mf_with_rau_to_s4_sgsn_for_multiple_voice_bearers_in_one_pdn.L14b
p613
aVtc_341_682_x2_activity_event_handover_inter_s1_new.L14b
p614
aVtc_262_752_attach_handover_indication_no_override_other_apn.L14b
p615
aVtc_286_118_pdn_disconnect_finished_pdn_connectivity_with_same_pti.L14b
p616
aVtc_260_271_receive_sm_start_req_while_wf_setup_iteration.L14b
p617
aVtc_316_242_MME_Pool_Seamless_Move_No_Forward_Relocation_Complete_Notification_GUTI_Reallocation__No_UE_Backup.L14b
p618
aVtc_271_003_sctp_paging_olp_verify_pagingOlpDiscardAllCpuThreshold.L14b
p619
aVtc_341_682_x2_activity_event_handover_inter_s1_new.LW
p620
aVtc_334_286_path_failure_service_req_connected_3gdt_af_create_session_no_resp.LW
p621
aVtc_250_105_ignore_IDR_when_EPS_sub_downgrade_GPRS_sub.LW
p622
aVtc_219_131_s3_handover_w_to_l_with_cl_two_pdns_one_failed_sgw_relocation.LW
p623
aVtc_286_118_pdn_disconnect_finished_pdn_connectivity_with_same_pti.LW
p624
aVtc_225_103_csfb_stand_alone_ue_context_release_active_mode.LW
p625
aVtc_316_242_MME_Pool_Seamless_Move_No_Forward_Relocation_Complete_Notification_GUTI_Reallocation__No_UE_Backup.LW
p626
aVtc_23_09_transfer_to_primary_and_change_vip_addr.LW
p627
aVtc_39_920_ef_seamless_move_interrupted_by_transferred_attach.LW
p628
aVtc_342_140_update_one_of_two_targets_x2_address.LW
p629
aVtc_12_134_attach_with_extended_mmumoc_iu_inactivity_timer.LW
p630
aVtc_288_365_pgw_init_bearer_mod_qci_counters__qci4_8_128_129_254_255.LW
p631
aVtc_51_047_reloc_wf_rau_comp_interrupted_by_service_request_old_rai_new_iu.W14b
p632
aVtc_208_43_interception_after_small_restart.LWG
p633
aVtc_28_002_mo_sms_service_request.LWG
p634
aVtc_202_444_af_seamless_move_target_la_selection_oldlapreferred.LWG
p635
aVtc_39_771_mas_rnc_reset_when_wf_ptmsi_realloc_cmpl_source.LWG
p636
aVtc_39_924_ef_rnc_reset_wf_ptmsi_rel_comp_source_sgsn.LWG
p637
aVtc_313_217_inter_new_srns_reloc_s16_with_sgw_change_detach_request_direct_transfer_received_bf_forward_reloc_complete_ack.LWG
p638
aVtc_313_205_inter_new_srns_reloc_s16_with_sgw_change_attach_request_initial_ue_received_wf_modify_bearer_response.LWG
p639
aVtc_157_4_snmp_consistent.LWG
p640
aVtc_225_103_csfb_stand_alone_ue_context_release_active_mode.LWG
p641
aVtc_322_126_smooth_move_ef_cancel_location_initialAttach_wf_cancel_location.LWG
p642
aVtc_326_845_Geo_Service_Request_node_restart_Modify_Bearer_timeout_rollback_GUTI_reallocation_no_response.LWG
p643
aVtc_195_208_mme_logging_maximum_modify_eps_bearer_context.LWG
p644
aVtc_195_417_ue_trace_deactivate_trace_s1_intra_system_handover_triggered_HO_ongoing_timeout.LWG
p645
aVtc_324_272_ef_reset_wf_modify_bearer_response_wf_isd.LWG
p646
aVtc_23_09_transfer_to_primary_and_change_vip_addr.LWG
p647
aVtc_316_206_TAU_From_S4_SGSN_Multiple_PDN_Connections_With_Max_Dedicated_Bearers__Backup_UE.LWG
p648
aVtc_220_408_csfb_to_1xrtt_in_ecm_connected_ue_context_modification_failure_s1_intra_system_handover_triggered_receive_HO_all_bearer_fail.LWG
p649
aVtc_183_008_itc_sctp_encrypted.LWG
p650
aVtc_12_134_attach_with_extended_mmumoc_iu_inactivity_timer.LWG
p651
aVtc_141_005_eth_traffic_novlan.LWG
p652
aVtc_310_335_ef_dbr_non_voice_bearer_wf_forward_relocation_complete_and_forward_relocation_complete_ack.LWG
p653
aVtc_103_1007_secondary_dpl_set_and_then_emptied.LWG
p654
aVtc_246_061_israu_new_l_to_g_sgw_change_one_pdn_ubr_before_rau_complete_interfered_by_inter_rau_request.LWG
p655
aVtc_251_62_l_to_w_to_l_with_cl_type_updateProcedure.LWG
p656
aVtc_179_318_Ccheck_TraceCollectionIpv6server.LWG
p657
aVtc_286_118_pdn_disconnect_finished_pdn_connectivity_with_same_pti.LWG
p658
aVtc_341_682_x2_activity_event_handover_inter_s1_new.LWG
p659
aVtc_288_113_pgw_init_bearer_mod_paging_one_bearer_to_update_fails_to_set_up.LWG
p660
aVtc_288_365_pgw_init_bearer_mod_qci_counters__qci4_8_128_129_254_255.LWG
p661
aVtc_314_001_hss_init_qos_modification_apn_ambr_higher_than_policymap.LWG
p662
aVtc_213_174_nrspca_ignored_when_intra_sgsn_inter_bss_psho.G14b
p663
aVtc_310_242_ef__S1_Reset_wf_FR_Response.LWG
p664
aVtc_56_21_sending_recognized_information_in_log.LWG
p665
aVtc_326_837_Intra_TAU_Recovery_after_Node_Restart_SGW_Change_active_flag_on_no_modify_bearer_response_two_pdn.LWG
p666
aVtc_256_135_mme_eps_srvcc_ho_source_cs_only_initial_ue_detach_request_wf_srvcc_ps_to_cs_complete_notification.LWG
p667
aVtc_203_422_mme_eps_ho_source__tau_request_wf_cancel_location.LWG
p668
aVtc_247_84_inter_w_to_l_old_wf_reloc_cancel_resp_interrupted_by_attach_on_new_iu.LWG
p669
aVtc_179_318_Ccheck_TraceCollectionIpv6server.LWG
p670
aVtc_251_62_l_to_w_to_l_with_cl_type_updateProcedure.LWG
p671
aVtc_286_118_pdn_disconnect_finished_pdn_connectivity_with_same_pti.LWG
p672
aVtc_183_008_itc_sctp_encrypted.LWG
p673
aVtc_225_103_csfb_stand_alone_ue_context_release_active_mode.LWG
p674
aVtc_220_403_csfb_to_1xrtt_in_ecm_connected_path_switch_request_HO_success.LWG
p675
aVtc_208_500_df3_addr_update_after_invalid_addr.LWG
p676
aVtc_288_365_pgw_init_bearer_mod_qci_counters__qci4_8_128_129_254_255.LWG
p677
aVtc_305_057_oms_mmi_hwm.LWG
p678
aVtc_363_018_mmi_get_ra.LWG
p679
aVtc_341_151_x1_list_target_fail_no_targets.LWG
p680
aVtc_341_682_x2_activity_event_handover_inter_s1_new.LWG
p681
aVtc_274_005_Intra_and_pTAU__Attach_Request_while_waiting_for_Security_Mode_Complete.LWG
p682
aVtc_262_084_emergency_imsi_attach_unauthentication_fails_in_hss.LWG
p683
aVtc_04_109_normal_imsi_attach_detach_ptmsi_attach_sent_5_times_then_rau_req_purge.LWG
p684
aVtc_246_061_israu_new_l_to_g_sgw_change_one_pdn_ubr_before_rau_complete_interfered_by_inter_rau_request.LWG
p685
aVtc_318_262_sgw_restart_af_relocation_triggered_by_DDN_create_session_request_failure.L14b
p686
aVtc_341_682_x2_activity_event_handover_inter_s1_new.L14b
p687
aVtc_286_118_pdn_disconnect_finished_pdn_connectivity_with_same_pti.L14b
p688
aVtc_316_242_MME_Pool_Seamless_Move_No_Forward_Relocation_Complete_Notification_GUTI_Reallocation__No_UE_Backup.L14b
p689
aVtc_288_365_pgw_init_bearer_mod_qci_counters__qci4_8_128_129_254_255.L14b
p690
aVtc_194_063_hss_reset.L14b
p691
aVtc_346_493_Small_Local_Restart__Terminate_when_UE_S1_release.L14b
p692
aVtc_225_103_csfb_stand_alone_ue_context_release_active_mode.L14b
p693
aVtc_266_026_DownlinkDataFailureInd_repeat_paging_timer_small_local_restart.L14b
p694
aVtc_322_161_smooth_move_ef_nas_after_paging_response_ignore.WG14a
p695
aVtc_73_07_itc_encrypted_gtpu_s4_payload_w.WG14a
p696
aVtc_166_062_rab_release_reestablish_streaming.WG14a
p697
aVtc_324_137_af_service_request_data_only_utran_not_allowed_3gdt.WG14a
p698
aVtc_341_682_x2_activity_event_handover_inter_s1_new.LW
p699
aVtc_347_282_Delete_Bearer__RAR_while_waiting_ERAB_Release_Response.LW
p700
aVtc_326_681_tau_intra_SGW_unavailable_active_flag_off_after_MME_large_restart__two_pdn_one_timeout.LW
p701
aVtc_288_365_pgw_init_bearer_mod_qci_counters__qci4_8_128_129_254_255.LW
p702
aVtc_52_13_inter_old_no_forwSRNScont_ack.LW
p703
aVtc_275_073_tau_inter_new_no_update_location_response_sgsn00040258.LW
p704
aVtc_23_13_israu_out.LW
p705
aVtc_286_118_pdn_disconnect_finished_pdn_connectivity_with_same_pti.LW
p706
aVtc_225_103_csfb_stand_alone_ue_context_release_active_mode.LW
p707
aVtc_219_131_s3_handover_w_to_l_with_cl_two_pdns_one_failed_sgw_relocation.LW
p708
aVtc_324_042_af_gbr_higher_than_policymap.LW
p709
aVtc_322_120_smooth_move_ef_cancel_location_wf_frr.LW
p710
aVtc_348_023_deactivation__hlr_init_cancel_location_subscriber_withdraw.LW
p711
aVtc_298_690_S4_3GDT_Service_request_wait_MBR_ef_delete_bearer_request_lbi.LW
p712
aVtc_348_102_israu_mf__new_sgsn_multiple_pdp_diff_sapc_with_sx.W14b
p713
aVtc_357_004_gsm_iterator_ipAddressReset_modify_to_true_while_one_pdp_already_in_target_area.WG14a
p714
aVtc_324_083_af_sec_modify_bearer_response_dedicated_bearer_fail.WG14a
p715
aVtc_288_365_pgw_init_bearer_mod_qci_counters__qci4_8_128_129_254_255.L14b
p716
aVtc_43_101__removal_of_disconnected_eNodeBs__CLI_removal.L14b
p717
aVtc_326_215_Intra_TAU_Recovery_node_restart_combined_type_Location_Update_timeout.L14b
p718
aVtc_304_135_uplink_nas_intra_tau_control_mode_threshold_exceeded_usc_detach_wf_tau_complete_after_handover.L14b
p719
aVtc_341_682_x2_activity_event_handover_inter_s1_new.L14b
p720
aVtc_225_103_csfb_stand_alone_ue_context_release_active_mode.L14b
p721
aVtc_286_118_pdn_disconnect_finished_pdn_connectivity_with_same_pti.L14b
p722
aVtc_262_301_attach__downgrade_ApnAMBR_due_to_apn_based_qos_policy_profile_for_imsins.L14b
p723
aVtc_237_008_mme_eps_irat_ho_source__main_flow_with_sgw_relocation.L14b
p724
aVtc_214_022_combined_attach_new_attach_reject.L14b
p725
aVtc_298_074_s4_nrspca_activate_same_nsapi_of_dedicated_bearer_apn_failed.LW
p726
aVtc_225_103_csfb_stand_alone_ue_context_release_active_mode.LW
p727
aVtc_288_365_pgw_init_bearer_mod_qci_counters__qci4_8_128_129_254_255.LW
p728
aVtc_341_682_x2_activity_event_handover_inter_s1_new.LW
p729
aVtc_241_621_israu_new_with_bearer_detach_after_context_response.LW
p730
aVtc_250_160_s6d_IDR_IDA_Change_GPRS_to_eps_subscription.LW
p731
aVtc_256_204_mme_eps_srvcc_ho_source_cs_only_service_request_wf_srvcc_ps_to_cs_complete_notification.LW
p732
aVtc_286_118_pdn_disconnect_finished_pdn_connectivity_with_same_pti.LW
p733
aVtc_179_318_Ccheck_TraceCollectionIpv6server.LWG
p734
aVtc_275_073_tau_inter_new_no_update_location_response_sgsn00040258.LWG
p735
aVtc_32_72_detach_request_deleting_contexts_interrupted_by_subscription_withdrawn.LWG
p736
aVtc_219_131_s3_handover_w_to_l_with_cl_two_pdns_one_failed_sgw_relocation.LWG
p737
aVtc_248_102_inter_l_to_w_new_forward_relocation_request_received_wf_relocation_complete.LWG
p738
aVtc_166_428_rnc_initiated_rab_release_interfered_by_rnc_initiated_iu_release_request.LWG
p739
aVtc_286_118_pdn_disconnect_finished_pdn_connectivity_with_same_pti.LWG
p740
aVtc_239_111_inter_rau_new_unchanged_sgw_two_pdn_connection_report_sn.LWG
p741
aVtc_11_189_ms_initiated_modification_iu_release_during_rnc_modify.LWG
p742
aVtc_335_24_wifi_to_mobility_in_ecm_idle_mf__all_cells_succeed_from_home_eNB.LWG
p743
aVtc_183_008_itc_sctp_encrypted.LWG
p744
aVtc_288_365_pgw_init_bearer_mod_qci_counters__qci4_8_128_129_254_255.LWG
p745
aVtc_306_1201_ef_seamless_move_target_receive_hss_reset_with_ue_activity_indication.LWG
p746
aVtc_341_682_x2_activity_event_handover_inter_s1_new.LWG
p747
aVtc_310_335_ef_dbr_non_voice_bearer_wf_forward_relocation_complete_and_forward_relocation_complete_ack.LWG
p748
aVtc_103_702_CEA_timeout.LWG
p749
aVtc_251_62_l_to_w_to_l_with_cl_type_updateProcedure.LWG
p750
aVtc_250_105_ignore_IDR_when_EPS_sub_downgrade_GPRS_sub.LWG
p751
aVtc_321_098_provide_subscriber_location_report_control_mf.LWG
p752
aVtc_208_43_interception_after_small_restart.LWG
p753
aVtc_334_281_path_failure_service_req_af_multi_pdn_create_session_no_resp.LWG
p754
aVtc_220_420_csfb_to_1xrtt_ue_return_with_service_request_SGW_unavailable.LWG
p755
aVtc_225_103_csfb_stand_alone_ue_context_release_active_mode.LWG
p756
aVtc_43_101__removal_of_disconnected_eNodeBs__CLI_removal.LWG
p757
aVtc_59_9_mtmsi_restart_counter.LWG
p758
aVtc_256_043_mme_eps_srvcc_ho_source_cs_only_release_access_bearers_response_not_received.LWG
p759
aVtc_241_431_intra_rau_with_bearer_sgw_unchange_2_pdns_with_one_modify_no_response.LWG
p760
aVtc_73_41_gtpu_sgsn_dont_send_gpu_echo_request_w.LWG
p761
aVtc_298_044_S4_Network_Request_Secondary_PDP_Activation_after_RAU_3GDT_IDLE.W14b
p762
aVtc_59_9_mtmsi_restart_counter.LWG
p763
aVtc_286_118_pdn_disconnect_finished_pdn_connectivity_with_same_pti.LWG
p764
aVtc_78_058_intra_rau_intra_plmn_forced_csps_coord_accept_foreign_ms.LWG
p765
aVtc_281_074_Activate_bearer__ERAB_setup_request_meanwhile_handover_required_srvcc.LWG
p766
aVtc_225_103_csfb_stand_alone_ue_context_release_active_mode.LWG
p767
aVtc_306_1200_ef_seamless_move_target_receive_hss_reset.LWG
p768
aVtc_335_01_mobility_to_wifi_in_ecm_connected_mf__decision_granted__1_pdn_deactived_ipv4.LWG
p769
aVtc_288_365_pgw_init_bearer_mod_qci_counters__qci4_8_128_129_254_255.LWG
p770
aVtc_205_71_01_ss7_SCCP_CR_DT1_RLSD.LWG
p771
aVtc_334_251_path_failure_service_req_connected_mf.LWG
p772
aVtc_23_13_israu_out.LWG
p773
aVtc_23_09_transfer_to_primary_and_change_vip_addr.LWG
p774
aVtc_324_239_ef_nas_ignore_update_loc_received_wf_modify_bearer_response.LWG
p775
aVtc_262_1055_imsi_attach_with_csg_id_is_rejected.LWG
p776
aVtc_341_682_x2_activity_event_handover_inter_s1_new.LWG
p777
aVtc_251_62_l_to_w_to_l_with_cl_type_updateProcedure.LWG
p778
aVtc_30_139_hlr_reset_dp_unavailable.LWG
p779
aVtc_56_21_sending_recognized_information_in_log.LWG
p780
aVtc_56_10_cm_restart_during_SR.LWG
p781
aVtc_209_103_dual_stack_supported_ipv6_ipv4v6.LWG
p782
aVtc_183_008_itc_sctp_encrypted.LWG
p783
aVtc_25_13_activate_ms99_QoS_from_GGSN_higher_than_in_Create_PDP_Context_Request.LWG
p784
aVtc_325_010_inter_old_srns_reloc_s4_to_gn_no_cancel_location_from_hss_purge_ue.WG14a
p785
aVtc_324_152_af_rab_assignment_resp_downgrade_qos_dedicated_bearer_3gdt_rab_partially_setup.LW
p786
aVtc_195_203_mme_logging_maximum_dedicated_bearer.LW
p787
aVtc_195_208_mme_logging_maximum_modify_eps_bearer_context.LW
p788
aVtc_202_390_mf_seamless_move_target_ddn_before_lua.LW
p789
aVtc_209_18_target_info_query.LW
p790
aVtc_288_365_pgw_init_bearer_mod_qci_counters__qci4_8_128_129_254_255.LW
p791
aVtc_286_118_pdn_disconnect_finished_pdn_connectivity_with_same_pti.LW
p792
aVtc_225_103_csfb_stand_alone_ue_context_release_active_mode.LW
p793
aVtc_284_020_pdn_connectivity_with_static_pdn_address_paa_type_ipv6_addr_ipv4v6.LW
p794
aVtc_335_15_mobility_to_wifi_in_ecm_connected_af__no_decision_without_cause_from_eNB.LW
p795
aVtc_341_682_x2_activity_event_handover_inter_s1_new.LW
p796
aVtc_341_608_x2_activity_event_rau_to_gn_sgsn.LW
p797
aVtc_23_09_transfer_to_primary_and_change_vip_addr.LW
p798
aVtc_214_503_mt_sms_while_wf_lu_accept.L14b
p799
aVtc_262_1031_emergency_imsi_attach_multiple_pgw_try_next_pgw_fqdn_error.L14b
p800
aVtc_290_044_Timer_Based_GBR_Deact__cancel_location_with_update_procedure_wf_ue_context_release_complete_before_timer_expires.L14b
p801
aVtc_202_383_mf_seamless_move_target_service_request_before_ack_without_ddn.L14b
p802
aVtc_225_103_csfb_stand_alone_ue_context_release_active_mode.L14b
p803
aVtc_341_682_x2_activity_event_handover_inter_s1_new.L14b
p804
aVtc_316_242_MME_Pool_Seamless_Move_No_Forward_Relocation_Complete_Notification_GUTI_Reallocation__No_UE_Backup.L14b
p805
aVtc_326_343_Service_Request_with_unknown_STMSI_two_PDN_one_fail_in_initialContextSetup.L14b
p806
aVtc_326_338_Service_Request_with_unknown_STMSI_Update_Location_fail_RAT_not_allowed.L14b
p807
aVtc_327_012_recovery_intra_TAU__initial_Attach_Request_while_waiting_for_Ue_Backup_Response.L14b
p808
aVtc_304_236_isc_active_flag_on_control_mode_threshold_exceeded_ignore_replace_s1_wf_initial_context_setup_response.L14b
p809
aVtc_103_024_modify_diameter_peer_switch_peer_numbers.L14b
p810
aVtc_288_365_pgw_init_bearer_mod_qci_counters__qci4_8_128_129_254_255.L14b
p811
aVtc_286_118_pdn_disconnect_finished_pdn_connectivity_with_same_pti.L14b
p812
aVtc_335_71_From_Wifi_ECM_Connected_MF__Decision_By_WIC.LW
p813
aVtc_310_301_ef__Cancel_Location_wf_PS_to_CS_Complete_and_FR_Complete.LW
p814
aVtc_324_042_af_gbr_higher_than_policymap.LW
p815
aVtc_47_004_mobile_reachble_timer_ap_loss.LW
p816
aVtc_288_365_pgw_init_bearer_mod_qci_counters__qci4_8_128_129_254_255.LW
p817
aVtc_199_120_s11_path_management_small_restarted.LW
p818
aVtc_286_118_pdn_disconnect_finished_pdn_connectivity_with_same_pti.LW
p819
aVtc_341_682_x2_activity_event_handover_inter_s1_new.LW
p820
aVtc_225_103_csfb_stand_alone_ue_context_release_active_mode.LW
p821
aVtc_23_09_transfer_to_primary_and_change_vip_addr.LW
p822
aVtc_73_21_itc_gtpu_s4_sgsn_send_echo_request_w.LWG
p823
aVtc_73_41_gtpu_sgsn_dont_send_gpu_echo_request_w.LWG
p824
aVtc_24_63_combined_ra_la_update_with_imsi_attach_israu.LWG
p825
aVtc_208_32_sms_mt.LWG
p826
aVtc_289_017_Modify_bearer__ERAB_modify_request_meanwhile_path_switch_request_HO_success.LWG
p827
aVtc_304_263_tau_from_gnsgsn_when_wf_tau_complete_control_mode_reject_congestion.LWG
p828
aVtc_284_044_pdn_connectivity_pb_activate_3_dedicated_bearers.LWG
p829
aVtc_284_108_pdn_connectivity_connection_already_exists.LWG
p830
aVtc_284_350_pdn_connectivity_interrupted_by_path_switch_request.LWG
p831
aVtc_281_084_Activate_bearer__ERAB_Rel_Ind_Default_Dedicated_Bearers_diff_pdns_while_wf_create_bearer_response.LWG
p832
aVtc_297_101_inter_rau_new_roaming_cs_ps_cor.LWG
p833
aVtc_220_420_csfb_to_1xrtt_ue_return_with_service_request_SGW_unavailable.LWG
p834
aVtc_56_21_sending_recognized_information_in_log.LWG
p835
aVtc_298_424_ms_init_deact_ef_delicated_non_gbr_bearer_deact_interfered_by_rab_release_request.LWG
p836
aVtc_230_019_activate_reject_sgw_cause27_missing_or_unknown_apn.LWG
p837
aVtc_230_123_sgsn_init_detach_interfered_by_context_request_wait_delete_session_res.LWG
p838
aVtc_179_318_Ccheck_TraceCollectionIpv6server.LWG
p839
aVtc_249_113_act_pdp_ctx_static_address_ipv4v6_gprs_sub.LWG
p840
aVtc_183_008_itc_sctp_encrypted.LWG
p841
aVtc_288_365_pgw_init_bearer_mod_qci_counters__qci4_8_128_129_254_255.LWG
p842
aVtc_92_06_20_pm_job_log_content.LWG
p843
aVtc_92_06_10_pm_job_log_content.LWG
p844
aVtc_225_103_csfb_stand_alone_ue_context_release_active_mode.LWG
p845
aVtc_12_512_pmm_undefined_attach_when_updating_location_interfered_by_rnc_reset.LWG
p846
aVtc_260_271_receive_sm_start_req_while_wf_setup_iteration.LWG
p847
aVtc_341_682_x2_activity_event_handover_inter_s1_new.LWG
p848
aVtc_209_20_target_info_query_id_format_error.LWG
p849
aVtc_251_62_l_to_w_to_l_with_cl_type_updateProcedure.LWG
p850
aVtc_665_1_dp_reboot_init_cm_restart_with_traffic.LWG
p851
aVtc_23_09_transfer_to_primary_and_change_vip_addr.LWG
p852
aVtc_283_032_GW_Deactivate_Bearer__Default_bearer_Ue_context_release_while_waiting_erab_release_response.LWG
p853
aVtc_275_073_tau_inter_new_no_update_location_response_sgsn00040258.LWG
p854
aVtc_286_118_pdn_disconnect_finished_pdn_connectivity_with_same_pti.LWG
p855
aVtc_241_618_intra_rau_with_dedicated_bearer_sgw_change_wait_rau_complete_handle_dbr.W14b
p856
aVtc_297_407_move_at_periodic_rau.G14b
p857
aVtc_288_365_pgw_init_bearer_mod_qci_counters__qci4_8_128_129_254_255.L14b
p858
aVtc_242_003_rau_to_sgsn_s3_new_sgw.L14b
p859
aVtc_262_040_imsi_attach_NOK_emm_registered_ecm_Idle.L14b
p860
aVtc_286_118_pdn_disconnect_finished_pdn_connectivity_with_same_pti.L14b
p861
aVtc_341_682_x2_activity_event_handover_inter_s1_new.L14b
p862
aVtc_220_017_csfb_to_1xrtt_ue_suspended_downlink_data_notification.L14b
p863
aVtc_327_317_recovery_service_request__initial_Attach_Request_while_waiting_for_Sub_Procedure__Initial_Context_Setup_Response.L14b
p864
aVtc_43_101__removal_of_disconnected_eNodeBs__CLI_removal.L14b
p865
aVtc_225_103_csfb_stand_alone_ue_context_release_active_mode.L14b
p866
aVtc_243_203_tau_from_sgsn_s3_get_new_sgw_two_pdn_connections_first_failed_second_ok.L14b
p867
aVtc_310_335_ef_dbr_non_voice_bearer_wf_forward_relocation_complete_and_forward_relocation_complete_ack.L14b
p868
aVtc_286_118_pdn_disconnect_finished_pdn_connectivity_with_same_pti.L14b
p869
aVtc_225_103_csfb_stand_alone_ue_context_release_active_mode.L14b
p870
aVtc_225_642_hss_reset_mt_call_extended_service_request_while_wf_ms_activity_with_full_imsi.L14b
p871
aVtc_264_030_detach_NOK_emm_deregistered.L14b
p872
aVtc_327_317_recovery_service_request__initial_Attach_Request_while_waiting_for_Sub_Procedure__Initial_Context_Setup_Response.L14b
p873
aVtc_327_553_Recovery_for_DDN__Normal_TAU_Request_while_waiting_for_Ue_Backup_Response.L14b
p874
aVtc_327_700_recovery_service_request__pdn_req_succ_while_wf_MBResp_success.L14b
p875
aVtc_295_136_mo_call_during_s1_ho_tau_request_when_wf_handover_notify.L14b
p876
aVtc_341_682_x2_activity_event_handover_inter_s1_new.L14b
p877
aVtc_231_080_activate_during_waiting_for_create_session_resp_interrupted_by_rnc_reset.W14b
p878
aVtc_236_072_hard_ho_intra_rau_with_3gdt_bearer_sgw_nochange.W14b
p879
aVtc_12_512_pmm_undefined_attach_when_updating_location_interfered_by_rnc_reset.W14b
p880
aVtc_39_199_detach_trigger_iu_release_during_reattach.W14b
p881
aVtc_26_123_ms_move_target_ARP.W14b
p882
aVtc_208_43_interception_after_small_restart.G14b
p883
aVtc_232_403_bfd__ipv4ipv6_alarm.LWG
p884
aVtc_23_09_transfer_to_primary_and_change_vip_addr.LWG
p885
aVtc_260_271_receive_sm_start_req_while_wf_setup_iteration.LWG
p886
aVtc_251_62_l_to_w_to_l_with_cl_type_updateProcedure.LWG
p887
aVtc_103_701_MME_restarts.LWG
p888
aVtc_183_008_itc_sctp_encrypted.LWG
p889
aVtc_279_020_tai_list_attach_last_tai_roaming_restricted.LWG
p890
aVtc_259_50_isd_tads_s4_w_pmmidle_attach_and_detached.LWG
p891
aVtc_73_41_gtpu_sgsn_dont_send_gpu_echo_request_w.LWG
p892
aVtc_341_682_x2_activity_event_handover_inter_s1_new.LWG
p893
aVtc_310_335_ef_dbr_non_voice_bearer_wf_forward_relocation_complete_and_forward_relocation_complete_ack.LWG
p894
aVtc_322_050_smooth_move_ebt_rau_after_move.LWG
p895
aVtc_39_601_mas_unsucc_fwd_reloc_resp_mandatory_ie_missing_stop_source.LWG
p896
aVtc_225_103_csfb_stand_alone_ue_context_release_active_mode.LWG
p897
aVtc_340_124_oms_consistence_check_for_action_pool_move_validation_start.LWG
p898
aVtc_179_318_Ccheck_TraceCollectionIpv6server.LWG
p899
aVtc_56_21_sending_recognized_information_in_log.LWG
p900
aVtc_26_023_modification_interrupted_by_insert_subscriber_data_I.LWG
p901
aVtc_286_118_pdn_disconnect_finished_pdn_connectivity_with_same_pti.LWG
p902
aVtc_578_02_check_parse_ebm_and_ci_eci_w.LWG
p903
aVtc_219_131_s3_handover_w_to_l_with_cl_two_pdns_one_failed_sgw_relocation.LWG
p904
aVtc_324_006_mf_ser_req_signaling_after_ack_3gdt.LWG
p905
aVtc_241_639_intra_rau_with_bearer_sgw_change_with_3gdt_after_rau_complete_interfer_by_modify_pdp_req.LWG
p906
aVtc_286_118_pdn_disconnect_finished_pdn_connectivity_with_same_pti.LW
p907
aVtc_43_101__removal_of_disconnected_eNodeBs__CLI_removal.LW
p908
aVtc_214_503_mt_sms_while_wf_lu_accept.LW
p909
aVtc_214_1062_la_selection_mf_oldlapreferred_combined_tau_dyn_tailist_updated.LW
p910
aVtc_346_577_AF__HO_X2_2PDN_CSR_failure_for_both_PDN_terminate_sx.LW
p911
aVtc_341_682_x2_activity_event_handover_inter_s1_new.LW
p912
aVtc_23_09_transfer_to_primary_and_change_vip_addr.LW
p913
aVtc_289_050_Modify_bearer__UE_context_modification_failure_x2_handover_triggered.LW
p914
aVtc_289_017_Modify_bearer__ERAB_modify_request_meanwhile_path_switch_request_HO_success.LW
p915
aVtc_194_505_Notification_during_Intra_TAU_without_SGW_Relocation_HSS_Reset_Before_TAU.LW
p916
aVtc_298_440_ms_init_deact_ef_default_bearer_deact_with_rab_interfered_by_dedicate_bearer_deact_request.LW
p917
aVtc_310_335_ef_dbr_non_voice_bearer_wf_forward_relocation_complete_and_forward_relocation_complete_ack.LW
p918
aVtc_241_432_intra_rau_with_bearer_sgw_unchange_2_pdns_3gdt.LW
p919
aVtc_225_103_csfb_stand_alone_ue_context_release_active_mode.LW
p920
aVtc_12_134_attach_with_extended_mmumoc_iu_inactivity_timer.W14b
p921
aVtc_298_691_S4_3GDT_Service_request_wait_Rab_Assignment_ef_delete_bearer_request.W14b
p922
aVtc_324_069_af_modify_bearer_dedicated_bearer_fail.W14b
p923
aVtc_322_096_smooth_move_ef_reset_wf_frr_idle.W14b
p924
aVtc_95_4_load_lkf2.LWG
p925
aVtc_95_7_negative_tests.LWG
p926
aVtc_225_103_csfb_stand_alone_ue_context_release_active_mode.LWG
p927
aVtc_194_100_check_gauge_unstable_not_parked.LWG
p928
aVtc_214_305_mt_sms_idle_mode_tau_response_non_combined.LWG
p929
aVtc_244_051_mt_lr_delete_bearer_request_received_wf_location_report.LWG
p930
aVtc_244_701_mt_lr_LPPa_mobility_unstable_before_lr.LWG
p931
aVtc_578_52_check_uetracer_parser.LWG
p932
aVtc_211_025_streamed_cell_trace_mapping_alarm_cease_ipv6.LWG
p933
aVtc_308_050_HSS_Init_QoS_Modification__Authentication_failed_when_service_request.LWG
p934
aVtc_306_1200_ef_seamless_move_target_receive_hss_reset.LWG
p935
aVtc_334_107_sgw_restart_mf_restoration_trigger_by_ReleaseAccessBearerResponse.LWG
p936
aVtc_59_12_sequence_on_demand_indexbased_replica_values_during_takeover.LWG
p937
aVtc_59_9_mtmsi_restart_counter.LWG
p938
aVtc_31_074_cli_delete_subscriber_hlr.LWG
p939
aVtc_251_62_l_to_w_to_l_with_cl_type_updateProcedure.LWG
p940
aVtc_327_033_recovery_intra_TAU__uplink_same_ie_intra_TAU_Request_while_waiting_for_Update_Location_Response.LWG
p941
aVtc_341_682_x2_activity_event_handover_inter_s1_new.LWG
p942
aVtc_24_182_msc_pool_sgsn_pool_move_lu_accept_with_new_tmsi_from_msc_imsi_detach.LWG
p943
aVtc_56_10_cm_restart_during_SR.LWG
p944
aVtc_310_335_ef_dbr_non_voice_bearer_wf_forward_relocation_complete_and_forward_relocation_complete_ack.LWG
p945
aVtc_286_118_pdn_disconnect_finished_pdn_connectivity_with_same_pti.LWG
p946
aVtc_183_008_itc_sctp_encrypted.LWG
p947
aVtc_103_602_georedundant_realm_routing.LWG
p948
aVtc_275_073_tau_inter_new_no_update_location_response_sgsn00040258.LWG
p949
aVtc_246_061_israu_new_l_to_g_sgw_change_one_pdn_ubr_before_rau_complete_interfered_by_inter_rau_request.LWG
p950
aVtc_28_042_mo_sms_ok_for_home_when_blocked_for_visiting.LWG
p951
aVtc_23_09_transfer_to_primary_and_change_vip_addr.LWG
p952
aVtc_326_272_Periodic_Intra_TAU_with_unknown_GUTI_after_combined_attach_then_MO_SMS.LW
p953
aVtc_26_159_israu_new_not_updated_with_qos_upgradeAllowed.LW
p954
aVtc_103_1120_attach_ula_dia_unable_to_deliver.LW
p955
aVtc_23_09_transfer_to_primary_and_change_vip_addr.LW
p956
aVtc_334_020_pgw_restart_mf_one_pdn_to_be_deactivated.LW
p957
aVtc_578_32_check_ebm_para_statistics_ue_return_duration.LW
p958
aVtc_310_335_ef_dbr_non_voice_bearer_wf_forward_relocation_complete_and_forward_relocation_complete_ack.LW
p959
aVtc_286_118_pdn_disconnect_finished_pdn_connectivity_with_same_pti.LW
p960
aVtc_225_103_csfb_stand_alone_ue_context_release_active_mode.LW
p961
aVtc_308_050_HSS_Init_QoS_Modification__Authentication_failed_when_service_request.LW
p962
aVtc_39_601_mas_unsucc_fwd_reloc_resp_mandatory_ie_missing_stop_source.LW
p963
aVtc_341_682_x2_activity_event_handover_inter_s1_new.LW
p964
aVtc_327_610_Inter_TAU_SGW_Changed_then_Intra_TAU_while_waiting_for_20s_timeout.LW
p965
aVtc_322_029_smooth_move_af_security_mode_reject.LW
p966
aVtc_247_51_inter_w_to_l_old_relocation_cancel_response_time_out.LW
p967
aVtc_310_335_ef_dbr_non_voice_bearer_wf_forward_relocation_complete_and_forward_relocation_complete_ack.L14b
p968
aVtc_44_301_sctp_counter_MessageSent_Received.L14b
p969
aVtc_308_050_HSS_Init_QoS_Modification__Authentication_failed_when_service_request.L14b
p970
aVtc_194_506_Notification_during_Intra_MME_TAU_without_SGW_Relocation_Procedure.L14b
p971
aVtc_103_702_CEA_timeout.L14b
p972
aVtc_103_603_georedundant_modify_diameter_peer.L14b
p973
aVtc_225_103_csfb_stand_alone_ue_context_release_active_mode.L14b
p974
aVtc_341_682_x2_activity_event_handover_inter_s1_new.L14b
p975
aVtc_286_118_pdn_disconnect_finished_pdn_connectivity_with_same_pti.L14b
p976
aVtc_297_407_move_at_periodic_rau.G14b
p977
aVtc_306_292_ef_seamless_move_source_provide_location_request_wf_modify_bearer_response.L14b
p978
aVtc_220_587_csfb_to_1xrtt_in_extended_service_request_during_attach_waiting_for_modify_bearer_response.L14b
p979
aVtc_292_174_intra_handover_before_timer_expiration_of_multiple_pdn_failed_x2_ho.L14b
p980
aVtc_268_021_UE_Release_Inter_RAT_Redirection_clear_ppf.L14b
p981
aVtc_327_316_recovery_service_request__initial_Attach_Request_while_waiting_for_Sub_Procedure__Create_Session_Response_Old_Sgw_Unavailable.L14b
p982
aVtc_194_505_Notification_during_Intra_TAU_without_SGW_Relocation_HSS_Reset_Before_TAU.L14b
p983
aVtc_310_335_ef_dbr_non_voice_bearer_wf_forward_relocation_complete_and_forward_relocation_complete_ack.L14b
p984
aVtc_286_118_pdn_disconnect_finished_pdn_connectivity_with_same_pti.L14b
p985
aVtc_308_050_HSS_Init_QoS_Modification__Authentication_failed_when_service_request.L14b
p986
aVtc_225_103_csfb_stand_alone_ue_context_release_active_mode.L14b
p987
aVtc_341_682_x2_activity_event_handover_inter_s1_new.L14b
p988
aVtc_103_603_georedundant_modify_diameter_peer.L14b
p989
aVtc_33_6_isc_rau_g_to_w_one_pdp_context.WG14a
p990
aVtc_73_07_itc_encrypted_gtpu_s4_payload_w.WG14a
p991
aVtc_34_86_ISC_w_to_g_new_sgw_change_two_pdns_one_higher_qos_several_ubr_before_rau_complete.WG14a
p992
aVtc_250_150_isd_with_odb_init_deactivation.W14b
p993
aVtc_298_691_S4_3GDT_Service_request_wait_Rab_Assignment_ef_delete_bearer_request.W14b
p994
aVtc_322_161_smooth_move_ef_nas_after_paging_response_ignore.W14b
p995
aVtc_183_008_itc_sctp_encrypted.LWG
p996
aVtc_286_118_pdn_disconnect_finished_pdn_connectivity_with_same_pti.LWG
p997
aVtc_39_601_mas_unsucc_fwd_reloc_resp_mandatory_ie_missing_stop_source.LWG
p998
aVtc_23_09_transfer_to_primary_and_change_vip_addr.LWG
p999
aVtc_308_050_HSS_Init_QoS_Modification__Authentication_failed_when_service_request.LWG
p1000
aVtc_194_991_downlink_A21_AIS_during_waiting_location_report__idr_flags_ef.LWG
p1001
aVtc_166_097_israu_new_two_tunnel_since_camel_subscriber_no_resources_reject.LWG
p1002
aVtc_316_242_MME_Pool_Seamless_Move_No_Forward_Relocation_Complete_Notification_GUTI_Reallocation__No_UE_Backup.LWG
p1003
aVtc_25_06_activate_ms99_requesting_subscribed_qos_streaming.LWG
p1004
aVtc_224_006_ipv4_discard_on_ipv6_interface.LWG
p1005
aVtc_288_111_pgw_init_bearer_mod_paging_one_dedicated_bearer_fails_to_set_up.LWG
p1006
aVtc_346_205_RFSP__last_sx_session_delete_remove_RFSP_from_SAPC.LWG
p1007
aVtc_225_103_csfb_stand_alone_ue_context_release_active_mode.LWG
p1008
aVtc_241_432_intra_rau_with_bearer_sgw_unchange_2_pdns_3gdt.LWG
p1009
aVtc_251_62_l_to_w_to_l_with_cl_type_updateProcedure.LWG
p1010
aVtc_297_407_move_at_periodic_rau.LWG
p1011
aVtc_341_682_x2_activity_event_handover_inter_s1_new.LWG
p1012
aVtc_103_800_device_watchdog_request_to_SGSN_MME.LWG
p1013
aVtc_310_335_ef_dbr_non_voice_bearer_wf_forward_relocation_complete_and_forward_relocation_complete_ack.LWG
p1014
aVtc_195_554_mme_logging_eps_handover_target_over_gn_inter_relocation_cancel_Request_received.LW
p1015
aVtc_341_682_x2_activity_event_handover_inter_s1_new.LW
p1016
aVtc_310_335_ef_dbr_non_voice_bearer_wf_forward_relocation_complete_and_forward_relocation_complete_ack.LW
p1017
aVtc_316_242_MME_Pool_Seamless_Move_No_Forward_Relocation_Complete_Notification_GUTI_Reallocation__No_UE_Backup.LW
p1018
aVtc_261_20_isd_tads_combined_attach.LW
p1019
aVtc_256_011_mme_eps_srvcc_ho_source_cs_only_mf_with_rau_to_gn_sgsn_for_multi_voice_bearers_in_multi_pdns.LW
p1020
aVtc_52_12_inter_old_relocation_cancel_no_response.LW
p1021
aVtc_332_051_2_mf__paging_due_to_CBR_during_paging_due_to_cs_sms_latest_with_high_prio.LW
p1022
aVtc_286_118_pdn_disconnect_finished_pdn_connectivity_with_same_pti.LW
p1023
aVtc_12_157_service_request_identity_check_no_response.LW
p1024
aVtc_225_103_csfb_stand_alone_ue_context_release_active_mode.LW
p1025
aVtc_308_050_HSS_Init_QoS_Modification__Authentication_failed_when_service_request.LW
p1026
aVtc_578_02_check_parse_ebm_and_ci_eci_g.G14b
p1027
aVtc_320_066_cp_error_from_ms.G14b
p1028
aVtc_208_43_interception_after_small_restart.G14b
p1029
aVtc_297_407_move_at_periodic_rau.G14b
p1030
aVtc_250_74_s6d_EF_hss_reset_waiting_delete_session_response.LWG
p1031
aVtc_225_103_csfb_stand_alone_ue_context_release_active_mode.LWG
p1032
aVtc_56_21_sending_recognized_information_in_log.LWG
p1033
aVtc_335_31_wifi_to_mobility_in_ecm_idle_af__cells_from_eNB_more_than_from_WIC.LWG
p1034
aVtc_166_215_inter_irat_w_to_g_old_relocation_cancel_before_resp_recv.LWG
p1035
aVtc_73_21_itc_gtpu_s4_sgsn_send_echo_request_w.LWG
p1036
aVtc_73_41_gtpu_sgsn_dont_send_gpu_echo_request_w.LWG
p1037
aVtc_73_43_gtpu_sgsn_turn_off_gnu_echo_request_w.LWG
p1038
aVtc_59_9_mtmsi_restart_counter.LWG
p1039
aVtc_269_001_s1_reset_emm_registered.LWG
p1040
aVtc_97_029_interfering_rau_request_when_wf_cancel_location.LWG
p1041
aVtc_310_335_ef_dbr_non_voice_bearer_wf_forward_relocation_complete_and_forward_relocation_complete_ack.LWG
p1042
aVtc_324_006_mf_ser_req_signaling_after_ack_3gdt.LWG
p1043
aVtc_341_682_x2_activity_event_handover_inter_s1_new.LWG
p1044
aVtc_251_62_l_to_w_to_l_with_cl_type_updateProcedure.LWG
p1045
aVtc_183_008_itc_sctp_encrypted.LWG
p1046
aVtc_24_185_msc_pool_sgsn_pool_move_no_response_from_msc_received_from_old_sgsn_no_imsi_detach.LWG
p1047
aVtc_308_050_HSS_Init_QoS_Modification__Authentication_failed_when_service_request.LWG
p1048
aVtc_38_405_rau_request_after_implicitly_detach.LWG
p1049
aVtc_288_221_pgw_init_bearer_mod_QoS_paging_partly_fail_modification_partly_fails.LWG
p1050
aVtc_23_13_israu_out.LWG
p1051
aVtc_23_09_transfer_to_primary_and_change_vip_addr.LWG
p1052
aVtc_286_118_pdn_disconnect_finished_pdn_connectivity_with_same_pti.LWG
p1053
aVtc_298_702_pgw_init_modification_ef_ms_deact_req_tdi_false_ti_default_wf_modify_accept.LWG
p1054
aVtc_103_603_georedundant_modify_diameter_peer.L14b
p1055
aVtc_103_902_load_sharing_realm_routing_own_realm.L14b
p1056
aVtc_194_177_hss_reset_restoration_with_notify_request.L14b
p1057
aVtc_304_121_initial_ue_intra_tau_control_mode_threshold_exceeded_usc_detach_wf_release_request_response.L14b
p1058
aVtc_304_236_isc_active_flag_on_control_mode_threshold_exceeded_ignore_replace_s1_wf_initial_context_setup_response.L14b
p1059
aVtc_225_103_csfb_stand_alone_ue_context_release_active_mode.L14b
p1060
aVtc_308_050_HSS_Init_QoS_Modification__Authentication_failed_when_service_request.L14b
p1061
aVtc_310_335_ef_dbr_non_voice_bearer_wf_forward_relocation_complete_and_forward_relocation_complete_ack.L14b
p1062
aVtc_286_118_pdn_disconnect_finished_pdn_connectivity_with_same_pti.L14b
p1063
aVtc_341_682_x2_activity_event_handover_inter_s1_new.L14b
p1064
aVtc_103_1004_secondary_dpl_used_when_all_peers_in_dpl_unavailable_no_sls.LW
p1065
aVtc_103_1110_attach_negative_AIA_resend_success_s6d.LW
p1066
aVtc_341_682_x2_activity_event_handover_inter_s1_new.LW
p1067
aVtc_39_601_mas_unsucc_fwd_reloc_resp_mandatory_ie_missing_stop_source.LW
p1068
aVtc_219_131_s3_handover_w_to_l_with_cl_two_pdns_one_failed_sgw_relocation.LW
p1069
aVtc_310_335_ef_dbr_non_voice_bearer_wf_forward_relocation_complete_and_forward_relocation_complete_ack.LW
p1070
aVtc_308_050_HSS_Init_QoS_Modification__Authentication_failed_when_service_request.LW
p1071
aVtc_11_195_ms_initiated_modification_nonexisting_context_sm_status.LW
p1072
aVtc_316_242_MME_Pool_Seamless_Move_No_Forward_Relocation_Complete_Notification_GUTI_Reallocation__No_UE_Backup.LW
p1073
aVtc_225_103_csfb_stand_alone_ue_context_release_active_mode.LW
p1074
aVtc_286_118_pdn_disconnect_finished_pdn_connectivity_with_same_pti.LW
p1075
aVtc_298_424_ms_init_deact_ef_delicated_non_gbr_bearer_deact_interfered_by_rab_release_request.LW
p1076
aVtc_81_073_israu_ggsn_upgrades_to_conv_no_resources.W14b
p1077
aVtc_38_39_israu_new_sgsn_old_sgsn_supports_gtp_v0_no_resources_in_ggsn.W14b
p1078
aVtc_236_039_s4_3gdt_detach_during_waiting_for_modify_bearer_rsp_in_active_procedure.W14b
p1079
aVtc_26_081_israu_qos_neg_0kbps.W14b
p1080
aVtc_322_029_smooth_move_af_security_mode_reject.WG14a
p1081
aVtc_286_118_pdn_disconnect_finished_pdn_connectivity_with_same_pti.L14b
p1082
aVtc_327_022_recovery_intra_TAU__initial_Detach_Request_while_waiting_for_Ue_Backup_Response.L14b
p1083
aVtc_308_050_HSS_Init_QoS_Modification__Authentication_failed_when_service_request.L14b
p1084
aVtc_295_124_tau_after_ho_tz_change_emm_information_meanwhile_handover_required_HO_success.L14b
p1085
aVtc_194_506_Notification_during_Intra_MME_TAU_without_SGW_Relocation_Procedure.L14b
p1086
aVtc_225_103_csfb_stand_alone_ue_context_release_active_mode.L14b
p1087
aVtc_341_682_x2_activity_event_handover_inter_s1_new.L14b
p1088
aVtc_195_520_mme_logging_initiated_deactivate_bearer_failure_indication_all_bearers_from_sgw.L14b
p1089
aVtc_310_335_ef_dbr_non_voice_bearer_wf_forward_relocation_complete_and_forward_relocation_complete_ack.L14b
p1090
aVtc_39_433_mas_one_pdp_downlink_data_3gdt_upd_loc_ack_b4_upd_pdp_ctx_resp_target.W14b
p1091
aVtc_236_039_s4_3gdt_detach_during_waiting_for_modify_bearer_rsp_in_active_procedure.W14b
p1092
aVtc_236_048_s4_3gdt_deactivation_during_waiting_for_modify_bearer_rsp_in_activation_procedure_no_context.W14b
p1093
aVtc_341_682_x2_activity_event_handover_inter_s1_new.LW
p1094
aVtc_225_103_csfb_stand_alone_ue_context_release_active_mode.LW
p1095
aVtc_327_610_Inter_TAU_SGW_Changed_then_Intra_TAU_while_waiting_for_20s_timeout.LW
p1096
aVtc_26_006_activate_secondary_Qos_traffic_class_conversational_interactive_subscribed.LW
p1097
aVtc_286_118_pdn_disconnect_finished_pdn_connectivity_with_same_pti.LW
p1098
aVtc_310_335_ef_dbr_non_voice_bearer_wf_forward_relocation_complete_and_forward_relocation_complete_ack.LW
p1099
aVtc_347_236_GW_Dedicated_Bearer_Deactivate__Location_Report_while_waiting_for_eRAB_Release_Response.LW
p1100
aVtc_236_041_s4_3gdt_detach_modify_bearer_response_reject_in_active_procedure.LW
p1101
aVtc_308_050_HSS_Init_QoS_Modification__Authentication_failed_when_service_request.LW
p1102
aVtc_23_09_transfer_to_primary_and_change_vip_addr.LW
p1103
aVtc_286_118_pdn_disconnect_finished_pdn_connectivity_with_same_pti.LWG
p1104
aVtc_334_251_path_failure_service_req_connected_mf.LWG
p1105
aVtc_183_008_itc_sctp_encrypted.LWG
p1106
aVtc_310_335_ef_dbr_non_voice_bearer_wf_forward_relocation_complete_and_forward_relocation_complete_ack.LWG
p1107
aVtc_251_62_l_to_w_to_l_with_cl_type_updateProcedure.LWG
p1108
aVtc_225_103_csfb_stand_alone_ue_context_release_active_mode.LWG
p1109
aVtc_308_050_HSS_Init_QoS_Modification__Authentication_failed_when_service_request.LWG
p1110
aVtc_179_318_Ccheck_TraceCollectionIpv6server.LWG
p1111
aVtc_84_71_provide_subscriber_location_ef_paging_interrupted_by_rau_req.LWG
p1112
aVtc_260_100_one_mbms_session_started_two_mce_response_timeout_one_mce_add.LWG
p1113
aVtc_208_43_interception_after_small_restart.LWG
p1114
aVtc_110_005_inbound_outbound_pf_rule_cli_ip.LWG
p1115
aVtc_56_21_sending_recognized_information_in_log.LWG
p1116
aVtc_103_1155_sx_retransmit__Small_restart_terminate_request.LWG
p1117
aVtc_209_39_inter_srns_old_sgsn.LWG
p1118
aVtc_23_13_israu_out.LWG
p1119
aVtc_23_09_transfer_to_primary_and_change_vip_addr.LWG
p1120
aVtc_73_40_gtpu_sgsn_send_gpu_echo_request_w.LWG
p1121
aVtc_59_9_mtmsi_restart_counter.LWG
p1122
aVtc_341_682_x2_activity_event_handover_inter_s1_new.LWG
p1123
aVtc_297_407_move_at_periodic_rau.G14b
p1124
aVtc_12_512_pmm_undefined_attach_when_updating_location_interfered_by_rnc_reset.W14b
p1125
aVtc_22_025_wcdma_rau_during_context_activation_two_rncs.W14b
p1126
aVtc_324_152_af_rab_assignment_resp_downgrade_qos_dedicated_bearer_3gdt_rab_partially_setup.W14b
p1127
aVtc_311_204_intra_srns_reloc_s4_sgw_change_wf_reloc_req_ack_interrupted_by_cancel_loc_subscrip_withdrawn.W14b
p1128
aVtc_214_1099_la_selection_mf_reselection_combined_tau_with_imsi_attach_after_mme_triggered_imsi_detach_when_handling_sgs_paging.LWG
p1129
aVtc_214_1126_la_selection_mf_oldlapreferred_combined_intra_tau_after_imsi_detach_triggered_by_sgs_paging.LWG
p1130
aVtc_32_97_israu_new_updating_context_interrupted_by_iu_release.LWG
p1131
aVtc_194_100_check_gauge_unstable_not_parked.LWG
p1132
aVtc_183_008_itc_sctp_encrypted.LWG
p1133
aVtc_284_341_pdn_connectivity_request_successful_ue_ambr_as_configured_in_qos_policy_used.LWG
p1134
aVtc_308_050_HSS_Init_QoS_Modification__Authentication_failed_when_service_request.LWG
p1135
aVtc_241_495_israu_new_gn_to_s4_pdp_to_bearer_with_10_secondary_pdp.LWG
p1136
aVtc_318_281_SGsAP_Paging_Request_init_service_request_sgw_restart.LWG
p1137
aVtc_327_220_recovery_service_request__Insert_Subscriber_Data_while_waiting_for_Create_Session_Response.LWG
p1138
aVtc_39_601_mas_unsucc_fwd_reloc_resp_mandatory_ie_missing_stop_source.LWG
p1139
aVtc_225_103_csfb_stand_alone_ue_context_release_active_mode.LWG
p1140
aVgn_wcdma_payload_no_context_ensure_stored.LWG
p1141
aVtc_310_335_ef_dbr_non_voice_bearer_wf_forward_relocation_complete_and_forward_relocation_complete_ack.LWG
p1142
aVtc_73_41_gtpu_sgsn_dont_send_gpu_echo_request_w.LWG
p1143
aVtc_305_040_oms_mmi.LWG
p1144
aVtc_209_42_inter_srns_new_sgsn_imei.LWG
p1145
aVtc_278_001_Inter_TAU_Old_MME__Attach_Request_while_waiting_for_Cancel_Location.LWG
p1146
aVtc_12_512_pmm_undefined_attach_when_updating_location_interfered_by_rnc_reset.LWG
p1147
aVtc_322_050_smooth_move_ebt_rau_after_move.LWG
p1148
aVtc_232_401_bfd__ipv4_alarm.LWG
p1149
aVtc_59_11_sequence_check_replica_values.LWG
p1150
aVtc_341_682_x2_activity_event_handover_inter_s1_new.LWG
p1151
aVtc_251_62_l_to_w_to_l_with_cl_type_updateProcedure.LWG
p1152
aVtc_286_118_pdn_disconnect_finished_pdn_connectivity_with_same_pti.LWG
p1153
aVtc_23_09_transfer_to_primary_and_change_vip_addr.LWG
p1154
aVtc_259_133_ef_provide_subscriber_information_psho_inter_old_g_to_w.LWG
p1155
aVtc_12_130_service_request_transfer_to_attached_ms_fraud.LW
p1156
aVtc_12_134_attach_with_extended_mmumoc_iu_inactivity_timer.LW
p1157
aVtc_23_13_israu_out.LW
p1158
aVtc_23_09_transfer_to_primary_and_change_vip_addr.LW
p1159
aVtc_308_050_HSS_Init_QoS_Modification__Authentication_failed_when_service_request.LW
p1160
aVtc_341_682_x2_activity_event_handover_inter_s1_new.LW
p1161
aVtc_310_335_ef_dbr_non_voice_bearer_wf_forward_relocation_complete_and_forward_relocation_complete_ack.LW
p1162
aVtc_225_103_csfb_stand_alone_ue_context_release_active_mode.LW
p1163
aVtc_286_118_pdn_disconnect_finished_pdn_connectivity_with_same_pti.LW
p1164
aVtc_286_118_pdn_disconnect_finished_pdn_connectivity_with_same_pti.L14b
p1165
aVtc_316_242_MME_Pool_Seamless_Move_No_Forward_Relocation_Complete_Notification_GUTI_Reallocation__No_UE_Backup.L14b
p1166
aVtc_103_800_device_watchdog_request_to_SGSN_MME.L14b
p1167
aVtc_103_902_load_sharing_realm_routing_own_realm.L14b
p1168
aVtc_43_101__removal_of_disconnected_eNodeBs__CLI_removal.L14b
p1169
aVtc_43_103__plmn_mismatch_on_disconnected_node.L14b
p1170
aVtc_341_682_x2_activity_event_handover_inter_s1_new.L14b
p1171
aVtc_308_050_HSS_Init_QoS_Modification__Authentication_failed_when_service_request.L14b
p1172
aVtc_310_335_ef_dbr_non_voice_bearer_wf_forward_relocation_complete_and_forward_relocation_complete_ack.L14b
p1173
aVtc_225_103_csfb_stand_alone_ue_context_release_active_mode.L14b
p1174
a.