(lp0
Vtc_38_303_israu_new_sgsn_no_imsi_in_sgsn_context_response.W14b
p1
aVtc_324_368_ef_cancel_location_with_updateProcedure_wf_modify_bearer_response_after_ula_hss.W14b
p2
aVtc_324_388_ef_mo_sms_wf_ula.W14b
p3
aVtc_236_091_service_request_si_iu_release_at_sgw_flow_si_cancel_location.W14b
p4
aVtc_31_064_activate_loc_not_confirmed_ul_fails_network_failure.W14b
p5
aVtc_84_80_provide_subscriber_locaiton_ef_paging_interrupted_by_attach.G14b
p6
aVtc_276_284_Inter_TAU_New_MME__Delete_Bearer_Request_change_to_non_3gpp_while_waiting_for_failing_Modify_Bearer_Response.LW
p7
aVtc_284_351_pdn_connectivity_pb_activate_1_dedicated_bearer_interrupted_by_path_switch_request.LW
p8
aVtc_219_131_s3_handover_w_to_l_with_cl_two_pdns_one_failed_sgw_relocation.LW
p9
aVtc_267_532_DDN_SGW_unavailable__Cancel_Location_while_wf_Create_Session_Response.LW
p10
aVtc_103_024_modify_diameter_peer_switch_peer_numbers.LW
p11
aVtc_310_335_ef_dbr_non_voice_bearer_wf_forward_relocation_complete_and_forward_relocation_complete_ack.LW
p12
aVtc_326_217_Intra_TAU_Recovery_with_active_flag_two_PDN_partial_fail.LW
p13
aVtc_286_118_pdn_disconnect_finished_pdn_connectivity_with_same_pti.LW
p14
aVtc_195_410_ue_trace_deactivate_trace_interaction_with_other_procedure_HO_undetected_retry_counter_exceed.LW
p15
aVtc_219_131_s3_handover_w_to_l_with_cl_two_pdns_one_failed_sgw_relocation.LWG
p16
aVtc_236_056_s4_3gdt_delete_bearer_during_modify_bearer_in_service_request_procedure.LWG
p17
aVtc_81_013_israu_conversational_use_sub_ggsn_modifies_to_conv.LWG
p18
aVtc_348_369_inter_srns_reloc_af__new_sgsn_update_location_ack_failed.LWG
p19
aVtc_298_723_service_request_ef_ms_deact_ti_default_wf_rab_assignment_response.LWG
p20
aVtc_218_531_tau_from_sgsn_gn_active_flag_true_gw_failure_restoration_lte_on_no_modify_bearer_response_two_pdn.LWG
p21
aVtc_251_62_l_to_w_to_l_with_cl_type_updateProcedure.LWG
p22
aVtc_286_118_pdn_disconnect_finished_pdn_connectivity_with_same_pti.LWG
p23
aVtc_241_066_israu_new_gn_to_s4_pdp_to_bearer_two_pdp_one_arp_higher_than_policy_map.LWG
p24
aVtc_208_160_payload_msisdn_imsi_imei_tcp_udp_tcp_v3.LWG
p25
aVtc_310_335_ef_dbr_non_voice_bearer_wf_forward_relocation_complete_and_forward_relocation_complete_ack.LWG
p26
aVtc_166_409_israu_new_service_req_reestablish_streaming_dt_ggsn_address_2T.LWG
p27
aVtc_242_040_rau_to_sgsn_s3_keep_sgw_two_pdn_connections.LWG
p28
aVtc_183_008_itc_sctp_encrypted.LWG
p29
aVtc_274_441_Intra_TAU_Detach_Request_while_waiting_for_Create_Session_Response_2PDNs_partially_failure_sgw_unavailable.LWG
p30
aVtc_205_71_08_SCTP_OctetsChunksSent.LWG
p31
aVtc_342_880_x2_message_decode_error.LWG
p32
aVtc_23_09_transfer_to_primary_and_change_vip_addr.LWG
p33
aVtc_214_806_mo_sms_active_donwlink_nas_transport_meanwhile_handover_required_HO_success.L14b
p34
aVtc_286_118_pdn_disconnect_finished_pdn_connectivity_with_same_pti.L14b
p35
aVtc_310_335_ef_dbr_non_voice_bearer_wf_forward_relocation_complete_and_forward_relocation_complete_ack.L14b
p36
aVtc_283_019_GW_Deactivate_Bearer__Delete_Bearer_Request_Dedicated_Bearer_while_wf_deactivate_eps_bearer_context_accept.L14b
p37
aVtc_194_506_Notification_during_Intra_MME_TAU_without_SGW_Relocation_Procedure.L14b
p38
aVtc_238_165_mme_eps_irat_Gn_ho_target__No_common_security_algorithm_before_tau_using_zuc_algorithm_eea3_eia3.L14b
p39
aVtc_345_003_mf__mo_csfb_with_psho__ecm_idle_Gn.L14b
p40
aVtc_297_407_move_at_periodic_rau.G14b
p41
aVtc_103_1121_attach_ula_dia_unable_to_deliver_no_more_peers.L14b
p42
aVtc_286_118_pdn_disconnect_finished_pdn_connectivity_with_same_pti.L14b
p43
aVtc_194_962_ue_release_request_user_inactivity_during_waiting_for_location_report__idr_flags_ef.L14b
p44
aVtc_220_403_csfb_to_1xrtt_in_ecm_connected_path_switch_request_HO_success.L14b
p45
aVtc_310_335_ef_dbr_non_voice_bearer_wf_forward_relocation_complete_and_forward_relocation_complete_ack.L14b
p46
aVtc_97_035_inter_sgsn_psho_mf_with_lawful_intercept.LWG
p47
aVtc_195_208_mme_logging_maximum_modify_eps_bearer_context.LWG
p48
aVtc_267_302_Downlink_Data_Notification__Delete_Bearer_Request_while_wf_service_request_from_ue.LWG
p49
aVtc_26_149_inter_sgsn_back_before_20s_with_qos_upgradeAllowed.LWG
p50
aVtc_95_3_load_lkf.LWG
p51
aVtc_179_318_Ccheck_TraceCollectionIpv6server.LWG
p52
aVtc_103_701_MME_restarts.LWG
p53
aVtc_193_006_background_fetching_s1_sel_freq_0.LWG
p54
aVtc_82_022_rab_modify_interrupted_by_israu_II.LWG
p55
aVtc_241_431_intra_rau_with_bearer_sgw_unchange_2_pdns_with_one_modify_no_response.LWG
p56
aVtc_92_05_60_old_format_counters.LWG
p57
aVtc_92_09_20_autoupdate.LWG
p58
aVtc_236_117_s4_3gdt_based_on_sr_dt_to_non_dt_gtpu_data_received_not_all_rabs_reestablished.LWG
p59
aVtc_183_008_itc_sctp_encrypted.LWG
p60
aVtc_283_007_GW_Deactivate_Bearer__Path_Switch_Request_while_waiting_for_deactivate_eps_bearer_context_accept.LWG
p61
aVtc_286_118_pdn_disconnect_finished_pdn_connectivity_with_same_pti.LWG
p62
aVtc_205_71_08_SCTP_OctetsChunksSent.LWG
p63
aVtc_73_41_gtpu_sgsn_dont_send_gpu_echo_request_w.LWG
p64
aVtc_12_512_pmm_undefined_attach_when_updating_location_interfered_by_rnc_reset.LWG
p65
aVtc_363_011_cli_get_ra.LWG
p66
aVtc_313_217_inter_new_srns_reloc_s16_with_sgw_change_detach_request_direct_transfer_received_bf_forward_reloc_complete_ack.LWG
p67
aVtc_23_09_transfer_to_primary_and_change_vip_addr.LWG
p68
aVtc_259_93_ef_provide_subscriber_information_service_request_w.LWG
p69
aVtc_11_091_activate_secondary_pdp_context_wrong_LinkedTI.LWG
p70
aVtc_298_137_EF_NRSPCA_S4_Create_Bearer_Request_2_PDN_10_PDP.LWG
p71
aVtc_298_820_activate_secondary_pdp_context_request_with_NSAPI_exist_dedicate_bearer_idle_state.LWG
p72
aVtc_251_62_l_to_w_to_l_with_cl_type_updateProcedure.LWG
p73
aVtc_59_12_sequence_on_demand_indexbased_replica_values_during_takeover.LWG
p74
aVtc_275_118_tau_inter_new_emergency_erroneous_ie_authenticated_no_imsi.LWG
p75
aVtc_324_512_ef_delete_bearer_request_ignore_payload_after_ulr.LWG
p76
aVtc_208_200_s4_context_activate_modify_deactivate.LWG
p77
aVtc_310_335_ef_dbr_non_voice_bearer_wf_forward_relocation_complete_and_forward_relocation_complete_ack.LWG
p78
aVtc_286_118_pdn_disconnect_finished_pdn_connectivity_with_same_pti.LW
p79
aVtc_326_393_Service_Request_with_unknown_STMSI_SGW_unavailable_Create_Session_failure.LW
p80
aVtc_23_03_data_record_transfer_to_secondary_bs_after_timeout.LW
p81
aVtc_23_13_israu_out.LW
p82
aVtc_310_335_ef_dbr_non_voice_bearer_wf_forward_relocation_complete_and_forward_relocation_complete_ack.LW
p83
aVtc_341_601_x2_activity_event_tau_event_intra_sgw_unchanged_connected.LW
p84
aVtc_26_058_activate_3_primary_contexts_different_policy_maps.LW
p85
aVtc_346_465_AF__Service_Request_CCA_Update_with_Result_Code_5012_5030.LW
p86
aVtc_347_023_Inter_TAU_New_MME_from_gn__RAR_while_waiting_for_Initial_Context_Setup_Response.LW
p87
aVtc_324_239_ef_nas_ignore_update_loc_received_wf_modify_bearer_response.LW
p88
aVtc_219_131_s3_handover_w_to_l_with_cl_two_pdns_one_failed_sgw_relocation.LW
p89
aVtc_214_710_combined_tau_intra_eps_attach_interfering_mt_sms_paging_wf_tau_complete_then_ddn.LW
p90
aVtc_218_073_tau_from_sgsn_deactivate_inactive_dedicated_bearers.LW
p91
aVtc_327_037_recovery_intra_TAU_active_off_sgw_unchanged__RAR_wf_CSR_due_to_S11_linkdown.LW
p92
aVtc_327_603_Inter_TAU_Recovery__TAU_Request_while_waiting_for_Create_session_response.LW
p93
aVtc_241_431_intra_rau_with_bearer_sgw_unchange_2_pdns_with_one_modify_no_response.LW
p94
aVtc_241_432_intra_rau_with_bearer_sgw_unchange_2_pdns_3gdt.LW
p95
aVtc_236_039_s4_3gdt_detach_during_waiting_for_modify_bearer_rsp_in_active_procedure.W14b
p96
aVtc_313_281_inter_new_srns_reloc_s16_with_sgw_change_downlink_data_notification_with_cause_received_wf_rau_complete.W14b
p97
aVtc_324_069_af_modify_bearer_dedicated_bearer_fail.LW
p98
aVtc_324_110_af_payload_after_ack_rab_assignment_partially_accepted_3gdt.LW
p99
aVtc_324_113_af_no_frca_service_request_data_rab_partially_setup_3gdt.LW
p100
aVtc_324_144_af_rab_assignment_resp_downgrade_qos_dedicated_bearer.LW
p101
aVtc_324_137_af_service_request_data_only_utran_not_allowed_3gdt.LW
p102
aVtc_324_313_ef_reset_from_hss_service_request_after_ack.LW
p103
aVtc_324_324_ef_service_req_signalling_initial_ue_handle_wf_rab.LW
p104
aVtc_195_208_mme_logging_maximum_modify_eps_bearer_context.LW
p105
aVtc_326_344_Service_Request_with_unknown_STMSI_Update_Location_Answer_timeout.LW
p106
aVtc_219_131_s3_handover_w_to_l_with_cl_two_pdns_one_failed_sgw_relocation.LW
p107
aVtc_322_029_smooth_move_af_security_mode_reject.LW
p108
aVtc_322_050_smooth_move_ebt_rau_after_move.LW
p109
aVtc_290_056_Timer_Based_GBR_Deact__delete_bearer_request_ho_to_non_3gpp_wf_release_access_bearer_response_before_timer_expires.LW
p110
aVtc_241_431_intra_rau_with_bearer_sgw_unchange_2_pdns_with_one_modify_no_response.LW
p111
aVtc_241_711_inter_rau_dedicate_bearer_feature_off_and_pgw_delete_bearer_after_rau.LW
p112
aVtc_310_335_ef_dbr_non_voice_bearer_wf_forward_relocation_complete_and_forward_relocation_complete_ack.LW
p113
aVtc_578_02_check_parse_ebm_and_ci_eci_w.LW
p114
aVtc_286_118_pdn_disconnect_finished_pdn_connectivity_with_same_pti.LW
p115
aVtc_316_217_ISD_With_PDN_Impact_Two_PDN_One_PDN_Type_Change__Backup_UE.L14b
p116
aVtc_310_335_ef_dbr_non_voice_bearer_wf_forward_relocation_complete_and_forward_relocation_complete_ack.L14b
p117
aVtc_266_026_DownlinkDataFailureInd_repeat_paging_timer_small_local_restart.L14b
p118
aVtc_286_118_pdn_disconnect_finished_pdn_connectivity_with_same_pti.L14b
p119
aVtc_341_608_x2_activity_event_rau_to_gn_sgsn.L14b
p120
aVtc_327_167_recovery_intra_TAU_SGSN_Context_Request_while_waiting_for_Update_Location_Answer.L14b
p121
aVtc_103_702_CEA_timeout.L14b
p122
aVtc_578_52_check_uetracer_parser.LWG
p123
aVtc_202_431_mf_seamless_move_target_service_request_modifyBearerReq_onePdnMultiBearer_oneBearerFail.LWG
p124
aVtc_241_495_israu_new_gn_to_s4_pdp_to_bearer_with_10_secondary_pdp.LWG
p125
aVtc_241_618_intra_rau_with_dedicated_bearer_sgw_change_wait_rau_complete_handle_dbr.LWG
p126
aVtc_241_711_inter_rau_dedicate_bearer_feature_off_and_pgw_delete_bearer_after_rau.LWG
p127
aVtc_294_431_s1_intra_ho_tac_based_roaming_restriction_table_matched_blacklist_exemptedlist.LWG
p128
aVtc_251_62_l_to_w_to_l_with_cl_type_updateProcedure.LWG
p129
aVtc_232_511_static_routes__bfd_supervision_of_static_route_v6_on_Gom.LWG
p130
aVtc_327_046_recovery_intra_TAU_active_off_sgw_unchanged__sgsap_paging_wf_CSR_due_to_S11_linkdown.LWG
p131
aVtc_327_017_recovery_intra_TAU__uplink_Detach_Request_while_waiting_for_Ue_Backup_Response.LWG
p132
aVtc_39_921_ef_seamless_move_interrupted_by_normal_attach.LWG
p133
aVtc_357_439_wcdma_local_user_without_pdp_intra_rau_non_ip_area_to_ip_area.LWG
p134
aVtc_236_307_Activation_DtSelMode_5_APN_requested_wrong_SGSN_default_APN_in_APN_list_TAC_in_TAC_list.LWG
p135
aVtc_324_115_af_all_rab_fai_to_setup_after_ulr_3gdt.LWG
p136
aVtc_335_31_wifi_to_mobility_in_ecm_idle_af__cells_from_eNB_more_than_from_WIC.LWG
p137
aVtc_146_006_filter_denyAllPkts_overEth.LWG
p138
aVtc_298_690_S4_3GDT_Service_request_wait_MBR_ef_delete_bearer_request_lbi.LWG
p139
aVtc_214_099_large_and_sctp_restart.LWG
p140
aVtc_286_118_pdn_disconnect_finished_pdn_connectivity_with_same_pti.LWG
p141
aVtc_310_335_ef_dbr_non_voice_bearer_wf_forward_relocation_complete_and_forward_relocation_complete_ack.LWG
p142
aVtc_326_272_Periodic_Intra_TAU_with_unknown_GUTI_after_combined_attach_then_MO_SMS.LWG
p143
aVtc_326_848_Geo_Service_Request_node_restart_Modify_Bearer_timeout_rollback_GUTI_followed_by_service_request.LWG
p144
aVtc_24_182_msc_pool_sgsn_pool_move_lu_accept_with_new_tmsi_from_msc_imsi_detach.LWG
p145
aVtc_23_09_transfer_to_primary_and_change_vip_addr.LWG
p146
aVtc_219_131_s3_handover_w_to_l_with_cl_two_pdns_one_failed_sgw_relocation.LWG
p147
aVtc_56_21_sending_recognized_information_in_log.LWG
p148
aVtc_92_05_60_old_format_counters.LWG
p149
aVtc_183_008_itc_sctp_encrypted.LWG
p150
aVtc_241_711_inter_rau_dedicate_bearer_feature_off_and_pgw_delete_bearer_after_rau.W14b
p151
aVtc_207_023_ebm_server_connection_failure.WG14a
p152
aVtc_100_67_intra_w_to_g_mf_with_lawful_intercept.WG14a
p153
aVtc_324_112_af_service_request_default_bearer_fail_in_rab_assignment_non_3gdt.WG14a
p154
aVtc_92_05_60_old_format_counters.LWG
p155
aVtc_297_407_move_at_periodic_rau.LWG
p156
aVtc_310_335_ef_dbr_non_voice_bearer_wf_forward_relocation_complete_and_forward_relocation_complete_ack.LWG
p157
aVtc_275_073_tau_inter_new_no_update_location_response_sgsn00040258.LWG
p158
aVtc_26_058_activate_3_primary_contexts_different_policy_maps.LWG
p159
aVtc_248_453_inter_l_to_w_new_partially_succ_interfering_attach_request_received_wf_rau_complete.LWG
p160
aVtc_286_118_pdn_disconnect_finished_pdn_connectivity_with_same_pti.LWG
p161
aVtc_56_2_restart.LWG
p162
aVtc_56_4_abort.LWG
p163
aVtc_56_21_sending_recognized_information_in_log.LWG
p164
aVtc_241_711_inter_rau_dedicate_bearer_feature_off_and_pgw_delete_bearer_after_rau.LWG
p165
aVtc_251_62_l_to_w_to_l_with_cl_type_updateProcedure.LWG
p166
aVtc_220_025_csfb_to_1xrtt_ue_suspended_hss_reset.LWG
p167
aVtc_349_107_RAU_new_sgsn__Detach_Req_with_power_off_while_waiting_for_CCA_initial.LWG
p168
aVtc_304_237_emergency_intra_isc_control_mode_threshold_exceeded_ignore.LWG
p169
aVtc_23_13_israu_out.LWG
p170
aVtc_59_9_mtmsi_restart_counter.LWG
p171
aVtc_259_93_ef_provide_subscriber_information_service_request_w.LWG
p172
aVtc_183_008_itc_sctp_encrypted.LWG
p173
aVtc_12_134_attach_with_extended_mmumoc_iu_inactivity_timer.LWG
p174
aVtc_310_335_ef_dbr_non_voice_bearer_wf_forward_relocation_complete_and_forward_relocation_complete_ack.L14b
p175
aVtc_286_118_pdn_disconnect_finished_pdn_connectivity_with_same_pti.L14b
p176
aVtc_329_156_intra_tau_rr_restricted_plmn_change.L14b
p177
aVtc_43_005_s1ap_setup.L14b
p178
aVtc_44_550_s1ap_reset_reset_resource.L14b
p179
aVtc_103_708_modify_peer_send_DPR.L14b
p180
aVtc_332_052_4_mf__paging_due_to_UBR_during_paging_due_to_DBR_latest_with_higher_prio.L14b
p181
aVtc_26_077_israu_invalid_qos_neg.LW
p182
aVtc_241_618_intra_rau_with_dedicated_bearer_sgw_change_wait_rau_complete_handle_dbr.LW
p183
aVtc_578_32_check_ebm_para_statistics_ue_return_duration.LW
p184
aVtc_326_211_Intra_TAU_with_unknown_GUTI_backup_no_vector_change_Replication_Option.LW
p185
aVtc_28_052_mo_sms_homer_block_visiting_redirection.LW
p186
aVtc_286_118_pdn_disconnect_finished_pdn_connectivity_with_same_pti.LW
p187
aVtc_310_335_ef_dbr_non_voice_bearer_wf_forward_relocation_complete_and_forward_relocation_complete_ack.LW
p188
aVtc_12_cr3913_1_attach_invalid_imeisv_allowed.LW
p189
aVtc_11_091_activate_secondary_pdp_context_wrong_LinkedTI.LW
p190
aVtc_298_424_ms_init_deact_ef_delicated_non_gbr_bearer_deact_interfered_by_rab_release_request.LW
p191
aVtc_50_011_activate_interactive_camel_subscriber.LW
p192
aVtc_176_027_ms_flow_ctrl_conversational_ip.WG14a
p193
aVtc_236_311_HO_over_S3_3GDT_switchback_ef_delete_bearer_request_received_wf_rab_assignment_response.W14b
p194
aVtc_28_050_mo_sms_homer_no_block_redirection.W14b
p195
aVtc_298_691_S4_3GDT_Service_request_wait_Rab_Assignment_ef_delete_bearer_request.W14b
p196
aVtc_248_122_inter_l_to_w_new_detach_request_direct_transfer_received_wf_forward_relocation_complete_ack.W14b
p197
aVtc_81_010_israu_conversational.W14b
p198
aVtc_313_001_inter_new_srns_reloc_s16_without_sgw_change.W14b
p199
aVtc_298_440_ms_init_deact_ef_default_bearer_deact_with_rab_interfered_by_dedicate_bearer_deact_request.W14b
p200
aVtc_247_165_inter_w_to_l_old_wf_fwd_reloc_resp_interrupted_by_hss_reset_s6d.W14b
p201
aVtc_314_007_hss_init_qos_modification_gprs_data_mbr.W14b
p202
aVtc_314_018_hss_init_qos_modification_apn_ambr_3gdt.W14b
p203
aVtc_314_062_hss_init_qos_mod_mbc_timeout.W14b
p204
aVtc_314_071_hss_init_qos_mod_ms_init_default_bearer_deac_tdi_true_after_mbfi.W14b
p205
aVtc_314_089_hss_init_qos_mod_wf_ubr_ef_delete_bearer_request_for_default_bearer.W14b
p206
aVtc_241_420_israu_new_sgw_change_4_pdn_buffer_ubr_s6d_on.W14b
p207
aVtc_321_010_s4_logging_s6d_inter_rau_w2l_old_hss_reset.W14b
p208
aVtc_236_091_service_request_si_iu_release_at_sgw_flow_si_cancel_location.W14b
p209
aVtc_313_254_inter_new_srns_reloc_s16_with_sgw_change_reset_received_from_hss_wf_update_location_ack.W14b
p210
aVtc_325_008_inter_old_srns_reloc_s4_to_gn_3gdt_flow.W14b
p211
aVtc_334_123_sgw_restart_mf_one_pdn_deactivate_APN_in_APNList_s8.W14b
p212
aVtc_349_120_RAU_back_in_20s__sx_reestablish.W14b
p213
aVtc_255_001_imsi_attach_wo_fallback.W14b
p214
aVtc_348_008_activation_mf__3gdt_fallback_two_tunnel_with_sx.W14b
p215
aVtc_348_028_deactivation__activate_primary_secondary_ms_deactivate_secondary_tdi_set.W14b
p216
aVtc_348_162_israu_af__new_sgsn_ggsn_return_failure_cause_paritially.W14b
p217
aVtc_348_250_3gpp_move__old_sgsn_periodic_triggered_with_sx.W14b
p218
aVtc_348_331_inter_psho_mf__w_to_l_multiple_pdp_no_cl_with_sx.W14b
p219
aVtc_348_372_inter_srns_reloc_af__new_sgsn_CCA_I_with_failure_cause_5003.W14b
p220
aVtc_250_12_hss_reset_many_subscribers.W14b
p221
aVtc_250_64_s6d_activation_with_GPRS_with_AllUE_selection_mode.W14b
p222
aVtc_250_72_s6d_EF_CLR_updateprocedure_attach_waiting_ULA.W14b
p223
aVtc_250_104_s6d_IDR_ARD_not_allowed.W14b
p224
aVtc_250_149_attach_rejected_invalid_odb_data.W14b
p225
aVtc_324_122_af_payload_after_ack_ula_timeout.W14b
p226
aVtc_324_368_ef_cancel_location_with_updateProcedure_wf_modify_bearer_response_after_ula_hss.W14b
p227
aVtc_89_020_attach_after_sms_toggled.W14b
p228
aVtc_322_161_smooth_move_ef_nas_after_paging_response_ignore.W14b
p229
aVtc_359_002_handover_from_non3gpp_mf_multi_pdns_activation.W14b
p230
aVtc_359_036_handover_from_non3gpp_af_create_session_resp_with_context_not_found_3gdt.W14b
p231
aVtc_359_064_handover_from_non3gpp_ef_deact_request_wf_create_session_resp_secondly.W14b
p232
aVtc_359_107_handover_from_3gpp_mf_Delete_Bearer_not_exist.W14b
p233
aVtc_359_138_handover_from_3gpp_PGW_init_deletion_EF_rab_release.W14b
p234
aVtc_219_131_s3_handover_w_to_l_with_cl_two_pdns_one_failed_sgw_relocation.LW
p235
aVtc_286_118_pdn_disconnect_finished_pdn_connectivity_with_same_pti.LW
p236
aVtc_204_1309_mme_eps_ho__ho_required_intra_same_sgw_wf_authentication_information_answer_security_failure_during_tau.LW
p237
aVtc_195_208_mme_logging_maximum_modify_eps_bearer_context.LW
p238
aVtc_23_13_israu_out.LW
p239
aVtc_11_091_activate_secondary_pdp_context_wrong_LinkedTI.LW
p240
aVtc_310_115_4_af__no_ho_cancel_response_from_SGSN_after_handover_cancelled.LW
p241
aVtc_310_335_ef_dbr_non_voice_bearer_wf_forward_relocation_complete_and_forward_relocation_complete_ack.LW
p242
aVtc_22_016_wcdma_change_of_position_reject_due_to_camel_no_answer.LW
p243
aVtc_26_057_ms_initiated_pdp_context_modification_ms_wants_conversational_2.LW
p244
aVtc_103_701_MME_restarts.LW
p245
aVtc_103_1000_modify_diameter_peer_prio.LW
p246
aVtc_237_100_mme_eps_irat_ho_source_type_a_emc_preparation_failure.LW
p247
aVtc_237_306_mme_eps_irat_Gn_ho_source__With_fwd_rel_resp_accepted_but_with_failedbearers.LW
p248
aVtc_238_264_mme_eps_irat_Gn_ho_tau_ula_dia_avp_occurs_too_many_times_severe_nw_failure_for_roamer.LW
p249
aVtc_284_106_pdn_connectivity_modify_bearer_failure_no_context_from_sgw.L14b
p250
aVtc_310_335_ef_dbr_non_voice_bearer_wf_forward_relocation_complete_and_forward_relocation_complete_ack.L14b
p251
aVtc_286_118_pdn_disconnect_finished_pdn_connectivity_with_same_pti.L14b
p252
aVtc_239_620_inter_rau_new_with_bearer_sgw_not_change_isd_odb_bit0_wf_rau_compl_deactivation.G14b
p253
aVtc_251_62_l_to_w_to_l_with_cl_type_updateProcedure.LWG
p254
aVtc_665_6_dp_block_deblock_with_traffic.LWG
p255
aVtc_103_408_diameterConnectionDown_ipv6_alarm.LWG
p256
aVtc_321_091_mt_sms_mf.LWG
p257
aVtc_23_13_israu_out.LWG
p258
aVtc_23_09_transfer_to_primary_and_change_vip_addr.LWG
p259
aVtc_298_236_SIBD_S4_Modify_Bearer_failed_Default_Bearer_SystemFailure.LWG
p260
aVtc_288_204_pgw_init_bearer_mod_QoS_UE_reject_for_all_bearers.LWG
p261
aVtc_179_318_Ccheck_TraceCollectionIpv6server.LWG
p262
aVtc_183_008_itc_sctp_encrypted.LWG
p263
aVtc_194_505_Notification_during_Intra_TAU_without_SGW_Relocation_HSS_Reset_Before_TAU.LWG
p264
aVtc_92_05_60_old_format_counters.LWG
p265
aVtc_304_124_uplink_nas_intra_tau_control_mode_threshold_exceeded_usc_reject_lead_to_implicit_detach_wf_icsr.LWG
p266
aVtc_231_281_activate_pdp_request_ignore_during_s4_pdp_deactivating.LWG
p267
aVtc_248_458_inter_l_to_w_new_partially_succ_detach_request_direct_transfer_received_wf_rau_complete.LWG
p268
aVtc_39_004_attach_intra_periodic_triggers_attach_intra_periodic_rau_target.LWG
p269
aVtc_39_601_mas_unsucc_fwd_reloc_resp_mandatory_ie_missing_stop_source.LWG
p270
aVtc_39_921_ef_seamless_move_interrupted_by_normal_attach.LWG
p271
aVtc_203_202_mme_eps_ho_source_without_sgw_relocation_pdn_missing_in_response.LWG
p272
aVtc_286_118_pdn_disconnect_finished_pdn_connectivity_with_same_pti.LWG
p273
aVtc_236_307_Activation_DtSelMode_5_APN_requested_wrong_SGSN_default_APN_in_APN_list_TAC_in_TAC_list.LWG
p274
aVtc_310_335_ef_dbr_non_voice_bearer_wf_forward_relocation_complete_and_forward_relocation_complete_ack.LWG
p275
aVtc_320_072_ue_trace_ptmsi_conflict_with_another_ms.LWG
p276
aVtc_219_134_s3_handover_w_to_l_relocation_cancel_wf_forward_relocation_response.LWG
p277
aVtc_219_131_s3_handover_w_to_l_with_cl_two_pdns_one_failed_sgw_relocation.LWG
p278
aVtc_335_46_wifi_to_mobility_in_ecm_idle_unknown_user_af__estimation_response_from_eNB_after_timeout.L14b
p279
aVtc_262_1055_imsi_attach_with_csg_id_is_rejected.L14b
p280
aVtc_578_32_check_ebm_para_statistics_ue_return_duration.L14b
p281
aVtc_310_335_ef_dbr_non_voice_bearer_wf_forward_relocation_complete_and_forward_relocation_complete_ack.L14b
p282
aVtc_274_370_Intra_and_pTAU__ms_network_cap_set_in_tau_request_interrupted_by_cbr.L14b
p283
aVtc_286_118_pdn_disconnect_finished_pdn_connectivity_with_same_pti.L14b
p284
aVtc_310_335_ef_dbr_non_voice_bearer_wf_forward_relocation_complete_and_forward_relocation_complete_ack.LWG
p285
aVtc_26_058_activate_3_primary_contexts_different_policy_maps.LWG
p286
aVtc_665_22_sr_then_gain.LWG
p287
aVtc_56_21_sending_recognized_information_in_log.LWG
p288
aVtc_251_62_l_to_w_to_l_with_cl_type_updateProcedure.LWG
p289
aVtc_103_701_MME_restarts.LWG
p290
aVtc_236_307_Activation_DtSelMode_5_APN_requested_wrong_SGSN_default_APN_in_APN_list_TAC_in_TAC_list.LWG
p291
aVtc_12_512_pmm_undefined_attach_when_updating_location_interfered_by_rnc_reset.LWG
p292
aVtc_340_03_validation_move_g_filter_imsi_all_detach_trigger.LWG
p293
aVtc_59_9_mtmsi_restart_counter.LWG
p294
aVtc_209_180_handover_w_to_l_source_s4_sgsn.LWG
p295
aVtc_319_033_act_pdp_mf_table_matched_low_priority.LWG
p296
aVtc_92_05_60_old_format_counters.LWG
p297
aVtc_97_035_inter_sgsn_psho_mf_with_lawful_intercept.LWG
p298
aVtc_183_008_itc_sctp_encrypted.LWG
p299
aVtc_179_318_Ccheck_TraceCollectionIpv6server.LWG
p300
aVtc_39_771_mas_rnc_reset_when_wf_ptmsi_realloc_cmpl_source.LWG
p301
aVtc_214_099_large_and_sctp_restart.LWG
p302
aVtc_194_971_reset_from_hss_during_waiting_location_report__idr_flags_ef.LWG
p303
aVtc_286_118_pdn_disconnect_finished_pdn_connectivity_with_same_pti.LWG
p304
aVtc_31_048_service_request_ul_fails_semantic_error.LWG
p305
aVtc_24_132_msc_pool_ngaf_gs_null_sgsn_reset_false_alert_reject_gs_cause_0.LWG
p306
aVtc_306_1331_ef_seamless_move_target_receive_delete_subscriber.LWG
p307
aVtc_195_208_mme_logging_maximum_modify_eps_bearer_context.LWG
p308
aVtc_326_274_Periodic_Intra_TAU_with_unknown_GUTI_old_SGW_unavailable.LWG
p309
aVtc_259_93_ef_provide_subscriber_information_service_request_w.LWG
p310
aVtc_259_106_ef_tads_s4_interfere_inter_rau_old_w.LWG
p311
aVtc_313_281_inter_new_srns_reloc_s16_with_sgw_change_downlink_data_notification_with_cause_received_wf_rau_complete.WG14a
p312
aVtc_236_048_s4_3gdt_deactivation_during_waiting_for_modify_bearer_rsp_in_activation_procedure_no_context.LW
p313
aVtc_304_020_intruder_imsi_attach_when_correct_ue_attaching__control_mode_threshold_exceeded_usc_reject_congestion.LW
p314
aVtc_298_730_nrspca_downlink_data_notification.LW
p315
aVtc_310_335_ef_dbr_non_voice_bearer_wf_forward_relocation_complete_and_forward_relocation_complete_ack.LW
p316
aVtc_28_048_mo_sms_old_cdr_format_r6.LW
p317
aVtc_284_351_pdn_connectivity_pb_activate_1_dedicated_bearer_interrupted_by_path_switch_request.LW
p318
aVtc_286_118_pdn_disconnect_finished_pdn_connectivity_with_same_pti.LW
p319
aVtc_23_09_transfer_to_primary_and_change_vip_addr.LW
p320
aVtc_313_281_inter_new_srns_reloc_s16_with_sgw_change_downlink_data_notification_with_cause_received_wf_rau_complete.LW
p321
aVtc_326_215_Intra_TAU_Recovery_node_restart_combined_type_Location_Update_timeout.LW
p322
aVtc_326_223_Intra_TAU_Recovery_fail_Identity_Response_timeout_then_Recover_successful.LW
p323
aVtc_39_771_mas_rnc_reset_when_wf_ptmsi_realloc_cmpl_source.LW
p324
aVtc_325_010_inter_old_srns_reloc_s4_to_gn_no_cancel_location_from_hss_purge_ue.W14b
p325
aVtc_349_106_RAU_new_sgsn__Normal_Detach_while_waiting_for_CCA_initial.W14b
p326
aVtc_349_302_Inter_new_srns_reloc__Relocation_Cancel_Req_while_waiting_for_Relocation_Ack.W14b
p327
aVtc_250_64_s6d_activation_with_GPRS_with_AllUE_selection_mode.W14b
p328
aVtc_250_91_s6d_cli_get_subscriber_detail_eps_subscription.W14b
p329
aVtc_250_120_sgsn_init_detach_for_reattach_interfer_by_ms_detach_request.W14b
p330
aVtc_250_174_s6d_CLR_initial_attach_without_clr_flag.W14b
p331
aVtc_324_124_af_service_request_data_ula_imsi_unknown.W14b
p332
aVtc_324_213_ef_attach_request_abort_wf_rab_assignment_response_direct_transfer.W14b
p333
aVtc_334_107_sgw_restart_mf_restoration_trigger_by_ReleaseAccessBearerResponse.W14b
p334
aVtc_334_137_sgw_restart_mf_multiple_pdn_two_s5_delete_and_one_s8_delete.W14b
p335
aVtc_334_165_sgw_restart_mf_multiple_pdn_s5_deactivation_and_s8_relocation.W14b
p336
aVtc_348_006_activation_mf__same_nsapi_secondary_exists_with_sx.W14b
p337
aVtc_348_023_deactivation__hlr_init_cancel_location_subscriber_withdraw.W14b
p338
aVtc_348_102_israu_mf__new_sgsn_multiple_pdp_diff_sapc_with_sx.W14b
p339
aVtc_348_170_israu_af__new_sgsn_partial_apn_with_3gdt_prefix.W14b
p340
aVtc_348_266_smooth_move_af__new_sgsn_update_location_ack_failed.W14b
p341
aVtc_348_366_inter_srns_reloc_af__new_sgsn_ggsn_returns_failure_cause.W14b
p342
aVtc_231_733_activation_tac_based_apn_redirection_dnsfail_succeed.W14b
p343
aVtc_314_073_hss_init_qos_mod_ms_init_dedicated_bearer_deac_after_mbfi.W14b
p344
aVtc_314_088_hss_init_qos_mod_wf_ubr_ef_cancel_location.W14b
p345
aVtc_312_005_inter_old_srns_reloc_s16_with_sgw_change_one_pdn_with_dedicate_bearer_partially_success.W14b
p346
aVtc_38_39_israu_new_sgsn_old_sgsn_supports_gtp_v0_no_resources_in_ggsn.W14b
p347
aVtc_38_80_intra_rau_new_rnc_with_authentication_wrong_ptmsi_signature.W14b
p348
aVtc_359_003_handover_from_non3gpp_mf_one_pdn_activation_3gdt.W14b
p349
aVtc_359_065_handover_from_non3gpp_ef_create_bearer_request.W14b
p350
aVtc_359_105_handover_from_3gpp_mf_tobeDeact_Notify_UE_true.W14b
p351
aVtc_359_143_handover_from_3gpp_pgw_init_deletion_ef_sgsn_deact_Notify_ue_false.W14b
p352
aVtc_255_012_imsi_attach_fallback_off.W14b
p353
aVtc_248_165_inter_l_to_w_new_iu_release_request_none_user_inactivity_received_wf_modify_bearer_response.W14b
p354
aVtc_12_134_attach_with_extended_mmumoc_iu_inactivity_timer.W14b
p355
aVtc_310_335_ef_dbr_non_voice_bearer_wf_forward_relocation_complete_and_forward_relocation_complete_ack.L14b
p356
aVtc_262_1055_imsi_attach_with_csg_id_is_rejected.L14b
p357
aVtc_286_118_pdn_disconnect_finished_pdn_connectivity_with_same_pti.L14b
p358
aVtc_326_245_Intra_TAU_Recovery_TAU_Complete_timeout.L14b
p359
aVtc_214_910_combined_tau_intra_insert_subscriber_data_interference.LW
p360
aVtc_214_1140_la_selection_mf_oldlapreferred_prau_during_ue_restoration.LW
p361
aVtc_39_601_mas_unsucc_fwd_reloc_resp_mandatory_ie_missing_stop_source.LW
p362
aVtc_348_369_inter_srns_reloc_af__new_sgsn_update_location_ack_failed.LW
p363
aVtc_267_215_Service_Request__PDN_Connectivity_Request_while_waiting_for_Modify_Bearer_Response.LW
p364
aVtc_23_09_transfer_to_primary_and_change_vip_addr.LW
p365
aVtc_308_023_HSS_Init_QoS_Modification__ISD_with_odb_bit0_while_wf_ucm_resp_after_ubr.LW
p366
aVtc_310_335_ef_dbr_non_voice_bearer_wf_forward_relocation_complete_and_forward_relocation_complete_ack.LW
p367
aVtc_199_83_imsi_attach_S11_echo_alarm.LW
p368
aVtc_236_181_hard_ho_intra_rau_with_3gdt_wf_release_access_bearer_resp_si_cancel_location_update.LW
p369
aVtc_335_152_Locator_Restart__HO_GA_Change.LW
p370
aVtc_12_134_attach_with_extended_mmumoc_iu_inactivity_timer.LW
p371
aVtc_12_182_wcdma_repeat_paging_with_old_ptmsi.LW
p372
aVtc_219_131_s3_handover_w_to_l_with_cl_two_pdns_one_failed_sgw_relocation.LW
p373
aVtc_241_431_intra_rau_with_bearer_sgw_unchange_2_pdns_with_one_modify_no_response.LW
p374
aVtc_241_621_israu_new_with_bearer_detach_after_context_response.LW
p375
aVtc_238_264_mme_eps_irat_Gn_ho_tau_ula_dia_avp_occurs_too_many_times_severe_nw_failure_for_roamer.LW
p376
aVtc_286_118_pdn_disconnect_finished_pdn_connectivity_with_same_pti.LW
p377
aVtc_262_063_attach_tai_not_supported.LW
p378
aVtc_251_62_l_to_w_to_l_with_cl_type_updateProcedure.LWG
p379
aVtc_92_05_60_old_format_counters.LWG
p380
aVtc_92_06_10_pm_job_log_content.LWG
p381
aVtc_59_9_mtmsi_restart_counter.LWG
p382
aVtc_195_208_mme_logging_maximum_modify_eps_bearer_context.LWG
p383
aVtc_262_756_attach_handover_indication_override_then_release_connection.LWG
p384
aVtc_199_89_G_attach_S4_echo_N3_times_response_no_alarm.LWG
p385
aVtc_183_008_itc_sctp_encrypted.LWG
p386
aVtc_286_118_pdn_disconnect_finished_pdn_connectivity_with_same_pti.LWG
p387
aVtc_346_026_PDN_Connectivity__CCA_I_using_configured_timer_interval.LWG
p388
aVtc_12_134_attach_with_extended_mmumoc_iu_inactivity_timer.LWG
p389
aVtc_12_512_pmm_undefined_attach_when_updating_location_interfered_by_rnc_reset.LWG
p390
aVtc_26_058_activate_3_primary_contexts_different_policy_maps.LWG
p391
aVtc_335_74_From_Wifi_ECM_Connected_MF__No_Decision.LWG
p392
aVtc_250_150_isd_with_odb_init_deactivation.LWG
p393
aVtc_56_2_restart.LWG
p394
aVtc_241_181_intra_rau_completed_with_bearer_create_failed_interfere_by_context_request.LWG
p395
aVtc_214_099_large_and_sctp_restart.LWG
p396
aVtc_261_10_isd_tads_intra_tau_vistor_voip_restricted_by_ga_cc90_imsins_cc91.LWG
p397
aVtc_97_035_inter_sgsn_psho_mf_with_lawful_intercept.LWG
p398
aVtc_166_428_rnc_initiated_rab_release_interfered_by_rnc_initiated_iu_release_request.LWG
p399
aVtc_100_21_inter_w_to_g_old_mf_with_lawful_intercept.LWG
p400
aVtc_578_51_check_parse_compressed_ebm.LWG
p401
aVtc_310_335_ef_dbr_non_voice_bearer_wf_forward_relocation_complete_and_forward_relocation_complete_ack.LWG
p402
aVtc_23_13_israu_out.LWG
p403
aVtc_23_09_transfer_to_primary_and_change_vip_addr.LWG
p404
aVtc_247_70_inter_w_to_l_old_3gdt_forward_relocation_complete_notify_timeout.LWG
p405
aVtc_198_002_TEID.LWG
p406
aVtc_198_001_UDPPort.LWG
p407
aVtc_198_004_TLLI.LWG
p408
aVtc_198_003_FlowLabel.LWG
p409
aVtc_198_006_TCPPort.LWG
p410
aVtc_198_007_GTPUError.LWG
p411
aVtc_198_008_GTPUEchoReq.LWG
p412
aVtc_198_010_TCPUDPPortToNCB.LWG
p413
aVtc_198_009_S102FixedPort.LWG
p414
aVtc_198_011_UDPFragments.LWG
p415
aVtc_198_012_TCPFragments.LWG
p416
aVtc_198_013_SCTPv4ToAllValidIndex.LWG
p417
aVtc_198_014_SCTPv4ToInvalidIndex.LWG
p418
aVtc_198_015_SCTPv4VerTag0.LWG
p419
aVtc_198_017_SCTPv4EmptyIndexMap.LWG
p420
aVtc_198_016_SCTPv4IndexEntry00.LWG
p421
aVtc_198_018_ICMPv4DstUnreachSCTP.LWG
p422
aVtc_198_019_ICMPv4EchoReq.LWG
p423
aVtc_198_020_SCTPFragments.LWG
p424
aVtc_198_021_SCTPv4VerTag0MultipleNetworks.LWG
p425
aVtc_198_030_UDPv6_TEID.LWG
p426
aVtc_198_035_SCTPv6ToAllValidIndex.LWG
p427
aVtc_198_031_TCPv6_DNS.LWG
p428
aVtc_198_036_SCTPv6ToInvalidIndex.LWG
p429
aVtc_198_037_SCTPv6VerTag0.LWG
p430
aVtc_198_038_SCTPv6IndexEntry00.LWG
p431
aVtc_198_039_SCTPv6EmptyIndexMap.LWG
p432
aVtc_198_040_ICMPv6DstUnreachGTPv2.LWG
p433
aVtc_198_041_ICMPv6EchoReq.LWG
p434
aVtc_198_043_ICMPv6DstUnreachSCTP.LWG
p435
aVtc_198_042_ICMPv6EchoResp.LWG
p436
aVtc_198_044_ICMPv6DstUnreachGTPv2NoPort.LWG
p437
aVtc_198_045_ICMPv6DstUnreachTCPv6Port.LWG
p438
aVtc_198_051_IPv6_traffic_flow.LWG
p439
aVtc_198_050_IPv4_traffic_flow.LWG
p440
aVtc_198_052_IPv4_traffic_flow_multiple_vpn.LWG
p441
aVtc_198_053_IPv6_traffic_flow_multiple_vpn.LWG
p442
aVtc_198_054_IPv4_load_sharing.LWG
p443
aVtc_198_055_IPv6_load_sharing.LWG
p444
aVtc_198_056_IPv4_route_selection.LWG
p445
aVtc_198_057_IPv6_route_selection.LWG
p446
aVtc_198_058_IPv4_no_route.LWG
p447
aVtc_198_059_IPv6_no_route.LWG
p448
aVtc_198_060_TCPv6Port.LWG
p449
aVtc_198_061_TCPUDPPortToNCB_IPv6.LWG
p450
aVtc_347_126_Seamless_Move_Target__TAU_Request_while_waiting_for_CCA_initial.LWG
p451
aVtc_347_281_PDN_Disconnect__RAR_while_waiting_Delete_Session_Response.LWG
p452
aVtc_259_06_provide_subscriber_information_w_periodic_rau.LWG
p453
aVtc_259_67_ef_provide_subscriber_information_attach_old_w.LWG
p454
aVtc_259_93_ef_provide_subscriber_information_service_request_w.LWG
p455
aVtc_84_80_provide_subscriber_locaiton_ef_paging_interrupted_by_attach.LWG
p456
aVtc_103_1007_secondary_dpl_set_and_then_emptied.LWG
p457
aVtc_239_314_inter_rau_new_with_bearer_sgw_changed_s4_followed_by_a_intra_rau_but_OLP.WG14a
p458
aVtc_322_029_smooth_move_af_security_mode_reject.WG14a
p459
aVtc_313_281_inter_new_srns_reloc_s16_with_sgw_change_downlink_data_notification_with_cause_received_wf_rau_complete.WG14a
p460
aVtc_578_51_check_parse_compressed_ebm.WG14a
p461
aVtc_578_51_check_parse_compressed_ebm.G14b
p462
aVtc_84_80_provide_subscriber_locaiton_ef_paging_interrupted_by_attach.G14b
p463
aVtc_298_691_S4_3GDT_Service_request_wait_Rab_Assignment_ef_delete_bearer_request.W14b
p464
aVtc_334_178_sgw_restart_af_create_session_with_default_bearer_failed_idle.W14b
p465
aVtc_241_711_inter_rau_dedicate_bearer_feature_off_and_pgw_delete_bearer_after_rau.W14b
p466
aVtc_248_422_inter_l_to_w_one_pdn_default_rab_failed_dedicate_rab_ok_without_sgw_change.W14b
p467
aVtc_248_419_inter_l_to_w_new_two_pdns_with_target_gw_interface_gp_and_ipv6_user_plan_off.W14b
p468
aVtc_23_09_transfer_to_primary_and_change_vip_addr.LW
p469
aVtc_44_004_small_restart__sctp_fe_restart.LW
p470
aVtc_103_024_modify_diameter_peer_switch_peer_numbers.LW
p471
aVtc_241_316_israu_new_gn_to_s4_pdp_to_bearer_3gdt_on_to_on.LW
p472
aVtc_286_118_pdn_disconnect_finished_pdn_connectivity_with_same_pti.LW
p473
aVtc_260_271_receive_sm_start_req_while_wf_setup_iteration.LW
p474
aVtc_193_402_auth_vectors_answer_from_hss_with_more_vectors_than_requested.LW
p475
aVtc_248_303_inter_l_to_w_new_ms_connected_handover_from_mme.LW
p476
aVtc_262_900_attach_apn_redirection_license_off_no_apn.LW
p477
aVtc_313_281_inter_new_srns_reloc_s16_with_sgw_change_downlink_data_notification_with_cause_received_wf_rau_complete.LW
p478
aVtc_284_351_pdn_connectivity_pb_activate_1_dedicated_bearer_interrupted_by_path_switch_request.LW
p479
aVtc_310_335_ef_dbr_non_voice_bearer_wf_forward_relocation_complete_and_forward_relocation_complete_ack.LW
p480
aVtc_306_1112_ef_seamless_move_target_receive_detach_request_without_switchoff_wf_mbr.LW
p481
aVtc_23_13_israu_out.LWG
p482
aVtc_23_09_transfer_to_primary_and_change_vip_addr.LWG
p483
aVtc_194_506_Notification_during_Intra_MME_TAU_without_SGW_Relocation_Procedure.LWG
p484
aVts_99_175_intra_g_to_w_old_EF6_psho_cancel_after_relocation_complete.LWG
p485
aVtc_199_120_s11_path_management_small_restarted.LWG
p486
aVtc_196_181_nrspca_during_the_same_nsapi_ggsn_initiate_pdp_deactivation_rab_release.LWG
p487
aVtc_12_26_attach_ptmsi_new_sgsn_error_mandatory_ie_incorrect.LWG
p488
aVtc_100_67_intra_w_to_g_mf_with_lawful_intercept.LWG
p489
aVtc_289_031_Modify_bearer__Downlink_nas_transport_meanwhile_path_switch_request_HO_success.LWG
p490
aVtc_262_018_2_imsi_attach_create_session_failed_context_non_existent.LWG
p491
aVtc_219_131_s3_handover_w_to_l_with_cl_two_pdns_one_failed_sgw_relocation.LWG
p492
aVtc_92_05_60_old_format_counters.LWG
p493
aVtc_276_360_Inter_TAU_New_MME__ISD_with_odb_bit0_interfering_while_waiting_for_initial_context_setup_response.LWG
p494
aVtc_326_233_Intra_TAU_Recovery_fail_Security_Mode_Reject_then_Reattach.LWG
p495
aVtc_73_40_gtpu_sgsn_send_gpu_echo_request_w.LWG
p496
aVtc_56_21_sending_recognized_information_in_log.LWG
p497
aVtc_310_335_ef_dbr_non_voice_bearer_wf_forward_relocation_complete_and_forward_relocation_complete_ack.LWG
p498
aVtc_183_015_itc_sctp_trace_packets.LWG
p499
aVtc_183_008_itc_sctp_encrypted.LWG
p500
aVtc_195_208_mme_logging_maximum_modify_eps_bearer_context.LWG
p501
aVtc_578_51_check_parse_compressed_ebm.LWG
p502
aVtc_286_118_pdn_disconnect_finished_pdn_connectivity_with_same_pti.LWG
p503
aVtc_298_691_S4_3GDT_Service_request_wait_Rab_Assignment_ef_delete_bearer_request.LWG
p504
aVtc_179_318_Ccheck_TraceCollectionIpv6server.LWG
p505
aVtc_160_008_reset_rnc_initiated_sr.LWG
p506
aVtc_264_080_MME_Initiated_Detach__UE_ECM_Idle__Paging_Failed_due_to_OLP.LWG
p507
aVtc_250_105_ignore_IDR_when_EPS_sub_downgrade_GPRS_sub.LWG
p508
aVtc_251_62_l_to_w_to_l_with_cl_type_updateProcedure.LWG
p509
aVtc_578_51_check_parse_compressed_ebm.G14b
p510
aVtc_297_407_move_at_periodic_rau.G14b
p511
aVtc_310_335_ef_dbr_non_voice_bearer_wf_forward_relocation_complete_and_forward_relocation_complete_ack.L14b
p512
aVtc_286_118_pdn_disconnect_finished_pdn_connectivity_with_same_pti.L14b
p513
aVtc_327_166_recovery_intra_TAU_SGSN_Context_Request_while_waiting_for_Update_Location_Answer_sgw_change.L14b
p514
aVtc_220_587_csfb_to_1xrtt_in_extended_service_request_during_attach_waiting_for_modify_bearer_response.L14b
p515
aVtc_263_003_Attach_Flow__Attach_Request_Same_IEs_IP_NOK_while_waiting_for_Delete_Session_Response.L14b
p516
aVtc_266_026_DownlinkDataFailureInd_repeat_paging_timer_small_local_restart.L14b
p517
aVtc_313_281_inter_new_srns_reloc_s16_with_sgw_change_downlink_data_notification_with_cause_received_wf_rau_complete.WG14a
p518
aVtc_324_388_ef_mo_sms_wf_ula.WG14a
p519
aVtc_578_51_check_parse_compressed_ebm.WG14a
p520
aVtc_322_161_smooth_move_ef_nas_after_paging_response_ignore.WG14a
p521
aVtc_304_105_intra_tau_success__control_mode_threshold_not_reached.L14b
p522
aVtc_286_118_pdn_disconnect_finished_pdn_connectivity_with_same_pti.L14b
p523
aVtc_262_1055_imsi_attach_with_csg_id_is_rejected.L14b
p524
aVtc_578_33_check_ebm_para_statistics_enb_sn.L14b
p525
aVtc_327_491_recovery_service_request__enb_configuration_update_while_waiting_for_retrieval_response.L14b
p526
aVtc_266_026_DownlinkDataFailureInd_repeat_paging_timer_small_local_restart.L14b
p527
aVtc_237_021_mme_eps_irat_ho_source__relocation_cancel_request_before_forw_rel_resp.L14b
p528
aVtc_225_624_exp_enb_configuration_update_while_wf_ue_context_release_request.L14b
p529
aVtc_225_672_mt_sms_idle_mode_no_lai_in_paging_req_param_tamr_false.L14b
p530
aVtc_225_691_mt_call_paging_req_no_lai_associated_msc_while_waiting_to_imsi_detach.L14b
p531
aVtc_225_701_csfb_to_g_without_dtm_in_ecm_idle.L14b
p532
aVtc_306_1342_ef_seamless_move_target_receive_Insert_Subscription_Data_TADS.L14b
p533
aVtc_220_587_csfb_to_1xrtt_in_extended_service_request_during_attach_waiting_for_modify_bearer_response.L14b
p534
aVtc_265_002_Detach_Flow_UE_init__Attach_Request_while_waiting_for_Delete_Session_Response.L14b
p535
aVtc_310_335_ef_dbr_non_voice_bearer_wf_forward_relocation_complete_and_forward_relocation_complete_ack.L14b
p536
aVtc_219_131_s3_handover_w_to_l_with_cl_two_pdns_one_failed_sgw_relocation.LW
p537
aVtc_194_084_hss_reset_after_large_restart.LW
p538
aVtc_289_010_Modify_Bearer__Delete_Bearer_Req_HO_non_3gpp_while_wf_UE_cxt_modification_resp.LW
p539
aVtc_38_81_intra_rau_new_rnc_with_authentication_no_ptmsi_signature.LW
p540
aVtc_286_118_pdn_disconnect_finished_pdn_connectivity_with_same_pti.LW
p541
aVtc_310_335_ef_dbr_non_voice_bearer_wf_forward_relocation_complete_and_forward_relocation_complete_ack.LW
p542
aVtc_347_320_HSS_init_Bearer_Modification__Location_Report_while_waiting_update_Bearer_request.LW
p543
aVtc_26_058_activate_3_primary_contexts_different_policy_maps.LW
p544
aVtc_250_105_ignore_IDR_when_EPS_sub_downgrade_GPRS_sub.LW
p545
aVtc_39_771_mas_rnc_reset_when_wf_ptmsi_realloc_cmpl_source.LW
p546
aVtc_297_407_move_at_periodic_rau.G14b
p547
aVtc_19_252_pool_move_by_ues_3gsm_2sgsn.G14b
p548
aVtc_39_920_ef_seamless_move_interrupted_by_transferred_attach.LWG
p549
aVtc_183_008_itc_sctp_encrypted.LWG
p550
aVtc_92_05_60_old_format_counters.LWG
p551
aVtc_236_056_s4_3gdt_delete_bearer_during_modify_bearer_in_service_request_procedure.LWG
p552
aVtc_103_602_georedundant_realm_routing.LWG
p553
aVtc_157_4_snmp_consistent.LWG
p554
aVtc_179_318_Ccheck_TraceCollectionIpv6server.LWG
p555
aVtc_194_109_tau_ul_fails_all_3gpp_access_restricted.LWG
p556
aVtc_275_073_tau_inter_new_no_update_location_response_sgsn00040258.LWG
p557
aVtc_310_335_ef_dbr_non_voice_bearer_wf_forward_relocation_complete_and_forward_relocation_complete_ack.LWG
p558
aVtc_298_424_ms_init_deact_ef_delicated_non_gbr_bearer_deact_interfered_by_rab_release_request.LWG
p559
aVtc_298_691_S4_3GDT_Service_request_wait_Rab_Assignment_ef_delete_bearer_request.LWG
p560
aVtc_298_723_service_request_ef_ms_deact_ti_default_wf_rab_assignment_response.LWG
p561
aVtc_363_011_cli_get_ra.LWG
p562
aVtc_73_41_gtpu_sgsn_dont_send_gpu_echo_request_w.LWG
p563
aVtc_313_228_inter_new_srns_reloc_s16_with_sgw_change_rau_request_initial_ue_received_wf_rau_complete.LWG
p564
aVtc_259_67_ef_provide_subscriber_information_attach_old_w.LWG
p565
aVtc_141_028_eth_v6_traffic_conf_deconf_vlan.LWG
p566
aVtc_361_510_rau_l_to_w_S4SGSN_check_old_qos_failed_node_function_deactivate_pdp_after_rau_on.LWG
p567
aVtc_23_13_israu_out.LWG
p568
aVtc_23_09_transfer_to_primary_and_change_vip_addr.LWG
p569
aVtc_251_62_l_to_w_to_l_with_cl_type_updateProcedure.LWG
p570
aVtc_286_118_pdn_disconnect_finished_pdn_connectivity_with_same_pti.LWG
p571
aVtc_214_099_large_and_sctp_restart.LWG
p572
aVtc_665_8_dp_reboot_init_cm_restart_with_traffic_reload_device.LWG
p573
aVtc_100_67_intra_w_to_g_mf_with_lawful_intercept.LWG
p574
aVtc_12_cr3913_1_attach_invalid_imeisv_allowed.LWG
p575
aVtc_241_432_intra_rau_with_bearer_sgw_unchange_2_pdns_3gdt.LWG
p576
aVtc_321_091_mt_sms_mf.LWG
p577
aVtc_322_161_smooth_move_ef_nas_after_paging_response_ignore.W14b
p578
aVtc_311_223_intra_srns_reloc_s4_sgw_change_wf_rau_complete_interrupted_by_downlink_data_notification_with_cause.W14b
p579
aVtc_327_172_recovery_intra_TAU_SGSN_Context_Request_while_waiting_for_Location_Update_Response.L14b
p580
aVtc_286_118_pdn_disconnect_finished_pdn_connectivity_with_same_pti.L14b
p581
aVtc_195_554_mme_logging_eps_handover_target_over_gn_inter_relocation_cancel_Request_received.L14b
p582
aVtc_310_107_af__CC_No_radio_resources_available_in_response_from_MSC.L14b
p583
aVtc_310_335_ef_dbr_non_voice_bearer_wf_forward_relocation_complete_and_forward_relocation_complete_ack.L14b
p584
aVtc_103_860_ue_trace_retransmit.L14b
p585
aVtc_236_041_s4_3gdt_detach_modify_bearer_response_reject_in_active_procedure.W14b
p586
aVtc_51_096_reloc_wf_update_location_response_interfered_by_attach_on_new_iu.W14b
p587
aVtc_52_44_inter_old_srns_reloc_main_flow_interfered_by_insert_subscr.W14b
p588
aVtc_248_419_inter_l_to_w_new_two_pdns_with_target_gw_interface_gp_and_ipv6_user_plan_off.W14b
p589
aVtc_236_056_s4_3gdt_delete_bearer_during_modify_bearer_in_service_request_procedure.LWG
p590
aVtc_309_108_modify_event_job_notification.LWG
p591
aVtc_92_05_60_old_format_counters.LWG
p592
aVtc_241_462_israu_new_with_10_dedicated_bearers_sgw_not_change_mf_s4.LWG
p593
aVtc_241_711_inter_rau_dedicate_bearer_feature_off_and_pgw_delete_bearer_after_rau.LWG
p594
aVtc_311_24_intra_srns_reloc_s4_with_sgw_change_with_11_pdns.LWG
p595
aVtc_59_11_sequence_check_replica_values.LWG
p596
aVtc_208_108_dual_stack_legacy_versions_ipv4.LWG
p597
aVtc_31_064_activate_loc_not_confirmed_ul_fails_network_failure.LWG
p598
aVtc_214_099_large_and_sctp_restart.LWG
p599
aVtc_342_950_3gdt_one_tunnel_to_two_tunnel.LWG
p600
aVtc_73_41_gtpu_sgsn_dont_send_gpu_echo_request_w.LWG
p601
aVtc_39_921_ef_seamless_move_interrupted_by_normal_attach.LWG
p602
aVtc_251_62_l_to_w_to_l_with_cl_type_updateProcedure.LWG
p603
aVtc_263_321_Attach_Flow__Attach_Request_Different_IEs_IP_OK_while__waiting_for_combined_attach_response.LWG
p604
aVtc_44_004_small_restart__sctp_fe_restart.LWG
p605
aVtc_259_67_ef_provide_subscriber_information_attach_old_w.LWG
p606
aVtc_259_93_ef_provide_subscriber_information_service_request_w.LWG
p607
aVtc_56_2_restart.LWG
p608
aVtc_56_21_sending_recognized_information_in_log.LWG
p609
aVtc_310_335_ef_dbr_non_voice_bearer_wf_forward_relocation_complete_and_forward_relocation_complete_ack.LWG
p610
aVtc_183_008_itc_sctp_encrypted.LWG
p611
aVtc_23_13_israu_out.LWG
p612
aVtc_286_118_pdn_disconnect_finished_pdn_connectivity_with_same_pti.LWG
p613
aVtc_219_131_s3_handover_w_to_l_with_cl_two_pdns_one_failed_sgw_relocation.LW
p614
aVtc_44_004_small_restart__sctp_fe_restart.LW
p615
aVtc_294_373_s1_intra_handover_type_a_no_tau_received.LW
p616
aVtc_103_024_modify_diameter_peer_switch_peer_numbers.LW
p617
aVtc_103_854_error_code_DIAMETER_INVALID_AVP_VALUE.LW
p618
aVtc_103_1136_sx_resend__CCR_I_not_resend_for_application_unsupported.LW
p619
aVtc_12_512_pmm_undefined_attach_when_updating_location_interfered_by_rnc_reset.LW
p620
aVtc_286_118_pdn_disconnect_finished_pdn_connectivity_with_same_pti.LW
p621
aVtc_284_350_pdn_connectivity_interrupted_by_path_switch_request.LW
p622
aVtc_298_541_sgsn_init_pdn_deact_ef_cancellocation_subscriptionWithdraw_wf_delete_session_resp.LW
p623
aVtc_310_115_4_af__no_ho_cancel_response_from_SGSN_after_handover_cancelled.LW
p624
aVtc_310_335_ef_dbr_non_voice_bearer_wf_forward_relocation_complete_and_forward_relocation_complete_ack.LW
p625
aVtc_334_203_path_failure_intra_rau_inter_rnc_idle_3gdt_mf.LW
p626
aVtc_12_26_attach_ptmsi_new_sgsn_error_mandatory_ie_incorrect.LWG
p627
aVtc_214_099_large_and_sctp_restart.LWG
p628
aVtc_214_1025_la_selection_mf_with_la_selection_profile_with_ue_capability_not_match.LWG
p629
aVtc_92_05_60_old_format_counters.LWG
p630
aVtc_327_013_recovery_intra_TAU__initial_Attach_Request_while_waiting_for_Create_Session_Response.LWG
p631
aVtc_251_62_l_to_w_to_l_with_cl_type_updateProcedure.LWG
p632
aVtc_256_175_mme_eps_srvcc_ho_source_cs_only_ue_release_request_wf_srvcc_ps_to_cs_response.LWG
p633
aVtc_275_073_tau_inter_new_no_update_location_response_sgsn00040258.LWG
p634
aVtc_103_860_ue_trace_retransmit.LWG
p635
aVtc_241_405_israu_new_with_16m_flag_allowed_in_context_response_and_epc_cap_in_rau_req_transfer_to_new_tcw.LWG
p636
aVtc_219_131_s3_handover_w_to_l_with_cl_two_pdns_one_failed_sgw_relocation.LWG
p637
aVtc_73_41_gtpu_sgsn_dont_send_gpu_echo_request_w.LWG
p638
aVtc_283_034_GW_Deactivate_Bearer__Default_bearer_Delete_Interrupt_Dedicated_Bearer_Delete.LWG
p639
aVtc_39_921_ef_seamless_move_interrupted_by_normal_attach.LWG
p640
aVtc_23_13_israu_out.LWG
p641
aVtc_286_118_pdn_disconnect_finished_pdn_connectivity_with_same_pti.LWG
p642
aVtc_310_335_ef_dbr_non_voice_bearer_wf_forward_relocation_complete_and_forward_relocation_complete_ack.LWG
p643
aVtc_316_271_RAU_To_S4_SGSN_With_Two_PDN_Connections_Subpool_Id_Change__Delete_UE_Backup.LWG
p644
aVtc_11_091_activate_secondary_pdp_context_wrong_LinkedTI.LWG
p645
aVtc_274_441_Intra_TAU_Detach_Request_while_waiting_for_Create_Session_Response_2PDNs_partially_failure_sgw_unavailable.LWG
p646
aVtc_183_008_itc_sctp_encrypted.LWG
p647
aVtc_59_9_mtmsi_restart_counter.LWG
p648
aVtc_231_227_PGW_Initiated_Modification_EARP_idle_one_tunnel.LWG
p649
aVtc_24_131_msc_pool_ngaf_gs_null_handle_second_alert_request.LWG
p650
aVtc_204_207_mme_eps_ho_target__multi_pdn_sgw_relocation__failed_modify_bearer_request.LWG
p651
aVtc_286_118_pdn_disconnect_finished_pdn_connectivity_with_same_pti.LW
p652
aVtc_23_13_israu_out.LW
p653
aVtc_23_09_transfer_to_primary_and_change_vip_addr.LW
p654
aVtc_219_131_s3_handover_w_to_l_with_cl_two_pdns_one_failed_sgw_relocation.LW
p655
aVtc_310_335_ef_dbr_non_voice_bearer_wf_forward_relocation_complete_and_forward_relocation_complete_ack.LW
p656
aVtc_38_303_israu_new_sgsn_no_imsi_in_sgsn_context_response.LW
p657
aVtc_313_212_inter_new_srns_reloc_s16_without_sgw_change_transfered_attach_request_received_wf_forward_reloc_complete_ack.W14b
p658
aVtc_313_281_inter_new_srns_reloc_s16_with_sgw_change_downlink_data_notification_with_cause_received_wf_rau_complete.W14b
p659
aVtc_324_328_ef_service_req_data_direct_transfer_ingore_wf_update_location.W14b
p660
aVtc_248_164_inter_l_to_w_new_iu_release_request_none_user_inactivity_received_wf_forward_relocation_complete_ack.W14b
p661
aVtc_248_419_inter_l_to_w_new_two_pdns_with_target_gw_interface_gp_and_ipv6_user_plan_off.W14b
p662
aVtc_311_223_intra_srns_reloc_s4_sgw_change_wf_rau_complete_interrupted_by_downlink_data_notification_with_cause.W14b
p663
aVtc_342_064_x2_secondary_pdp_from_ms.W14b
p664
aVtc_236_041_s4_3gdt_detach_modify_bearer_response_reject_in_active_procedure.W14b
p665
aVtc_236_104_s4_3gdt_based_on_sr_inter_rau_then_rau_back_within_20s_with_new_ptmsi.W14b
p666
aVtc_11_433_ggsn_initiated_deactivation_interfered_by_rab_release_request.W14b
p667
aVtc_304_014_guti_attach_reject__not_known_in_old_mme_control_mode_threshold_exceeded.L14b
p668
aVtc_103_602_georedundant_realm_routing.L14b
p669
aVtc_310_335_ef_dbr_non_voice_bearer_wf_forward_relocation_complete_and_forward_relocation_complete_ack.L14b
p670
aVtc_273_200_tau_intra_roaming_restricted_ta.L14b
p671
aVtc_268_003_release_request_with_gbr_bearers_not_user_inactivity.L14b
p672
aVtc_244_532_SLg_Location_Request__deleteSubscriber_wwf_Location_Response_from_ESMLC.L14b
p673
aVtc_244_913_mt_lr_ecm_connected_connected_oriented_info_LPPa_wf_esmlc_response_and_mobility_stable_for_LPP.L14b
p674
aVtc_286_118_pdn_disconnect_finished_pdn_connectivity_with_same_pti.L14b
p675
aVtc_239_620_inter_rau_new_with_bearer_sgw_not_change_isd_odb_bit0_wf_rau_compl_deactivation.G14b
p676
aVtc_15_068_successful_inter_normal_rau_fallback_to_gtp_97_new_sgsn.G14b
p677
aVtc_241_633_intra_rau_modify_bearer_response_all_failed_reject_ubr.LW
p678
aVtc_250_105_ignore_IDR_when_EPS_sub_downgrade_GPRS_sub.LW
p679
aVtc_39_601_mas_unsucc_fwd_reloc_resp_mandatory_ie_missing_stop_source.LW
p680
aVtc_304_266_tau_from_gnsgsn_2g_control_mode_wf_delete_all_bearers_response_exception_case_reject_congestion_subscriber_cancelled.LW
p681
aVtc_26_058_activate_3_primary_contexts_different_policy_maps.LW
p682
aVtc_318_130_sgw_restart_mf_relocation_triggered_by_service_request.LW
p683
aVtc_193_029_auth_failure_non_consecutive_synch_failures.LW
p684
aVtc_44_340_sctp_counter_index_SGsAP.LW
p685
aVtc_44_004_small_restart__sctp_fe_restart.LW
p686
aVtc_23_13_israu_out.LW
p687
aVtc_23_09_transfer_to_primary_and_change_vip_addr.LW
p688
aVtc_324_455_ef_detach_request_poweroff_abort_wf_rab_assignment_response_wf_update_location_hss_service_req_data.LW
p689
aVtc_12_31_attach_ptmsi_new_sgsn_imsi_not_known_with_ap_index_transfer.LW
p690
aVtc_12_512_pmm_undefined_attach_when_updating_location_interfered_by_rnc_reset.LW
p691
aVtc_340_14_validation_move_w_filter_all_apn_with_two_pdns.LW
p692
aVtc_310_335_ef_dbr_non_voice_bearer_wf_forward_relocation_complete_and_forward_relocation_complete_ack.LW
p693
aVtc_219_131_s3_handover_w_to_l_with_cl_two_pdns_one_failed_sgw_relocation.LW
p694
aVtc_286_118_pdn_disconnect_finished_pdn_connectivity_with_same_pti.LW
p695
aVtc_38_81_intra_rau_new_rnc_with_authentication_no_ptmsi_signature.LW
p696
aVtc_53_57_inter_new_srns_reloc_rab_not_allocated_interrupt_by_reset.W14b
p697
aVtc_248_86_inter_l_to_w_new_inactive_pdp_context_status_dedicated_inactive.W14b
p698
aVtc_313_281_inter_new_srns_reloc_s16_with_sgw_change_downlink_data_notification_with_cause_received_wf_rau_complete.W14b
p699
aVtc_298_691_S4_3GDT_Service_request_wait_Rab_Assignment_ef_delete_bearer_request.W14b
p700
aVtc_310_335_ef_dbr_non_voice_bearer_wf_forward_relocation_complete_and_forward_relocation_complete_ack.L14b
p701
aVtc_286_118_pdn_disconnect_finished_pdn_connectivity_with_same_pti.L14b
p702
aVtc_266_026_DownlinkDataFailureInd_repeat_paging_timer_small_local_restart.L14b
p703
aVtc_275_214_tau_inter_new_emergency_rrc_flag_sau_limit_reached.L14b
p704
aVtc_267_505_Service_Request_SGW_unavailable__Service_Request_while_wf_Create_Session_Response.L14b
p705
aVtc_285_006_PDN_Connectivity_Pb__Delete_default_bearer_request_while_wf_modify_bearer_response.L14b
p706
aVtc_103_903_primary_or_secondary_realm_routing_own_realm.L14b
p707
aVtc_73_44_ue_init_service_request_buffer_packets_with_3gdt.WG14a
p708
aVtc_324_456_ef_detach_request_poweroff_abort_wf_modify_bearer_response_wf_update_location_hlr_ack_timeout.WG14a
p709
aVtc_241_066_israu_new_gn_to_s4_pdp_to_bearer_two_pdp_one_arp_higher_than_policy_map.LWG
p710
aVtc_241_432_intra_rau_with_bearer_sgw_unchange_2_pdns_3gdt.LWG
p711
aVtc_286_118_pdn_disconnect_finished_pdn_connectivity_with_same_pti.LWG
p712
aVtc_214_028_combined_attach_interfering_s1_reset.LWG
p713
aVtc_214_099_large_and_sctp_restart.LWG
p714
aVtc_214_812_mo_sms_active_cs_service_notification_when_emm_service_req_state.LWG
p715
aVtc_236_117_s4_3gdt_based_on_sr_dt_to_non_dt_gtpu_data_received_not_all_rabs_reestablished.LWG
p716
aVtc_23_09_transfer_to_primary_and_change_vip_addr.LWG
p717
aVtc_23_13_israu_out.LWG
p718
aVtc_347_236_GW_Dedicated_Bearer_Deactivate__Location_Report_while_waiting_for_eRAB_Release_Response.LWG
p719
aVtc_326_281_Intra_TAU_combined_type_with_unknown_GUTI_SGW_unavailable.LWG
p720
aVtc_310_335_ef_dbr_non_voice_bearer_wf_forward_relocation_complete_and_forward_relocation_complete_ack.LWG
p721
aVtc_251_62_l_to_w_to_l_with_cl_type_updateProcedure.LWG
p722
aVtc_157_4_snmp_consistent.LWG
p723
aVtc_103_1004_secondary_dpl_used_when_all_peers_in_dpl_unavailable_no_sls.LWG
p724
aVtc_84_80_provide_subscriber_locaiton_ef_paging_interrupted_by_attach.LWG
p725
aVtc_321_092_mt_sms_error.LWG
p726
aVtc_238_026_mme_eps_irat_ho_target__multi_pdn_sgw_relocation_setup_fails.LWG
p727
aVtc_250_105_ignore_IDR_when_EPS_sub_downgrade_GPRS_sub.LWG
p728
aVtc_263_321_Attach_Flow__Attach_Request_Different_IEs_IP_OK_while__waiting_for_combined_attach_response.LWG
p729
aVtc_245_301_inter_rau_insert_entry_into_interface_cache.LWG
p730
aVtc_92_05_60_old_format_counters.LWG
p731
aVtc_52_12_inter_old_relocation_cancel_no_response.LWG
p732
aVtc_334_176_sgw_restart_af_create_session_with_dedicated_bearer_qos_failed.LWG
p733
aVtc_313_118_inter_new_srns_reloc_s16_without_sgw_change_with_dedicate_bearer_but_failed_to_setup_default_bearer.LWG
p734
aVtc_183_008_itc_sctp_encrypted.LWG
p735
aVtc_304_020_intruder_imsi_attach_when_correct_ue_attaching__control_mode_threshold_exceeded_usc_reject_congestion.LWG
p736
aVtc_219_131_s3_handover_w_to_l_with_cl_two_pdns_one_failed_sgw_relocation.LWG
p737
aVtc_309_108_modify_event_job_notification.LWG
p738
aVtc_241_318_israu_new_gn_to_s4_two_pdp_to_bearer_3gdt_off_to_on.W14b
p739
aVtc_12_512_pmm_undefined_attach_when_updating_location_interfered_by_rnc_reset.W14b
p740
aVtc_313_281_inter_new_srns_reloc_s16_with_sgw_change_downlink_data_notification_with_cause_received_wf_rau_complete.W14b
p741
aVtc_334_178_sgw_restart_af_create_session_with_default_bearer_failed_idle.W14b
p742
aVtc_266_026_DownlinkDataFailureInd_repeat_paging_timer_small_local_restart.L14b
p743
aVtc_256_099_mme_eps_srvcc_ho_source_cs_only_handover_cancel_emergency_call_sti_true.L14b
p744
aVtc_310_335_ef_dbr_non_voice_bearer_wf_forward_relocation_complete_and_forward_relocation_complete_ack.L14b
p745
aVtc_263_204_Attach_Flow_Pb__Attach_Request_Same_IEs_while_waiting_for_Attach_Complete.L14b
p746
aVtc_286_118_pdn_disconnect_finished_pdn_connectivity_with_same_pti.L14b
p747
aVtc_324_069_af_modify_bearer_dedicated_bearer_fail.LWG
p748
aVtc_324_226_ef_detach_request_abort_wf_modify_bearer_response_wf_update_location_hlr_ack_timeout.LWG
p749
aVtc_25_07_activate_ms99_req_subsc_qos_streaming_highest_background.LWG
p750
aVtc_183_008_itc_sctp_encrypted.LWG
p751
aVtc_103_1102_fallback_to_imsins_success.LWG
p752
aVtc_286_118_pdn_disconnect_finished_pdn_connectivity_with_same_pti.LWG
p753
aVtc_302_201_1xrtt_srvcc_2_gbr_bearers.LWG
p754
aVtc_236_307_Activation_DtSelMode_5_APN_requested_wrong_SGSN_default_APN_in_APN_list_TAC_in_TAC_list.LWG
p755
aVtc_231_281_activate_pdp_request_ignore_during_s4_pdp_deactivating.LWG
p756
aVtc_310_335_ef_dbr_non_voice_bearer_wf_forward_relocation_complete_and_forward_relocation_complete_ack.LWG
p757
aVtc_251_62_l_to_w_to_l_with_cl_type_updateProcedure.LWG
p758
aVtc_92_05_60_old_format_counters.LWG
p759
aVtc_306_1034_ef_seamless_move_target_handle_initial_tau_request_sr_ongoing_wf_mbr_move_going.LWG
p760
aVtc_52_07_inter_old_relocation_cancel.LWG
p761
aVtc_322_029_smooth_move_af_security_mode_reject.LWG
p762
aVtc_214_099_large_and_sctp_restart.LWG
p763
aVtc_298_702_pgw_init_modification_ef_ms_deact_req_tdi_false_ti_default_wf_modify_accept.LWG
p764
aVtc_298_832_NRSPCA_S4_nsapi_collision_after_RAU_one_pdn_failed.LWG
p765
aVtc_59_11_sequence_check_replica_values.LWG
p766
aVtc_335_01_mobility_to_wifi_in_ecm_connected_mf__decision_granted__1_pdn_deactived_ipv4.LWG
p767
aVtc_23_09_transfer_to_primary_and_change_vip_addr.LWG
p768
aVtc_12_134_attach_with_extended_mmumoc_iu_inactivity_timer.LWG
p769
aVtc_56_21_sending_recognized_information_in_log.LWG
p770
aVtc_259_67_ef_provide_subscriber_information_attach_old_w.LWG
p771
aVtc_166_409_israu_new_service_req_reestablish_streaming_dt_ggsn_address_2T.LWG
p772
aVtc_208_159_payload_msisdn_imsi_imei_tcp_udp_tcp_v4.LWG
p773
aVtc_194_506_Notification_during_Intra_MME_TAU_without_SGW_Relocation_Procedure.LWG
p774
aVtc_193_102_no_answer_from_hss_emm_cause_17.LW
p775
aVtc_23_13_israu_out.LW
p776
aVtc_23_09_transfer_to_primary_and_change_vip_addr.LW
p777
aVtc_47_003_unstable_ue_ap_loss.LW
p778
aVtc_22_036_restart.LW
p779
aVtc_195_208_mme_logging_maximum_modify_eps_bearer_context.LW
p780
aVtc_310_335_ef_dbr_non_voice_bearer_wf_forward_relocation_complete_and_forward_relocation_complete_ack.LW
p781
aVtc_12_128_attach_imsi_imei_check_no_response_from_eir.LW
p782
aVtc_286_118_pdn_disconnect_finished_pdn_connectivity_with_same_pti.LW
p783
aVtc_298_424_ms_init_deact_ef_delicated_non_gbr_bearer_deact_interfered_by_rab_release_request.LW
p784
aVtc_298_690_S4_3GDT_Service_request_wait_MBR_ef_delete_bearer_request_lbi.LW
p785
aVtc_44_004_small_restart__sctp_fe_restart.LW
p786
aVtc_44_520_s1ap_device_broking__x2_ho_no_cid.LW
p787
aVtc_219_131_s3_handover_w_to_l_with_cl_two_pdns_one_failed_sgw_relocation.LW
p788
aVtc_324_043_af_mbr_higher_than_policymap.LW
p789
aVtc_284_350_pdn_connectivity_interrupted_by_path_switch_request.LW
p790
aVtc_241_301_israu_new_create_session_failed_and_paging_timeout.LW
p791
aVtc_334_176_sgw_restart_af_create_session_with_dedicated_bearer_qos_failed.W14b
p792
aVtc_241_318_israu_new_gn_to_s4_two_pdp_to_bearer_3gdt_off_to_on.W14b
p793
aVtc_241_705_intra_rau_with_sgw_change_isd_with_odb_bit_15_EF_interfer_by_update_bearer_req.W14b
p794
aVtc_241_733_service_request_wf_modify_bearer_response_interfered_by_activate_pdp_context.W14b
p795
aVtc_236_025_s4_3gdt_error_indication_from_sgw_to_rnc.W14b
p796
aVtc_236_049_s4_3gdt_rnc_reset_during_waiting_for_modify_beaer_rsp_in_service_request_procedure.W14b
p797
aVtc_324_371_ef_cancel_location_intialAttach_wf_modify_bearer_response_service_req_data.W14b
p798
aVtc_23_09_transfer_to_primary_and_change_vip_addr.LWG
p799
aVtc_92_05_60_old_format_counters.LWG
p800
aVtc_92_09_20_autoupdate.LWG
p801
aVtc_251_62_l_to_w_to_l_with_cl_type_updateProcedure.LWG
p802
aVtc_310_335_ef_dbr_non_voice_bearer_wf_forward_relocation_complete_and_forward_relocation_complete_ack.LWG
p803
aVtc_241_066_israu_new_gn_to_s4_pdp_to_bearer_two_pdp_one_arp_higher_than_policy_map.LWG
p804
aVtc_241_159_israu_old_wait_for_sgsn_context_ack_interfere_by_reset_and_detach.LWG
p805
aVtc_297_407_move_at_periodic_rau.LWG
p806
aVtc_236_169_s4_3gdt_with_2_pdn_9_dedicated_bearer_service_request_all_rab_setup_successful.LWG
p807
aVtc_194_962_ue_release_request_user_inactivity_during_waiting_for_location_report__idr_flags_ef.LWG
p808
aVtc_286_118_pdn_disconnect_finished_pdn_connectivity_with_same_pti.LWG
p809
aVtc_110_005_inbound_outbound_pf_rule_cli_ip.LWG
p810
aVtc_199_120_s11_path_management_small_restarted.LWG
p811
aVtc_250_74_s6d_EF_hss_reset_waiting_delete_session_response.LWG
p812
aVtc_260_218_receive_m3_reset_req_while_wf_m3_start_resp_with_resp.LWG
p813
aVtc_298_691_S4_3GDT_Service_request_wait_Rab_Assignment_ef_delete_bearer_request.LWG
p814
aVtc_298_820_activate_secondary_pdp_context_request_with_NSAPI_exist_dedicate_bearer_idle_state.LWG
p815
aVtc_73_41_gtpu_sgsn_dont_send_gpu_echo_request_w.LWG
p816
aVtc_183_008_itc_sctp_encrypted.LWG
p817
aVtc_665_22_sr_then_gain.LWG
p818
aVtc_84_80_provide_subscriber_locaiton_ef_paging_interrupted_by_attach.LWG
p819
aVtc_209_19_target_info_query_ms_unknown.LWG
p820
aVtc_219_131_s3_handover_w_to_l_with_cl_two_pdns_one_failed_sgw_relocation.LWG
p821
aVtc_334_178_sgw_restart_af_create_session_with_default_bearer_failed_idle.LWG
p822
aVtc_214_099_large_and_sctp_restart.LWG
p823
aVtc_56_21_sending_recognized_information_in_log.LWG
p824
aVtc_310_335_ef_dbr_non_voice_bearer_wf_forward_relocation_complete_and_forward_relocation_complete_ack.L14b
p825
aVtc_103_603_georedundant_modify_diameter_peer.L14b
p826
aVtc_302_111_mme_connection_closed_power_switched_off.L14b
p827
aVtc_364_205_af_maximum_nr_of_buffering_UEs_reached.L14b
p828
aVtc_266_026_DownlinkDataFailureInd_repeat_paging_timer_small_local_restart.L14b
p829
aVtc_286_118_pdn_disconnect_finished_pdn_connectivity_with_same_pti.L14b
p830
aVtc_284_350_pdn_connectivity_interrupted_by_path_switch_request.L14b
p831
aVtc_342_147_update_one_of_two_targets_ccoutput.LW
p832
aVtc_209_70_israu_new_sgsn_one_pdp_context_wrong_pdp_type.LW
p833
aVtc_26_061_israu_mbr_set_to_zero_streaming.LW
p834
aVtc_26_058_activate_3_primary_contexts_different_policy_maps.LW
p835
aVtc_346_501_AF__TAU_Inter_New__No_SAPC_configured.LW
p836
aVtc_273_252_tau_intra__sgw_relocation_create_session_partially_accepted.LW
p837
aVtc_273_590_TAU_intra__active_flag_on_no_modify_bearer_response_sgw_unchange.LW
p838
aVtc_324_043_af_mbr_higher_than_policymap.LW
p839
aVtc_286_118_pdn_disconnect_finished_pdn_connectivity_with_same_pti.LW
p840
aVtc_310_335_ef_dbr_non_voice_bearer_wf_forward_relocation_complete_and_forward_relocation_complete_ack.LW
p841
aVtc_298_702_pgw_init_modification_ef_ms_deact_req_tdi_false_ti_default_wf_modify_accept.LW
p842
aVtc_219_131_s3_handover_w_to_l_with_cl_two_pdns_one_failed_sgw_relocation.LW
p843
aVtc_23_13_israu_out.LW
p844
aVtc_23_09_transfer_to_primary_and_change_vip_addr.LW
p845
aVtc_197_582_tai_list_management1.LW
p846
aVtc_241_405_israu_new_with_16m_flag_allowed_in_context_response_and_epc_cap_in_rau_req_transfer_to_new_tcw.LW
p847
aVtc_241_431_intra_rau_with_bearer_sgw_unchange_2_pdns_with_one_modify_no_response.LW
p848
aVtc_578_52_check_uetracer_parser.LW
p849
aVtc_274_603_combined_TAU_CS_Call_Paging_request_while_waiting_for_AIA.LW
p850
aVtc_236_039_s4_3gdt_detach_during_waiting_for_modify_bearer_rsp_in_active_procedure.LW
p851
aVtc_324_328_ef_service_req_data_direct_transfer_ingore_wf_update_location.WG14a
p852
aVtc_313_281_inter_new_srns_reloc_s16_with_sgw_change_downlink_data_notification_with_cause_received_wf_rau_complete.WG14a
p853
aVtc_286_118_pdn_disconnect_finished_pdn_connectivity_with_same_pti.LW
p854
aVtc_202_335_mf_seamless_move_by_qtt_1outof2_successful.LW
p855
aVtc_23_09_transfer_to_primary_and_change_vip_addr.LW
p856
aVtc_298_231_SIBD_S4_RAB_Reestablishment_failed.LW
p857
aVtc_219_131_s3_handover_w_to_l_with_cl_two_pdns_one_failed_sgw_relocation.LW
p858
aVts_336_001_access_request__access_request_while_waiting_for_eab_wifi_decision_response.LW
p859
aVtc_241_066_israu_new_gn_to_s4_pdp_to_bearer_two_pdp_one_arp_higher_than_policy_map.LW
p860
aVtc_103_701_MME_restarts.LW
p861
aVtc_103_603_georedundant_modify_diameter_peer.LW
p862
aVtc_26_144_SGSN_init_PDP_modify_GGSN_support_HLR_support_ARP.LW
p863
aVtc_248_86_inter_l_to_w_new_inactive_pdp_context_status_dedicated_inactive.LW
p864
aVtc_322_029_smooth_move_af_security_mode_reject.LW
p865
aVtc_195_208_mme_logging_maximum_modify_eps_bearer_context.LW
p866
aVtc_284_350_pdn_connectivity_interrupted_by_path_switch_request.L14b
p867
aVtc_306_1352_ef_seamless_move_target_buffer_provide_location_request_wf_frca_with_lppa.L14b
p868
aVtc_44_004_small_restart__sctp_fe_restart.L14b
p869
aVtc_286_118_pdn_disconnect_finished_pdn_connectivity_with_same_pti.L14b
p870
aVtc_103_850_error_code_DIAMETER_REALM_NOT_SERVED.L14b
p871
aVtc_103_860_ue_trace_retransmit.L14b
p872
aVtc_313_001_inter_new_srns_reloc_s16_without_sgw_change.W14b
p873
aVtc_38_17_israu_new_sgsn_unsuccessful_authentication.W14b
p874
aVtc_298_691_S4_3GDT_Service_request_wait_Rab_Assignment_ef_delete_bearer_request.W14b
p875
aVtc_320_005_s4_logging_ptmsi_attach_traced_by_imsi.LWG
p876
aVtc_320_057_activate_secondary_pdp_context_reject_from_sgsn.LWG
p877
aVtc_208_23_attach_detach_attach_imsi.LWG
p878
aVtc_306_011_ef_seamless_move_source_receive_detach_request_wf_frr_poweroff.LWG
p879
aVtc_306_114_ef_seamless_move_source_receive_sgsn_context_request_wf_modify_bearer_response.LWG
p880
aVtc_306_230_ef_seamless_move_source_receive_create_bearer_request.LWG
p881
aVtc_306_1025_ef_seamless_move_target_handle_initial_tau_request_sr_ongoing_wf_icsr_move_ends.LWG
p882
aVtc_306_1129_ef_seamless_move_target_receive_detach_request_with_switchoff_wf_lua_with_service_finished.LWG
p883
aVtc_306_1354_ef_seamless_move_target_buffer_provide_location_request_wf_lua_with_lppa.LWG
p884
aVtc_260_100_one_mbms_session_started_two_mce_response_timeout_one_mce_add.LWG
p885
aVtc_275_242_tau_inter_new_type_a_no_dedicated_emergency_bearer_transfered.LWG
p886
aVtc_275_852_tau_inter_new__active_flag_on_no_2nd_modify_bearer_response_sgw_unchange.LWG
p887
aVtc_225_117_mo_call_emergency_active_mode_ho_not_supported_with_msc_change_ps_available.LWG
p888
aVtc_225_411_mt_call_idle_mode_while_ps_paging_no_page_response.LWG
p889
aVtc_225_822_mt_csfb_idle_mode_combined_tau_as_paging_response_without_location_update.LWG
p890
aVtc_249_113_act_pdp_ctx_static_address_ipv4v6_gprs_sub.LWG
p891
aVtc_249_220_s6d_attach_with_odb_bit0_activate_s4_pdp_reject.LWG
p892
aVtc_316_01_MME_Status_Management__send_Echo_Request_receive_Echo_Response_in_N3T3.LWG
p893
aVtc_246_054_israu_new_l_to_g_sgw_change_downgrade_qos_ubr_before_rau_complete.LWG
p894
aVtc_194_149_cli_get_subscriber_combined_tau_when_turn_on_sms_over_sgs_and_csfb_to_wg.LWG
p895
aVtc_194_710_HSS_initiated_ISD_ue_context_modification_request_meanwhile_handover_required_HO_all_bearers_fail.LWG
p896
aVtc_194_968_cancel_location_update_procedure_from_hss_during_waiting_location_report__idr_flags_ef.LWG
p897
aVtc_310_124_af__SGSN_accepted_only_a_subset_of_PDN_Connections_in_FRResponse_new_SGW.LWG
p898
aVtc_312_006_inter_old_srns_reloc_s16_with_sgw_change_two_pdns_with_dedicate_bearer_partially_success.LWG
p899
aVtc_312_238_inter_old_srns_reloc_wf_cancel_location_interrupted_by_hlr_reset.LWG
p900
aVtc_293_229_X2_Based_HO_wo_SGW_change__s1_reset_then_back_to_old_eNodeB_by_SR_succeed.LWG
p901
aVtc_217_120_rau_to_sgsn_sgsn_context_request_other_sgsn_when_wf_20s_timeout.LWG
p902
aVtc_319_146_act_pdp_af_gw_blacklisting_pgw_blocked_no_pgw_response.LWG
p903
aVtc_244_053_mt_lr_provide_location_request_received_wf_location_report.LWG
p904
aVtc_244_917_mt_lr_connected_oriented_info_LPP_wf_esmlc_response_and_ecm_connected_for_LPPa.LWG
p905
aVtc_274_440_Intra_Tau_Attach_Request_while_waiting_for_Create_Session_Response_sgw_unavailable.LWG
p906
aVtc_292_115_x2_based_ho_roaming_restricted_service_request_old_ta.LWG
p907
aVtc_325_103_inter_old_srns_reloc_s4_to_gn_receives_forward_relocation_response_with_failed_cause_code.LWG
p908
aVtc_325_244_inter_old_srns_reloc_s4_to_gn_wf_fwd_reloc_compl_interrupted_by_gtpv2_context_request.LWG
p909
aVtc_92_05_60_old_format_counters.LWG
p910
aVtc_239_120_W2G_inter_rau_new_sgw_unchange_ubr_received_before_rau_complete.LWG
p911
aVtc_239_301_3_intra_rau_with_bearer_sgw_not_changed_hz_change_pdn_status_not_match_s4.LWG
p912
aVtc_239_515_sgsn_context_request_wait_modify_bearer_response_sgw_not_changed_s4.LWG
p913
aVtc_239_611_inter_rau_w_to_g_new_with_bearer_sgw_not_change_odb_bit_15_s4.LWG
p914
aVtc_302_126_mme_relocation_seamless_move_target_idle_imsi_min.LWG
p915
aVtc_261_06_tau_intra_voip_restricted_ga_cc91_imsins_cc90_cc91.LWG
p916
aVtc_318_267_sgw_restart_af_relocation_triggered_by_DDN_emergency_PDN.LWG
p917
aVtc_273_249_tau_intra__sgw_reloc_mult_pdn_bearerstatus_mismatch.LWG
p918
aVtc_273_612_tau_intra_periodic_SGW_unavailable__two_pdn_one_fail.LWG
p919
aVtc_218_512_tau_from_sgsn_tac_based_roaming_restriction_table_matched_whitelist.LWG
p920
aVtc_266_511_DDN_Service_Request_SGW_unavailable__initial_context_setup_timeout.LWG
p921
aVtc_247_14_inter_w_to_l_old_sgsn_four_pdn_with_two_pdn_failed_with_sgw_relocation.LWG
p922
aVtc_247_102_inter_w_to_l_old_interfering_direct_transfer_rau_request.LWG
p923
aVtc_247_165_inter_w_to_l_old_wf_fwd_reloc_resp_interrupted_by_hss_reset_s6d.LWG
p924
aVtc_288_223_pgw_init_bearer_mod_QoS_from_non_GBR_to_GBR.LWG
p925
aVtc_283_015_2_GW_Deactivate_Bearer__Create_Bearer_Request_while_wf_deactivate_eps_bearer_context_accept.LWG
p926
aVtc_31_064_activate_loc_not_confirmed_ul_fails_network_failure.LWG
p927
aVtc_332_091_mf__cs_paging_during_cs_paging_csfb_to_wg_latest_with_same_prio.LWG
p928
aVtc_192_007_oms_transition_states_start.LWG
p929
aVtc_73_41_gtpu_sgsn_dont_send_gpu_echo_request_w.LWG
p930
aVtc_294_327_intra_handover_with_sgw_relocation_no_response_from_target.LWG
p931
aVtc_231_082_activation_RAB_assignment_interrupted_by_insert_subscriber_data.LWG
p932
aVts_231_180_ignored_imsg_interfere_sgsn_init_deactivation.LWG
p933
aVtc_231_228_PGW_Initiated_Modification_rab_released_AF_No_RabAssignmentResponse.LWG
p934
aVtc_231_294_service_request_si_delete_bearer_paging_failed.LWG
p935
aVtc_231_636_PGW_init_modification_with_16m_flag_not_allowed_ambr_from_pgw_between_16m_and_policy_map.LWG
p936
aVtc_231_751_ubr_interference_with_service_request_when_downlink_data_arrive.LWG
p937
aVtc_342_150_pmm_idle_one_pdp_source.LWG
p938
aVtc_23_13_israu_out.LWG
p939
aVtc_23_09_transfer_to_primary_and_change_vip_addr.LWG
p940
aVtc_248_37_inter_l_to_w_new_two_pdns_all_modify_bearer_fail_with_sgw_change.LWG
p941
aVtc_248_122_inter_l_to_w_new_detach_request_direct_transfer_received_wf_forward_relocation_complete_ack.LWG
p942
aVtc_248_183_inter_l_to_w_new_interfering_sm_status.LWG
p943
aVtc_248_429_inter_l_to_w_new_two_pdns_all_failed_in_create_session_response.LWG
p944
aVtc_237_029_mme_eps_irat_ho_source__service_request_before_forw_rel_complete.LWG
p945
aVtc_237_401_mme_eps_irat_ho_source_with_csg_reject.LWG
p946
aVtc_322_094_smooth_move_ef_service_request_idle_ignore.LWG
p947
aVtc_322_154_smooth_move_ef_identification_request.LWG
p948
aVtc_363_018_mmi_get_ra.LWG
p949
aVtc_214_001_combined_attach_combined_detach.LWG
p950
aVtc_214_083_combined_attach_vlr_reset_service_request_trigger_imsi_detach_no_paging.LWG
p951
aVtc_214_212_mo_sms_interfering_location_update_reject_during_inter_handover_new.LWG
p952
aVtc_214_501_mt_sms_during_ongoing_mo_sms.LWG
p953
aVtc_214_1016_la_selection_mf_reselection_dyn_tailist_updated_csfb_off.LWG
p954
aVtc_214_1221_mt_sms_while_ps_paging_no_page_response.LWG
p955
aVtc_230_022_activate_2ndPDP_with_same_apn_without_dns_cache_uli_check.LWG
p956
aVtc_230_120_sgsn_init_detach_interfered_by_delete_bearer_request.LWG
p957
aVtc_230_208_PGW_init_modification_EF_ms_deactivate.LWG
p958
aVtc_230_406_HLR_Initiated_Detach_tz_change.LWG
p959
aVtc_230_570_dualstack_activate_ipv4_requested_ipv4v6_no_apn_subscribered_ipv4_or_ipv6_spt_ipv4_daf_on.LWG
p960
aVtc_56_21_sending_recognized_information_in_log.LWG
p961
aVtc_219_131_s3_handover_w_to_l_with_cl_two_pdns_one_failed_sgw_relocation.LWG
p962
aVtc_245_330_israu_new_l_to_w_with_sgw_unchange_2_pdn_buffer_ubr_after_update_location.LWG
p963
aVtc_335_43_wifi_to_mobility_in_ecm_idle_unknown_user_af__feature_off_in_mme.LWG
p964
aVtc_321_073_gn_logging_inter_srns_relocation_target_with_imeisv_using_imei_trace.LWG
p965
aVtc_52_12_inter_old_relocation_cancel_no_response.LWG
p966
aVtc_250_114_act_ipv4v6_pdp_ctx_idr_pdp_type_dual_to_single_eps.LWG
p967
aVtc_220_001_csfb_to_1xrtt_in_ecm_idle.LWG
p968
aVtc_220_052_csfb_to_1xrtt_emergency_with_CSG_ID.LWG
p969
aVtc_220_589_csfb_to_1xrtt_in_ecm_connected_extended_service_request_during_detach.LWG
p970
aVtc_238_090_DSD_EF__Receive_DSDR_when_Waiting_for_TAU_Complete_during_Inter_RAT_S3_HO_Procedure_Target_MME.LWG
p971
aVtc_238_154_mme_eps_irat_Gn_ho_target__imsi_analysis_fail.LWG
p972
aVtc_238_308_mme_eps_irat_Gn_ho_target__handover_out_no_pgw_init_add_or_fqdn.LWG
p973
aVtc_259_13_provide_subscriber_information_g_standby.LWG
p974
aVtc_297_073_intra_rau_with_redirect_attempt_sgsn_not_support_mocn.LWG
p975
aVtc_297_091_isc_g_to_w_intra_rau.LWG
p976
aVtc_297_209_inter_rau_new_s4_visitor_user_context_response_imsi_unknown.LWG
p977
aVtc_297_502_imsi_attach_roaming_update_loc_ack_with_cause_unexpected_data_value.LWG
p978
aVtc_296_032_ANR_Support__eNodeB_Configuration_Transfer_request_flow_with_16_addresses.LWG
p979
aVtc_334_125_sgw_restart_mf_one_pdn_deactivate_idle.LWG
p980
aVtc_334_208_path_failure_inter_rau_sgw_change_mf.LWG
p981
aVtc_284_040_pdn_connectivity_retransmission_from_ue.LWG
p982
aVtc_284_002_pdn_connectivity.LWG
p983
aVtc_284_611_pdn_connectivity_with_empty_apn_rejected_with_cause_33.LWG
p984
aVtc_276_458_Inter_TAU_New_MME__Sgs_Paging_SMS_while_wait_for_ue_context_release_complete.LWG
p985
aVtc_256_007_mme_eps_srvcc_ho_source_cs_only_mf_after_tau_after_s3_ho.LWG
p986
aVtc_256_103_mme_eps_srvcc_ho_source_cs_only_context_request_wf_release_access_bearers_response.LWG
p987
aVtc_256_252_srvcc_ho_source_cs_only_emergency_mf_after_emergency_attach_unauthenticated_imsi_slr_handover.LWG
p988
aVtc_324_062_af_frcn_fail.LWG
p989
aVtc_324_201_ef_attach_request_abort_wf_modify_bearer_response.LWG
p990
aVtc_324_256_ef_rau_request_wf_update_location_hss.LWG
p991
aVtc_324_393_af_gbr_bearer_admission_control_conversational.LWG
p992
aVtc_241_031_intra_rau_with_bearer_sgw_change_mf_s4.LWG
p993
aVtc_241_156_israu_old_wait_for_sgsn_context_ack_interfere_by_reset.LWG
p994
aVtc_241_424_intra_rau_w_sgw_change_2_pdn_buffer_2_ubr.LWG
p995
aVtc_241_432_intra_rau_with_bearer_sgw_unchange_2_pdns_3gdt.LWG
p996
aVtc_241_494_israu_new_gn_to_s4_pdp_to_bearer_one_streaming_one_interactive_inactive.LWG
p997
aVtc_241_625_israu_new_with_dedicated_bearer_fail_detach_after_rau_complete.LWG
p998
aVtc_241_713_inter_rau_dedicate_bearer_failed_ef_update_bearer_request_before_rau_accepted.LWG
p999
aVtc_241_1570_intra_rau_in_one_RNC_with_bearer_sgw_changed_af_create_session_failed.LWG
p1000
aVtc_241_1680_inter_rau_new_deactivation_init_by_odb_bit0.LWG
p1001
aVtc_304_202_emergency_inter_tau_reject__control_mode_threshold_exceeded.LWG
p1002
aVtc_304_121_initial_ue_intra_tau_control_mode_threshold_exceeded_usc_detach_wf_release_request_response.LWG
p1003
aVtc_304_237_emergency_intra_isc_control_mode_threshold_exceeded_ignore.LWG
p1004
aVtc_304_404_Service_Request__control_mode_threshold_not_reached.LWG
p1005
aVtc_304_492_initial_csfb_to_1xrtt_control_mode_threshold_exceeded_int_prot_nok_usc_detach_in_ecm_idle.LWG
p1006
aVtc_183_008_itc_sctp_encrypted.LWG
p1007
aVtc_262_096_emergency_imsi_attach_unauthentication_fails_in_ue_smc_fail.LWG
p1008
aVtc_262_084_emergency_imsi_attach_unauthentication_fails_in_hss.LWG
p1009
aVtc_262_165_new_mme_identification_procedure_transfer_due_to_wrong_ap.LWG
p1010
aVtc_262_824_attach_then_cancel_location_subscription_withdrawal_CLR_flag_s6d.LWG
p1011
aVtc_26_058_activate_3_primary_contexts_different_policy_maps.LWG
p1012
aVtc_313_046_inter_new_srns_reloc_s16_without_sgw_change_ipv4v6_for_pgw_cp_fteid.LWG
p1013
aVtc_313_213_inter_new_srns_reloc_s16_without_sgw_change_transfered_attach_request_received_wf_modify_bearer_response.LWG
p1014
aVtc_329_155_intra_tau_rr_restricted.LWG
p1015
aVtc_329_1008_test_cli_same_zc_different_plmns.LWG
p1016
aVtc_251_62_l_to_w_to_l_with_cl_type_updateProcedure.LWG
p1017
aVtc_314_007_hss_init_qos_modification_gprs_data_mbr.LWG
p1018
aVtc_265_144_Detach_Flow_NW_init__Reattach_Not_Required_Detach_Request_non_poweroff_Initial_UE_while_waiting_for_Detach_Accept.LWG
p1019
aVtc_281_031_Activate_bearer__ERAB_setup_request_meanwhile_path_switch_request_HO_success.LWG
p1020
aVtc_258_003_activate_cell_change_reporting_during_tau_inter_active_flag_same_sgw.LWG
p1021
aVtc_179_318_Ccheck_TraceCollectionIpv6server.LWG
p1022
aVtc_337_002_validation_move_followed_by_lte_move_without_filter.LWG
p1023
aVtc_298_216_SIBD_S4_Failure_Indication_Message_not_All_Bearer_Included.LWG
p1024
aVtc_298_527_pgw_init_dedicated_deletion_ef_rab_release_request_wf_deact_pdp_ctx_acc.LWG
p1025
aVtc_298_680_pgw_init_modification_waiting_paging_response_ef_delete_bearer_request.LWG
p1026
aVtc_298_696_S4_3GDT_Service_request_wait_rnc_resp_ef_deactivate_pdp_context_request_default.LWG
p1027
aVtc_341_211_x1_connection_restarted_due_to_modify_px1_command.LWG
p1028
aVtc_166_137_activate_primary_apn_redirect.LWG
p1029
aVtc_166_231_error_indication_from_ggsn_interactive_one_context.LWG
p1030
aVtc_166_503_3gdt_based_on_sr_keep_in_dt.LWG
p1031
aVtc_268_082_Timer_Based_GBR_Deact__receive_DDN_only_GBR_bearer_set_to_allbearers.LWG
p1032
aVtc_327_018_recovery_intra_TAU__uplink_Detach_Request_while_waiting_for_Security_Mode_Complete.LWG
p1033
aVtc_327_151_recovery_intra_TAU_Create_Bearer_Request_while_waiting_for_Modify_Bearer_Response.LWG
p1034
aVtc_327_227_recovery_service_request__Delete_Subscriber_Data_while_waiting_for_Update_Location_Response.LWG
p1035
aVtc_327_320_recovery_service_request__initial_Attach_Request_while_waiting_for_Update_Location_Answer.LWG
p1036
aVtc_327_557_Recovery_for_DDN__Cancel_Location_while_waiting_for_Paging_Response.LWG
p1037
aVtc_290_040_Timer_Based_GBR_Deact__enodeb_configuration_update_wf_ue_context_release_complete_before_timer_expires.LWG
p1038
aVtc_286_118_pdn_disconnect_finished_pdn_connectivity_with_same_pti.LWG
p1039
aVtc_311_21_intra_srns_reloc_s4_without_sgw_change_3gdt_flow_preserved_default_bearer.LWG
p1040
aVtc_311_188_intra_srns_reloc_s4_sgw_change_wf_modify_bearer_rsp_interrupted_by_source_iu_release.LWG
p1041
aVtc_308_020_HSS_Init_QoS_Modification__ISD_with_odb_bit0_while_wf_update_bearer_request_after_ucm_resp.LWG
p1042
aVtc_59_9_mtmsi_restart_counter.LWG
p1043
aVtc_213_051_nrspca_initiate_pdpctxt_secondary_activate_request_decode_error.LWG
p1044
aVtc_213_077_nrspca_reach_limit_of_pdp_context_per_node_uplink.LWG
p1045
aVtc_103_701_MME_restarts.LWG
p1046
aVtc_103_1145_sx_resend__CCR_U_retransmit_but_no_resending.LWG
p1047
aVtc_236_059_s4_3gdt_sm_status_during_modify_ms_in_downlink_data_notification_procedure.LWG
p1048
aVtc_236_170_s4_3gdt_activate_primary_pdp_context_odb_bit_15.LWG
p1049
aVtc_236_234_Inter_RAU_S4_over_S3_target_DtSelMode_3_APN_not_in_APN_list_TAC_in_TAC_list.LWG
p1050
aVtc_236_283_HO_over_S3_3GDT_switchback_ef_ms_deact_ti_default_wf_rab_assignment_response.LWG
p1051
aVtc_226_035_PTMSI_Attach_PTMSI_change_W_measurement_control.LWG
p1052
aVtc_226_024_PTMSI_Attach_reject_G_measurement_control_exceed_threshold_AP_transfer.LWG
p1053
aVtc_226_207_W_Initial_UE_USC_IMSI_Attach_ongoing_wf_Attach_Complete_ControlMode_On_Reject_congestion.LWG
p1054
aVtc_226_515_initial_ue_intra_RAU_S4_SGSN_Connected_ControlMode_On_ignore.LWG
p1055
aVtc_280_012_activate_dedicated_bearers_ecm_idle_tau_request_as_paging_answer.LWG
p1056
aVtc_280_137_activate_bearer_erab_setup_response_in_wrong_state.LWG
p1057
aVtc_326_267_Intra_TAU_with_unknown_GUTI_Restriction_2_pdn_SAU_license_limit_reached.LWG
p1058
aVtc_326_309_Service_Request_with_unknown_STMSI_no_ULA_then_activate_new_PDN.LWG
p1059
aVtc_326_377_Service_Request_with_unknown_STMSI_Restriction_2_pdn_LTE_SAU_limit_reached.LWG
p1060
aVtc_326_455_Inter_TAU_Recovery_Fail__Update_Location_Skip_SubData.LWG
p1061
aVtc_326_679_tau_intra_SGW_unavailable_active_flag_off_after_MME_large_restart__create_session_fail_reselect_SGW_and_all_fail.LWG
p1062
aVtc_221_034__Selection_Table_Matches_On_IMEINS.LWG
p1063
aVtc_289_058_Modify_bearer__UE_context_modification_request_meanwhile_handover_required.LWG
p1064
aVtc_267_550_Service_Request_MBR_timeout__Attach_Request_wf_UE_Context_Release_Complete.LWG
p1065
aVtc_313_281_inter_new_srns_reloc_s16_with_sgw_change_downlink_data_notification_with_cause_received_wf_rau_complete.W14b
p1066
aVtc_322_161_smooth_move_ef_nas_after_paging_response_ignore.W14b
p1067
aVtc_79_034_rab_reestablish_on_downlink_no_rnc_response.W14b
p1068
aVtc_311_223_intra_srns_reloc_s4_sgw_change_wf_rau_complete_interrupted_by_downlink_data_notification_with_cause.W14b
p1069
aVtc_11_085_activate_detach_pdp_context.W14b
p1070
aVtc_248_419_inter_l_to_w_new_two_pdns_with_target_gw_interface_gp_and_ipv6_user_plan_off.W14b
p1071
aVtc_197_504_inter_tau_without_sgw_relocation_table_not_matched_snaptr.L14b
p1072
aVtc_44_850_mme_assoc_reestablish__board_restart_s1_mme.L14b
p1073
aVtc_286_118_pdn_disconnect_finished_pdn_connectivity_with_same_pti.L14b
p1074
aVtc_84_71_provide_subscriber_location_ef_paging_interrupted_by_rau_req.G14b
p1075
aVtc_313_281_inter_new_srns_reloc_s16_with_sgw_change_downlink_data_notification_with_cause_received_wf_rau_complete.WG14a
p1076
aVtc_166_233_error_indication_from_ggsn_for_primary_context.WG14a
p1077
aVtc_44_551_s1ap_reset_reset_resource__ue_id.LW
p1078
aVtc_26_060_israu_mbr_set_to_zero_conversational.LW
p1079
aVtc_26_058_activate_3_primary_contexts_different_policy_maps.LW
p1080
aVtc_298_424_ms_init_deact_ef_delicated_non_gbr_bearer_deact_interfered_by_rab_release_request.LW
p1081
aVtc_306_002_ef_seamless_move_source_receive_attach_request_wf_service_request.LW
p1082
aVtc_348_369_inter_srns_reloc_af__new_sgsn_update_location_ack_failed.LW
p1083
aVtc_260_094_two_mbms_session_started_one_mce_add_two_session_send_to_new_mce.LW
p1084
aVtc_260_271_receive_sm_start_req_while_wf_setup_iteration.LW
p1085
aVtc_12_512_pmm_undefined_attach_when_updating_location_interfered_by_rnc_reset.LW
p1086
aVtc_286_118_pdn_disconnect_finished_pdn_connectivity_with_same_pti.LW
p1087
aVtc_231_227_PGW_Initiated_Modification_EARP_idle_one_tunnel.LW
p1088
aVtc_183_008_itc_sctp_encrypted.LWG
p1089
aVtc_236_181_hard_ho_intra_rau_with_3gdt_wf_release_access_bearer_resp_si_cancel_location_update.LWG
p1090
aVtc_eabln37805_deactivate_after_detach.LWG
p1091
aVtc_241_452_israu_new_with_10_dedicated_bearer_sgw_change_mf_s4.LWG
p1092
aVtc_259_150_ef_s6d_tads_interfere_israu_new_wf_rau_iu_releasing.LWG
p1093
aVtc_251_62_l_to_w_to_l_with_cl_type_updateProcedure.LWG
p1094
aVtc_281_020_Activate_bearer__ERAB_setup_request_meanwhile_handover_required_inter_MME.LWG
p1095
aVtc_304_459_initial_ue_csfb_to_1xrtt_control_mode_threshold_exceeded_usc_reject_illegal_ue_in_ecm_idle_wf_ue_release_complete.LWG
p1096
aVtc_141_031_eth_v4_v6_traffic_over_sctp.LWG
p1097
aVtc_291_40_action_ue_trace.LWG
p1098
aVtc_11_365_sgsn_initiated_ipv4v6_pdp_context_modification.LWG
p1099
aVtc_324_389_ef_mo_sms_wf_smc_rar_mbr_isd_ula.LWG
p1100
aVtc_286_118_pdn_disconnect_finished_pdn_connectivity_with_same_pti.LWG
p1101
aVtc_302_113_mme_connection_closed_network_initiated_detach.LWG
p1102
aVtc_298_208_SIBD_S4_Service_Request_PDP_Context_Status_Connect.LWG
p1103
aVtc_39_921_ef_seamless_move_interrupted_by_normal_attach.LWG
p1104
aVtc_59_9_mtmsi_restart_counter.LWG
p1105
aVtc_92_05_60_old_format_counters.LWG
p1106
aVtc_214_099_large_and_sctp_restart.LWG
p1107
aVtc_276_362_Inter_TAU_New_MME__ISD_with_odb_bit0_interfering_while_waiting_for_tau_complete.LWG
p1108
aVtc_193_029_auth_failure_non_consecutive_synch_failures.LWG
p1109
aVtc_250_105_ignore_IDR_when_EPS_sub_downgrade_GPRS_sub.LWG
p1110
aVtc_103_850_error_code_DIAMETER_REALM_NOT_SERVED.LWG
p1111
aVtc_103_1000_modify_diameter_peer_prio.LWG
p1112
aVtc_24_123_msc_pool_gs_null_intra_rau_combined_ra_la_update_imsi_attach_select_msc_algorithm.LWG
p1113
aVtc_23_09_transfer_to_primary_and_change_vip_addr.LWG
p1114
aVtc_12_134_attach_with_extended_mmumoc_iu_inactivity_timer.LWG
p1115
aVtc_73_41_gtpu_sgsn_dont_send_gpu_echo_request_w.LWG
p1116
aVtc_73_07_itc_encrypted_gtpu_s4_payload_w.LWG
p1117
aVtc_219_131_s3_handover_w_to_l_with_cl_two_pdns_one_failed_sgw_relocation.LWG
p1118
aVtc_262_184_new_mme_identification_request_n3t3_timeout_s3.LWG
p1119
aVtc_665_21_lr_then_gain.LWG
p1120
aVtc_56_21_sending_recognized_information_in_log.LWG
p1121
aVtc_208_172_udp_df3_alarm_tcp_clear_alarm.LWG
p1122
aVtc_103_603_georedundant_modify_diameter_peer.L14b
p1123
aVtc_103_903_primary_or_secondary_realm_routing_own_realm.L14b
p1124
aVtc_289_017_Modify_bearer__ERAB_modify_request_meanwhile_path_switch_request_HO_success.L14b
p1125
aVtc_206_013_activate_EbmStream_requestedJobState_STOPPED.L14b
p1126
aVtc_286_118_pdn_disconnect_finished_pdn_connectivity_with_same_pti.L14b
p1127
aVtc_277_105_tau_inter_old_emergency_ongoing_tau_req_integrity_failure.L14b
p1128
aVtc_261_15_tau_intra_home_voip_none_plmn_support.L14b
p1129
aVtc_346_719_pra_cn_predefined_lrc_optimization_enb_configuration_update_lrc_changed.L14b
p1130
aVtc_327_151_recovery_intra_TAU_Create_Bearer_Request_while_waiting_for_Modify_Bearer_Response.LWG
p1131
aVtc_181_01_multiple_ip_deconf_gngtp_traffic_g.LWG
p1132
aVtc_231_227_PGW_Initiated_Modification_EARP_idle_one_tunnel.LWG
p1133
aVtc_333_002_mf__OLP_Priority_at_emergency_attach.LWG
p1134
aVtc_259_50_isd_tads_s4_w_pmmidle_attach_and_detached.LWG
p1135
aVtc_194_506_Notification_during_Intra_MME_TAU_without_SGW_Relocation_Procedure.LWG
p1136
aVtc_194_505_Notification_during_Intra_TAU_without_SGW_Relocation_HSS_Reset_Before_TAU.LWG
p1137
aVtc_286_118_pdn_disconnect_finished_pdn_connectivity_with_same_pti.LWG
p1138
aVtc_183_008_itc_sctp_encrypted.LWG
p1139
aVtc_92_05_60_old_format_counters.LWG
p1140
aVtc_268_104_ue_release__cs_paging_followed_by_downlink_data_notification_wf_ue_release_complete.LWG
p1141
aVtc_39_921_ef_seamless_move_interrupted_by_normal_attach.LWG
p1142
aVtc_294_019_intra_mme_handover_with_ta_change_emergency.LWG
p1143
aVtc_59_9_mtmsi_restart_counter.LWG
p1144
aVtc_324_144_af_rab_assignment_resp_downgrade_qos_dedicated_bearer.LWG
p1145
aVtc_236_169_s4_3gdt_with_2_pdn_9_dedicated_bearer_service_request_all_rab_setup_successful.LWG
p1146
aVtc_236_311_HO_over_S3_3GDT_switchback_ef_delete_bearer_request_received_wf_rab_assignment_response.LWG
p1147
aVtc_219_131_s3_handover_w_to_l_with_cl_two_pdns_one_failed_sgw_relocation.LWG
p1148
aVtc_214_099_large_and_sctp_restart.LWG
p1149
aVtc_56_21_sending_recognized_information_in_log.LWG
p1150
aVtc_251_62_l_to_w_to_l_with_cl_type_updateProcedure.LWG
p1151
aVtc_275_073_tau_inter_new_no_update_location_response_sgsn00040258.LWG
p1152
aVtc_103_905_proxy_node_s6a_s13.LWG
p1153
aVtc_284_350_pdn_connectivity_interrupted_by_path_switch_request.LWG
p1154
aVtc_26_147_nrspca_rejected_ARP.LWG
p1155
aVtc_226_107_W_USC_PDP_Context_Activation__ControlMode_On_detach_action_same_ongoing_wf_ggsn_response.WG14a
p1156
aVtc_248_419_inter_l_to_w_new_two_pdns_with_target_gw_interface_gp_and_ipv6_user_plan_off.LW
p1157
aVtc_12_134_attach_with_extended_mmumoc_iu_inactivity_timer.LW
p1158
aVtc_286_118_pdn_disconnect_finished_pdn_connectivity_with_same_pti.LW
p1159
aVtc_219_131_s3_handover_w_to_l_with_cl_two_pdns_one_failed_sgw_relocation.LW
p1160
aVtc_298_702_pgw_init_modification_ef_ms_deact_req_tdi_false_ti_default_wf_modify_accept.LW
p1161
aVtc_313_281_inter_new_srns_reloc_s16_with_sgw_change_downlink_data_notification_with_cause_received_wf_rau_complete.LW
p1162
aVtc_197_317_visiting_multiple_pdn_connectivity_lbo_not_allowed.LW
p1163
aVtc_267_701_MS_Service_Request__S1_Reset_while_wf_Security_Mode_Command_Response.LW
p1164
aVtc_578_52_check_uetracer_parser.LW
p1165
aVtc_284_109_pdn_connectivity_connection_same_apn_other_pdn_type.LW
p1166
aVtc_324_513_ef_delete_bearer_request_seq_no_same_ignore_payload_after_ulr.W14b
p1167
aVtc_231_227_PGW_Initiated_Modification_EARP_idle_one_tunnel.W14b
p1168
aVtc_322_029_smooth_move_af_security_mode_reject.W14b
p1169
aVtc_322_161_smooth_move_ef_nas_after_paging_response_ignore.W14b
p1170
aVtc_248_419_inter_l_to_w_new_two_pdns_with_target_gw_interface_gp_and_ipv6_user_plan_off.W14b
p1171
aVtc_236_025_s4_3gdt_error_indication_from_sgw_to_rnc.W14b
p1172
aVtc_322_161_smooth_move_ef_nas_after_paging_response_ignore.W14b
p1173
aVtc_38_303_israu_new_sgsn_no_imsi_in_sgsn_context_response.W14b
p1174
aVtc_324_112_af_service_request_default_bearer_fail_in_rab_assignment_non_3gdt.W14b
p1175
aVtc_313_227_inter_new_srns_reloc_s16_with_sgw_change_rau_request_initial_ue_received_wf_update_location_ack.W14b
p1176
aVtc_101_009_multiple_mbms_session_cli_test.W14b
p1177
aVtc_231_245_PGW_init_modification_EF_ms_detach_idle.W14b
p1178
aVtc_298_547_sgsn_init_pdn_deact_ef_deact_req_tdi_true_wf_delete_session_resp.W14b
p1179
aVtc_219_131_s3_handover_w_to_l_with_cl_two_pdns_one_failed_sgw_relocation.LW
p1180
aVtc_346_495_Small_Local_Restart__No_Terminate_when_UE1_Attach_waiting_for_CCA_Initial_UE2_Attach_waiting_for_MBR.LW
p1181
aVtc_26_063_israu_mbr_set_to_zero_background.LW
p1182
aVtc_39_608_mas_security_mode_rej_fail_source.LW
p1183
aVtc_12_31_attach_ptmsi_new_sgsn_imsi_not_known_with_ap_index_transfer.LW
p1184
aVtc_103_602_georedundant_realm_routing.LW
p1185
aVtc_103_1102_fallback_to_imsins_success.LW
p1186
aVtc_103_1106_fallback_to_imsins_resend_success.LW
p1187
aVtc_194_085_hss_reset_after_subdata_read_from_cache.LW
p1188
aVtc_23_13_israu_out.LW
p1189
aVtc_334_203_path_failure_intra_rau_inter_rnc_idle_3gdt_mf.LW
p1190
aVtc_286_118_pdn_disconnect_finished_pdn_connectivity_with_same_pti.LW
p1191
aVtc_239_620_inter_rau_new_with_bearer_sgw_not_change_isd_odb_bit0_wf_rau_compl_deactivation.G14b
p1192
aVtc_313_281_inter_new_srns_reloc_s16_with_sgw_change_downlink_data_notification_with_cause_received_wf_rau_complete.WG14a
p1193
aVtc_24_137_msc_pool_ngaf_gs_associated_bssap_msg_to_msc.LWG
p1194
aVtc_194_100_check_gauge_unstable_not_parked.LWG
p1195
aVtc_214_099_large_and_sctp_restart.LWG
p1196
aVtc_11_091_activate_secondary_pdp_context_wrong_LinkedTI.LWG
p1197
aVtc_327_166_recovery_intra_TAU_SGSN_Context_Request_while_waiting_for_Update_Location_Answer_sgw_change.LWG
p1198
aVtc_326_412_Combined_TAU_Recovery_Context_Respone_With_Cause_IMSI_Not_Known__Location_Update.LWG
p1199
aVtc_251_62_l_to_w_to_l_with_cl_type_updateProcedure.LWG
p1200
aVtc_81_150_rnc_modify_more_than_requested.LWG
p1201
aVtc_141_016_eth_conf_vlan_novlan.LWG
p1202
aVtc_304_118_initial_ue_intra_tau_control_mode_threshold_exceeded_usc_ignore_intruder.LWG
p1203
aVtc_286_118_pdn_disconnect_finished_pdn_connectivity_with_same_pti.LWG
p1204
aVtc_eabln37805_deactivate_after_detach.LWG
p1205
aVtc_56_21_sending_recognized_information_in_log.LWG
p1206
aVtc_262_526_attach_ula_dia_unable_to_comply_nw_failure_for_roamer.LWG
p1207
aVtc_262_1055_imsi_attach_with_csg_id_is_rejected.LWG
p1208
aVtc_219_131_s3_handover_w_to_l_with_cl_two_pdns_one_failed_sgw_relocation.LWG
p1209
aVtc_92_05_60_old_format_counters.LWG
p1210
aVtc_28_030_israu_new_sgsn_one_pdp_context_mo_sms.LWG
p1211
aVtc_73_41_gtpu_sgsn_dont_send_gpu_echo_request_w.LWG
p1212
aVtc_39_601_mas_unsucc_fwd_reloc_resp_mandatory_ie_missing_stop_source.LWG
p1213
aVtc_310_335_ef_dbr_non_voice_bearer_wf_forward_relocation_complete_and_forward_relocation_complete_ack.LWG
p1214
aVtc_267_531_DDN_SGW_unavailable__Detach_Request_while_wf_Create_Session_Response.LWG
p1215
aVtc_321_090_mo_sms_mf.LWG
p1216
aVtc_365_03_seq_num_overflow_update_pdp_context_req.LWG
p1217
aVtc_183_008_itc_sctp_encrypted.LWG
p1218
aVtc_31_033_service_request_ul_fails_network_failure_timeout.LWG
p1219
aVtc_346_576_AF__HO_X2_2PDN_CSR_failure_for_1PDN_terminate_sx.L14b
p1220
aVtc_286_118_pdn_disconnect_finished_pdn_connectivity_with_same_pti.L14b
p1221
aVtc_297_427_ef_irat_w_to_g_attach_request_received.G14b
p1222
aVtc_225_103_csfb_stand_alone_ue_context_release_active_mode.LW
p1223
aVtc_310_335_ef_dbr_non_voice_bearer_wf_forward_relocation_complete_and_forward_relocation_complete_ack.LW
p1224
aVtc_39_068_intra_rau_move_resend_rau_request.LW
p1225
aVtc_39_601_mas_unsucc_fwd_reloc_resp_mandatory_ie_missing_stop_source.LW
p1226
aVtc_286_118_pdn_disconnect_finished_pdn_connectivity_with_same_pti.LW
p1227
aVtc_23_13_israu_out.LW
p1228
aVtc_241_432_intra_rau_with_bearer_sgw_unchange_2_pdns_3gdt.LW
p1229
aVtc_241_618_intra_rau_with_dedicated_bearer_sgw_change_wait_rau_complete_handle_dbr.LW
p1230
aVtc_266_516_DDN_SGW_unavailable_mainflow_with_geo_and_restoration_feature_off.LW
p1231
aVtc_44_004_small_restart__sctp_fe_restart.LW
p1232
aVtc_219_131_s3_handover_w_to_l_with_cl_two_pdns_one_failed_sgw_relocation.LW
p1233
aVtc_244_603_modify_eslmc_port.LW
p1234
aVtc_12_134_attach_with_extended_mmumoc_iu_inactivity_timer.LW
p1235
aVtc_209_44_sgsn_init_pdp_modification.LWG
p1236
aVtc_103_702_CEA_timeout.LWG
p1237
aVtc_348_369_inter_srns_reloc_af__new_sgsn_update_location_ack_failed.LWG
p1238
aVtc_239_155_inter_rau_new_sgw_changed_multi_pdn_connection_one_fail.LWG
p1239
aVtc_214_099_large_and_sctp_restart.LWG
p1240
aVtc_232_403_bfd__ipv4ipv6_alarm.LWG
p1241
aVtc_310_335_ef_dbr_non_voice_bearer_wf_forward_relocation_complete_and_forward_relocation_complete_ack.LWG
p1242
aVtc_225_103_csfb_stand_alone_ue_context_release_active_mode.LWG
p1243
aVtc_225_110_mo_call_active_mode_ongoing_ims_call.LWG
p1244
aVtc_236_311_HO_over_S3_3GDT_switchback_ef_delete_bearer_request_received_wf_rab_assignment_response.LWG
p1245
aVtc_64_2_max_transaction_size_open.LWG
p1246
aVtc_259_106_ef_tads_s4_interfere_inter_rau_old_w.LWG
p1247
aVtc_251_62_l_to_w_to_l_with_cl_type_updateProcedure.LWG
p1248
aVtc_365_03_seq_num_overflow_update_pdp_context_req.LWG
p1249
aVtc_298_207_SIBD_S4_Service_Request_PDP_Context_Status_idle.LWG
p1250
aVtc_298_424_ms_init_deact_ef_delicated_non_gbr_bearer_deact_interfered_by_rab_release_request.LWG
p1251
aVtc_318_263_sgw_restart_af_relocation_triggered_by_DDN_initial_context_setup_timeout.LWG
p1252
aVtc_183_008_itc_sctp_encrypted.LWG
p1253
aVtc_286_118_pdn_disconnect_finished_pdn_connectivity_with_same_pti.LWG
p1254
aVtc_258_107_location_report_with_strange_request_type_from_eNodeB.LWG
p1255
aVtc_23_09_transfer_to_primary_and_change_vip_addr.LWG
p1256
aVtc_263_020_Attach_Flow__Attach_Request_Different_IEs_IP_OK_while_waiting_for_Delete_Session_Response.LWG
p1257
aVtc_179_318_Ccheck_TraceCollectionIpv6server.LWG
p1258
aVtc_241_066_israu_new_gn_to_s4_pdp_to_bearer_two_pdp_one_arp_higher_than_policy_map.LWG
p1259
aVtc_241_431_intra_rau_with_bearer_sgw_unchange_2_pdns_with_one_modify_no_response.LWG
p1260
aVtc_220_420_csfb_to_1xrtt_ue_return_with_service_request_SGW_unavailable.LWG
p1261
aVtc_265_102_Detach_Flow_NW_init__Reattach_Required_Attach_Request_while_waiting_for_Context_Release_Complete.LWG
p1262
aVtc_160_008_reset_rnc_initiated_sr.LWG
p1263
aVtc_39_920_ef_seamless_move_interrupted_by_transferred_attach.LWG
p1264
aVtc_231_227_PGW_Initiated_Modification_EARP_idle_one_tunnel.W14b
p1265
aVtc_311_223_intra_srns_reloc_s4_sgw_change_wf_rau_complete_interrupted_by_downlink_data_notification_with_cause.W14b
p1266
aVtc_298_691_S4_3GDT_Service_request_wait_Rab_Assignment_ef_delete_bearer_request.W14b
p1267
aVtc_248_419_inter_l_to_w_new_two_pdns_with_target_gw_interface_gp_and_ipv6_user_plan_off.W14b
p1268
aVtc_241_201_s4_sgsn_pool_ms_move_target_sgsn_mf.W14b
p1269
aVtc_242_040_rau_to_sgsn_s3_keep_sgw_two_pdn_connections.L14b
p1270
aVtc_225_103_csfb_stand_alone_ue_context_release_active_mode.L14b
p1271
aVtc_260_100_one_mbms_session_started_two_mce_response_timeout_one_mce_add.L14b
p1272
aVtc_326_279_Periodic_Intra_TAU_with_unknown_GUTI_Modify_Bearer_fail.L14b
p1273
aVtc_44_850_mme_assoc_reestablish__board_restart_s1_mme.L14b
p1274
aVtc_220_609_csfb_to_1xrtt_in_ecm_idle_with_extra_pdn_and_gbr_bearers.L14b
p1275
aVtc_286_118_pdn_disconnect_finished_pdn_connectivity_with_same_pti.L14b
p1276
aVtc_310_335_ef_dbr_non_voice_bearer_wf_forward_relocation_complete_and_forward_relocation_complete_ack.L14b
p1277
a.