(lp0
Vtc_92_05_60_old_format_counters.LWG
p1
aVtc_202_362_mf_seamless_move_by_ue_5_subscribers_2_target_mmes.LWG
p2
aVtc_286_118_pdn_disconnect_finished_pdn_connectivity_with_same_pti.LWG
p3
aVtc_363_018_mmi_get_ra.LWG
p4
aVtc_183_008_itc_sctp_encrypted.LWG
p5
aVtc_56_21_sending_recognized_information_in_log.LWG
p6
aVtc_103_1100_resending_AIR_dpl_changed.LWG
p7
aVtc_101_004_single_mbms_session_rnc_rab_and_iu_release.LWG
p8
aVtc_38_81_intra_rau_new_rnc_with_authentication_no_ptmsi_signature.LWG
p9
aVtc_12_134_attach_with_extended_mmumoc_iu_inactivity_timer.LWG
p10
aVtc_262_1055_imsi_attach_with_csg_id_is_rejected.LWG
p11
aVtc_241_1694_intra_rau_without_sgw_change_interferred_by_reset_resource_after_modify_bearer_request.LWG
p12
aVtc_256_130_mme_eps_srvcc_ho_source_cs_only_initial_ue_attach_request_wf_srvcc_ps_to_cs_response.LWG
p13
aVtc_298_006_S4_Network_Request_Secondary_PDP_Activation_UE_no_Response_timeout.LWG
p14
aVtc_298_424_ms_init_deact_ef_delicated_non_gbr_bearer_deact_interfered_by_rab_release_request.LWG
p15
aVtc_236_073_hard_ho_intra_rau_with_3gdt_bearer_sgw_nochange_without_seq.LWG
p16
aVtc_251_62_l_to_w_to_l_with_cl_type_updateProcedure.LWG
p17
aVtc_286_118_pdn_disconnect_finished_pdn_connectivity_with_same_pti.L14b
p18
aVtc_313_281_inter_new_srns_reloc_s16_with_sgw_change_downlink_data_notification_with_cause_received_wf_rau_complete.WG14a
p19
aVtc_322_161_smooth_move_ef_nas_after_paging_response_ignore.WG14a
p20
aVtc_311_223_intra_srns_reloc_s4_sgw_change_wf_rau_complete_interrupted_by_downlink_data_notification_with_cause.W14b
p21
aVtc_348_050_large_restart.W14b
p22
aVtc_236_045_s4_3gdt_iu_release_during_waiting_for_modify_bearer_rsp_in_service_request_procedure.W14b
p23
aVtc_38_81_intra_rau_new_rnc_with_authentication_no_ptmsi_signature.W14b
p24
aVtc_31_064_activate_loc_not_confirmed_ul_fails_network_failure.W14b
p25
aVtc_313_281_inter_new_srns_reloc_s16_with_sgw_change_downlink_data_notification_with_cause_received_wf_rau_complete.W14b
p26
aVtc_44_004_small_restart__sctp_fe_restart.LW
p27
aVtc_44_406_s1ap_id_error_indication__unknown_mme_ue_id_not_found.LW
p28
aVtc_194_085_hss_reset_after_subdata_read_from_cache.LW
p29
aVtc_194_506_Notification_during_Intra_MME_TAU_without_SGW_Relocation_Procedure.LW
p30
aVtc_248_86_inter_l_to_w_new_inactive_pdp_context_status_dedicated_inactive.LW
p31
aVtc_298_074_s4_nrspca_activate_same_nsapi_of_dedicated_bearer_apn_failed.LW
p32
aVtc_313_281_inter_new_srns_reloc_s16_with_sgw_change_downlink_data_notification_with_cause_received_wf_rau_complete.LW
p33
aVtc_342_119_update_target_ccoutput_iri_to_iricc.LW
p34
aVtc_578_02_check_parse_ebm_and_ci_eci_l.LW
p35
aVtc_256_130_mme_eps_srvcc_ho_source_cs_only_initial_ue_attach_request_wf_srvcc_ps_to_cs_response.LW
p36
aVtc_256_135_mme_eps_srvcc_ho_source_cs_only_initial_ue_detach_request_wf_srvcc_ps_to_cs_complete_notification.LW
p37
aVtc_286_118_pdn_disconnect_finished_pdn_connectivity_with_same_pti.LW
p38
aVtc_306_1127_ef_seamless_move_target_receive_detach_request_with_switchoff_wf_ula_with_service_finished.LW
p39
aVtc_239_620_inter_rau_new_with_bearer_sgw_not_change_isd_odb_bit0_wf_rau_compl_deactivation.G14b
p40
aVtc_84_71_provide_subscriber_location_ef_paging_interrupted_by_rau_req.G14b
p41
aVtc_44_850_mme_assoc_reestablish__board_restart_s1_mme.L14b
p42
aVtc_326_372_Service_Request_with_unknown_STMSI_Restriction_2_pdn_roaming_restriction_emergency_pdn_recovered.L14b
p43
aVtc_326_831_Inter_TAU_Recovery_Old_MME_Unavailable_SGW_Unchange_active_flag_on_no_modify_bearer_response_two_pdn.L14b
p44
aVtc_346_493_Small_Local_Restart__Terminate_when_UE_S1_release.L14b
p45
aVtc_310_310_S3_new_SGW_emergency_attach_sv_pool_on_msc_one_offloading_one_available.L14b
p46
aVtc_286_118_pdn_disconnect_finished_pdn_connectivity_with_same_pti.L14b
p47
aVtc_214_1140_la_selection_mf_oldlapreferred_prau_during_ue_restoration.LW
p48
aVtc_103_905_proxy_node_s6a_s13.LW
p49
aVtc_263_032_Attach_Flow__Detach_Request_while_waiting_for_Identity_Response.LW
p50
aVtc_286_118_pdn_disconnect_finished_pdn_connectivity_with_same_pti.LW
p51
aVtc_242_156_rau_to_sgsn_s3_type_d_emergency_allowed_irat_and_plmn_change.LW
p52
aVtc_256_130_mme_eps_srvcc_ho_source_cs_only_initial_ue_attach_request_wf_srvcc_ps_to_cs_response.LW
p53
aVtc_256_135_mme_eps_srvcc_ho_source_cs_only_initial_ue_detach_request_wf_srvcc_ps_to_cs_complete_notification.LW
p54
aVtc_73_07_itc_encrypted_gtpu_s4_payload_w.WG14a
p55
aVtc_298_829_NRSPCA_S4_nsapi_collision_iu_release_request_while_waiting_for_delete_bearer_request.W14b
p56
aVtc_324_502_ef_update_bearer_request_ignore_payload.W14b
p57
aVtc_110_005_inbound_outbound_pf_rule_cli_ip.LWG
p58
aVtc_219_131_s3_handover_w_to_l_with_cl_two_pdns_one_failed_sgw_relocation.LWG
p59
aVtc_23_13_israu_out.LWG
p60
aVtc_320_062_sm_status_from_ms.LWG
p61
aVtc_321_071_gn_logging_ggsn_initiate_pdp_ctx_modification_and_deactivation.LWG
p62
aVtc_208_214_s4_no_sm_events_payload.LWG
p63
aVtc_39_920_ef_seamless_move_interrupted_by_transferred_attach.LWG
p64
aVtc_326_246_Intra_TAU_Recovery_fail_Modify_Bearer_fail_active_flag_SGW_Change.LWG
p65
aVtc_298_702_pgw_init_modification_ef_ms_deact_req_tdi_false_ti_default_wf_modify_accept.LWG
p66
aVtc_298_826_NRSPCA_S4_nsapi_collision_receiving_detach_request_while_waiting_for_delete_bearer_request.LWG
p67
aVtc_214_099_large_and_sctp_restart.LWG
p68
aVtc_259_77_ef_isd_paging_s4_w.LWG
p69
aVtc_319_027_pdn_connectivity_ef_static_selection_on_table_not_matched_stop_by_ue_context_release.LWG
p70
aVtc_179_318_Ccheck_TraceCollectionIpv6server.LWG
p71
aVtc_256_130_mme_eps_srvcc_ho_source_cs_only_initial_ue_attach_request_wf_srvcc_ps_to_cs_response.LWG
p72
aVtc_256_135_mme_eps_srvcc_ho_source_cs_only_initial_ue_detach_request_wf_srvcc_ps_to_cs_complete_notification.LWG
p73
aVtc_74_030_oms_mmi.LWG
p74
aVtc_232_401_bfd__ipv4_alarm.LWG
p75
aVtc_251_62_l_to_w_to_l_with_cl_type_updateProcedure.LWG
p76
aVtc_100_21_inter_w_to_g_old_mf_with_lawful_intercept.LWG
p77
aVtc_262_1013_apn_resolution_ext_apn_not_included_in_arc_no_infix.LWG
p78
aVtc_183_008_itc_sctp_encrypted.LWG
p79
aVtc_92_05_60_old_format_counters.LWG
p80
aVtc_286_118_pdn_disconnect_finished_pdn_connectivity_with_same_pti.LWG
p81
aVtc_24_188_msc_pool_sgsn_pool_move_lu_reject_unexpected_cause_code_from_msc.LWG
p82
aVtc_95_3_load_lkf.LWG
p83
aVtc_346_389_handover_intra_x2_2PDN_BCM_sx_only_and_no_armed_event_trigger_location_report.LWG
p84
aVtc_202_362_mf_seamless_move_by_ue_5_subscribers_2_target_mmes.LWG
p85
aVtc_28_001_mo_sms.W14b
p86
aVtc_248_419_inter_l_to_w_new_two_pdns_with_target_gw_interface_gp_and_ipv6_user_plan_off.W14b
p87
aVtc_39_629_mas_no_security_mode_cmpl_resend_max_target.W14b
p88
aVtc_322_161_smooth_move_ef_nas_after_paging_response_ignore.W14b
p89
aVtc_280_142_tz_change_create_bearer_intra_tau_active.L14b
p90
aVtc_327_172_recovery_intra_TAU_SGSN_Context_Request_while_waiting_for_Location_Update_Response.L14b
p91
aVtc_286_118_pdn_disconnect_finished_pdn_connectivity_with_same_pti.L14b
p92
aVtc_322_161_smooth_move_ef_nas_after_paging_response_ignore.WG14a
p93
aVtc_324_144_af_rab_assignment_resp_downgrade_qos_dedicated_bearer.WG14a
p94
aVtc_275_073_tau_inter_new_no_update_location_response_sgsn00040258.LW
p95
aVtc_256_135_mme_eps_srvcc_ho_source_cs_only_initial_ue_detach_request_wf_srvcc_ps_to_cs_complete_notification.LW
p96
aVtc_326_219_Intra_TAU_Recovery_then_rim_source_mme_gn_sgsn_selection_table_not_matched_dns_query_success.LW
p97
aVtc_219_131_s3_handover_w_to_l_with_cl_two_pdns_one_failed_sgw_relocation.LW
p98
aVtc_295_135_mt_call_during_Intra_S1_HO_SGSN_Context_Request_while_wf_the_tau.LW
p99
aVtc_241_432_intra_rau_with_bearer_sgw_unchange_2_pdns_3gdt.LW
p100
aVtc_286_118_pdn_disconnect_finished_pdn_connectivity_with_same_pti.LW
p101
aVtc_12_134_attach_with_extended_mmumoc_iu_inactivity_timer.LW
p102
aVtc_298_107_EF_NRSPCA_S4_Deactivation_from_S4SGSN_APN_removed.LW
p103
aVtc_306_2700_ef_seamless_move_target_receive_Insert_Subscription_Data.LW
p104
aVtc_26_163_service_request_after_ISRAU_complete_with_subscriber_data_no_changed.LW
p105
aVtc_327_021_recovery_intra_TAU__uplink_Detach_Request_while_waiting_for_Update_Location_Response.LWG
p106
aVtc_183_008_itc_sctp_encrypted.LWG
p107
aVtc_363_011_cli_get_ra.LWG
p108
aVtc_73_41_gtpu_sgsn_dont_send_gpu_echo_request_w.LWG
p109
aVtc_256_130_mme_eps_srvcc_ho_source_cs_only_initial_ue_attach_request_wf_srvcc_ps_to_cs_response.LWG
p110
aVtc_256_135_mme_eps_srvcc_ho_source_cs_only_initial_ue_detach_request_wf_srvcc_ps_to_cs_complete_notification.LWG
p111
aVtc_298_207_SIBD_S4_Service_Request_PDP_Context_Status_idle.LWG
p112
aVtc_298_424_ms_init_deact_ef_delicated_non_gbr_bearer_deact_interfered_by_rab_release_request.LWG
p113
aVtc_298_702_pgw_init_modification_ef_ms_deact_req_tdi_false_ti_default_wf_modify_accept.LWG
p114
aVtc_316_270_RAU_To_Gn_SGSN_With_Dedicated_Bearers_Backup_Option_Change__Delete_UE_Backup.LWG
p115
aVtc_214_099_large_and_sctp_restart.LWG
p116
aVtc_285_001_PDN_Connectivity_Pb__Attach_request_while_wf_ERAB_Setup_Response.LWG
p117
aVtc_103_902_load_sharing_realm_routing_own_realm.LWG
p118
aVtc_44_004_small_restart__sctp_fe_restart.LWG
p119
aVtc_220_403_csfb_to_1xrtt_in_ecm_connected_path_switch_request_HO_success.LWG
p120
aVtc_219_131_s3_handover_w_to_l_with_cl_two_pdns_one_failed_sgw_relocation.LWG
p121
aVtc_310_335_ef_dbr_non_voice_bearer_wf_forward_relocation_complete_and_forward_relocation_complete_ack.LWG
p122
aVtc_251_62_l_to_w_to_l_with_cl_type_updateProcedure.LWG
p123
aVtc_53_57_inter_new_srns_reloc_rab_not_allocated_interrupt_by_reset.LWG
p124
aVtc_92_05_60_old_format_counters.LWG
p125
aVtc_92_09_20_autoupdate.LWG
p126
aVtc_232_401_bfd__ipv4_alarm.LWG
p127
aVtc_232_403_bfd__ipv4ipv6_alarm.LWG
p128
aVtc_202_431_mf_seamless_move_target_service_request_modifyBearerReq_onePdnMultiBearer_oneBearerFail.LWG
p129
aVtc_314_049_sgsn_init_qos_modification_handover_l_to_w_interrupt_by_reset_paging_succ.LWG
p130
aVtc_266_303_Service_Request_SGW_unavailable__DNS_Query_failure.LWG
p131
aVtc_286_118_pdn_disconnect_finished_pdn_connectivity_with_same_pti.LWG
p132
aVtc_103_701_MME_restarts.LW
p133
aVtc_298_207_SIBD_S4_Service_Request_PDP_Context_Status_idle.LW
p134
aVtc_298_702_pgw_init_modification_ef_ms_deact_req_tdi_false_ti_default_wf_modify_accept.LW
p135
aVtc_194_703_HSS_initiated_ISD_ue_context_modification_failure_s1_intra_system_handover_triggered_sgw_change_create_session_failed.LW
p136
aVtc_284_351_pdn_connectivity_pb_activate_1_dedicated_bearer_interrupted_by_path_switch_request.LW
p137
aVtc_256_135_mme_eps_srvcc_ho_source_cs_only_initial_ue_detach_request_wf_srvcc_ps_to_cs_complete_notification.LW
p138
aVtc_256_130_mme_eps_srvcc_ho_source_cs_only_initial_ue_attach_request_wf_srvcc_ps_to_cs_response.LW
p139
aVtc_326_206_Intra_TAU_Recovery_with_old_GUTI.LW
p140
aVtc_310_310_S3_new_SGW_emergency_attach_sv_pool_on_msc_one_offloading_one_available.LW
p141
aVtc_286_118_pdn_disconnect_finished_pdn_connectivity_with_same_pti.LW
p142
aVtc_286_118_pdn_disconnect_finished_pdn_connectivity_with_same_pti.L14b
p143
aVtc_304_226_inter_tau_control_mode_threshold_exceeded_reject_initial_ue_ongoing_wf_tau_after_handover_illegal_ue.L14b
p144
aVtc_103_841_error_code_UNRECOGNIZED_CLASS_in_answer_Experimental_Result_Code.L14b
p145
aVtc_285_006_PDN_Connectivity_Pb__Delete_default_bearer_request_while_wf_modify_bearer_response.L14b
p146
aVtc_232_511_static_routes__bfd_supervision_of_static_route_v6_on_Gom.LWG
p147
aVtc_256_111_mme_eps_srvcc_ho_source_cs_only_emergency_sgsn_context_request_wf_delete_bearer_request_timeout.LWG
p148
aVtc_256_130_mme_eps_srvcc_ho_source_cs_only_initial_ue_attach_request_wf_srvcc_ps_to_cs_response.LWG
p149
aVtc_248_86_inter_l_to_w_new_inactive_pdp_context_status_dedicated_inactive.LWG
p150
aVtc_183_008_itc_sctp_encrypted.LWG
p151
aVtc_56_21_sending_recognized_information_in_log.LWG
p152
aVtc_286_118_pdn_disconnect_finished_pdn_connectivity_with_same_pti.LWG
p153
aVtc_313_217_inter_new_srns_reloc_s16_with_sgw_change_detach_request_direct_transfer_received_bf_forward_reloc_complete_ack.LWG
p154
aVtc_92_05_60_old_format_counters.LWG
p155
aVtc_225_612_exp_flow_context_request_while_wf_ue_context_release_request.LWG
p156
aVtc_214_099_large_and_sctp_restart.LWG
p157
aVtc_39_601_mas_unsucc_fwd_reloc_resp_mandatory_ie_missing_stop_source.LWG
p158
aVtc_12_134_attach_with_extended_mmumoc_iu_inactivity_timer.LWG
p159
aVtc_328_108_Backup_MME__MaximumNumberOfUeBackups_reached_replace_oldest_ue_backups.LWG
p160
aVtc_251_62_l_to_w_to_l_with_cl_type_updateProcedure.LWG
p161
aVtc_179_318_Ccheck_TraceCollectionIpv6server.LWG
p162
aVtc_194_506_Notification_during_Intra_MME_TAU_without_SGW_Relocation_Procedure.LWG
p163
aVtc_263_029_Attach_Flow__Attach_Request_Unknown_GUTI_Same_IEs_while_waiting_for_Create_Session_Response.LWG
p164
aVtc_241_201_s4_sgsn_pool_ms_move_target_sgsn_mf.LWG
p165
aVtc_110_005_inbound_outbound_pf_rule_cli_ip.LWG
p166
aVtc_59_9_mtmsi_restart_counter.LWG
p167
aVtc_248_419_inter_l_to_w_new_two_pdns_with_target_gw_interface_gp_and_ipv6_user_plan_off.W14b
p168
aVtc_236_049_s4_3gdt_rnc_reset_during_waiting_for_modify_beaer_rsp_in_service_request_procedure.W14b
p169
aVtc_322_050_smooth_move_ebt_rau_after_move.W14b
p170
aVtc_97_035_inter_sgsn_psho_mf_with_lawful_intercept.G14b
p171
aVtc_84_81_provide_subscriber_locaiton_ef_perform_loc_req_interrupted_by_attach.G14b
p172
aVtc_101_002_multiple_mbms_session.W14b
p173
aVtc_39_433_mas_one_pdp_downlink_data_3gdt_upd_loc_ack_b4_upd_pdp_ctx_resp_target.W14b
p174
aVtc_195_208_mme_logging_maximum_modify_eps_bearer_context.LW
p175
aVtc_262_933_attach_reject_with_cc33__attach_req_and_esm_infor_both_without_apn.LW
p176
aVtc_263_070_Attach_Flow__Cancel_Location_Subscription_Withdrawal_while_waiting_for_Identity_Response.LW
p177
aVtc_245_301_inter_rau_insert_entry_into_interface_cache.LW
p178
aVtc_39_771_mas_rnc_reset_when_wf_ptmsi_realloc_cmpl_source.LW
p179
aVtc_241_431_intra_rau_with_bearer_sgw_unchange_2_pdns_with_one_modify_no_response.LW
p180
aVtc_219_131_s3_handover_w_to_l_with_cl_two_pdns_one_failed_sgw_relocation.LW
p181
aVtc_286_118_pdn_disconnect_finished_pdn_connectivity_with_same_pti.LW
p182
aVtc_12_166_attach_direct_transfer_ptmsi_invalid_transfer_to_new.LW
p183
aVtc_12_134_attach_with_extended_mmumoc_iu_inactivity_timer.LW
p184
aVtc_12_512_pmm_undefined_attach_when_updating_location_interfered_by_rnc_reset.LW
p185
aVtc_326_245_Intra_TAU_Recovery_TAU_Complete_timeout.LW
p186
aVtc_28_042_mo_sms_ok_for_home_when_blocked_for_visiting.LW
p187
aVtc_298_610_sgsn_init_bearer_deact_ef_iu_release_wf_delete_req.LW
p188
aVtc_256_135_mme_eps_srvcc_ho_source_cs_only_initial_ue_detach_request_wf_srvcc_ps_to_cs_complete_notification.LW
p189
aVtc_256_179_mme_eps_srvcc_ho_source_cs_only_ue_release_request_s1_expired_wf_srvcc_ps_to_cs_complete_notification.LW
p190
aVtc_103_701_MME_restarts.LW
p191
aVtc_73_07_itc_encrypted_gtpu_s4_payload_w.WG14a
p192
aVtc_166_033_ms_initiated_modify_ggsn_teid_change.WG14a
p193
aVtc_295_182_Intra_S1_HO__Location_report_while_wf_update_location_response.L14b
p194
aVtc_286_118_pdn_disconnect_finished_pdn_connectivity_with_same_pti.L14b
p195
aVtc_304_108_uplink_nas_intra_tau_control_mode_threshold_exceeded_usc_reject_lead_to_implicit_detach.L14b
p196
aVtc_306_170_01_ef_seamless_move_source_receive_hss_reset_wf_guti_reallocation.L14b
p197
aVtc_283_062_MME_Deactivate_Bearer__Delete_Bearer_Request_while_wf_Delete_Bearer_Request_same_2_bearers.L14b
p198
aVtc_316_272_Inter_RAT_S3_HO_SUT_As_Source_With_Dedicated_Bearer_Subpool_ID_Change__Delete_UE_Backup.L14b
p199
aVtc_286_118_pdn_disconnect_finished_pdn_connectivity_with_same_pti.LWG
p200
aVtc_214_701_msc_pool_combined_attach_one_msc_unreachable.LWG
p201
aVtc_12_134_attach_with_extended_mmumoc_iu_inactivity_timer.LWG
p202
aVtc_194_116_hss_reset_many_subscribers.LWG
p203
aVtc_194_505_Notification_during_Intra_TAU_without_SGW_Relocation_HSS_Reset_Before_TAU.LWG
p204
aVtc_262_044_imsi_attach_emm_deregistered.LWG
p205
aVtc_165_6_check_ncs_oms_interface.LWG
p206
aVtc_236_273_IRAT_HO_for_S4_over_S3_target_DtSelMode_5_with_two_PDN_connection_one_3gdt_another_switch_back.LWG
p207
aVtc_256_130_mme_eps_srvcc_ho_source_cs_only_initial_ue_attach_request_wf_srvcc_ps_to_cs_response.LWG
p208
aVtc_92_05_60_old_format_counters.LWG
p209
aVtc_196_182_nrspca_during_the_same_nsapi_sgsn_initiate_pdp_deactivation_rab_release.LWG
p210
aVtc_219_131_s3_handover_w_to_l_with_cl_two_pdns_one_failed_sgw_relocation.LWG
p211
aVtc_23_13_israu_out.LWG
p212
aVtc_327_037_recovery_intra_TAU_active_off_sgw_unchanged__RAR_wf_CSR_due_to_S11_linkdown.LWG
p213
aVtc_210_080_df2_alarm_bufferOn.LWG
p214
aVtc_304_134_uplink_nas_intra_tau_control_mode_threshold_exceeded_usc_continue_handover.LWG
p215
aVtc_199_120_s11_path_management_small_restarted.LWG
p216
aVtc_220_212_csfb_to_1xrtt_in_ecm_connected_tau_request_wf_delete_gbr_bearer_response.LWG
p217
aVtc_183_008_itc_sctp_encrypted.LWG
p218
aVtc_25_62_israu_and_subscribed_data_modified_no_pfc.LWG
p219
aVtc_275_073_tau_inter_new_no_update_location_response_sgsn00040258.LWG
p220
aVtc_250_160_s6d_IDR_IDA_Change_GPRS_to_eps_subscription.LWG
p221
aVtc_39_920_ef_seamless_move_interrupted_by_transferred_attach.LWG
p222
aVtc_259_67_ef_provide_subscriber_information_attach_old_w.LWG
p223
aVtc_259_102_ef_tads_s4_interfere_inter_rau_old_g.LWG
p224
aVtc_218_011_tau_from_sgsn_request_rejected_from_sgw.L14b
p225
aVtc_346_661_pra_cn_predefined_event_trigger_ulc_bcm_and_pra_info.L14b
p226
aVtc_286_118_pdn_disconnect_finished_pdn_connectivity_with_same_pti.L14b
p227
aVtc_194_972_create_bearer_request_during_waiting_location_report__idr_flags_ef.L14b
p228
aVtc_103_603_georedundant_modify_diameter_peer.L14b
p229
aVtc_256_135_mme_eps_srvcc_ho_source_cs_only_initial_ue_detach_request_wf_srvcc_ps_to_cs_complete_notification.L14b
p230
aVtc_166_334_activate_fail_interrupted_by_deactivate_req_when_updating_in_GGSN.WG14a
p231
aVtc_100_67_intra_w_to_g_mf_with_lawful_intercept.WG14a
p232
aVtc_257_30_pws_sctp_device_failure.LWG
p233
aVtc_178_664_action_ss7_sccp_local_sap_sendssp.LWG
p234
aVtc_248_10_inter_l_to_w_new_3gdt_on_two_pdns_one_with_dedicate_bearer_without_sgw_change.LWG
p235
aVtc_103_603_georedundant_modify_diameter_peer.LWG
p236
aVtc_103_1102_fallback_to_imsins_success.LWG
p237
aVtc_78_350_israu_new_auth_info_ack_failed_with_cause_data_missing.LWG
p238
aVtc_23_13_israu_out.LWG
p239
aVtc_44_004_small_restart__sctp_fe_restart.LWG
p240
aVtc_256_091_mme_eps_srvcc_ho_source_cs_only_handover_cancel_wf_srvcc_ps_to_cs_response_sti_true.LWG
p241
aVtc_256_130_mme_eps_srvcc_ho_source_cs_only_initial_ue_attach_request_wf_srvcc_ps_to_cs_response.LWG
p242
aVtc_256_135_mme_eps_srvcc_ho_source_cs_only_initial_ue_detach_request_wf_srvcc_ps_to_cs_complete_notification.LWG
p243
aVtc_311_223_intra_srns_reloc_s4_sgw_change_wf_rau_complete_interrupted_by_downlink_data_notification_with_cause.LWG
p244
aVtc_73_41_gtpu_sgsn_dont_send_gpu_echo_request_w.LWG
p245
aVtc_73_40_gtpu_sgsn_send_gpu_echo_request_w.LWG
p246
aVtc_64_2_max_transaction_size_open.LWG
p247
aVtc_324_427_ef_payload_buffered_wf_sec_different_contextId_selective_service_request_on.LWG
p248
aVtc_231_053_activate_reject_cause26_high_load.LWG
p249
aVtc_92_05_60_old_format_counters.LWG
p250
aVtc_26_083_israu_streaming_stand_alone_no_rnc_support.LWG
p251
aVtc_286_118_pdn_disconnect_finished_pdn_connectivity_with_same_pti.LWG
p252
aVtc_32_8_attach_identity_checking_ap_index_transfer_interrupted_by_new_attach.LWG
p253
aVtc_219_131_s3_handover_w_to_l_with_cl_two_pdns_one_failed_sgw_relocation.LWG
p254
aVtc_179_318_Ccheck_TraceCollectionIpv6server.LWG
p255
aVtc_141_002_eth_deconf_conf_vlan_many.LWG
p256
aVtc_141_005_eth_traffic_novlan.LWG
p257
aVtc_241_432_intra_rau_with_bearer_sgw_unchange_2_pdns_3gdt.LWG
p258
aVtc_665_21_lr_then_gain.LWG
p259
aVtc_665_6_dp_block_deblock_with_traffic.LWG
p260
aVtc_665_2_ncs_init_cm_restart_with_traffic.LWG
p261
aVtc_289_031_Modify_bearer__Downlink_nas_transport_meanwhile_path_switch_request_HO_success.LWG
p262
aVtc_214_099_large_and_sctp_restart.LWG
p263
aVtc_214_210_mo_sms_idle_sgs_link_broken.LWG
p264
aVtc_214_408_combined_attach_vlr_reset_no_paging_imsi_detach_interferred_by_combined_tau.LWG
p265
aVtc_183_008_itc_sctp_encrypted.LWG
p266
aVtc_346_389_handover_intra_x2_2PDN_BCM_sx_only_and_no_armed_event_trigger_location_report.LWG
p267
aVtc_666_02_reboot_ss7_board.LWG
p268
aVtc_666_03_block_ss7_board.LWG
p269
aVtc_239_620_inter_rau_new_with_bearer_sgw_not_change_isd_odb_bit0_wf_rau_compl_deactivation.G14b
p270
aVtc_11_187_subscriber_modified_during_activation_qos_changed.W14b
p271
aVtc_298_690_S4_3GDT_Service_request_wait_MBR_ef_delete_bearer_request_lbi.W14b
p272
aVtc_324_083_af_sec_modify_bearer_response_dedicated_bearer_fail.W14b
p273
aVtc_324_513_ef_delete_bearer_request_seq_no_same_ignore_payload_after_ulr.W14b
p274
aVtc_248_128_inter_l_to_w_new_rau_request_intial_ue_received_wf_update_location_resp.W14b
p275
aVtc_248_419_inter_l_to_w_new_two_pdns_with_target_gw_interface_gp_and_ipv6_user_plan_off.W14b
p276
aVtc_286_118_pdn_disconnect_finished_pdn_connectivity_with_same_pti.LW
p277
aVtc_241_432_intra_rau_with_bearer_sgw_unchange_2_pdns_3gdt.LW
p278
aVtc_23_13_israu_out.LW
p279
aVtc_219_131_s3_handover_w_to_l_with_cl_two_pdns_one_failed_sgw_relocation.LW
p280
aVtc_12_34_attach_ptmsi_new_sgsn_no_identification_response_old_sgsn.LW
p281
aVtc_220_025_csfb_to_1xrtt_ue_suspended_hss_reset.LW
p282
aVtc_335_33_wifi_to_mobility_in_ecm_idle_af__cells_from_eNB_totally_diff_with_from_WIC.LW
p283
aVtc_283_032_GW_Deactivate_Bearer__Default_bearer_Ue_context_release_while_waiting_erab_release_response.LW
p284
aVtc_44_004_small_restart__sctp_fe_restart.LW
p285
aVtc_361_510_rau_l_to_w_S4SGSN_check_old_qos_failed_node_function_deactivate_pdp_after_rau_on.LW
p286
aVtc_273_266_tau_intra__sgw_relocation_active_enb_fails_default.LW
p287
aVtc_256_130_mme_eps_srvcc_ho_source_cs_only_initial_ue_attach_request_wf_srvcc_ps_to_cs_response.LW
p288
aVtc_357_335_gsm_local_user_intra_ps_handover_ip_area_to_non_ip_area_with_one_pdp_activated_in_non_ip_area.WG14a
p289
aVtc_322_161_smooth_move_ef_nas_after_paging_response_ignore.WG14a
p290
aVtc_239_620_inter_rau_new_with_bearer_sgw_not_change_isd_odb_bit0_wf_rau_compl_deactivation.G14b
p291
aVtc_248_419_inter_l_to_w_new_two_pdns_with_target_gw_interface_gp_and_ipv6_user_plan_off.W14b
p292
aVtc_247_70_inter_w_to_l_old_3gdt_forward_relocation_complete_notify_timeout.W14b
p293
aVtc_250_183_s6d_attach_ai_rejected_other_error_from_hss.W14b
p294
aVtc_101_016_single_mbms_session_dp_restart.W14b
p295
aVtc_322_161_smooth_move_ef_nas_after_paging_response_ignore.W14b
p296
aVtc_342_862_modify_LI_C.LW
p297
aVtc_341_697_x2_activity_event_irat_handover_source_l_to_gn_sgsn.LW
p298
aVtc_348_369_inter_srns_reloc_af__new_sgsn_update_location_ack_failed.LW
p299
aVtc_346_385_handover_intra_x2_2PDN_with_bearer_control_mode_sx_only.LW
p300
aVtc_26_002_activate_primary_Qos_subscribed_higher_then_nodeprop.LW
p301
aVtc_286_118_pdn_disconnect_finished_pdn_connectivity_with_same_pti.LW
p302
aVtc_219_131_s3_handover_w_to_l_with_cl_two_pdns_one_failed_sgw_relocation.LW
p303
aVts_336_005_access_request__detach_request_while_waiting_for_eab_wifi_decision_response.LW
p304
aVtc_81_062_israu_ggsn_upgrades_to_stream_no_lic.LW
p305
aVtc_196_181_nrspca_during_the_same_nsapi_ggsn_initiate_pdp_deactivation_rab_release.LW
p306
aVtc_256_130_mme_eps_srvcc_ho_source_cs_only_initial_ue_attach_request_wf_srvcc_ps_to_cs_response.LW
p307
aVtc_241_432_intra_rau_with_bearer_sgw_unchange_2_pdns_3gdt.LW
p308
aVtc_12_83_service_request_pmmidle_data.LW
p309
aVtc_12_134_attach_with_extended_mmumoc_iu_inactivity_timer.LW
p310
aVtc_103_701_MME_restarts.LW
p311
aVtc_183_008_itc_sctp_encrypted.LWG
p312
aVtc_179_318_Ccheck_TraceCollectionIpv6server.LWG
p313
aVtc_309_108_modify_event_job_notification.LWG
p314
aVtc_28_050_mo_sms_homer_no_block_redirection.LWG
p315
aVtc_92_05_60_old_format_counters.LWG
p316
aVtc_314_048_sgsn_init_qos_modification_handover_l_to_w_interrupt_by_reset_paging_fail.LWG
p317
aVtc_256_130_mme_eps_srvcc_ho_source_cs_only_initial_ue_attach_request_wf_srvcc_ps_to_cs_response.LWG
p318
aVtc_99_153_intra_g_to_w_t_reloc_rau_timeout.LWG
p319
aVtc_286_118_pdn_disconnect_finished_pdn_connectivity_with_same_pti.LWG
p320
aVtc_73_21_itc_gtpu_s4_sgsn_send_echo_request_w.LWG
p321
aVtc_73_40_gtpu_sgsn_send_gpu_echo_request_w.LWG
p322
aVtc_73_41_gtpu_sgsn_dont_send_gpu_echo_request_w.LWG
p323
aVtc_320_044_create_bss_pfc_nack.LWG
p324
aVtc_320_072_ue_trace_ptmsi_conflict_with_another_ms.LWG
p325
aVtc_84_80_provide_subscriber_locaiton_ef_paging_interrupted_by_attach.LWG
p326
aVtc_335_152_Locator_Restart__HO_GA_Change.LWG
p327
aVtc_44_750_s1_with_two_sctp_endpoints.LWG
p328
aVtc_284_351_pdn_connectivity_pb_activate_1_dedicated_bearer_interrupted_by_path_switch_request.LWG
p329
aVtc_578_51_check_parse_compressed_ebm.LWG
p330
aVtc_321_090_mo_sms_mf.LWG
p331
aVtc_321_093_mt_sms_segmented_tc_u_abort_after_second_segment.LWG
p332
aVtc_259_93_ef_provide_subscriber_information_service_request_w.LWG
p333
aVtc_259_106_ef_tads_s4_interfere_inter_rau_old_w.LWG
p334
aVtc_194_178_hss_reset_ue_activity_attach_request.LWG
p335
aVtc_236_307_Activation_DtSelMode_5_APN_requested_wrong_SGSN_default_APN_in_APN_list_TAC_in_TAC_list.LWG
p336
aVtc_298_235_SIBD_S4_Modify_Bearer_failed_Default_Bearer_ContextNotFound.LWG
p337
aVtc_297_517_intra_rau_isc_w_to_g_home_auth_info_failed_with_cause_unexpected_data_value.LWG
p338
aVtc_103_860_ue_trace_retransmit.LWG
p339
aVtc_103_603_georedundant_modify_diameter_peer.LWG
p340
aVtc_214_099_large_and_sctp_restart.LWG
p341
aVtc_219_131_s3_handover_w_to_l_with_cl_two_pdns_one_failed_sgw_relocation.LWG
p342
aVtc_285_006_PDN_Connectivity_Pb__Delete_default_bearer_request_while_wf_modify_bearer_response.LWG
p343
aVtc_248_453_inter_l_to_w_new_partially_succ_interfering_attach_request_received_wf_rau_complete.LWG
p344
aVtc_286_118_pdn_disconnect_finished_pdn_connectivity_with_same_pti.L14b
p345
aVtc_103_701_MME_restarts.L14b
p346
aVtc_295_130_Intra_S1_HO__Sgw_reloc__Downlink_A21_AIS_while_waiting_for_Delete_Session_Response.L14b
p347
aVtc_221_030__Selection_Table_Matches_On_APN.L14b
p348
aVtc_44_004_small_restart__sctp_fe_restart.LW
p349
aVtc_219_131_s3_handover_w_to_l_with_cl_two_pdns_one_failed_sgw_relocation.LW
p350
aVtc_26_031_israu_old_new_is_gtpv0_mixed_contexts_IV.LW
p351
aVtc_347_236_GW_Dedicated_Bearer_Deactivate__Location_Report_while_waiting_for_eRAB_Release_Response.LW
p352
aVtc_241_066_israu_new_gn_to_s4_pdp_to_bearer_two_pdp_one_arp_higher_than_policy_map.LW
p353
aVtc_241_635_intra_rau_with_bearer_sgw_change_with_3gdt_wait_release_access_resp_interfer_by_context_req.LW
p354
aVtc_38_169_irat_old_pdp_ggsn_not_responding.LW
p355
aVtc_103_852_error_code_DIAMETER_COMMAND_UNSUPPORTED.LW
p356
aVtc_103_1007_secondary_dpl_set_and_then_emptied.LW
p357
aVtc_103_1132_sx_resend__CCR_I_diameter_out_of_space_another_pdn_timeout_diameter_too_busy_host_and_realm.LW
p358
aVtc_255_014_s6d_to_gr_fallback_then_l_to_w_isc_using_s6d.LW
p359
aVtc_285_006_PDN_Connectivity_Pb__Delete_default_bearer_request_while_wf_modify_bearer_response.LW
p360
aVtc_286_118_pdn_disconnect_finished_pdn_connectivity_with_same_pti.LW
p361
aVtc_256_130_mme_eps_srvcc_ho_source_cs_only_initial_ue_attach_request_wf_srvcc_ps_to_cs_response.LW
p362
aVtc_348_369_inter_srns_reloc_af__new_sgsn_update_location_ack_failed.LW
p363
aVtc_324_112_af_service_request_default_bearer_fail_in_rab_assignment_non_3gdt.LW
p364
aVtc_213_059_nrspca_gsm_wait_request_secondary_pdp_context_activation_response_timeout.G14b
p365
aVtc_84_80_provide_subscriber_locaiton_ef_paging_interrupted_by_attach.G14b
p366
aVtc_eabln37805_deactivate_after_detach.G14b
p367
aVtc_141_016_eth_conf_vlan_novlan.LWG
p368
aVtc_92_05_60_old_format_counters.LWG
p369
aVtc_346_469_AF__Location_Report_CCA_Update_with_Result_Code_5002.LWG
p370
aVtc_286_118_pdn_disconnect_finished_pdn_connectivity_with_same_pti.LWG
p371
aVtc_326_328_Service_Reject_Authentication_timeout_from_HSS.LWG
p372
aVtc_363_011_cli_get_ra.LWG
p373
aVtc_357_019_gsm_iterator_no_action.LWG
p374
aVtc_357_106_wcdma_iterator_ipAddressReset_irrEnabled_modify_to_true_while_one_pdp_already_in_target_area.LWG
p375
aVtc_179_318_Ccheck_TraceCollectionIpv6server.LWG
p376
aVtc_12_134_attach_with_extended_mmumoc_iu_inactivity_timer.LWG
p377
aVtc_12_512_pmm_undefined_attach_when_updating_location_interfered_by_rnc_reset.LWG
p378
aVtc_260_271_receive_sm_start_req_while_wf_setup_iteration.LWG
p379
aVtc_183_008_itc_sctp_encrypted.LWG
p380
aVtc_77_5_attach_activate2_g_crash.LWG
p381
aVtc_262_1055_imsi_attach_with_csg_id_is_rejected.LWG
p382
aVtc_34_76_pool_move_by_ues_2w3g_2gSGSN_2wSGSN.LWG
p383
aVtc_214_099_large_and_sctp_restart.LWG
p384
aVtc_73_21_itc_gtpu_s4_sgsn_send_echo_request_w.LWG
p385
aVtc_219_134_s3_handover_w_to_l_relocation_cancel_wf_forward_relocation_response.LWG
p386
aVtc_219_131_s3_handover_w_to_l_with_cl_two_pdns_one_failed_sgw_relocation.LWG
p387
aVtc_205_71_08_SCTP_OctetsChunksSent.LWG
p388
aVtc_298_208_SIBD_S4_Service_Request_PDP_Context_Status_Connect.LWG
p389
aVtc_298_236_SIBD_S4_Modify_Bearer_failed_Default_Bearer_SystemFailure.LWG
p390
aVtc_298_424_ms_init_deact_ef_delicated_non_gbr_bearer_deact_interfered_by_rab_release_request.LWG
p391
aVtc_236_091_service_request_si_iu_release_at_sgw_flow_si_cancel_location.W14b
p392
aVtc_578_02_check_parse_ebm_and_ci_eci_w.W14b
p393
aVtc_322_028_smooth_move_af_no_security_mode_complete.W14b
p394
aVtc_322_161_smooth_move_ef_nas_after_paging_response_ignore.W14b
p395
aVtc_73_07_itc_encrypted_gtpu_s4_payload_w.WG14a
p396
aVtc_304_121_initial_ue_intra_tau_control_mode_threshold_exceeded_usc_detach_wf_release_request_response.L14b
p397
aVtc_286_118_pdn_disconnect_finished_pdn_connectivity_with_same_pti.L14b
p398
aVtc_290_081_Timer_Based_GBR_Deact__detach_request_initial_ue_wf_delete_bearer_request_after_timer_expires.L14b
p399
aVtc_284_411_pdn_connectivity__check_unsorted_bearer_ids_after_newly_adding_default_bearers_with_another_pdn.L14b
p400
aVtc_307_006_HSS_Init_QoS_Modification__RFSP_QCI_ARP_Changed_downgrade_QoS_CONNECTED.L14b
p401
aVtc_84_80_provide_subscriber_locaiton_ef_paging_interrupted_by_attach.G14b
p402
aVtc_103_903_primary_or_secondary_realm_routing_own_realm.L14b
p403
aVtc_288_111_pgw_init_bearer_mod_paging_one_dedicated_bearer_fails_to_set_up.L14b
p404
aVtc_289_056_Modify_bearer__UE_context_modification_failure_s1_intra_system_handover_triggered_HO_failure.L14b
p405
aVtc_286_118_pdn_disconnect_finished_pdn_connectivity_with_same_pti.L14b
p406
aVtc_318_281_SGsAP_Paging_Request_init_service_request_sgw_restart.L14b
p407
aVtc_39_601_mas_unsucc_fwd_reloc_resp_mandatory_ie_missing_stop_source.LWG
p408
aVtc_306_1200_ef_seamless_move_target_receive_hss_reset.LWG
p409
aVtc_361_510_rau_l_to_w_S4SGSN_check_old_qos_failed_node_function_deactivate_pdp_after_rau_on.LWG
p410
aVtc_208_61_deactivate_pdp_context_failed.LWG
p411
aVtc_329_002_attach_rs_allowed_emergency.LWG
p412
aVtc_289_031_Modify_bearer__Downlink_nas_transport_meanwhile_path_switch_request_HO_success.LWG
p413
aVtc_214_099_large_and_sctp_restart.LWG
p414
aVtc_183_008_itc_sctp_encrypted.LWG
p415
aVtc_204_154_inter_s1ho_target_HeNB_emergency_type_d_csg_id.LWG
p416
aVtc_210_046_mme_initiated_detach_with_reattach_required.LWG
p417
aVtc_298_424_ms_init_deact_ef_delicated_non_gbr_bearer_deact_interfered_by_rab_release_request.LWG
p418
aVtc_298_723_service_request_ef_ms_deact_ti_default_wf_rab_assignment_response.LWG
p419
aVtc_298_832_NRSPCA_S4_nsapi_collision_after_RAU_one_pdn_failed.LWG
p420
aVtc_31_111_service_request_ul_fails_access_restricted_same_plmn.LWG
p421
aVtc_26_058_activate_3_primary_contexts_different_policy_maps.LWG
p422
aVtc_146_006_filter_denyAllPkts_overEth.LWG
p423
aVtc_259_93_ef_provide_subscriber_information_service_request_w.LWG
p424
aVtc_24_171_msc_pool_israu_msc_from_old_sgsn_supported_but_offloading_select_msc.LWG
p425
aVtc_316_206_TAU_From_S4_SGSN_Multiple_PDN_Connections_With_Max_Dedicated_Bearers__Backup_UE.LWG
p426
aVtc_23_13_israu_out.LWG
p427
aVtc_196_116_nrspca_with_limit_of_pdp_context_is_exceeded_uplink.LWG
p428
aVtc_52_17_inter_old_treloccomplete_timeout_before_ack.LWG
p429
aVtc_92_05_60_old_format_counters.LWG
p430
aVtc_100_21_inter_w_to_g_old_mf_with_lawful_intercept.LWG
p431
aVtc_241_431_intra_rau_with_bearer_sgw_unchange_2_pdns_with_one_modify_no_response.LWG
p432
aVtc_256_130_mme_eps_srvcc_ho_source_cs_only_initial_ue_attach_request_wf_srvcc_ps_to_cs_response.LWG
p433
aVtc_286_118_pdn_disconnect_finished_pdn_connectivity_with_same_pti.LWG
p434
aVtc_277_105_tau_inter_old_emergency_ongoing_tau_req_integrity_failure.LWG
p435
aVtc_56_21_sending_recognized_information_in_log.LWG
p436
aVtc_298_821_activate_secondary_pdp_context_request_with_NSAPI_exist_dedicate_bearer_active_state.LW
p437
aVtc_219_131_s3_handover_w_to_l_with_cl_two_pdns_one_failed_sgw_relocation.LW
p438
aVtc_285_033_PDN_Connectivity__Service_request_while_wf_modify_bearer_response.LW
p439
aVtc_347_236_GW_Dedicated_Bearer_Deactivate__Location_Report_while_waiting_for_eRAB_Release_Response.LW
p440
aVtc_327_033_recovery_intra_TAU__uplink_same_ie_intra_TAU_Request_while_waiting_for_Update_Location_Response.LW
p441
aVtc_335_44_wifi_to_mobility_in_ecm_idle_unknown_user_af__feature_off_in_enodeb.LW
p442
aVtc_284_350_pdn_connectivity_interrupted_by_path_switch_request.LW
p443
aVtc_326_223_Intra_TAU_Recovery_fail_Identity_Response_timeout_then_Recover_successful.LW
p444
aVtc_256_130_mme_eps_srvcc_ho_source_cs_only_initial_ue_attach_request_wf_srvcc_ps_to_cs_response.LW
p445
aVtc_256_135_mme_eps_srvcc_ho_source_cs_only_initial_ue_detach_request_wf_srvcc_ps_to_cs_complete_notification.LW
p446
aVtc_241_303_intra_rau_create_session_failed_and_paging_timeout.LW
p447
aVtc_241_431_intra_rau_with_bearer_sgw_unchange_2_pdns_with_one_modify_no_response.LW
p448
aVtc_194_506_Notification_during_Intra_MME_TAU_without_SGW_Relocation_Procedure.LW
p449
aVtc_286_118_pdn_disconnect_finished_pdn_connectivity_with_same_pti.LW
p450
aVtc_103_1004_secondary_dpl_used_when_all_peers_in_dpl_unavailable_no_sls.LW
p451
aVtc_334_176_sgw_restart_af_create_session_with_dedicated_bearer_qos_failed.LW
p452
aVtc_12_134_attach_with_extended_mmumoc_iu_inactivity_timer.LW
p453
aVtc_12_512_pmm_undefined_attach_when_updating_location_interfered_by_rnc_reset.LW
p454
aVtc_248_419_inter_l_to_w_new_two_pdns_with_target_gw_interface_gp_and_ipv6_user_plan_off.W14b
p455
aVtc_101_015_single_mbms_session_large_restart.W14b
p456
aVtc_298_440_ms_init_deact_ef_default_bearer_deact_with_rab_interfered_by_dedicate_bearer_deact_request.W14b
p457
aVtc_268_058_Timer_Based_GBR_Deact__SGSN_Context_Request_from_new_GnSGSN_before_Timer_Expires.LWG
p458
aVtc_267_006_Service_Request__Tracking_Area_Update_while_waiting_for_Service_Request.LWG
p459
aVtc_53_57_inter_new_srns_reloc_rab_not_allocated_interrupt_by_reset.LWG
p460
aVtc_298_074_s4_nrspca_activate_same_nsapi_of_dedicated_bearer_apn_failed.LWG
p461
aVtc_298_208_SIBD_S4_Service_Request_PDP_Context_Status_Connect.LWG
p462
aVtc_214_099_large_and_sctp_restart.LWG
p463
aVtc_236_301_HO_over_S3_3GDT_switchback_ef_service_request_direct_transfer.LWG
p464
aVtc_236_311_HO_over_S3_3GDT_switchback_ef_delete_bearer_request_received_wf_rab_assignment_response.LWG
p465
aVtc_209_49_attach_detach_imsi_ap_takeover.LWG
p466
aVtc_286_118_pdn_disconnect_finished_pdn_connectivity_with_same_pti.LWG
p467
aVtc_327_037_recovery_intra_TAU_active_off_sgw_unchanged__RAR_wf_CSR_due_to_S11_linkdown.LWG
p468
aVtc_359_142_handover_from_3gpp_pgw_init_deletion_ef_ms_deact_Notify_ue_false.LWG
p469
aVtc_44_004_small_restart__sctp_fe_restart.LWG
p470
aVtc_132_002_create_ip_interface_eth.LWG
p471
aVtc_92_05_60_old_format_counters.LWG
p472
aVtc_243_801_tau_from_sgsn_s3_volte_bearer_gauge_keep_old_sgw.LWG
p473
aVtc_100_67_intra_w_to_g_mf_with_lawful_intercept.LWG
p474
aVtc_226_202_W_Direct_Transfer_USC_PTMSI_Attach_ControlMode_On_Reject_congestion.LWG
p475
aVtc_24_15_attach_combined_detach_combined_msc_unreachable.LWG
p476
aVtc_24_182_msc_pool_sgsn_pool_move_lu_accept_with_new_tmsi_from_msc_imsi_detach.LWG
p477
aVtc_275_073_tau_inter_new_no_update_location_response_sgsn00040258.LWG
p478
aVtc_05_016_gprs_imsi_attach_gea4_supported_by_ms_gea3_choosen.LWG
p479
aVtc_326_201_Intra_TAU_with_unknown_GUTI_with_active_flag.LWG
p480
aVtc_179_318_Ccheck_TraceCollectionIpv6server.LWG
p481
aVtc_59_9_mtmsi_restart_counter.LWG
p482
aVtc_56_21_sending_recognized_information_in_log.LWG
p483
aVtc_183_008_itc_sctp_encrypted.LWG
p484
aVtc_07_06_gauge_test_main_flow.G14b
p485
aVtc_97_018_inter_sgsn_psho_mf_two_pdps_one_pfc.G14b
p486
aVtc_15_002_periodic_successful_and_next_periodic_update.G14b
p487
aVtc_05_112_inter_rau_intra_rau_intruder_check.G14b
p488
aVtc_320_075_inter_rau_with_imsi_imei.G14b
p489
aVtc_208_26_attach_detach_imsi_msisdn_imei.G14b
p490
aVtc_25_26_activate_primary_change_of_policy_map.G14b
p491
aVtc_25_61_activate_primary_pdp_with_noCommonFlag.G14b
p492
aVtc_35_006_sgsn_rejects_ggsn_upgrades_during_activate_primary.G14b
p493
aVtc_06_122_handle_create_response_with_cause_apn_access_denied_no_subscription.G14b
p494
aVtc_06_223_sgsn_init_deactivation_ggsn_restarted_update_req.G14b
p495
aVtc_06_242_handling_of_faulty_apn_from_ms_4.G14b
p496
aVtc_06_330_deactivate_ipv4v6_pdp_context_isd_pdp_type_dynamic2.G14b
p497
aVtc_06_404_ggsn_selec_pgw4epc_2g_act_pdp_fallback.G14b
p498
aVtc_06_536_report_full_rai_feature_turn_on_between_primary_and_secondary_pdp_activation.G14b
p499
aVtc_30_019_attach_ul_fails_network_failure_when_data_not_confirmed.G14b
p500
aVtc_30_086_concurrent_msd.G14b
p501
aVtc_84_68_provide_subscriber_location_ef_during_ps_handover.G14b
p502
aVtc_313_227_inter_new_srns_reloc_s16_with_sgw_change_rau_request_initial_ue_received_wf_update_location_ack.W14b
p503
aVtc_38_169_irat_old_pdp_ggsn_not_responding.W14b
p504
aVtc_12_22_attach_ptmsi_new_sgsn_with_different_rai.W14b
p505
aVtc_286_118_pdn_disconnect_finished_pdn_connectivity_with_same_pti.L14b
p506
aVtc_44_850_mme_assoc_reestablish__board_restart_s1_mme.L14b
p507
aVtc_341_532_x2_activity_event_attach_detach_imei.L14b
p508
aVtc_332_052_3_mf__paging_due_to_UBR_during_paging_due_to_CBR_latest_with_higher_prio.L14b
p509
aVtc_195_208_mme_logging_maximum_modify_eps_bearer_context.L14b
p510
aVtc_195_532_mme_logging_ue_unrechable.L14b
p511
aVtc_306_251_ef_seamless_move_source_receive_identification_request_v2_wf_source_guti_reallocation_complete.L14b
p512
aVtc_306_1333_ef_seamless_move_target_receive_cli_delete_subscriber_wf_ula.L14b
p513
aVtc_103_702_CEA_timeout.LW
p514
aVtc_39_924_ef_rnc_reset_wf_ptmsi_rel_comp_source_sgsn.LW
p515
aVtc_298_702_pgw_init_modification_ef_ms_deact_req_tdi_false_ti_default_wf_modify_accept.LW
p516
aVtc_298_711_pgw_init_modification_ef_update_bearer_request_apn_ambr_in_second_UBR.LW
p517
aVtc_219_131_s3_handover_w_to_l_with_cl_two_pdns_one_failed_sgw_relocation.LW
p518
aVtc_334_231_sgw_restart_counter_changed_inter_new_srns_reloc_s16_without_sgw_change.LW
p519
aVtc_286_118_pdn_disconnect_finished_pdn_connectivity_with_same_pti.LW
p520
aVtc_23_13_israu_out.LW
p521
aVtc_346_312_Combination__Roaming_User__no_Sx_session_initiated.LW
p522
aVtc_241_066_israu_new_gn_to_s4_pdp_to_bearer_two_pdp_one_arp_higher_than_policy_map.LW
p523
aVtc_280_132_activate_4_dedicated_bearers_timeout_nas_ok.LW
p524
aVtc_304_271_tau_from_gnsgsn_intruder_when_wf_sgsn_context_response_control_mode_reject_ps_service_not_allowed.LW
p525
aVtc_44_004_small_restart__sctp_fe_restart.LW
p526
aVtc_349_126_RAU_back_in_20s__Iu_Release_Req_while_waiting_for_CCA_initial.WG14a
p527
aVtc_11_304_rab_release_mod_with_aace_mtz_with_gmm_info.W14b
p528
aVtc_196_181_nrspca_during_the_same_nsapi_ggsn_initiate_pdp_deactivation_rab_release.W14b
p529
aVtc_342_880_x2_message_decode_error.W14b
p530
aVtc_324_368_ef_cancel_location_with_updateProcedure_wf_modify_bearer_response_after_ula_hss.W14b
p531
aVtc_313_238_inter_new_srns_reloc_s16_with_sgw_change_iu_release_request_none_user_inactivity_received_wf_forward_reloc_complete_ack.W14b
p532
aVtc_248_419_inter_l_to_w_new_two_pdns_with_target_gw_interface_gp_and_ipv6_user_plan_off.W14b
p533
aVtc_84_80_provide_subscriber_locaiton_ef_paging_interrupted_by_attach.G14b
p534
aVtc_286_118_pdn_disconnect_finished_pdn_connectivity_with_same_pti.L14b
p535
aVtc_220_001_csfb_to_1xrtt_in_ecm_idle.L14b
p536
aVtc_241_159_israu_old_wait_for_sgsn_context_ack_interfere_by_reset_and_detach.LWG
p537
aVtc_327_212_recovery_service_request_emergency__Cancel_Location_subscription_withdrawal_while_waiting_for_Update_Location_Response.LWG
p538
aVtc_259_106_ef_tads_s4_interfere_inter_rau_old_w.LWG
p539
aVtc_183_008_itc_sctp_encrypted.LWG
p540
aVtc_367_103_pgw_reselection_ho_with_qci_1_erab_release_reattach_required.LWG
p541
aVtc_578_49_check_parse_ebm_with_filter.LWG
p542
aVtc_25_158_israu_new_with_qos_upgradeNotAllowed.LWG
p543
aVtc_50_054_israu_new_sgsn_one_background_pdp_context_32mbit.LWG
p544
aVtc_219_131_s3_handover_w_to_l_with_cl_two_pdns_one_failed_sgw_relocation.LWG
p545
aVtc_179_318_Ccheck_TraceCollectionIpv6server.LWG
p546
aVtc_39_924_ef_rnc_reset_wf_ptmsi_rel_comp_source_sgsn.LWG
p547
aVtc_12_134_attach_with_extended_mmumoc_iu_inactivity_timer.LWG
p548
aVtc_286_118_pdn_disconnect_finished_pdn_connectivity_with_same_pti.LWG
p549
aVtc_214_099_large_and_sctp_restart.LWG
p550
aVtc_92_05_60_old_format_counters.LWG
p551
aVtc_11_139_rnc_reset_context_active_mf_mtz.LWG
p552
aVtc_78_085_intra_rau_intra_plmn_accept_home_ms_no_redirect_attempt_flag.LWG
p553
aVtc_313_281_inter_new_srns_reloc_s16_with_sgw_change_downlink_data_notification_with_cause_received_wf_rau_complete.WG14a
p554
aVtc_194_505_Notification_during_Intra_TAU_without_SGW_Relocation_HSS_Reset_Before_TAU.LW
p555
aVtc_265_106_Detach_Flow_NW_init__Handover_Required_while_waiting_for_Context_Release_Complete.LW
p556
aVtc_38_169_irat_old_pdp_ggsn_not_responding.LW
p557
aVtc_329_253_s1_inter_ho_source_rs_restricted_plmn_change.LW
p558
aVtc_39_608_mas_security_mode_rej_fail_source.LW
p559
aVtc_12_182_wcdma_repeat_paging_with_old_ptmsi.LW
p560
aVtc_286_118_pdn_disconnect_finished_pdn_connectivity_with_same_pti.LW
p561
aVtc_26_058_activate_3_primary_contexts_different_policy_maps.LW
p562
aVtc_238_264_mme_eps_irat_Gn_ho_tau_ula_dia_avp_occurs_too_many_times_severe_nw_failure_for_roamer.LW
p563
aVtc_52_17_inter_old_treloccomplete_timeout_before_ack.LW
p564
aVtc_248_86_inter_l_to_w_new_inactive_pdp_context_status_dedicated_inactive.LW
p565
aVtc_284_351_pdn_connectivity_pb_activate_1_dedicated_bearer_interrupted_by_path_switch_request.LW
p566
aVtc_26_220_activate_primary_apn_based_qos_policy.LW
p567
aVtc_263_100_Attach_Flow__ME_Identity_Check_Answer_Blacklisted_while_waiting_for_Create_Session_Response.LW
p568
aVtc_263_008_Attach_Flow__Attach_Request_Same_IEs_IP_OK_while_waiting_for_Modify_Bearer_Response.LW
p569
aVtc_292_181_X2_Based_HO_twice.LW
p570
aVtc_347_263_PDN_Connectivity__Location_Report_while_waiting_CSR_CCR_update_sent_for_first_Sx_Session.LW
p571
aVtc_103_1005_secondary_dpl_used_when_all_peers_in_dpl_unavailable_with_sls.LW
p572
aVtc_318_153_sgw_restart_af_multi_pdns_part_delete_part_relocate_fail.LW
p573
aVtc_298_685_S4_3GDT_Iu_release_wait_RABR_ef_delete_bearer_request_ebi.LW
p574
aVtc_195_208_mme_logging_maximum_modify_eps_bearer_context.LW
p575
aVtc_326_216_Intra_TAU_Recovery_combined_type_Location_Update_Reject.LW
p576
aVtc_326_343_Service_Request_with_unknown_STMSI_two_PDN_one_fail_in_initialContextSetup.LW
p577
aVtc_286_118_pdn_disconnect_finished_pdn_connectivity_with_same_pti.LW
p578
aVtc_306_032_ef_seamless_move_source_receive_tau_request_wf_guti_reallocation_complete.LW
p579
aVtc_214_161_hss_reset_mt_sms_while_wf_ms_activity.L14b
p580
aVtc_318_218_idle_deactivate_non_last_pdn_reactivate_req_context_not_found_in_sgw.L14b
p581
aVtc_286_118_pdn_disconnect_finished_pdn_connectivity_with_same_pti.L14b
p582
aVtc_273_504_TAU_intra_SGW_unavailable__2PDNs_partially_failure.L14b
p583
aVtc_292_190_X2_Based_ho_tac_based_roaming_restriction_table_matched_blacklist.L14b
p584
aVtc_335_54_mobility_to_wifi_ecm_idle_af_first_cell_from_eNB_matched_with_that_from_WIC.L14b
p585
aVtc_260_096_one_mbms_session_started_another_mbms_session_starting_one_mce_add.L14b
p586
aVtc_103_024_modify_diameter_peer_switch_peer_numbers.L14b
p587
aVtc_326_219_Intra_TAU_Recovery_then_rim_source_mme_gn_sgsn_selection_table_not_matched_dns_query_success.L14b
p588
aVtc_326_279_Periodic_Intra_TAU_with_unknown_GUTI_Modify_Bearer_fail.L14b
p589
aVtc_267_224_Service_Request__PDN_Connectivity_Request_while_waiting_for_Modify_Bearer_Response_where_dedicated_fails.L14b
p590
aVtc_241_301_israu_new_create_session_failed_and_paging_timeout.W14b
p591
aVtc_312_214_inter_old_srns_reloc_wf_fwd_reloc_compl_interrupted_by_reloc_required_on_new_iu.W14b
p592
aVtc_39_607_mas_no_security_mode_cmpl_fail_source.W14b
p593
aVtc_321_092_mt_sms_error.LWG
p594
aVtc_327_016_recovery_intra_TAU__uplink_Detach_Request_while_waiting_for_Identity_Response.LWG
p595
aVtc_267_730_Service_Request__CS_paging_while_waiting_for_Modify_Bearer_Response.LWG
p596
aVtc_195_208_mme_logging_maximum_modify_eps_bearer_context.LWG
p597
aVtc_304_020_intruder_imsi_attach_when_correct_ue_attaching__control_mode_threshold_exceeded_usc_reject_congestion.LWG
p598
aVtc_59_9_mtmsi_restart_counter.LWG
p599
aVtc_183_008_itc_sctp_encrypted.LWG
p600
aVtc_183_011_itc_trace_file_wrap.LWG
p601
aVtc_103_1006_secondary_dpl_used_when_all_peers_in_dpl_unavailable_no_sls_peers_same_prio.LWG
p602
aVtc_56_21_sending_recognized_information_in_log.LWG
p603
aVtc_92_05_60_old_format_counters.LWG
p604
aVtc_263_030_Attach_Flow__Attach_Request_Unknown_GUTI_Same_IEs_while_waiting_for_Attach_Complete.LWG
p605
aVtc_262_1055_imsi_attach_with_csg_id_is_rejected.LWG
p606
aVtc_39_751_dnlink_3gdt_cancel_loc_subWithdrawn_after_upd_loc_target.LWG
p607
aVtc_310_335_ef_dbr_non_voice_bearer_wf_forward_relocation_complete_and_forward_relocation_complete_ack.LWG
p608
aVtc_313_281_inter_new_srns_reloc_s16_with_sgw_change_downlink_data_notification_with_cause_received_wf_rau_complete.LWG
p609
aVtc_214_099_large_and_sctp_restart.LWG
p610
aVtc_73_41_gtpu_sgsn_dont_send_gpu_echo_request_w.LWG
p611
aVtc_220_561_csfb_to_1xrtt_in_ecm_idle_extended_service_request_wf_ue_context_release_complete.LWG
p612
aVtc_248_422_inter_l_to_w_one_pdn_default_rab_failed_dedicate_rab_ok_without_sgw_change.LWG
p613
aVtc_298_207_SIBD_S4_Service_Request_PDP_Context_Status_idle.LWG
p614
aVtc_286_118_pdn_disconnect_finished_pdn_connectivity_with_same_pti.LWG
p615
aVtc_246_061_israu_new_l_to_g_sgw_change_one_pdn_ubr_before_rau_complete_interfered_by_inter_rau_request.LWG
p616
aVtc_92_05_60_old_format_counters.LWG
p617
aVtc_241_157_israu_old_wait_for_context_ack_interfere_by_reset.LWG
p618
aVtc_202_454_af_seamless_move_source_unsuccessful_forward_relocation_response_other_cause.LWG
p619
aVtc_214_099_large_and_sctp_restart.LWG
p620
aVtc_214_1126_la_selection_mf_oldlapreferred_combined_intra_tau_after_imsi_detach_triggered_by_sgs_paging.LWG
p621
aVtc_262_843_emergency_attach_no_detach_regardless_of_odb_free_apn_list__odb_bit0.LWG
p622
aVtc_259_106_ef_tads_s4_interfere_inter_rau_old_w.LWG
p623
aVtc_267_730_Service_Request__CS_paging_while_waiting_for_Modify_Bearer_Response.LWG
p624
aVtc_73_41_gtpu_sgsn_dont_send_gpu_echo_request_w.LWG
p625
aVtc_179_318_Ccheck_TraceCollectionIpv6server.LWG
p626
aVtc_23_13_israu_out.LWG
p627
aVtc_232_401_bfd__ipv4_alarm.LWG
p628
aVtc_665_21_lr_then_gain.LWG
p629
aVtc_56_21_sending_recognized_information_in_log.LWG
p630
aVtc_205_71_01_ss7_SCCP_CR_DT1_RLSD.LWG
p631
aVtc_320_072_ue_trace_ptmsi_conflict_with_another_ms.LWG
p632
aVtc_24_140_msc_pool_cs_paging_request_include_gcnid.LWG
p633
aVtc_183_008_itc_sctp_encrypted.LWG
p634
aVtc_260_272_receive_sm_stop_req_while_wf_setup_iteration.LWG
p635
aVtc_666_02_reboot_ss7_board.LWG
p636
aVtc_298_424_ms_init_deact_ef_delicated_non_gbr_bearer_deact_interfered_by_rab_release_request.LWG
p637
aVtc_286_118_pdn_disconnect_finished_pdn_connectivity_with_same_pti.LWG
p638
aVtc_348_369_inter_srns_reloc_af__new_sgsn_update_location_ack_failed.LWG
p639
aVtc_141_015_eth_traffic_vlan_novlan.LWG
p640
aVtc_248_419_inter_l_to_w_new_two_pdns_with_target_gw_interface_gp_and_ipv6_user_plan_off.W14b
p641
aVtc_12_134_attach_with_extended_mmumoc_iu_inactivity_timer.W14b
p642
aVtc_313_001_inter_new_srns_reloc_s16_without_sgw_change.W14b
p643
aVtc_248_86_inter_l_to_w_new_inactive_pdp_context_status_dedicated_inactive.LW
p644
aVtc_298_610_sgsn_init_bearer_deact_ef_iu_release_wf_delete_req.LW
p645
aVtc_298_702_pgw_init_modification_ef_ms_deact_req_tdi_false_ti_default_wf_modify_accept.LW
p646
aVtc_318_201_idle_deactivate_dedicated_bearers_one_by_one_reactivate_req.LW
p647
aVtc_53_57_inter_new_srns_reloc_rab_not_allocated_interrupt_by_reset.LW
p648
aVtc_304_461_initial_ue_service_request_then_csfb_to_1xrtt_control_mode_threshold_exceeded_usc_reject_implicit_detach.LW
p649
aVtc_23_13_israu_out.LW
p650
aVtc_219_131_s3_handover_w_to_l_with_cl_two_pdns_one_failed_sgw_relocation.LW
p651
aVtc_307_002_HSS_Init_QoS_Modification__APN_Config_one_Modified_one_Removed_CONNECTED.LW
p652
aVtc_103_703_duplicate_peer_ips.LW
p653
aVtc_26_100_activate_primary_rnc_upgrades_bitrates_traffic_class_streaming.LW
p654
aVtc_286_118_pdn_disconnect_finished_pdn_connectivity_with_same_pti.LW
p655
aVtc_241_066_israu_new_gn_to_s4_pdp_to_bearer_two_pdp_one_arp_higher_than_policy_map.LW
p656
aVtc_241_431_intra_rau_with_bearer_sgw_unchange_2_pdns_with_one_modify_no_response.LW
p657
aVtc_39_023_periodic_rau_move_with_authentication.LW
p658
aVtc_267_730_Service_Request__CS_paging_while_waiting_for_Modify_Bearer_Response.L14b
p659
aVtc_103_800_device_watchdog_request_to_SGSN_MME.L14b
p660
aVtc_286_118_pdn_disconnect_finished_pdn_connectivity_with_same_pti.L14b
p661
aVtc_349_003_Activation__Secondary_Activation_with_same_ti_while_waiting_for_CCA_initial.WG14a
p662
aVtc_217_028_rau_to_sgsn_subscription_withdrawn_when_wf_session_response.LW
p663
aVtc_267_004_Service_Request__Downlink_Data_Notification_while_waiting_for_Service_Request.LW
p664
aVtc_210_046_mme_initiated_detach_with_reattach_required.LW
p665
aVtc_326_207_Intra_TAU_Recovery_with_1xrtt_cs_registration_then_CSFB_to_1xrtt.LW
p666
aVtc_219_131_s3_handover_w_to_l_with_cl_two_pdns_one_failed_sgw_relocation.LW
p667
aVtc_23_13_israu_out.LW
p668
aVtc_23_09_transfer_to_primary_and_change_vip_addr.LW
p669
aVtc_262_526_attach_ula_dia_unable_to_comply_nw_failure_for_roamer.LW
p670
aVtc_347_212_Attach__Location_Report_while_waiting_for_Attach_Complete.LW
p671
aVtc_286_118_pdn_disconnect_finished_pdn_connectivity_with_same_pti.LW
p672
aVtc_298_702_pgw_init_modification_ef_ms_deact_req_tdi_false_ti_default_wf_modify_accept.LW
p673
aVtc_241_159_israu_old_wait_for_sgsn_context_ack_interfere_by_reset_and_detach.LW
p674
aVtc_217_802_rau_to_gn_sgsn_tranfer_attach_when_wf_sgsn_context_ack.L14b
p675
aVtc_214_503_mt_sms_while_wf_lu_accept.L14b
p676
aVtc_286_118_pdn_disconnect_finished_pdn_connectivity_with_same_pti.L14b
p677
aVtc_260_218_receive_m3_reset_req_while_wf_m3_start_resp_with_resp.L14b
p678
aVtc_183_008_itc_sctp_encrypted.LWG
p679
aVtc_321_091_mt_sms_mf.LWG
p680
aVtc_298_690_S4_3GDT_Service_request_wait_MBR_ef_delete_bearer_request_lbi.LWG
p681
aVtc_214_099_large_and_sctp_restart.LWG
p682
aVtc_195_208_mme_logging_maximum_modify_eps_bearer_context.LWG
p683
aVtc_92_05_60_old_format_counters.LWG
p684
aVtc_92_09_20_autoupdate.LWG
p685
aVtc_103_1000_modify_diameter_peer_prio.LWG
p686
aVtc_103_832_DPR_cause_REBOOTING.LWG
p687
aVtc_103_1103_fallback_to_imsins_resend_no_more_peers.LWG
p688
aVtc_194_202_isd_pdn_type_change_one_pdn_connection_impacted.LWG
p689
aVtc_310_335_ef_dbr_non_voice_bearer_wf_forward_relocation_complete_and_forward_relocation_complete_ack.LWG
p690
aVtc_304_112_initial_ue_intra_tau_ecm_idle_control_mode_threshold_exceeded_usc_reject_intruder.LWG
p691
aVtc_304_266_tau_from_gnsgsn_2g_control_mode_wf_delete_all_bearers_response_exception_case_reject_congestion_subscriber_cancelled.LWG
p692
aVtc_59_9_mtmsi_restart_counter.LWG
p693
aVtc_286_118_pdn_disconnect_finished_pdn_connectivity_with_same_pti.LWG
p694
aVtc_56_21_sending_recognized_information_in_log.LWG
p695
aVtc_100_67_intra_w_to_g_mf_with_lawful_intercept.LWG
p696
aVtc_205_71_01_ss7_SCCP_CR_DT1_RLSD.LWG
p697
aVtc_52_14_inter_old_treloccomplete_timeout.LWG
p698
aVtc_219_131_s3_handover_w_to_l_with_cl_two_pdns_one_failed_sgw_relocation.LWG
p699
aVtc_24_134_msc_pool_ngaf_gs_null_bssap_msg_to_msc.LWG
p700
aVtc_313_001_inter_new_srns_reloc_s16_without_sgw_change.W14b
p701
aVtc_196_254_nrspca_reject_cause26_high_load.W14b
p702
aVtc_321_071_gn_logging_ggsn_initiate_pdp_ctx_modification_and_deactivation.W14b
p703
aVtc_298_723_service_request_ef_ms_deact_ti_default_wf_rab_assignment_response.W14b
p704
aVtc_236_039_s4_3gdt_detach_during_waiting_for_modify_bearer_rsp_in_active_procedure.W14b
p705
aVtc_84_71_provide_subscriber_location_ef_paging_interrupted_by_rau_req.G14b
p706
aVtc_19_48_attach_start_move_intra_rau_move_initiated_detach_req_before_rau_complete_ignored.G14b
p707
aVtc_209_211_s4_no_sm_events_activate_failed.LWG
p708
aVtc_179_318_Ccheck_TraceCollectionIpv6server.LWG
p709
aVtc_321_093_mt_sms_segmented_tc_u_abort_after_second_segment.LWG
p710
aVtc_321_120_ms_send_gmm_status_during_attach.LWG
p711
aVtc_220_025_csfb_to_1xrtt_ue_suspended_hss_reset.LWG
p712
aVtc_286_118_pdn_disconnect_finished_pdn_connectivity_with_same_pti.LWG
p713
aVtc_310_335_ef_dbr_non_voice_bearer_wf_forward_relocation_complete_and_forward_relocation_complete_ack.LWG
p714
aVtc_206_023_ebm_server_connection_failed.LWG
p715
aVtc_183_008_itc_sctp_encrypted.LWG
p716
aVtc_219_131_s3_handover_w_to_l_with_cl_two_pdns_one_failed_sgw_relocation.LWG
p717
aVtc_56_21_sending_recognized_information_in_log.LWG
p718
aVtc_238_178_mme_eps_irat_Gn_ho_target__type_c_emc_cancel.LWG
p719
aVtc_214_099_large_and_sctp_restart.LWG
p720
aVtc_665_21_lr_then_gain.LWG
p721
aVtc_274_404_DDN_interfere_intra_tau_active_flag_off.LWG
p722
aVtc_334_107_sgw_restart_mf_restoration_trigger_by_ReleaseAccessBearerResponse.LWG
p723
aVtc_334_231_sgw_restart_counter_changed_inter_new_srns_reloc_s16_without_sgw_change.LWG
p724
aVtc_327_163_recovery_intra_TAU_Context_Request_while_waiting_for_TAU_Complete.LWG
p725
aVtc_316_297_Attach_Detach_Then_Inter_MME_TAU_New_MME__Buffer_List_Delete.LWG
p726
aVtc_92_05_60_old_format_counters.LWG
p727
aVtc_23_13_israu_out.LWG
p728
aVtc_298_207_SIBD_S4_Service_Request_PDP_Context_Status_idle.LWG
p729
aVtc_298_424_ms_init_deact_ef_delicated_non_gbr_bearer_deact_interfered_by_rab_release_request.LWG
p730
aVtc_73_41_gtpu_sgsn_dont_send_gpu_echo_request_w.LWG
p731
aVtc_363_011_cli_get_ra.LWG
p732
aVtc_100_21_inter_w_to_g_old_mf_with_lawful_intercept.LWG
p733
aVtc_100_67_intra_w_to_g_mf_with_lawful_intercept.LWG
p734
aVtc_259_67_ef_provide_subscriber_information_attach_old_w.LWG
p735
aVtc_39_601_mas_unsucc_fwd_reloc_resp_mandatory_ie_missing_stop_source.LWG
p736
aVtc_239_620_inter_rau_new_with_bearer_sgw_not_change_isd_odb_bit0_wf_rau_compl_deactivation.G14b
p737
aVtc_84_71_provide_subscriber_location_ef_paging_interrupted_by_rau_req.G14b
p738
aVtc_84_80_provide_subscriber_locaiton_ef_paging_interrupted_by_attach.G14b
p739
aVtc_247_73_inter_w_to_l_old_3gdt_forward_relocation_complete_notify_timeout_s6d.W14b
p740
aVtc_298_201_SIBD_S4_RAB_Release_3GDT_GTP_Resource_Unavailable.W14b
p741
aVtc_236_311_HO_over_S3_3GDT_switchback_ef_delete_bearer_request_received_wf_rab_assignment_response.W14b
p742
aVtc_359_068_handover_from_non3gpp_ef_ISD_wf_modify_bearer_request.W14b
p743
aVtc_286_118_pdn_disconnect_finished_pdn_connectivity_with_same_pti.L14b
p744
aVtc_262_1055_imsi_attach_with_csg_id_is_rejected.L14b
p745
aVtc_346_493_Small_Local_Restart__Terminate_when_UE_S1_release.L14b
p746
aVtc_346_576_AF__HO_X2_2PDN_CSR_failure_for_1PDN_terminate_sx.L14b
p747
aVtc_103_903_primary_or_secondary_realm_routing_own_realm.L14b
p748
aVtc_327_012_recovery_intra_TAU__initial_Attach_Request_while_waiting_for_Ue_Backup_Response.L14b
p749
aVtc_313_281_inter_new_srns_reloc_s16_with_sgw_change_downlink_data_notification_with_cause_received_wf_rau_complete.WG14a
p750
aVtc_73_07_itc_encrypted_gtpu_s4_payload_w.WG14a
p751
aVtc_219_131_s3_handover_w_to_l_with_cl_two_pdns_one_failed_sgw_relocation.LW
p752
aVtc_241_432_intra_rau_with_bearer_sgw_unchange_2_pdns_3gdt.LW
p753
aVtc_38_169_irat_old_pdp_ggsn_not_responding.LW
p754
aVtc_26_033_service_request_data_context_MBR0.LW
p755
aVtc_286_118_pdn_disconnect_finished_pdn_connectivity_with_same_pti.LW
p756
aVtc_304_266_tau_from_gnsgsn_2g_control_mode_wf_delete_all_bearers_response_exception_case_reject_congestion_subscriber_cancelled.LW
p757
aVtc_275_073_tau_inter_new_no_update_location_response_sgsn00040258.LW
p758
aVtc_260_272_receive_sm_stop_req_while_wf_setup_iteration.LW
p759
aVtc_298_231_SIBD_S4_RAB_Reestablishment_failed.LW
p760
aVtc_103_853_error_code_DIAMETER_INVALID_HDR_BITS.LW
p761
aVtc_103_1100_resending_AIR_dpl_changed.LW
p762
aVtc_103_1110_attach_negative_AIA_resend_success_s6d.LW
p763
aVtc_327_610_Inter_TAU_SGW_Changed_then_Intra_TAU_while_waiting_for_20s_timeout.LW
p764
aVtc_26_149_inter_sgsn_back_before_20s_with_qos_upgradeAllowed.W14b
p765
aVtc_324_226_ef_detach_request_abort_wf_modify_bearer_response_wf_update_location_hlr_ack_timeout.W14b
p766
aVtc_38_80_intra_rau_new_rnc_with_authentication_wrong_ptmsi_signature.W14b
p767
aVtc_38_81_intra_rau_new_rnc_with_authentication_no_ptmsi_signature.W14b
p768
aVtc_38_303_israu_new_sgsn_no_imsi_in_sgsn_context_response.W14b
p769
aVtc_241_301_israu_new_create_session_failed_and_paging_timeout.LW
p770
aVtc_241_432_intra_rau_with_bearer_sgw_unchange_2_pdns_3gdt.LW
p771
aVtc_39_442_mas_one_pdp_hlr_no_response_then_service_req_with_update_pdp_fail_3gdt_target.LW
p772
aVtc_103_701_MME_restarts.LW
p773
aVtc_103_1007_secondary_dpl_set_and_then_emptied.LW
p774
aVtc_103_1132_sx_resend__CCR_I_diameter_out_of_space_another_pdn_timeout_diameter_too_busy_host_and_realm.LW
p775
aVtc_194_505_Notification_during_Intra_TAU_without_SGW_Relocation_HSS_Reset_Before_TAU.LW
p776
aVtc_23_13_israu_out.LW
p777
aVtc_286_118_pdn_disconnect_finished_pdn_connectivity_with_same_pti.LW
p778
aVtc_260_218_receive_m3_reset_req_while_wf_m3_start_resp_with_resp.LW
p779
aVtc_219_131_s3_handover_w_to_l_with_cl_two_pdns_one_failed_sgw_relocation.LW
p780
aVtc_06_513_apn_resolution_main_flow_resolute_based_on_apn.G14b
p781
aVtc_219_131_s3_handover_w_to_l_with_cl_two_pdns_one_failed_sgw_relocation.LWG
p782
aVtc_92_05_60_old_format_counters.LWG
p783
aVtc_194_506_Notification_during_Intra_MME_TAU_without_SGW_Relocation_Procedure.LWG
p784
aVtc_194_505_Notification_during_Intra_TAU_without_SGW_Relocation_HSS_Reset_Before_TAU.LWG
p785
aVtc_348_369_inter_srns_reloc_af__new_sgsn_update_location_ack_failed.LWG
p786
aVtc_286_118_pdn_disconnect_finished_pdn_connectivity_with_same_pti.LWG
p787
aVtc_346_561_AF__HO_Inter_Target_from_gn_ULR_ODB_bit0_detach_ue_terminate_sx.LWG
p788
aVtc_310_335_ef_dbr_non_voice_bearer_wf_forward_relocation_complete_and_forward_relocation_complete_ack.LWG
p789
aVtc_39_073_attach_move_resend_attach_request_move_stopped.LWG
p790
aVtc_293_031_tau_after_ho_tz_change_nas_non_delivery_x2_handover_triggered.LWG
p791
aVtc_183_008_itc_sctp_encrypted.LWG
p792
aVtc_58_2_dyn_to_dyn.LWG
p793
aVtc_316_271_RAU_To_S4_SGSN_With_Two_PDN_Connections_Subpool_Id_Change__Delete_UE_Backup.LWG
p794
aVtc_236_286_3gdt_swichback_delete_bearer_request_received_wf_modify_bearer_response.LWG
p795
aVtc_31_034_service_request_ul_fails_network_failure_other.LWG
p796
aVtc_165_10_check_resource_alarms_ap.LWG
p797
aVtc_97_035_inter_sgsn_psho_mf_with_lawful_intercept.LWG
p798
aVtc_24_186_msc_pool_sgsn_pool_move_lu_reject_imsi_unknown_hlr.LWG
p799
aVtc_214_099_large_and_sctp_restart.LWG
p800
aVtc_241_301_israu_new_create_session_failed_and_paging_timeout.LWG
p801
aVtc_241_303_intra_rau_create_session_failed_and_paging_timeout.LWG
p802
aVtc_241_405_israu_new_with_16m_flag_allowed_in_context_response_and_epc_cap_in_rau_req_transfer_to_new_tcw.LWG
p803
aVtc_280_142_tz_change_create_bearer_intra_tau_active.L14b
p804
aVtc_286_118_pdn_disconnect_finished_pdn_connectivity_with_same_pti.L14b
p805
aVtc_324_327_ef_service_req_data_direct_transfer_ingore.WG14a
p806
aVtc_322_050_smooth_move_ebt_rau_after_move.WG14a
p807
aVtc_298_690_S4_3GDT_Service_request_wait_MBR_ef_delete_bearer_request_lbi.W14b
p808
aVtc_321_076_gn_logging_inter_srns_relocation_cancel_source.W14b
p809
aVtc_248_86_inter_l_to_w_new_inactive_pdp_context_status_dedicated_inactive.W14b
p810
aVtc_313_281_inter_new_srns_reloc_s16_with_sgw_change_downlink_data_notification_with_cause_received_wf_rau_complete.WG14a
p811
aVtc_260_272_receive_sm_stop_req_while_wf_setup_iteration.L14b
p812
aVtc_225_802_csfb_to_g_without_dtm_delete_bearer_ho_to_no_3gpp_wf_delete_gbr_bearer_response.L14b
p813
aVtc_103_903_primary_or_secondary_realm_routing_own_realm.L14b
p814
aVtc_214_503_mt_sms_while_wf_lu_accept.L14b
p815
aVtc_286_118_pdn_disconnect_finished_pdn_connectivity_with_same_pti.L14b
p816
aVtc_288_365_pgw_init_bearer_mod_qci_counters__qci4_8_128_129_254_255.L14b
p817
aVtc_294_330_intra_handover_sgw_relocation_ho_notify_timer_expires.LWG
p818
aVtc_39_920_ef_seamless_move_interrupted_by_transferred_attach.LWG
p819
aVtc_179_318_Ccheck_TraceCollectionIpv6server.LWG
p820
aVtc_665_2_ncs_init_cm_restart_with_traffic.LWG
p821
aVtc_26_058_activate_3_primary_contexts_different_policy_maps.LWG
p822
aVtc_26_163_service_request_after_ISRAU_complete_with_subscriber_data_no_changed.LWG
p823
aVtc_166_269_israu_new_dt_apn_list_empty_mode_3.LWG
p824
aVtc_342_041_x2_attached_user_online_notification_content.LWG
p825
aVtc_286_118_pdn_disconnect_finished_pdn_connectivity_with_same_pti.LWG
p826
aVtc_241_066_israu_new_gn_to_s4_pdp_to_bearer_two_pdp_one_arp_higher_than_policy_map.LWG
p827
aVtc_180_02_test_multiple_ip_w.LWG
p828
aVtc_298_702_pgw_init_modification_ef_ms_deact_req_tdi_false_ti_default_wf_modify_accept.LWG
p829
aVtc_183_008_itc_sctp_encrypted.LWG
p830
aVtc_100_21_inter_w_to_g_old_mf_with_lawful_intercept.LWG
p831
aVtc_194_506_Notification_during_Intra_MME_TAU_without_SGW_Relocation_Procedure.LWG
p832
aVtc_194_505_Notification_during_Intra_TAU_without_SGW_Relocation_HSS_Reset_Before_TAU.LWG
p833
aVtc_92_05_60_old_format_counters.LWG
p834
aVtc_275_073_tau_inter_new_no_update_location_response_sgsn00040258.LWG
p835
aVtc_103_1145_sx_resend__CCR_U_retransmit_but_no_resending.LWG
p836
aVtc_348_369_inter_srns_reloc_af__new_sgsn_update_location_ack_failed.LWG
p837
aVtc_97_035_inter_sgsn_psho_mf_with_lawful_intercept.LWG
p838
aVtc_340_124_oms_consistence_check_for_action_pool_move_validation_start.LWG
p839
aVtc_326_312_Service_Request_with_unknown_STMSI_1xrtt_cs_registration_timeout.LWG
p840
aVtc_326_684_tau_intra_SGW_unavailable_active_flag_off_after_MME_large_restart__create_session_partition_fail.LWG
p841
aVtc_214_099_large_and_sctp_restart.LWG
p842
aVtc_259_106_ef_tads_s4_interfere_inter_rau_old_w.LWG
p843
aVtc_219_131_s3_handover_w_to_l_with_cl_two_pdns_one_failed_sgw_relocation.LWG
p844
aVtc_327_037_recovery_intra_TAU_active_off_sgw_unchanged__RAR_wf_CSR_due_to_S11_linkdown.LW
p845
aVtc_286_118_pdn_disconnect_finished_pdn_connectivity_with_same_pti.LW
p846
aVtc_298_424_ms_init_deact_ef_delicated_non_gbr_bearer_deact_interfered_by_rab_release_request.LW
p847
aVtc_248_86_inter_l_to_w_new_inactive_pdp_context_status_dedicated_inactive.LW
p848
aVtc_275_073_tau_inter_new_no_update_location_response_sgsn00040258.LW
p849
aVtc_12_31_attach_ptmsi_new_sgsn_imsi_not_known_with_ap_index_transfer.LW
p850
aVtc_12_134_attach_with_extended_mmumoc_iu_inactivity_timer.LW
p851
aVtc_219_131_s3_handover_w_to_l_with_cl_two_pdns_one_failed_sgw_relocation.LW
p852
aVtc_103_1006_secondary_dpl_used_when_all_peers_in_dpl_unavailable_no_sls_peers_same_prio.LW
p853
aVtc_193_029_auth_failure_non_consecutive_synch_failures.LW
p854
aVtc_326_280_Intra_TAU_with_unknown_GUTI_SGW_not_change_SGW_unavailable.LW
p855
aVtc_73_07_itc_encrypted_gtpu_s4_payload_w.WG14a
p856
aVtc_248_419_inter_l_to_w_new_two_pdns_with_target_gw_interface_gp_and_ipv6_user_plan_off.W14b
p857
aVtc_12_4_attach_ptmsi_signalling_connection_release.W14b
p858
aVtc_313_281_inter_new_srns_reloc_s16_with_sgw_change_downlink_data_notification_with_cause_received_wf_rau_complete.W14b
p859
aVtc_236_049_s4_3gdt_rnc_reset_during_waiting_for_modify_beaer_rsp_in_service_request_procedure.W14b
p860
aVtc_298_680_pgw_init_modification_waiting_paging_response_ef_delete_bearer_request.W14b
p861
aVtc_298_826_NRSPCA_S4_nsapi_collision_receiving_detach_request_while_waiting_for_delete_bearer_request.W14b
p862
aVtc_179_318_Ccheck_TraceCollectionIpv6server.LWG
p863
aVtc_183_008_itc_sctp_encrypted.LWG
p864
aVtc_214_099_large_and_sctp_restart.LWG
p865
aVtc_39_601_mas_unsucc_fwd_reloc_resp_mandatory_ie_missing_stop_source.LWG
p866
aVtc_259_66_ef_provide_subscriber_information_attach_old_g.LWG
p867
aVtc_259_83_isd_tads_s4_gsm_act_deact_pdp_context.LWG
p868
aVtc_259_133_ef_provide_subscriber_information_psho_inter_old_g_to_w.LWG
p869
aVtc_56_21_sending_recognized_information_in_log.LWG
p870
aVtc_324_152_af_rab_assignment_resp_downgrade_qos_dedicated_bearer_3gdt_rab_partially_setup.LWG
p871
aVtc_324_456_ef_detach_request_poweroff_abort_wf_modify_bearer_response_wf_update_location_hlr_ack_timeout.LWG
p872
aVtc_238_026_mme_eps_irat_ho_target__multi_pdn_sgw_relocation_setup_fails.LWG
p873
aVtc_298_301_EF_SIBD_S4_Activate_From_MS_TI_Flag.LWG
p874
aVtc_298_208_SIBD_S4_Service_Request_PDP_Context_Status_Connect.LWG
p875
aVtc_298_319_EF_SIBD_S4_RAB_Release.LWG
p876
aVtc_298_820_activate_secondary_pdp_context_request_with_NSAPI_exist_dedicate_bearer_idle_state.LWG
p877
aVtc_298_832_NRSPCA_S4_nsapi_collision_after_RAU_one_pdn_failed.LWG
p878
aVtc_219_131_s3_handover_w_to_l_with_cl_two_pdns_one_failed_sgw_relocation.LWG
p879
aVtc_24_165_msc_pool_gs_null_combined_attach_msc_emptying.LWG
p880
aVtc_23_13_israu_out.LWG
p881
aVtc_216_106_icmpv6_outNeighborSol.LWG
p882
aVtc_286_118_pdn_disconnect_finished_pdn_connectivity_with_same_pti.LWG
p883
aVtc_266_533_SGsAP_Paging_Request_init_service_request_no_modify_bearer_response.LWG
p884
aVtc_59_9_mtmsi_restart_counter.LWG
p885
aVtc_241_432_intra_rau_with_bearer_sgw_unchange_2_pdns_3gdt.LWG
p886
aVtc_92_05_60_old_format_counters.LWG
p887
aVtc_236_009_s4_3gdt_paging_by_dl_pdu_two2one_tunnel.LWG
p888
aVtc_262_1055_imsi_attach_with_csg_id_is_rejected.L14b
p889
aVtc_286_118_pdn_disconnect_finished_pdn_connectivity_with_same_pti.L14b
p890
aVtc_214_801_mo_sms_active_nas_non_delivery_s1_intra_system_handover_triggered_HO_ongoing_when_hold_timeout.L14b
p891
aVtc_367_106_pgw_reselection_ho_with_qci_1_bearer_not_setup_reattach_required.L14b
p892
aVtc_194_100_check_gauge_unstable_not_parked.L14b
p893
aVtc_310_131_af__Gn_SGSN_accepted_only_a_subset_of_PDN_Connections_in_FRResponse.L14b
p894
aVtc_286_118_pdn_disconnect_finished_pdn_connectivity_with_same_pti.LW
p895
aVtc_358_107_lte_international_roaming_user_intra_tau_normally_between_same_ip_area.LW
p896
aVtc_346_610_AF__HO_Intra_1PDN_CSR_failure_HO_preparation_failure.LW
p897
aVtc_346_602_Location_Based_Policies__User_Location_Changes_Sx_Gx_termination_happens_before_CCA_received_for_same_PDN.LW
p898
aVtc_280_142_tz_change_create_bearer_intra_tau_active.LW
p899
aVtc_193_400_auth_vectors_mf_4_vectors.LW
p900
aVtc_26_095_israu_rnc_change_to_old_neg.LW
p901
aVtc_324_239_ef_nas_ignore_update_loc_received_wf_modify_bearer_response.LW
p902
aVtc_275_100_tau_inter_new_imei_check_greylisted_after_tau_accept.LW
p903
aVtc_23_13_israu_out.LW
p904
aVtc_236_041_s4_3gdt_detach_modify_bearer_response_reject_in_active_procedure.W14b
p905
aVtc_248_86_inter_l_to_w_new_inactive_pdp_context_status_dedicated_inactive.W14b
p906
aVtc_359_031_handover_from_non3gpp_af_reject_due_to_dns_query_pgw_fail.W14b
p907
aVtc_73_07_itc_encrypted_gtpu_s4_payload_w.WG14a
p908
aVtc_84_80_provide_subscriber_locaiton_ef_paging_interrupted_by_attach.G14b
p909
aVtc_291_40_action_ue_trace.LWG
p910
aVtc_259_50_isd_tads_s4_w_pmmidle_attach_and_detached.LWG
p911
aVtc_183_008_itc_sctp_encrypted.LWG
p912
aVtc_194_506_Notification_during_Intra_MME_TAU_without_SGW_Relocation_Procedure.LWG
p913
aVtc_215_001_ipv6_InReceives.LWG
p914
aVtc_214_099_large_and_sctp_restart.LWG
p915
aVtc_23_13_israu_out.LWG
p916
aVtc_243_801_tau_from_sgsn_s3_volte_bearer_gauge_keep_old_sgw.LWG
p917
aVtc_294_435_mme_handle_eps_handover_af_tenb_not_support_direct_forwarding.LWG
p918
aVtc_39_070_attach_move_no_attach_complete_from_ms.LWG
p919
aVtc_39_920_ef_seamless_move_interrupted_by_transferred_attach.LWG
p920
aVtc_262_084_emergency_imsi_attach_unauthentication_fails_in_hss.LWG
p921
aVtc_262_043_imsi_attach_NOK_emm_registered_ecm_connected.LWG
p922
aVtc_241_432_intra_rau_with_bearer_sgw_unchange_2_pdns_3gdt.LWG
p923
aVtc_286_118_pdn_disconnect_finished_pdn_connectivity_with_same_pti.LWG
p924
aVtc_244_025_mt_lr_connected_mode_type_d_emergency_imei_only.LWG
p925
aVtc_326_245_Intra_TAU_Recovery_TAU_Complete_timeout.LWG
p926
aVtc_56_21_sending_recognized_information_in_log.LWG
p927
aVtc_166_130_israu_new_3gdt_apn_not_in_hlr.LWG
p928
aVtc_363_021_gbip_feature_off_nses_bscconfirmed_trun_to_false.LWG
p929
aVtc_245_301_inter_rau_insert_entry_into_interface_cache.LWG
p930
aVtc_321_091_mt_sms_mf.LWG
p931
aVtc_92_05_60_old_format_counters.LWG
p932
aVtc_80_095_ms_modify_conv_ggsn_upgrades_gbr_no_new_resources.LWG
p933
aVtc_12_512_pmm_undefined_attach_when_updating_location_interfered_by_rnc_reset.LW
p934
aVtc_241_066_israu_new_gn_to_s4_pdp_to_bearer_two_pdp_one_arp_higher_than_policy_map.LW
p935
aVtc_322_083_smooth_move_ef_rau_request_wf_service_request.LW
p936
aVtc_196_254_nrspca_reject_cause26_high_load.LW
p937
aVtc_23_13_israu_out.LW
p938
aVtc_326_211_Intra_TAU_with_unknown_GUTI_backup_no_vector_change_Replication_Option.LW
p939
aVtc_286_118_pdn_disconnect_finished_pdn_connectivity_with_same_pti.LW
p940
aVtc_219_131_s3_handover_w_to_l_with_cl_two_pdns_one_failed_sgw_relocation.LW
p941
aVtc_298_702_pgw_init_modification_ef_ms_deact_req_tdi_false_ti_default_wf_modify_accept.LW
p942
aVtc_314_022_hss_reset_restoration_followed_by_service_request_smah_off.LW
p943
aVtc_199_120_s11_path_management_small_restarted.LW
p944
aVtc_250_160_s6d_IDR_IDA_Change_GPRS_to_eps_subscription.LW
p945
aVtc_262_504_attach_pb_gtpv2_pb_off.LW
p946
aVtc_237_422_mme_af_eps_irat_ho_source__two_CS_paging_sent_to_mme_wf_forward_relocation_response.L14b
p947
aVtc_335_44_wifi_to_mobility_in_ecm_idle_unknown_user_af__feature_off_in_enodeb.L14b
p948
aVtc_103_860_ue_trace_retransmit.L14b
p949
aVtc_286_118_pdn_disconnect_finished_pdn_connectivity_with_same_pti.L14b
p950
aVtc_274_605_combined_TAU_two_CS_Call_Paging_request_while_waiting_for_AIA.L14b
p951
aVtc_289_017_Modify_bearer__ERAB_modify_request_meanwhile_path_switch_request_HO_success.L14b
p952
aVtc_310_105_af__SGSN_not_found.L14b
p953
aVtc_262_1055_imsi_attach_with_csg_id_is_rejected.L14b
p954
aVtc_203_300_mme_eps_ho_source_type_a_same_plmn.L14b
p955
aVtc_286_118_pdn_disconnect_finished_pdn_connectivity_with_same_pti.L14b
p956
aVtc_332_062_2_mf__paging_due_to_UBR_during_paging_due_to_CBR_latest_with_same_prio.L14b
p957
aVtc_217_111_rau_to_gn_sgsn_timeout_when_wf_delete_session_response_with_emergency_pdn.L14b
p958
aVtc_44_850_mme_assoc_reestablish__board_restart_s1_mme.L14b
p959
aVtc_286_118_pdn_disconnect_finished_pdn_connectivity_with_same_pti.LW
p960
aVtc_219_131_s3_handover_w_to_l_with_cl_two_pdns_one_failed_sgw_relocation.LW
p961
aVtc_82_022_rab_modify_interrupted_by_israu_II.LW
p962
aVtc_248_422_inter_l_to_w_one_pdn_default_rab_failed_dedicate_rab_ok_without_sgw_change.LW
p963
aVtc_578_52_check_uetracer_parser.LW
p964
aVtc_39_601_mas_unsucc_fwd_reloc_resp_mandatory_ie_missing_stop_source.LW
p965
aVtc_298_207_SIBD_S4_Service_Request_PDP_Context_Status_idle.LW
p966
aVtc_298_832_NRSPCA_S4_nsapi_collision_after_RAU_one_pdn_failed.LW
p967
aVtc_314_016_hlr_init_qos_modification_mbr_no_mbc.LW
p968
aVtc_326_672_tau_intra_SGW_unavailable_active_flag_off_after_MME_large_restart__with_static_SGW.LW
p969
aVtc_38_81_intra_rau_new_rnc_with_authentication_no_ptmsi_signature.LW
p970
aVtc_241_405_israu_new_with_16m_flag_allowed_in_context_response_and_epc_cap_in_rau_req_transfer_to_new_tcw.LW
p971
aVtc_241_431_intra_rau_with_bearer_sgw_unchange_2_pdns_with_one_modify_no_response.LW
p972
aVtc_241_621_israu_new_with_bearer_detach_after_context_response.LW
p973
aVtc_275_054_tau_inter_new_active_flag_get_new_sgw_two_pdn_connections_first_ok_second_failed.LW
p974
aVtc_12_512_pmm_undefined_attach_when_updating_location_interfered_by_rnc_reset.LW
p975
aVtc_194_505_Notification_during_Intra_TAU_without_SGW_Relocation_HSS_Reset_Before_TAU.LW
p976
aVtc_73_07_itc_encrypted_gtpu_s4_payload_w.WG14a
p977
aVtc_313_281_inter_new_srns_reloc_s16_with_sgw_change_downlink_data_notification_with_cause_received_wf_rau_complete.WG14a
p978
aVtc_322_029_smooth_move_af_security_mode_reject.WG14a
p979
aVtc_231_227_PGW_Initiated_Modification_EARP_idle_one_tunnel.W14b
p980
aVtc_313_281_inter_new_srns_reloc_s16_with_sgw_change_downlink_data_notification_with_cause_received_wf_rau_complete.W14b
p981
aVtc_73_21_itc_gtpu_s4_sgsn_send_echo_request_w.LWG
p982
aVtc_284_158_pdn_conn_successful_csr_piggybacked_with_cbr_pvi_pci_downgraded.LWG
p983
aVtc_92_05_60_old_format_counters.LWG
p984
aVtc_92_09_20_autoupdate.LWG
p985
aVtc_665_21_lr_then_gain.LWG
p986
aVtc_348_369_inter_srns_reloc_af__new_sgsn_update_location_ack_failed.LWG
p987
aVtc_56_21_sending_recognized_information_in_log.LWG
p988
aVtc_249_222_attach_insert_odb_ptmsi_attach_activation_reject.LWG
p989
aVtc_286_118_pdn_disconnect_finished_pdn_connectivity_with_same_pti.LWG
p990
aVtc_320_072_ue_trace_ptmsi_conflict_with_another_ms.LWG
p991
aVtc_363_018_mmi_get_ra.LWG
p992
aVtc_97_035_inter_sgsn_psho_mf_with_lawful_intercept.LWG
p993
aVtc_326_222_Intra_TAU_Recovery_after_Node_Restart_fail_GUTI_mismatch.LWG
p994
aVtc_59_9_mtmsi_restart_counter.LWG
p995
aVtc_38_169_irat_old_pdp_ggsn_not_responding.LWG
p996
aVtc_183_008_itc_sctp_encrypted.LWG
p997
aVtc_100_21_inter_w_to_g_old_mf_with_lawful_intercept.LWG
p998
aVtc_666_06_block_rt_board.LWG
p999
aVtc_278_011_Inter_TAU_Old_MME__TAU_Request_own_GUTI_while_waiting_for_Cancel_Location.LWG
p1000
aVtc_334_231_sgw_restart_counter_changed_inter_new_srns_reloc_s16_without_sgw_change.LWG
p1001
aVtc_214_099_large_and_sctp_restart.LWG
p1002
aVtc_179_318_Ccheck_TraceCollectionIpv6server.LWG
p1003
aVtc_304_408_Emergency_Service_Request__control_mode_threshold_not_reached.LWG
p1004
aVtc_210_046_mme_initiated_detach_with_reattach_required.LW
p1005
aVtc_241_621_israu_new_with_bearer_detach_after_context_response.LW
p1006
aVtc_236_311_HO_over_S3_3GDT_switchback_ef_delete_bearer_request_received_wf_rab_assignment_response.LW
p1007
aVtc_298_829_NRSPCA_S4_nsapi_collision_iu_release_request_while_waiting_for_delete_bearer_request.LW
p1008
aVtc_219_131_s3_handover_w_to_l_with_cl_two_pdns_one_failed_sgw_relocation.LW
p1009
aVtc_39_601_mas_unsucc_fwd_reloc_resp_mandatory_ie_missing_stop_source.LW
p1010
aVtc_286_118_pdn_disconnect_finished_pdn_connectivity_with_same_pti.LW
p1011
aVtc_327_037_recovery_intra_TAU_active_off_sgw_unchanged__RAR_wf_CSR_due_to_S11_linkdown.LW
p1012
aVtc_250_160_s6d_IDR_IDA_Change_GPRS_to_eps_subscription.W14b
p1013
aVtc_241_201_s4_sgsn_pool_ms_move_target_sgsn_mf.W14b
p1014
aVtc_236_029_s4_3gdt_release_access_bearers_failed.W14b
p1015
aVtc_286_118_pdn_disconnect_finished_pdn_connectivity_with_same_pti.L14b
p1016
aVtc_238_178_mme_eps_irat_Gn_ho_target__type_c_emc_cancel.L14b
p1017
aVtc_273_004_tau_intra_normal_idle_guti_realloc_no_tau_complete_new_guti_used.L14b
p1018
aVtc_275_730_inter_tau_target_detach_with_cause_of_reattach_not_required_with_not_allowed_apn_in_odb_free_apn_list__odb_bit0.L14b
p1019
aVtc_103_1146_sx_resend__CCR_T_retransmit_but_no_resending.L14b
p1020
aVtc_327_037_recovery_intra_TAU_active_off_sgw_unchanged__RAR_wf_CSR_due_to_S11_linkdown.L14b
p1021
aVtc_346_494_Small_Local_Restart__Terminate_when_UE1_PDN_Connectivity_waiting_for_CCAI_UE2_Location_Report_waiting_for_CCAU.L14b
p1022
aVtc_262_084_emergency_imsi_attach_unauthentication_fails_in_hss.L14b
p1023
aVtc_236_311_HO_over_S3_3GDT_switchback_ef_delete_bearer_request_received_wf_rab_assignment_response.LWG
p1024
aVtc_28_018_mt_sms_active_pdp_context.LWG
p1025
aVtc_665_21_lr_then_gain.LWG
p1026
aVtc_286_118_pdn_disconnect_finished_pdn_connectivity_with_same_pti.LWG
p1027
aVtc_59_9_mtmsi_restart_counter.LWG
p1028
aVtc_56_2_restart.LWG
p1029
aVtc_56_21_sending_recognized_information_in_log.LWG
p1030
aVtc_298_208_SIBD_S4_Service_Request_PDP_Context_Status_Connect.LWG
p1031
aVtc_306_1141_ef_seamless_move_target_receive_path_switch_request_wf_modify_beaerer_response.LWG
p1032
aVtc_263_023_Attach_Flow__Attach_Request_Different_IEs_IP_OK_while_waiting_for_Modify_Bearer_Response.LWG
p1033
aVtc_214_099_large_and_sctp_restart.LWG
p1034
aVtc_209_201_s4_activate_failed.LWG
p1035
aVtc_39_601_mas_unsucc_fwd_reloc_resp_mandatory_ie_missing_stop_source.LWG
p1036
aVtc_219_131_s3_handover_w_to_l_with_cl_two_pdns_one_failed_sgw_relocation.LWG
p1037
aVtc_248_86_inter_l_to_w_new_inactive_pdp_context_status_dedicated_inactive.LWG
p1038
aVtc_193_214_intruder_auth_rej_expiry_of_t3460.LWG
p1039
aVtc_44_004_small_restart__sctp_fe_restart.LWG
p1040
aVtc_666_02_reboot_ss7_board.LWG
p1041
aVtc_92_05_60_old_format_counters.LWG
p1042
aVtc_183_008_itc_sctp_encrypted.LWG
p1043
aVtc_29_041_attach_w_attach_g_access_restricted_same_plmn.WG14a
p1044
aVtc_324_455_ef_detach_request_poweroff_abort_wf_rab_assignment_response_wf_update_location_hss_service_req_data.WG14a
p1045
aVtc_304_492_initial_csfb_to_1xrtt_control_mode_threshold_exceeded_int_prot_nok_usc_detach_in_ecm_idle.L14b
p1046
aVtc_347_033_Inter_HO_Target__Location_Report_BCM_Sx_only_while_waiting_for_Handover_Notify.L14b
p1047
aVtc_286_118_pdn_disconnect_finished_pdn_connectivity_with_same_pti.L14b
p1048
aVtc_322_050_smooth_move_ebt_rau_after_move.WG14a
p1049
aVtc_166_133_israu_new_3gdt_apn_from_ms.WG14a
p1050
aVtc_358_139_lte_local_user_reject_x2_handover_and_detach_restricted_area_to_unrestricted_area.LW
p1051
aVtc_281_016_Activate_bearer__ERAB_setup_response_x2_handover_triggered_two_pdn_HO_all_sessions_fail.LW
p1052
aVtc_39_771_mas_rnc_reset_when_wf_ptmsi_realloc_cmpl_source.LW
p1053
aVtc_23_10_transfer_to_primary_and_change_vip_addr_from_gn_to_gom.LW
p1054
aVtc_262_090_emergency_guti_attach.LW
p1055
aVtc_262_133_attach_throttling_rate_above_limit_feature_off.LW
p1056
aVtc_286_118_pdn_disconnect_finished_pdn_connectivity_with_same_pti.LW
p1057
aVtc_282_020_delete_bearer_request_handover_to_non_3GPP_ecm_connected_multi_pdn.LW
p1058
aVtc_298_605_sgsn_init_bearer_deact_ef_ms_deact_req_for_default_bearer_wf_rab_resp.W14b
p1059
aVtc_38_169_irat_old_pdp_ggsn_not_responding.W14b
p1060
aVtc_280_044_create_dedicated_bearers_qci_counters__qci1_7_8_9_10_69_70.LWG
p1061
aVtc_248_419_inter_l_to_w_new_two_pdns_with_target_gw_interface_gp_and_ipv6_user_plan_off.LWG
p1062
aVtc_283_038_1_GW_Deactivate_Bearer__Default_bearer_Delete_Interrupt_Dedicated_Bearer_Delete_no_response_from_ue_ecm_connected.LWG
p1063
aVtc_97_035_inter_sgsn_psho_mf_with_lawful_intercept.LWG
p1064
aVtc_263_251_Attach_Flow__Attach_Request_with_same_IE_while_waiting_for_identity_response__enhanced_imei_check.LWG
p1065
aVtc_241_068_israu_new_s4_to_s4_illegal_me_in_imei_check_after_israu_with_paging.LWG
p1066
aVtc_286_118_pdn_disconnect_finished_pdn_connectivity_with_same_pti.LWG
p1067
aVtc_214_099_large_and_sctp_restart.LWG
p1068
aVtc_92_05_60_old_format_counters.LWG
p1069
aVtc_219_131_s3_handover_w_to_l_with_cl_two_pdns_one_failed_sgw_relocation.LWG
p1070
aVtc_244_049_mt_lr_cancel_location_with_subscription_withdraw_received_wf_location_report.LWG
p1071
aVtc_243_722_tau_from_sgsn_s3_active_flag_false_ddn_with_imsi_wf_ula.LWG
p1072
aVtc_209_180_handover_w_to_l_source_s4_sgsn.LWG
p1073
aVtc_11_433_ggsn_initiated_deactivation_interfered_by_rab_release_request.LWG
p1074
aVtc_236_307_Activation_DtSelMode_5_APN_requested_wrong_SGSN_default_APN_in_APN_list_TAC_in_TAC_list.LWG
p1075
aVtc_194_505_Notification_during_Intra_TAU_without_SGW_Relocation_HSS_Reset_Before_TAU.LWG
p1076
aVtc_284_302_pdn_connectivity_and_create_bearer_different_pdn_in_parallel.LWG
p1077
aVtc_166_134_israu_new_3gdt_incompatible_ggsn.LWG
p1078
aVtc_39_601_mas_unsucc_fwd_reloc_resp_mandatory_ie_missing_stop_source.LWG
p1079
aVtc_195_208_mme_logging_maximum_modify_eps_bearer_context.LWG
p1080
aVtc_183_008_itc_sctp_encrypted.LWG
p1081
aVtc_259_93_ef_provide_subscriber_information_service_request_w.LWG
p1082
aVtc_259_116_ef_s6d_tads_interfere_inter_rau_old_w.LWG
p1083
aVtc_179_318_Ccheck_TraceCollectionIpv6server.LWG
p1084
aVtc_578_52_check_uetracer_parser.LWG
p1085
aVtc_178_990_sctp_max_profile_number.LWG
p1086
aVtc_225_730_mt_call_idle_mode_additional_paging_disabled.L14b
p1087
aVtc_199_31_unknown_teid_response.L14b
p1088
aVtc_220_609_csfb_to_1xrtt_in_ecm_idle_with_extra_pdn_and_gbr_bearers.L14b
p1089
aVtc_316_710_SubRAN_create_GaTaRange.L14b
p1090
aVtc_268_041_Timer_Based_GBR_Deact__No_GBR_then_timer_not_started.L14b
p1091
aVtc_286_118_pdn_disconnect_finished_pdn_connectivity_with_same_pti.L14b
p1092
aVtc_84_80_provide_subscriber_locaiton_ef_paging_interrupted_by_attach.G14b
p1093
aVtc_12_512_pmm_undefined_attach_when_updating_location_interfered_by_rnc_reset.W14b
p1094
aVtc_73_07_itc_encrypted_gtpu_s4_payload_w.WG14a
p1095
aVtc_236_311_HO_over_S3_3GDT_switchback_ef_delete_bearer_request_received_wf_rab_assignment_response.LWG
p1096
aVtc_214_099_large_and_sctp_restart.LWG
p1097
aVtc_214_704_combined_attach_MSC_selection_in_pool_with_all_links_breakdown.LWG
p1098
aVtc_219_131_s3_handover_w_to_l_with_cl_two_pdns_one_failed_sgw_relocation.LWG
p1099
aVtc_196_116_nrspca_with_limit_of_pdp_context_is_exceeded_uplink.LWG
p1100
aVtc_92_05_60_old_format_counters.LWG
p1101
aVtc_12_134_attach_with_extended_mmumoc_iu_inactivity_timer.LWG
p1102
aVtc_326_218_Intra_TAU_Recovery_two_PDN_partial_fail.LWG
p1103
aVtc_304_104_intra_tau_success__control_mode_threshold_exceeded.LWG
p1104
aVtc_44_750_s1_with_two_sctp_endpoints.LWG
p1105
aVtc_194_505_Notification_during_Intra_TAU_without_SGW_Relocation_HSS_Reset_Before_TAU.LWG
p1106
aVtc_27_027_mt_sms_old_cdr_format_r6.LWG
p1107
aVtc_238_243_mme_eps_irat_Gn_ho_target_unknown_HeNB_format_targetid_HeNB_GW_table_matched.LWG
p1108
aVtc_320_072_ue_trace_ptmsi_conflict_with_another_ms.LWG
p1109
aVtc_286_118_pdn_disconnect_finished_pdn_connectivity_with_same_pti.LWG
p1110
aVtc_73_21_itc_gtpu_s4_sgsn_send_echo_request_w.LWG
p1111
aVtc_259_50_isd_tads_s4_w_pmmidle_attach_and_detached.LWG
p1112
aVtc_259_116_ef_s6d_tads_interfere_inter_rau_old_w.LWG
p1113
aVtc_288_204_pgw_init_bearer_mod_QoS_UE_reject_for_all_bearers.LWG
p1114
aVtc_665_21_lr_then_gain.LWG
p1115
aVtc_183_008_itc_sctp_encrypted.LWG
p1116
aVtc_257_30_pws_sctp_device_failure.LW
p1117
aVtc_248_185_inter_l_to_w_new_rau_request_initial_ue_received_wf_fwd_relocation_compl.LW
p1118
aVtc_268_082_Timer_Based_GBR_Deact__receive_DDN_only_GBR_bearer_set_to_allbearers.LW
p1119
aVtc_298_424_ms_init_deact_ef_delicated_non_gbr_bearer_deact_interfered_by_rab_release_request.LW
p1120
aVtc_219_131_s3_handover_w_to_l_with_cl_two_pdns_one_failed_sgw_relocation.LW
p1121
aVtc_103_901_load_sharing_realm_routing_remote_realm.LW
p1122
aVtc_250_74_s6d_EF_hss_reset_waiting_delete_session_response.LW
p1123
aVtc_195_208_mme_logging_maximum_modify_eps_bearer_context.LW
p1124
aVtc_578_52_check_uetracer_parser.LW
p1125
aVtc_12_31_attach_ptmsi_new_sgsn_imsi_not_known_with_ap_index_transfer.LW
p1126
aVtc_286_118_pdn_disconnect_finished_pdn_connectivity_with_same_pti.LW
p1127
aVtc_327_036_recovery_intra_TAU__initial_intra_TAU_Request_while_waiting_for_Modify_Bearer_Response.LW
p1128
aVtc_260_098_two_mbms_session_starting_one_mce_add_two_session_send_to_new_mce.LW
p1129
aVtc_358_047_lte_iterator_EF_Pdn_Connectivity_Request_wf_delete_session_response.LW
p1130
aVtc_39_433_mas_one_pdp_downlink_data_3gdt_upd_loc_ack_b4_upd_pdp_ctx_resp_target.W14b
p1131
aVtc_236_039_s4_3gdt_detach_during_waiting_for_modify_bearer_rsp_in_active_procedure.W14b
p1132
aVtc_241_201_s4_sgsn_pool_ms_move_target_sgsn_mf.W14b
p1133
aVtc_241_635_intra_rau_with_bearer_sgw_change_with_3gdt_wait_release_access_resp_interfer_by_context_req.W14b
p1134
aVtc_250_150_isd_with_odb_init_deactivation.W14b
p1135
aVtc_298_301_EF_SIBD_S4_Activate_From_MS_TI_Flag.W14b
p1136
aVtc_27_017_mo_sms_fallback_v2_ok_previous_higher.LWG
p1137
aVtc_103_1120_attach_ula_dia_unable_to_deliver.LWG
p1138
aVtc_183_008_itc_sctp_encrypted.LWG
p1139
aVtc_220_587_csfb_to_1xrtt_in_extended_service_request_during_attach_waiting_for_modify_bearer_response.LWG
p1140
aVtc_12_134_attach_with_extended_mmumoc_iu_inactivity_timer.LWG
p1141
aVtc_298_207_SIBD_S4_Service_Request_PDP_Context_Status_idle.LWG
p1142
aVtc_166_290_apn_resolve_dt_apn_list_mode_1_wrong_apn.LWG
p1143
aVtc_92_05_60_old_format_counters.LWG
p1144
aVtc_92_02_30_meas_type.LWG
p1145
aVtc_92_09_20_autoupdate.LWG
p1146
aVtc_214_099_large_and_sctp_restart.LWG
p1147
aVtc_50_011_activate_interactive_camel_subscriber.LWG
p1148
aVtc_242_156_rau_to_sgsn_s3_type_d_emergency_allowed_irat_and_plmn_change.LWG
p1149
aVtc_39_601_mas_unsucc_fwd_reloc_resp_mandatory_ie_missing_stop_source.LWG
p1150
aVtc_286_118_pdn_disconnect_finished_pdn_connectivity_with_same_pti.LWG
p1151
aVtc_283_050_GW_Delete_Bearer_Handover_to_non_3GPP__Ue_Release_while_wf_ERAB_Release_Response.LWG
p1152
aVtc_322_006_smooth_move_mf_with_default_bearer_to_be_deleted_two_PDP.LWG
p1153
aVtc_73_41_gtpu_sgsn_dont_send_gpu_echo_request_w.LWG
p1154
aVtc_56_21_sending_recognized_information_in_log.LWG
p1155
aVtc_194_505_Notification_during_Intra_TAU_without_SGW_Relocation_HSS_Reset_Before_TAU.LWG
p1156
aVtc_38_80_intra_rau_new_rnc_with_authentication_wrong_ptmsi_signature.LWG
p1157
aVtc_263_312_Attach_Flow__Attach_Request_from_new_eNodeB__page_to_new_eNodeB.LWG
p1158
aVtc_31_123_cli_delete_subscriber_imsi_reattach_required.LWG
p1159
aVtc_327_037_recovery_intra_TAU_active_off_sgw_unchanged__RAR_wf_CSR_due_to_S11_linkdown.LWG
p1160
aVtc_363_018_mmi_get_ra.LWG
p1161
aVtc_256_010_mme_eps_srvcc_ho_source_cs_only_mf_with_rau_to_s4_sgsn_for_multiple_voice_bearers_in_one_pdn.LW
p1162
aVtc_195_208_mme_logging_maximum_modify_eps_bearer_context.LW
p1163
aVtc_318_120_sgw_restart_mf_both_s5_and_s8_interface.LW
p1164
aVtc_318_260_sgw_restart_mf_relocation_triggered_by_DDN_initiated_service_request.LW
p1165
aVtc_220_587_csfb_to_1xrtt_in_extended_service_request_during_attach_waiting_for_modify_bearer_response.LW
p1166
aVtc_298_207_SIBD_S4_Service_Request_PDP_Context_Status_idle.LW
p1167
aVtc_241_201_s4_sgsn_pool_ms_move_target_sgsn_mf.LW
p1168
aVtc_241_301_israu_new_create_session_failed_and_paging_timeout.LW
p1169
aVtc_241_068_israu_new_s4_to_s4_illegal_me_in_imei_check_after_israu_with_paging.LW
p1170
aVtc_241_303_intra_rau_create_session_failed_and_paging_timeout.LW
p1171
aVtc_306_1290_ef_seamless_move_target_receive_eNB_Configuration_Update_Handle_Continue_Current.LW
p1172
aVtc_286_118_pdn_disconnect_finished_pdn_connectivity_with_same_pti.LW
p1173
aVtc_236_167_intra_rau_dedicated_bearer_fail_partial_service_request.LW
p1174
aVtc_214_1099_la_selection_mf_reselection_combined_tau_with_imsi_attach_after_mme_triggered_imsi_detach_when_handling_sgs_paging.LW
p1175
aVtc_81_121_israu_ggsn_downgrade_to_stream_and_upgrade_gbr_no_new_resources.LW
p1176
aVtc_361_510_rau_l_to_w_S4SGSN_check_old_qos_failed_node_function_deactivate_pdp_after_rau_on.LW
p1177
aVtc_219_131_s3_handover_w_to_l_with_cl_two_pdns_one_failed_sgw_relocation.LW
p1178
aVtc_28_046_mo_sms_old_cdr_format_r7.LW
p1179
aVtc_225_115_mo_call_emergency_active_mode_ho_not_supported_with_msc_change.L14b
p1180
aVtc_237_351_mme_eps_irat_ho_source__cancel_location_after_s1rh_with_sgw_relocation.L14b
p1181
aVtc_286_118_pdn_disconnect_finished_pdn_connectivity_with_same_pti.L14b
p1182
aVtc_335_83_From_Wifi_ECM_Connected_AF__Partial_Cells_from_WIC_can_not_recognize_by_MME.L14b
p1183
aVtc_220_587_csfb_to_1xrtt_in_extended_service_request_during_attach_waiting_for_modify_bearer_response.L14b
p1184
aVtc_275_001_tau_inter_new_keep_old_sgw.L14b
p1185
aVtc_329_058_attach_rs_restricted_rr_restricted_emergency_type_b.L14b
p1186
a.