(lp0
Vtc_274_180_Intra_and_pTAU__Create_Bearer_Request_while_waiting_for_Modify_Bearer_Response.L14b
p1
aVtc_286_118_pdn_disconnect_finished_pdn_connectivity_with_same_pti.L14b
p2
aVtc_326_337_Service_Request_with_unknown_STMSI_Update_Location_Answer_skip_SubData.L14b
p3
aVtc_220_587_csfb_to_1xrtt_in_extended_service_request_during_attach_waiting_for_modify_bearer_response.L14b
p4
aVtc_29_005_activate_g_rau_w_when_data_not_confirmed.WG14a
p5
aVtc_220_587_csfb_to_1xrtt_in_extended_service_request_during_attach_waiting_for_modify_bearer_response.LW
p6
aVtc_194_084_hss_reset_after_large_restart.LW
p7
aVtc_28_002_mo_sms_service_request.LW
p8
aVtc_202_431_mf_seamless_move_target_service_request_modifyBearerReq_onePdnMultiBearer_oneBearerFail.LW
p9
aVtc_202_521_seamless_move_source_ue_ecm_idle_SGW_unavailable.LW
p10
aVtc_327_167_recovery_intra_TAU_SGSN_Context_Request_while_waiting_for_Update_Location_Answer.LW
p11
aVtc_347_236_GW_Dedicated_Bearer_Deactivate__Location_Report_while_waiting_for_eRAB_Release_Response.LW
p12
aVtc_260_242_receive_sm_start_req_while_wf_m3_stop_resp_two_mce.LW
p13
aVtc_318_263_sgw_restart_af_relocation_triggered_by_DDN_initial_context_setup_timeout.LW
p14
aVtc_286_118_pdn_disconnect_finished_pdn_connectivity_with_same_pti.LW
p15
aVtc_248_419_inter_l_to_w_new_two_pdns_with_target_gw_interface_gp_and_ipv6_user_plan_off.W14b
p16
aVtc_12_4_attach_ptmsi_signalling_connection_release.W14b
p17
aVtc_324_043_af_mbr_higher_than_policymap.W14b
p18
aVtc_313_281_inter_new_srns_reloc_s16_with_sgw_change_downlink_data_notification_with_cause_received_wf_rau_complete.W14b
p19
aVtc_209_211_s4_no_sm_events_activate_failed.W14b
p20
aVtc_267_224_Service_Request__PDN_Connectivity_Request_while_waiting_for_Modify_Bearer_Response_where_dedicated_fails.LWG
p21
aVtc_73_40_gtpu_sgsn_send_gpu_echo_request_w.LWG
p22
aVtc_73_41_gtpu_sgsn_dont_send_gpu_echo_request_w.LWG
p23
aVtc_220_587_csfb_to_1xrtt_in_extended_service_request_during_attach_waiting_for_modify_bearer_response.LWG
p24
aVtc_259_06_provide_subscriber_information_w_periodic_rau.LWG
p25
aVtc_259_77_ef_isd_paging_s4_w.LWG
p26
aVtc_259_83_isd_tads_s4_gsm_act_deact_pdp_context.LWG
p27
aVtc_241_432_intra_rau_with_bearer_sgw_unchange_2_pdns_3gdt.LWG
p28
aVtc_92_05_60_old_format_counters.LWG
p29
aVtc_24_110_msc_pool_off_comb_proc_on_create_new_msc_to_la_with_no_default_msc.LWG
p30
aVtc_218_531_tau_from_sgsn_gn_active_flag_true_gw_failure_restoration_lte_on_no_modify_bearer_response_two_pdn.LWG
p31
aVtc_100_67_intra_w_to_g_mf_with_lawful_intercept.LWG
p32
aVtc_179_318_Ccheck_TraceCollectionIpv6server.LWG
p33
aVtc_286_118_pdn_disconnect_finished_pdn_connectivity_with_same_pti.LWG
p34
aVtc_282_160_pgw_init_deactivate_bearer_indexed_counter_qci128_qci255.LWG
p35
aVtc_245_123_inter_rau_old_s4_sgsn_activated_on_ggsn.LWG
p36
aVtc_39_921_ef_seamless_move_interrupted_by_normal_attach.LWG
p37
aVtc_39_920_ef_seamless_move_interrupted_by_transferred_attach.LWG
p38
aVtc_232_511_static_routes__bfd_supervision_of_static_route_v6_on_Gom.LWG
p39
aVtc_214_099_large_and_sctp_restart.LWG
p40
aVtc_38_226_israu_new_sgsn_one_ipv6_pdp_type_system_property_not_support.LWG
p41
aVtc_183_008_itc_sctp_encrypted.LWG
p42
aVtc_141_005_eth_traffic_novlan.LWG
p43
aVtc_247_133_inter_w_to_l_old_handover_interrupted_by_create_bearer_request.W14b
p44
aVtc_298_440_ms_init_deact_ef_default_bearer_deact_with_rab_interfered_by_dedicate_bearer_deact_request.W14b
p45
aVtc_248_116_inter_l_to_w_new_initial_attach_request_received_wf_fwd_reloc_comp_ack.W14b
p46
aVtc_50_077_activate_streaming_16oct_48mbit_get_13oct_512kpbs.W14b
p47
aVtc_220_587_csfb_to_1xrtt_in_extended_service_request_during_attach_waiting_for_modify_bearer_response.L14b
p48
aVtc_103_902_load_sharing_realm_routing_own_realm.L14b
p49
aVtc_103_1102_fallback_to_imsins_success.L14b
p50
aVtc_327_033_recovery_intra_TAU__uplink_same_ie_intra_TAU_Request_while_waiting_for_Update_Location_Response.L14b
p51
aVtc_327_309_recovery_service_request__uplink_Attach_Request_while_waiting_for_Sub_Procedure__Modify_Bearer_Response.L14b
p52
aVtc_286_118_pdn_disconnect_finished_pdn_connectivity_with_same_pti.L14b
p53
aVtc_260_271_receive_sm_start_req_while_wf_setup_iteration.L14b
p54
aVtc_26_058_activate_3_primary_contexts_different_policy_maps.LW
p55
aVtc_28_048_mo_sms_old_cdr_format_r6.LW
p56
aVtc_195_208_mme_logging_maximum_modify_eps_bearer_context.LW
p57
aVtc_286_118_pdn_disconnect_finished_pdn_connectivity_with_same_pti.LW
p58
aVtc_202_431_mf_seamless_move_target_service_request_modifyBearerReq_onePdnMultiBearer_oneBearerFail.LW
p59
aVtc_262_164_new_mme_identification_procedure_missing_IE_imsi.LW
p60
aVtc_241_201_s4_sgsn_pool_ms_move_target_sgsn_mf.LW
p61
aVtc_241_431_intra_rau_with_bearer_sgw_unchange_2_pdns_with_one_modify_no_response.LW
p62
aVtc_241_1636_israu_new_modify_bearer_response_timeout_followed_by_ms_init_deac.LW
p63
aVtc_44_004_small_restart__sctp_fe_restart.LW
p64
aVtc_298_207_SIBD_S4_Service_Request_PDP_Context_Status_idle.LW
p65
aVtc_298_424_ms_init_deact_ef_delicated_non_gbr_bearer_deact_interfered_by_rab_release_request.LW
p66
aVtc_346_891_3gpp_move_source_ecm_idle_terminate_sx.LW
p67
aVtc_220_587_csfb_to_1xrtt_in_extended_service_request_during_attach_waiting_for_modify_bearer_response.LW
p68
aVtc_346_578_AF__HO_X2_2PDN_MBR_failure_for_1PDN_terminate_sx.LWG
p69
aVtc_321_120_ms_send_gmm_status_during_attach.LWG
p70
aVtc_73_21_itc_gtpu_s4_sgsn_send_echo_request_w.LWG
p71
aVtc_73_41_gtpu_sgsn_dont_send_gpu_echo_request_w.LWG
p72
aVtc_306_1007_ef_seamless_move_target_handle_ddn_when_s1_connected.LWG
p73
aVtc_11_163_deactivate_ms.LWG
p74
aVtc_92_05_60_old_format_counters.LWG
p75
aVtc_92_09_20_autoupdate.LWG
p76
aVtc_219_131_s3_handover_w_to_l_with_cl_two_pdns_one_failed_sgw_relocation.LWG
p77
aVtc_304_029_guti_attach_reject__control_mode_threshold_exceeded_then_action_stop.LWG
p78
aVtc_208_172_udp_df3_alarm_tcp_clear_alarm.LWG
p79
aVtc_217_200_rau_to_sgsn__mt_call_wf_sgsn_context_ack.LWG
p80
aVtc_286_118_pdn_disconnect_finished_pdn_connectivity_with_same_pti.LWG
p81
aVtc_220_587_csfb_to_1xrtt_in_extended_service_request_during_attach_waiting_for_modify_bearer_response.LWG
p82
aVtc_262_850_hrl_forbidden_ta_initial_context_setup_request.LWG
p83
aVtc_347_230_Extended_Service_Request__Location_Report_while_waiting_UCM_Response_and_RAR_while_waiting_for_RAB_Response.LWG
p84
aVtc_100_67_intra_w_to_g_mf_with_lawful_intercept.LWG
p85
aVtc_23_13_israu_out.LWG
p86
aVtc_44_004_small_restart__sctp_fe_restart.LWG
p87
aVtc_192_004_oms_start_duplicate_nri.LWG
p88
aVtc_183_008_itc_sctp_encrypted.LWG
p89
aVtc_298_007_S4_Network_Request_Secondary_PDP_Activation_UE_no_Response_5_times.LWG
p90
aVtc_179_318_Ccheck_TraceCollectionIpv6server.LWG
p91
aVtc_24_125_mcs_pool_associated_intra_rau_combined_ra_la_update_la_not_supported_select_msc_algorithm.LWG
p92
aVtc_239_620_inter_rau_new_with_bearer_sgw_not_change_isd_odb_bit0_wf_rau_compl_deactivation.G14b
p93
aVtc_241_431_intra_rau_with_bearer_sgw_unchange_2_pdns_with_one_modify_no_response.LW
p94
aVtc_241_432_intra_rau_with_bearer_sgw_unchange_2_pdns_3gdt.LW
p95
aVtc_38_80_intra_rau_new_rnc_with_authentication_wrong_ptmsi_signature.LW
p96
aVtc_346_576_AF__HO_X2_2PDN_CSR_failure_for_1PDN_terminate_sx.LW
p97
aVtc_52_30_reloc_wf_forw_rel_resp_interrupted_by_detach_on_new_iu.LW
p98
aVtc_334_231_sgw_restart_counter_changed_inter_new_srns_reloc_s16_without_sgw_change.LW
p99
aVtc_262_124_emergency_attach_type_c_imei_check_answer_unknown_after_accept_ire_false.LW
p100
aVtc_12_52_reset_rnc_initiated.LW
p101
aVtc_220_587_csfb_to_1xrtt_in_extended_service_request_during_attach_waiting_for_modify_bearer_response.LW
p102
aVtc_214_045_combined_tau_intra_la_change_wrong_msc_reject.LW
p103
aVtc_260_095_two_mbms_session_started_one_mce_add_one_session_send_to_new_mce.LW
p104
aVtc_298_702_pgw_init_modification_ef_ms_deact_req_tdi_false_ti_default_wf_modify_accept.LW
p105
aVtc_39_920_ef_seamless_move_interrupted_by_transferred_attach.LW
p106
aVtc_219_131_s3_handover_w_to_l_with_cl_two_pdns_one_failed_sgw_relocation.LW
p107
aVtc_286_118_pdn_disconnect_finished_pdn_connectivity_with_same_pti.LW
p108
aVtc_44_340_sctp_counter_index_SGsAP.LW
p109
aVtc_103_852_error_code_DIAMETER_COMMAND_UNSUPPORTED.LW
p110
aVtc_103_1134_sx_resend__CCR_I_resend_1_times_diameter_too_busy_timeout_failed_only_realm.LW
p111
aVtc_38_81_intra_rau_new_rnc_with_authentication_no_ptmsi_signature.W14b
p112
aVtc_348_050_large_restart.W14b
p113
aVtc_298_610_sgsn_init_bearer_deact_ef_iu_release_wf_delete_req.W14b
p114
aVtc_324_456_ef_detach_request_poweroff_abort_wf_modify_bearer_response_wf_update_location_hlr_ack_timeout.WG14a
p115
aVtc_236_307_Activation_DtSelMode_5_APN_requested_wrong_SGSN_default_APN_in_APN_list_TAC_in_TAC_list.LWG
p116
aVtc_349_108_RAU_new_sgsn__RAU_Req_on_new_iu_while_waiting_for_CCA_initial_transfer.LWG
p117
aVtc_259_50_isd_tads_s4_w_pmmidle_attach_and_detached.LWG
p118
aVtc_259_93_ef_provide_subscriber_information_service_request_w.LWG
p119
aVtc_259_99_ef_s6d_s4_attach_old_w.LWG
p120
aVtc_44_002_small_restart.LWG
p121
aVtc_73_21_itc_gtpu_s4_sgsn_send_echo_request_w.LWG
p122
aVtc_327_167_recovery_intra_TAU_SGSN_Context_Request_while_waiting_for_Update_Location_Answer.LWG
p123
aVtc_327_172_recovery_intra_TAU_SGSN_Context_Request_while_waiting_for_Location_Update_Response.LWG
p124
aVtc_214_099_large_and_sctp_restart.LWG
p125
aVtc_183_008_itc_sctp_encrypted.LWG
p126
aVtc_220_587_csfb_to_1xrtt_in_extended_service_request_during_attach_waiting_for_modify_bearer_response.LWG
p127
aVtc_179_318_Ccheck_TraceCollectionIpv6server.LWG
p128
aVtc_59_9_mtmsi_restart_counter.LWG
p129
aVtc_194_508_Notification_during_Intra_TAU_without_SGW_Relocation_HSS_Reset_after_SMC.LWG
p130
aVtc_273_420_Report_SN_intra_TAU_with_SGW_changed.LWG
p131
aVtc_358_008_lte_iterator_nrrEnabled_modify_to_true_with_ipAddressReset_true_irrEnabled_false.LWG
p132
aVtc_298_829_NRSPCA_S4_nsapi_collision_iu_release_request_while_waiting_for_delete_bearer_request.LWG
p133
aVtc_92_05_60_old_format_counters.LWG
p134
aVtc_11_091_activate_secondary_pdp_context_wrong_LinkedTI.LWG
p135
aVtc_219_131_s3_handover_w_to_l_with_cl_two_pdns_one_failed_sgw_relocation.LWG
p136
aVtc_81_013_israu_conversational_use_sub_ggsn_modifies_to_conv.LWG
p137
aVtc_260_218_receive_m3_reset_req_while_wf_m3_start_resp_with_resp.LWG
p138
aVtc_346_602_Location_Based_Policies__User_Location_Changes_Sx_Gx_termination_happens_before_CCA_received_for_same_PDN.LWG
p139
aVtc_100_67_intra_w_to_g_mf_with_lawful_intercept.LWG
p140
aVtc_286_118_pdn_disconnect_finished_pdn_connectivity_with_same_pti.LWG
p141
aVtc_24_132_msc_pool_ngaf_gs_null_sgsn_reset_false_alert_reject_gs_cause_0.LWG
p142
aVtc_202_431_mf_seamless_move_target_service_request_modifyBearerReq_onePdnMultiBearer_oneBearerFail.LWG
p143
aVtc_141_002_eth_deconf_conf_vlan_many.LWG
p144
aVtc_141_016_eth_conf_vlan_novlan.LWG
p145
aVtc_347_236_GW_Dedicated_Bearer_Deactivate__Location_Report_while_waiting_for_eRAB_Release_Response.LWG
p146
aVtc_56_21_sending_recognized_information_in_log.LWG
p147
aVtc_220_587_csfb_to_1xrtt_in_extended_service_request_during_attach_waiting_for_modify_bearer_response.L14b
p148
aVtc_244_500_SLg_Location_Request__Attach_Request_wwf_Location_Response_from_ESMLC.L14b
p149
aVtc_103_860_ue_trace_retransmit.L14b
p150
aVtc_286_118_pdn_disconnect_finished_pdn_connectivity_with_same_pti.L14b
p151
aVtc_84_80_provide_subscriber_locaiton_ef_paging_interrupted_by_attach.G14b
p152
aVtc_166_102_israu_new_interactive_two_tunnel_since_ggsn_answers_with_gtpv0.WG14a
p153
aVtc_324_328_ef_service_req_data_direct_transfer_ingore_wf_update_location.WG14a
p154
aVtc_298_690_S4_3GDT_Service_request_wait_MBR_ef_delete_bearer_request_lbi.W14b
p155
aVtc_84_80_provide_subscriber_locaiton_ef_paging_interrupted_by_attach.G14b
p156
aVtc_23_13_israu_out.LW
p157
aVtc_286_118_pdn_disconnect_finished_pdn_connectivity_with_same_pti.LW
p158
aVtc_39_601_mas_unsucc_fwd_reloc_resp_mandatory_ie_missing_stop_source.LW
p159
aVtc_306_1140_ef_seamless_move_target_receive_path_switch_request_wf_initial_context_setup_response.LW
p160
aVtc_103_701_MME_restarts.LW
p161
aVtc_103_1142_sx_resend__resend_during_inter_mme_tau_2_pdns.LW
p162
aVtc_364_202_af_trigger_hits_when_max_ue_trace_sessions_reached.LW
p163
aVtc_314_022_hss_reset_restoration_followed_by_service_request_smah_off.LW
p164
aVtc_31_086_concurrent_msd.LW
p165
aVtc_195_208_mme_logging_maximum_modify_eps_bearer_context.LW
p166
aVtc_219_131_s3_handover_w_to_l_with_cl_two_pdns_one_failed_sgw_relocation.LW
p167
aVtc_334_203_path_failure_intra_rau_inter_rnc_idle_3gdt_mf.LW
p168
aVtc_44_004_small_restart__sctp_fe_restart.LW
p169
aVtc_241_431_intra_rau_with_bearer_sgw_unchange_2_pdns_with_one_modify_no_response.LW
p170
aVtc_241_635_intra_rau_with_bearer_sgw_change_with_3gdt_wait_release_access_resp_interfer_by_context_req.LW
p171
aVtc_47_001_imsi_attach_ap_loss.LW
p172
aVtc_262_1055_imsi_attach_with_csg_id_is_rejected.LW
p173
aVtc_12_31_attach_ptmsi_new_sgsn_imsi_not_known_with_ap_index_transfer.LW
p174
aVtc_236_025_s4_3gdt_error_indication_from_sgw_to_rnc.LW
p175
aVtc_220_587_csfb_to_1xrtt_in_extended_service_request_during_attach_waiting_for_modify_bearer_response.LW
p176
aVtc_327_021_recovery_intra_TAU__uplink_Detach_Request_while_waiting_for_Update_Location_Response.LW
p177
aVtc_11_630_rau_new_sgsn_init_deactivation_ggsn_restarted_create_response.LW
p178
aVtc_286_118_pdn_disconnect_finished_pdn_connectivity_with_same_pti.L14b
p179
aVtc_103_1000_modify_diameter_peer_prio.L14b
p180
aVtc_327_510_recovery_service_request__ue_context_release_request.L14b
p181
aVtc_335_40_wifi_to_mobility_in_ecm_idle_af__two_cell_infos_from_wic__one_eNB_not_support.L14b
p182
aVtc_220_587_csfb_to_1xrtt_in_extended_service_request_during_attach_waiting_for_modify_bearer_response.L14b
p183
aVtc_310_335_ef_dbr_non_voice_bearer_wf_forward_relocation_complete_and_forward_relocation_complete_ack.LWG
p184
aVtc_284_351_pdn_connectivity_pb_activate_1_dedicated_bearer_interrupted_by_path_switch_request.LWG
p185
aVtc_284_350_pdn_connectivity_interrupted_by_path_switch_request.LWG
p186
aVtc_219_131_s3_handover_w_to_l_with_cl_two_pdns_one_failed_sgw_relocation.LWG
p187
aVtc_321_125_ptmsi_attach_identity_response.LWG
p188
aVtc_214_099_large_and_sctp_restart.LWG
p189
aVtc_183_008_itc_sctp_encrypted.LWG
p190
aVtc_251_67_l_to_w_to_l_gnsgsn.LWG
p191
aVtc_73_44_ue_init_service_request_buffer_packets_with_3gdt.LWG
p192
aVtc_73_40_gtpu_sgsn_send_gpu_echo_request_w.LWG
p193
aVtc_73_41_gtpu_sgsn_dont_send_gpu_echo_request_w.LWG
p194
aVtc_92_05_60_old_format_counters.LWG
p195
aVtc_195_208_mme_logging_maximum_modify_eps_bearer_context.LWG
p196
aVtc_195_520_mme_logging_initiated_deactivate_bearer_failure_indication_all_bearers_from_sgw.LWG
p197
aVtc_141_029_eth_v6_delete_nw.LWG
p198
aVtc_56_21_sending_recognized_information_in_log.LWG
p199
aVtc_286_118_pdn_disconnect_finished_pdn_connectivity_with_same_pti.LWG
p200
aVtc_208_65_restart_lea_test.LWG
p201
aVtc_12_134_attach_with_extended_mmumoc_iu_inactivity_timer.LWG
p202
aVtc_103_701_MME_restarts.LWG
p203
aVtc_103_1155_sx_retransmit__Small_restart_terminate_request.LWG
p204
aVtc_178_938_sctp_setprofile.LWG
p205
aVtc_220_587_csfb_to_1xrtt_in_extended_service_request_during_attach_waiting_for_modify_bearer_response.LWG
p206
aVtc_262_1055_imsi_attach_with_csg_id_is_rejected.LWG
p207
aVtc_24_91_msc_pool_off_comb_proc_on_no_def_msc_in_la_with_2_mscs.LWG
p208
aVtc_179_318_Ccheck_TraceCollectionIpv6server.LWG
p209
aVtc_367_106_pgw_reselection_ho_with_qci_1_bearer_not_setup_reattach_required.LWG
p210
aVtc_334_107_sgw_restart_mf_restoration_trigger_by_ReleaseAccessBearerResponse.W14b
p211
aVtc_248_419_inter_l_to_w_new_two_pdns_with_target_gw_interface_gp_and_ipv6_user_plan_off.W14b
p212
aVtc_298_654_pgw_init_modification_mf_3gdt_enable.W14b
p213
aVtc_298_690_S4_3GDT_Service_request_wait_MBR_ef_delete_bearer_request_lbi.W14b
p214
aVtc_324_455_ef_detach_request_poweroff_abort_wf_rab_assignment_response_wf_update_location_hss_service_req_data.W14b
p215
aVtc_73_41_gtpu_sgsn_dont_send_gpu_echo_request_w.LWG
p216
aVtc_312_240_inter_old_srns_reloc_with_failed_pdn_interrupted_by_delete_bearer_request.LWG
p217
aVtc_310_335_ef_dbr_non_voice_bearer_wf_forward_relocation_complete_and_forward_relocation_complete_ack.LWG
p218
aVtc_357_439_wcdma_local_user_without_pdp_intra_rau_non_ip_area_to_ip_area.LWG
p219
aVtc_56_21_sending_recognized_information_in_log.LWG
p220
aVtc_23_13_israu_out.LWG
p221
aVtc_205_71_04_ss7_M3UA_Notify.LWG
p222
aVtc_24_178_msc_pool_sgsn_pool_move_msc_from_old_sgsn_supported_keep_msc.LWG
p223
aVtc_286_118_pdn_disconnect_finished_pdn_connectivity_with_same_pti.LWG
p224
aVtc_009_003_attach_cache_full.LWG
p225
aVtc_38_81_intra_rau_new_rnc_with_authentication_no_ptmsi_signature.LWG
p226
aVtc_12_134_attach_with_extended_mmumoc_iu_inactivity_timer.LWG
p227
aVtc_241_452_israu_new_with_10_dedicated_bearer_sgw_change_mf_s4.LWG
p228
aVtc_216_002_icmpv6_inEchos.LWG
p229
aVtc_216_006_icmpv6_inRedirects.LWG
p230
aVtc_236_117_s4_3gdt_based_on_sr_dt_to_non_dt_gtpu_data_received_not_all_rabs_reestablished.LWG
p231
aVtc_179_318_Ccheck_TraceCollectionIpv6server.LWG
p232
aVtc_92_05_60_old_format_counters.LWG
p233
aVtc_194_506_Notification_during_Intra_MME_TAU_without_SGW_Relocation_Procedure.LWG
p234
aVtc_220_587_csfb_to_1xrtt_in_extended_service_request_during_attach_waiting_for_modify_bearer_response.LWG
p235
aVtc_220_597_csfb_to_1xrtt_hss_reset_during_extended_service_request.LWG
p236
aVtc_259_83_isd_tads_s4_gsm_act_deact_pdp_context.LWG
p237
aVtc_183_008_itc_sctp_encrypted.LWG
p238
aVtc_183_011_itc_trace_file_wrap.LWG
p239
aVtc_209_53_df2_alarm_buffer_off.LWG
p240
aVtc_103_024_modify_diameter_peer_switch_peer_numbers.LWG
p241
aVtc_103_1006_secondary_dpl_used_when_all_peers_in_dpl_unavailable_no_sls_peers_same_prio.LWG
p242
aVtc_219_131_s3_handover_w_to_l_with_cl_two_pdns_one_failed_sgw_relocation.LWG
p243
aVtc_214_222_mo_sms_idle_interfering_secondary_sms_s1_release_sp_on.LWG
p244
aVtc_214_141_paging_reject_imsi_unknown.LWG
p245
aVtc_298_424_ms_init_deact_ef_delicated_non_gbr_bearer_deact_interfered_by_rab_release_request.LW
p246
aVtc_306_150_ef_seamless_move_source_receive_insert_subscription_data_wf_frr_ecm_idle.LW
p247
aVtc_12_4_attach_ptmsi_signalling_connection_release.LW
p248
aVtc_23_13_israu_out.LW
p249
aVtc_194_144_attach_ul_fails_unable_to_comply.LW
p250
aVtc_342_146_update_one_of_two_targets_x2_x3_address_ccoutput.LW
p251
aVtc_322_028_smooth_move_af_no_security_mode_complete.LW
p252
aVtc_220_587_csfb_to_1xrtt_in_extended_service_request_during_attach_waiting_for_modify_bearer_response.LW
p253
aVtc_286_118_pdn_disconnect_finished_pdn_connectivity_with_same_pti.LW
p254
aVtc_286_118_pdn_disconnect_finished_pdn_connectivity_with_same_pti.L14b
p255
aVtc_204_1222_mme_eps_ho_target_tau_ula_dia_resources_exceeded_severe_nw_failure.L14b
p256
aVtc_327_532_recovery_service_request__Imsi_Page_while_waiting_for_Location_Update_Answer.L14b
p257
aVtc_346_1014_AF__seamless_move_target_ula_time_out.L14b
p258
aVtc_220_587_csfb_to_1xrtt_in_extended_service_request_during_attach_waiting_for_modify_bearer_response.L14b
p259
aVtc_289_017_Modify_bearer__ERAB_modify_request_meanwhile_path_switch_request_HO_success.L14b
p260
aVtc_239_620_inter_rau_new_with_bearer_sgw_not_change_isd_odb_bit0_wf_rau_compl_deactivation.WG14a
p261
aVtc_324_084_af_sec_modify_bearer_response_with_s4_interface_3gdt.WG14a
p262
aVtc_345_200_af__mo_csfb_with_psho__ecm_connected_no_FR_complete_from_target_sgsn.LW
p263
aVtc_345_141_af__mt_csfb_with_psho__ecm_idle_gsm_access.LW
p264
aVtc_38_102_israu_new_sgsn_one_pdp_context_wrong_pdp_type.LW
p265
aVtc_220_587_csfb_to_1xrtt_in_extended_service_request_during_attach_waiting_for_modify_bearer_response.LW
p266
aVtc_324_043_af_mbr_higher_than_policymap.LW
p267
aVtc_324_042_af_gbr_higher_than_policymap.LW
p268
aVtc_298_702_pgw_init_modification_ef_ms_deact_req_tdi_false_ti_default_wf_modify_accept.LW
p269
aVtc_298_711_pgw_init_modification_ef_update_bearer_request_apn_ambr_in_second_UBR.LW
p270
aVtc_12_134_attach_with_extended_mmumoc_iu_inactivity_timer.LW
p271
aVtc_364_205_af_maximum_nr_of_buffering_UEs_reached.LW
p272
aVtc_39_109_intra_rau_move_interfering_mt_sms.LW
p273
aVtc_286_118_pdn_disconnect_finished_pdn_connectivity_with_same_pti.LW
p274
aVtc_219_131_s3_handover_w_to_l_with_cl_two_pdns_one_failed_sgw_relocation.LW
p275
aVtc_73_41_gtpu_sgsn_dont_send_gpu_echo_request_w.LWG
p276
aVtc_318_201_idle_deactivate_dedicated_bearers_one_by_one_reactivate_req.LWG
p277
aVtc_141_032_eth_v4_v6_traffic_vlan.LWG
p278
aVtc_202_431_mf_seamless_move_target_service_request_modifyBearerReq_onePdnMultiBearer_oneBearerFail.LWG
p279
aVtc_274_615_combined_TAU_two_CS_Call_Paging_request_while_waiting_for_AIA_tamr_false.LWG
p280
aVtc_92_05_60_old_format_counters.LWG
p281
aVtc_103_701_MME_restarts.LWG
p282
aVtc_320_072_ue_trace_ptmsi_conflict_with_another_ms.LWG
p283
aVtc_284_350_pdn_connectivity_interrupted_by_path_switch_request.LWG
p284
aVtc_241_070_israu_new_gn_to_s4_deactivate_pdp_with_eps_subscription_received.LWG
p285
aVtc_241_432_intra_rau_with_bearer_sgw_unchange_2_pdns_3gdt.LWG
p286
aVtc_321_091_mt_sms_mf.LWG
p287
aVtc_286_118_pdn_disconnect_finished_pdn_connectivity_with_same_pti.LWG
p288
aVtc_298_022_nrspca_s4_idle_security_no_response.LWG
p289
aVtc_220_587_csfb_to_1xrtt_in_extended_service_request_during_attach_waiting_for_modify_bearer_response.LWG
p290
aVtc_23_13_israu_out.LWG
p291
aVtc_56_21_sending_recognized_information_in_log.LWG
p292
aVtc_262_183_new_mme_identification_fail_to_find_old_sgsn_s3.LWG
p293
aVtc_183_008_itc_sctp_encrypted.LWG
p294
aVtc_358_007_lte_iterator_irrEnabled_modify_to_true_with_ipAddressReset_nrrEnabled_false.LWG
p295
aVtc_304_266_tau_from_gnsgsn_2g_control_mode_wf_delete_all_bearers_response_exception_case_reject_congestion_subscriber_cancelled.LWG
p296
aVtc_665_21_lr_then_gain.LWG
p297
aVtc_665_7_dp_block_deblock_within_4_min.LWG
p298
aVtc_214_099_large_and_sctp_restart.LWG
p299
aVtc_280_112_activate_dedicated_paging_failed.LWG
p300
aVtc_275_212_tau_inter_new_emergency_type_c_sim_only.LWG
p301
aVtc_322_028_smooth_move_af_no_security_mode_complete.LWG
p302
aVtc_289_031_Modify_bearer__Downlink_nas_transport_meanwhile_path_switch_request_HO_success.LWG
p303
aVtc_220_587_csfb_to_1xrtt_in_extended_service_request_during_attach_waiting_for_modify_bearer_response.L14b
p304
aVtc_304_032_attach_successful_then_guti_attach_when_attaching__control_mode_threshold_exceeded_usc_ignore.L14b
p305
aVtc_286_118_pdn_disconnect_finished_pdn_connectivity_with_same_pti.L14b
p306
aVtc_260_190_mce_reset_new_session_start_after_reset.L14b
p307
aVtc_225_353_mt_call_active_mode_ongoing_ims_emergency_call.L14b
p308
aVtc_346_632_pra_cn_predefined_macro_home_enb_list__attach_pdn_in_pra.L14b
p309
aVtc_266_026_DownlinkDataFailureInd_repeat_paging_timer_small_local_restart.L14b
p310
aVtc_103_840_error_code_UNRECOGNIZED_CLASS_in_answer_Result_Code.L14b
p311
aVtc_313_281_inter_new_srns_reloc_s16_with_sgw_change_downlink_data_notification_with_cause_received_wf_rau_complete.W14b
p312
aVtc_231_227_PGW_Initiated_Modification_EARP_idle_one_tunnel.W14b
p313
aVtc_196_181_nrspca_during_the_same_nsapi_ggsn_initiate_pdp_deactivation_rab_release.W14b
p314
aVtc_84_71_provide_subscriber_location_ef_paging_interrupted_by_rau_req.G14b
p315
aVtc_84_71_provide_subscriber_location_ef_paging_interrupted_by_rau_req.G14b
p316
aVtc_286_118_pdn_disconnect_finished_pdn_connectivity_with_same_pti.LWG
p317
aVtc_321_091_mt_sms_mf.LWG
p318
aVtc_321_090_mo_sms_mf.LWG
p319
aVtc_246_061_israu_new_l_to_g_sgw_change_one_pdn_ubr_before_rau_complete_interfered_by_inter_rau_request.LWG
p320
aVtc_365_03_seq_num_overflow_update_pdp_context_req.LWG
p321
aVtc_327_034_recovery_intra_TAU__initial_intra_TAU_Request_while_waiting_for_Ue_Backup_Response.LWG
p322
aVtc_220_420_csfb_to_1xrtt_ue_return_with_service_request_SGW_unavailable.LWG
p323
aVtc_220_587_csfb_to_1xrtt_in_extended_service_request_during_attach_waiting_for_modify_bearer_response.LWG
p324
aVtc_665_56_repeated_cm_restart.LWG
p325
aVtc_23_13_israu_out.LWG
p326
aVtc_219_131_s3_handover_w_to_l_with_cl_two_pdns_one_failed_sgw_relocation.LWG
p327
aVtc_214_099_large_and_sctp_restart.LWG
p328
aVtc_183_008_itc_sctp_encrypted.LWG
p329
aVtc_29_015_activate_w_rau_g_dsd_during_ul.LWG
p330
aVtc_208_170_df3_alarm_udp.LWG
p331
aVtc_24_138_msc_pool_ngaf_gs_associated_bssap_msg_to_new_msc.LWG
p332
aVtc_320_072_ue_trace_ptmsi_conflict_with_another_ms.LWG
p333
aVtc_241_301_israu_new_create_session_failed_and_paging_timeout.LWG
p334
aVtc_73_40_gtpu_sgsn_send_gpu_echo_request_w.LWG
p335
aVtc_73_41_gtpu_sgsn_dont_send_gpu_echo_request_w.LWG
p336
aVtc_262_910_new_mme_attach_esm_information_and_identification_procedure.LWG
p337
aVtc_92_05_60_old_format_counters.LWG
p338
aVtc_179_318_Ccheck_TraceCollectionIpv6server.LWG
p339
aVtc_26_058_activate_3_primary_contexts_different_policy_maps.LWG
p340
aVtc_12_134_attach_with_extended_mmumoc_iu_inactivity_timer.LW
p341
aVtc_304_120_initial_ue_intra_tau_control_mode_threshold_exceeded_usc_reject_wf_release_request_response.LW
p342
aVtc_304_266_tau_from_gnsgsn_2g_control_mode_wf_delete_all_bearers_response_exception_case_reject_congestion_subscriber_cancelled.LW
p343
aVtc_346_576_AF__HO_X2_2PDN_CSR_failure_for_1PDN_terminate_sx.LW
p344
aVtc_326_332_Service_Request_with_unknown_STMSI_Security_Mode_Complete_timeout.LW
p345
aVtc_298_820_activate_secondary_pdp_context_request_with_NSAPI_exist_dedicate_bearer_idle_state.LW
p346
aVtc_26_049_activate_secondary_with_qos.LW
p347
aVtc_286_118_pdn_disconnect_finished_pdn_connectivity_with_same_pti.LW
p348
aVtc_103_702_CEA_timeout.LW
p349
aVtc_220_587_csfb_to_1xrtt_in_extended_service_request_during_attach_waiting_for_modify_bearer_response.LW
p350
aVtc_342_106_set_target_with_different_connection.LW
p351
aVtc_219_131_s3_handover_w_to_l_with_cl_two_pdns_one_failed_sgw_relocation.LW
p352
aVtc_44_340_sctp_counter_index_SGsAP.LW
p353
aVtc_306_162_ef_in_af_seamless_move_source_receive_delete_subscriber_data_wf_modify_bearer_response.LW
p354
aVtc_11_162_deactivate_failed.W14b
p355
aVtc_196_254_nrspca_reject_cause26_high_load.W14b
p356
aVtc_194_100_check_gauge_unstable_not_parked.L14b
p357
aVtc_286_118_pdn_disconnect_finished_pdn_connectivity_with_same_pti.L14b
p358
aVtc_220_587_csfb_to_1xrtt_in_extended_service_request_during_attach_waiting_for_modify_bearer_response.L14b
p359
aVtc_318_262_sgw_restart_af_relocation_triggered_by_DDN_create_session_request_failure.L14b
p360
aVtc_103_024_modify_diameter_peer_switch_peer_numbers.L14b
p361
aVtc_23_13_israu_out.LW
p362
aVtc_262_140_emergency_attach_type_c_imei_check_answer_blacklisted_after_attach_in_registered_state_ire_true.LW
p363
aVtc_218_207_3_TAU_from_SGSN__create_bearer_request_while_waiting_for_Create_Session_Resp.LW
p364
aVtc_241_159_israu_old_wait_for_sgsn_context_ack_interfere_by_reset_and_detach.LW
p365
aVtc_241_432_intra_rau_with_bearer_sgw_unchange_2_pdns_3gdt.LW
p366
aVtc_324_043_af_mbr_higher_than_policymap.LW
p367
aVtc_236_039_s4_3gdt_detach_during_waiting_for_modify_bearer_rsp_in_active_procedure.LW
p368
aVtc_220_587_csfb_to_1xrtt_in_extended_service_request_during_attach_waiting_for_modify_bearer_response.LW
p369
aVtc_219_131_s3_handover_w_to_l_with_cl_two_pdns_one_failed_sgw_relocation.LW
p370
aVtc_313_001_inter_new_srns_reloc_s16_without_sgw_change.LW
p371
aVtc_47_004_mobile_reachble_timer_ap_loss.LW
p372
aVtc_286_118_pdn_disconnect_finished_pdn_connectivity_with_same_pti.LW
p373
aVtc_260_271_receive_sm_start_req_while_wf_setup_iteration.LW
p374
aVtc_335_150_Locator_Restart__Service_Request__GA_Change.LW
p375
aVtc_53_57_inter_new_srns_reloc_rab_not_allocated_interrupt_by_reset.LW
p376
aVtc_103_854_error_code_DIAMETER_INVALID_AVP_VALUE.LW
p377
aVtc_103_1007_secondary_dpl_set_and_then_emptied.LW
p378
aVtc_103_1132_sx_resend__CCR_I_diameter_out_of_space_another_pdn_timeout_diameter_too_busy_host_and_realm.LW
p379
aVtc_39_920_ef_seamless_move_interrupted_by_transferred_attach.LW
p380
aVtc_206_023_ebm_server_connection_failed.LW
p381
aVtc_248_128_inter_l_to_w_new_rau_request_intial_ue_received_wf_update_location_resp.W14b
p382
aVtc_248_419_inter_l_to_w_new_two_pdns_with_target_gw_interface_gp_and_ipv6_user_plan_off.W14b
p383
aVtc_73_07_itc_encrypted_gtpu_s4_payload_w.WG14a
p384
aVtc_239_620_inter_rau_new_with_bearer_sgw_not_change_isd_odb_bit0_wf_rau_compl_deactivation.G14b
p385
aVtc_84_80_provide_subscriber_locaiton_ef_paging_interrupted_by_attach.G14b
p386
aVtc_286_118_pdn_disconnect_finished_pdn_connectivity_with_same_pti.L14b
p387
aVtc_193_029_auth_failure_non_consecutive_synch_failures.L14b
p388
aVtc_346_665_pra_cn_predefined_small_restart_after_attach_pdn_and_then_service_request.L14b
p389
aVtc_295_136_mo_call_during_s1_ho_tau_request_when_wf_handover_notify.L14b
p390
aVtc_265_161_Detach_Flow_NW_init__Delete_default_bearer_while_imsi_detach.L14b
p391
aVtc_220_587_csfb_to_1xrtt_in_extended_service_request_during_attach_waiting_for_modify_bearer_response.L14b
p392
aVtc_92_05_60_old_format_counters.LWG
p393
aVtc_322_028_smooth_move_af_no_security_mode_complete.LWG
p394
aVtc_195_208_mme_logging_maximum_modify_eps_bearer_context.LWG
p395
aVtc_298_685_S4_3GDT_Iu_release_wait_RABR_ef_delete_bearer_request_ebi.LWG
p396
aVtc_208_157_ul_payload_msisdn_imsi_imei_udp.LWG
p397
aVtc_236_169_s4_3gdt_with_2_pdn_9_dedicated_bearer_service_request_all_rab_setup_successful.LWG
p398
aVtc_214_099_large_and_sctp_restart.LWG
p399
aVtc_215_001_ipv6_InReceives.LWG
p400
aVtc_141_016_eth_conf_vlan_novlan.LWG
p401
aVtc_248_111_inter_l_to_w_new_interfering_attach_request_received_wf_fws_reloc_ack.LWG
p402
aVtc_103_1102_fallback_to_imsins_success.LWG
p403
aVtc_166_428_rnc_initiated_rab_release_interfered_by_rnc_initiated_iu_release_request.LWG
p404
aVtc_26_157_israu_new_deactivate_before_ggsn_contacted_with_upgradeAllowed.LWG
p405
aVtc_327_110_recovery_intra_TAU__HSS_Reset_while_waiting_for_Identity_Response.LWG
p406
aVtc_347_236_GW_Dedicated_Bearer_Deactivate__Location_Report_while_waiting_for_eRAB_Release_Response.LWG
p407
aVtc_286_118_pdn_disconnect_finished_pdn_connectivity_with_same_pti.LWG
p408
aVtc_23_13_israu_out.LWG
p409
aVtc_220_587_csfb_to_1xrtt_in_extended_service_request_during_attach_waiting_for_modify_bearer_response.LWG
p410
aVtc_59_9_mtmsi_restart_counter.LWG
p411
aVtc_262_151_old_mme_integrity_check_failed.LWG
p412
aVtc_73_41_gtpu_sgsn_dont_send_gpu_echo_request_w.LWG
p413
aVtc_73_07_itc_encrypted_gtpu_s4_payload_w.LWG
p414
aVtc_282_110_3_mme_initiated_deactivate_bearer_delete_request_some_failed_different_qcis.LWG
p415
aVtc_321_091_mt_sms_mf.LWG
p416
aVtc_321_093_mt_sms_segmented_tc_u_abort_after_second_segment.LWG
p417
aVtc_56_21_sending_recognized_information_in_log.LWG
p418
aVtc_309_009_piu_state_notifications.LWG
p419
aVtc_305_040_oms_mmi.LWG
p420
aVtc_214_1210_combined_attach_with_emergency_pdn_ue_initiated_imsi_detach_csg_restricted.L14b
p421
aVtc_275_039_tau_inter_new_get_new_sgw_create_session_response_resend.L14b
p422
aVtc_220_587_csfb_to_1xrtt_in_extended_service_request_during_attach_waiting_for_modify_bearer_response.L14b
p423
aVtc_286_118_pdn_disconnect_finished_pdn_connectivity_with_same_pti.L14b
p424
aVtc_266_026_DownlinkDataFailureInd_repeat_paging_timer_small_local_restart.L14b
p425
aVtc_73_07_itc_encrypted_gtpu_s4_payload_w.WG14a
p426
aVtc_166_300_ggsn_initiated_deactivation_interfered_by_rab_release_request.WG14a
p427
aVtc_324_456_ef_detach_request_poweroff_abort_wf_modify_bearer_response_wf_update_location_hlr_ack_timeout.WG14a
p428
aVtc_238_179_mme_eps_irat_Gn_ho_target__with_gbr_pdp_context_apn_ambr_downgrade.LW
p429
aVtc_241_621_israu_new_with_bearer_detach_after_context_response.LW
p430
aVtc_241_1694_intra_rau_without_sgw_change_interferred_by_reset_resource_after_modify_bearer_request.LW
p431
aVtc_196_153_nrspca_ongoing_when_inter_old_srns_reloc.LW
p432
aVtc_286_118_pdn_disconnect_finished_pdn_connectivity_with_same_pti.LW
p433
aVtc_304_213_isc_control_mode_threshold_exceeded_wf_session_response_reject.LW
p434
aVtc_310_119_af__HO_Cancel_after_HO_Command_before_Complete_from_MSC_after_Complete_from_SGSN.LW
p435
aVtc_242_156_rau_to_sgsn_s3_type_d_emergency_allowed_irat_and_plmn_change.LW
p436
aVtc_345_140_af__mo_csfb_with_psho__ecm_connected_gsm_access.LW
p437
aVtc_280_115_activate_dedicated_bearer_ue_nas_cause_sem_error_reject.LW
p438
aVtc_26_058_activate_3_primary_contexts_different_policy_maps.LW
p439
aVtc_346_024_PGW_Selection__PDN_Connectivity__static_GW_subscribed__PGW_from_SAPC_ignored.LW
p440
aVtc_220_587_csfb_to_1xrtt_in_extended_service_request_during_attach_waiting_for_modify_bearer_response.LW
p441
aVtc_313_281_inter_new_srns_reloc_s16_with_sgw_change_downlink_data_notification_with_cause_received_wf_rau_complete.W14b
p442
aVtc_236_045_s4_3gdt_iu_release_during_waiting_for_modify_bearer_rsp_in_service_request_procedure.W14b
p443
aVtc_298_832_NRSPCA_S4_nsapi_collision_after_RAU_one_pdn_failed.W14b
p444
aVtc_84_80_provide_subscriber_locaiton_ef_paging_interrupted_by_attach.G14b
p445
aVtc_320_080_attach_imsi_implicit_detach_rau_reject_intra_sgsn.G14b
p446
aVtc_310_335_ef_dbr_non_voice_bearer_wf_forward_relocation_complete_and_forward_relocation_complete_ack.LWG
p447
aVtc_220_587_csfb_to_1xrtt_in_extended_service_request_during_attach_waiting_for_modify_bearer_response.LWG
p448
aVtc_259_93_ef_provide_subscriber_information_service_request_w.LWG
p449
aVtc_219_131_s3_handover_w_to_l_with_cl_two_pdns_one_failed_sgw_relocation.LWG
p450
aVtc_321_002_s4_logging_pgw_initiate_modification_traced_by_imeisv.LWG
p451
aVtc_286_118_pdn_disconnect_finished_pdn_connectivity_with_same_pti.LWG
p452
aVtc_298_073_s4_nrspca_activate_same_nsapi_of_dedicated_bearer_rab_released.LWG
p453
aVtc_298_209_SIBD_S4_Modify_2_Bearers_succeed.LWG
p454
aVtc_298_702_pgw_init_modification_ef_ms_deact_req_tdi_false_ti_default_wf_modify_accept.LWG
p455
aVtc_247_203_inter_w_to_l_old_one_pdn_connection_without_sgw_change_s6d.LWG
p456
aVtc_22_051_AppChrRt_eul11m.LWG
p457
aVtc_241_066_israu_new_gn_to_s4_pdp_to_bearer_two_pdp_one_arp_higher_than_policy_map.LWG
p458
aVtc_665_7_dp_block_deblock_within_4_min.LWG
p459
aVtc_59_9_mtmsi_restart_counter.LWG
p460
aVtc_214_099_large_and_sctp_restart.LWG
p461
aVtc_214_633_combined_attach_MSC_selection_in_pool_then_paging_MSC_pool_feature_off_when_waiting_for_modify_bearer_response_failed.LWG
p462
aVtc_92_05_60_old_format_counters.LWG
p463
aVtc_166_157_intra_rau_in_rab_released_state_old_rnc_non_3gdt_compliant.LWG
p464
aVtc_166_281_reject_since_vplmn_subscriber_apn_r_empty_and_multiple_hlr_match.LWG
p465
aVtc_166_340_activate_primary_2_plmn.LWG
p466
aVtc_166_505_3gdt_based_on_sr_Intra_ISC_RAU_back_within_20s.LWG
p467
aVtc_73_07_itc_encrypted_gtpu_s4_payload_w.LWG
p468
aVtc_327_510_recovery_service_request__ue_context_release_request.LWG
p469
aVtc_103_602_georedundant_realm_routing.LWG
p470
aVtc_179_318_Ccheck_TraceCollectionIpv6server.LWG
p471
aVtc_263_321_Attach_Flow__Attach_Request_Different_IEs_IP_OK_while__waiting_for_combined_attach_response.LWG
p472
aVtc_39_921_ef_seamless_move_interrupted_by_normal_attach.LWG
p473
aVtc_100_67_intra_w_to_g_mf_with_lawful_intercept.LWG
p474
aVtc_73_07_itc_encrypted_gtpu_s4_payload_w.WG14a
p475
aVtc_340_32_validation_move_g_s4_filter_all_ra_intra_RAU_trigger.WG14a
p476
aVtc_286_118_pdn_disconnect_finished_pdn_connectivity_with_same_pti.LWG
p477
aVtc_359_154_handover_to_non3gpp_pgw_change_no_deactivation_then_back_3gpp_diff_context.LWG
p478
aVtc_248_30_inter_l_to_w_new_ho_license_off_in_target_sgsn.LWG
p479
aVtc_248_76_af_inter_l_to_w_new_handover_visitor_s4sgsn_selects_gp_with_context_admission_control.LWG
p480
aVtc_248_97_inter_l_to_w_new_update_bearer_request_received_wf_modify_bearer_response_timeout.LWG
p481
aVtc_248_137_inter_l_to_w_new_relocation_cancel_received_wf_create_session_response.LWG
p482
aVtc_248_168_inter_l_to_w_new_interfering_rab_release_request_wf_rau_complete.LWG
p483
aVtc_248_308_inter_l_to_w_new_ms_idle_handover_from_mme_interfering_rau_request.LWG
p484
aVtc_248_419_inter_l_to_w_new_two_pdns_with_target_gw_interface_gp_and_ipv6_user_plan_off.LWG
p485
aVtc_248_451_inter_l_to_w_new_cancel_location_wf_update_location_response_with_sgw_relocation_partial_bearer_failed.LWG
p486
aVtc_325_102_inter_old_srns_reloc_s4_to_gn_waiting_for_forward_relocation_response_timeout.LWG
p487
aVtc_325_214_inter_old_srns_reloc_s4_to_gn_wf_fwd_reloc_compl_interrupted_by_reloc_required_on_new_iu.LWG
p488
aVtc_325_242_inter_old_srns_reloc_s4_to_gn_interrupted_by_update_bearer_request.LWG
p489
aVtc_357_439_wcdma_local_user_without_pdp_intra_rau_non_ip_area_to_ip_area.LWG
p490
aVtc_39_921_ef_seamless_move_interrupted_by_normal_attach.LWG
p491
aVtc_39_920_ef_seamless_move_interrupted_by_transferred_attach.LWG
p492
aVtc_324_010_mf_ser_req_data_instead_of_ack_ulr_during_rab_assignment.LWG
p493
aVtc_324_042_af_gbr_higher_than_policymap.LWG
p494
aVtc_324_061_af_frcn_not_received.LWG
p495
aVtc_324_094_af_service_request_after_ack_with_inactive_pdp_context_status.LWG
p496
aVtc_324_141_af_modify_bearer_response_bearer_context_not_existent.LWG
p497
aVtc_324_220_ef_detach_request_ignore_wf_forward_relocation_complete_notification.LWG
p498
aVtc_324_252_ef_rau_request_wf_modify_bearer_response.LWG
p499
aVtc_324_313_ef_reset_from_hss_service_request_after_ack.LWG
p500
aVtc_324_332_ef_service_req_signalling_wf_paging_response_payload.LWG
p501
aVtc_324_387_ef_mt_sms_wf_paging_res_wf_rar_mbr_isd_ula.LWG
p502
aVtc_324_437_ef_payload_wf_mbr_different_pdn.LWG
p503
aVtc_324_512_ef_delete_bearer_request_ignore_payload_after_ulr.LWG
p504
aVtc_313_023_inter_new_srns_reloc_s16_with_sgw_change_charging.LWG
p505
aVtc_313_102_inter_new_srns_reloc_s16_feature_s3_s4_architecture_support_disabled.LWG
p506
aVtc_313_205_inter_new_srns_reloc_s16_with_sgw_change_attach_request_initial_ue_received_wf_modify_bearer_response.LWG
p507
aVtc_313_217_inter_new_srns_reloc_s16_with_sgw_change_detach_request_direct_transfer_received_bf_forward_reloc_complete_ack.LWG
p508
aVtc_313_234_inter_new_srns_reloc_s16_with_sgw_change_service_request_direct_transfer_received_bf_rau_complete.LWG
p509
aVtc_313_276_inter_new_srns_reloc_s16_without_sgw_change_context_request_received_wf_rau_complete.LWG
p510
aVtc_313_281_inter_new_srns_reloc_s16_with_sgw_change_downlink_data_notification_with_cause_received_wf_rau_complete.LWG
p511
aVtc_266_304_Service_Request_SGW_unavailable__create_session_request_timeout.LWG
p512
aVtc_266_501_DDN_Service_Request_SGW_unavailable__emergency_pdn.LWG
p513
aVtc_267_509_Service_Request_SGW_unavailable__Context_Request_while_wf_Create_Session_Response.LWG
p514
aVtc_225_918_mt_call_active_mode__sgs_sms_paging_wf_extended_service_request.LWG
p515
aVtc_11_091_activate_secondary_pdp_context_wrong_LinkedTI.LWG
p516
aVtc_56_21_sending_recognized_information_in_log.LWG
p517
aVtc_239_128_inter_rau_sgw_change_ubr_wf_pfc_ack_interfered_by_intra_rau_sgw_change_wf_mpca.LWG
p518
aVtc_239_251_inter_rau_new_without_bearer_s4.LWG
p519
aVtc_239_411_inter_rau_old_wait_for_cancel_loacation_interfered_by_delete_sub_data_s4.LWG
p520
aVtc_239_515_sgsn_context_request_wait_modify_bearer_response_sgw_not_changed_s4.LWG
p521
aVtc_95_7_negative_tests.LWG
p522
aVtc_346_1000_seamless_move_target_estabilish_sx_session.LWG
p523
aVtc_327_011_recovery_intra_TAU__initial_Attach_Request_while_waiting_for_Identity_Response.LWG
p524
aVtc_327_039_recovery_intra_TAU_active_off_sgw_unchanged__sgsn_context_request_wf_CSR_due_to_S11_linkdown.LWG
p525
aVtc_327_154_recovery_intra_TAU_Delete_Bearer_Request_while_waiting_for_Update_Location_Answer.LWG
p526
aVtc_327_211_recovery_service_request_emergency__Cancel_Location_subscription_withdrawal_while_waiting_for_Guti_Reallocation_Complete.LWG
p527
aVtc_327_257_recovery_service_request_MBR_timeout__S1_Reset_wf_Guti_Reallocation_Complete.LWG
p528
aVtc_327_317_recovery_service_request__initial_Attach_Request_while_waiting_for_Sub_Procedure__Initial_Context_Setup_Response.LWG
p529
aVtc_327_405_recovery_service_request__Downlink_A21_AIS_while_waiting_for_Main_Procedure_and_Sub_Procedure.LWG
p530
aVtc_327_551_Recovery_for_DDN__Attach_Request_while_waiting_for_Ue_Backup_Response.LWG
p531
aVtc_320_003_s4_logging_inter_rau_new_sgsn_context_response_gtpv1_with_imeisv_traced_by_imei.LWG
p532
aVtc_320_044_create_bss_pfc_nack.LWG
p533
aVtc_249_82_intra_rau_gsm_with_bear.LWG
p534
aVtc_249_228_attach_eps_sub_no_odb_activation_insert_gprs_sub_with_odb_deact.LWG
p535
aVtc_92_05_60_old_format_counters.LWG
p536
aVtc_244_700_mt_lr_LPPa_main_flow.LWG
p537
aVtc_236_022_s4_3gdt_activate_primary_pdp_context_modify_bearer_response_reject.LWG
p538
aVtc_236_043_s4_3gdt_detach_during_waiting_for_release_bearer_rsp_in_rab_release_procedure.LWG
p539
aVtc_236_100_s4_3gdt_based_on_sr_dt_to_non_dt_to_dt.LWG
p540
aVtc_236_161_s4_3gdt_intra_rau_from_dt_to_non_dt_followed_by_two_service_requests.LWG
p541
aVtc_236_211_W_to_W_Inter_RAU_S4_over_Gn_target_DtSelMode_2_APN_not_in_APN_list_TAC_not_in_TAC_list.LWG
p542
aVtc_236_244_Smooth_Move_S4_target_DtSelMode_4_APN_not_in_APN_list_TAC_not_in_TAC_List.LWG
p543
aVtc_236_273_IRAT_HO_for_S4_over_S3_target_DtSelMode_5_with_two_PDN_connection_one_3gdt_another_switch_back.LWG
p544
aVtc_236_302_HO_over_S3_3GDT_switchback_ef_iu_release_wf_modify_bearer_response.LWG
p545
aVtc_273_507_TAU_intra_SGW_unavailable__active_flag_off.LWG
p546
aVtc_273_595_TAU_intra__active_flag_on_no_modify_bearer_response_sgw_change_followed_by_intra_tau_MBR_timeout.LWG
p547
aVtc_273_643_tau_intra_SGW_unavailable_active_flag_off__two_pdn_one_bearer_status_0.LWG
p548
aVtc_259_76_ef_isd_paging_s4_g.LWG
p549
aVtc_259_102_ef_tads_s4_interfere_inter_rau_old_g.LWG
p550
aVtc_250_63_s6d_activation_with_3GDT.LWG
p551
aVtc_250_109_sms_capcity_without_supportedfea_telelist_in_IDR.LWG
p552
aVtc_326_222_Intra_TAU_Recovery_after_Node_Restart_fail_GUTI_mismatch.LWG
p553
aVtc_326_251_Intra_TAU_with_unknown_GUTI_with_active_flag_then_s1_Intra_HO.LWG
p554
aVtc_326_310_Service_Request_with_unknown_STMSI_large_restart_1xrtt_cs_registration.LWG
p555
aVtc_326_345_Service_Request_with_unknown_STMSI_GUTI_Reallocation_timeout.LWG
p556
aVtc_326_394_Service_Request_SGW_unavailable__create_session_dedicated_bearer_failed.LWG
p557
aVtc_326_437_Inter_TAU_Recovery_Fail__SGW_Relocation_Create_Session_Fail.LWG
p558
aVtc_326_503_Recovery_for_DDN__Retrieval_and_Paging_and_Service_Request_after_paging_timer_expires.LWG
p559
aVtc_326_673_tau_intra_SGW_unavailable_active_flag_off_after_MME_large_restart__with_unavailable_SGW_as_static_SGW.LWG
p560
aVtc_326_800_Service_Request_with_unknown_STMSI_default_bearer_fail_to_setup_Spontaneous_UL_failed_skip_SubData.LWG
p561
aVtc_318_131_sgw_restart_mf_restoration_triggered_by_intra_tau_procedure.LWG
p562
aVtc_12_134_attach_with_extended_mmumoc_iu_inactivity_timer.LWG
p563
aVtc_334_122_sgw_restart_mf_one_pdn_deactivate_APN_in_APNList_s5.LWG
p564
aVtc_334_134_sgw_restart_mf_multiple_pdn_two_s5_deactivate_and_one_s8_deactivate.LWG
p565
aVtc_334_185_sgw_restart_af_multiple_pdn_two_s5_deactivate_no_response_and_one_s8_delete.LWG
p566
aVtc_334_231_sgw_restart_counter_changed_inter_new_srns_reloc_s16_without_sgw_change.LWG
p567
aVtc_334_176_sgw_restart_af_create_session_with_dedicated_bearer_qos_failed.LWG
p568
aVtc_334_301_service_req_relocation_ef_iu_release_when_wf_deactivate_pdp_context_accept.LWG
p569
aVtc_230_003_activate_secondary_pdp_context_s4.LWG
p570
aVtc_230_023_activate_with_vplmn_apn.LWG
p571
aVtc_230_077_activation_wait_create_session_response_interrupted_by_new_primary_activation.LWG
p572
aVtc_230_126_ms_modify_pdp_context_request_during_ms_init_deactivation_ef.LWG
p573
aVtc_230_176_pgw_init_deletion_af_paging_failed.LWG
p574
aVtc_230_226_activate_ipv6_visitor_requested_ipv6_subscribed_ipv6_aifav_false_aifv_true.LWG
p575
aVtc_230_503_activation_reject_due_to_misspelled_apn_when_arfma_reject_in_gprs_sub.LWG
p576
aVtc_219_131_s3_handover_w_to_l_with_cl_two_pdns_one_failed_sgw_relocation.LWG
p577
aVtc_321_012_s4_logging_inter_rau_l2w_new_ddn_failure.LWG
p578
aVtc_321_092_mt_sms_error.LWG
p579
aVtc_208_172_udp_df3_alarm_tcp_clear_alarm.LWG
p580
aVtc_251_002_rau_l_to_w_with_cl.LWG
p581
aVtc_319_200_sgwTempUnavailableDuration_timeout_before_path_detection_interval.LWG
p582
aVtc_24_165_msc_pool_gs_null_combined_attach_msc_emptying.LWG
p583
aVtc_241_011_israu_new_gn_to_s4_pdp_to_bearer_two_pdp_two_pdn.LWG
p584
aVtc_241_044_israu_new_with_multi_bearer_sgw_change_one_failed.LWG
p585
aVtc_241_149_intra_rau_wait_for_delete_session_resp_interfer_by_normal_detach.LWG
p586
aVtc_241_250_inter_rau_pdp_status_check_failed_with_sgw_unchange_cause_decicated_bearer_deactivating.LWG
p587
aVtc_241_400_israu_new_with_16m_flag_allowed_in_context_response_and_sgw_unchanged.LWG
p588
aVtc_241_444_israu_old_with_unstable_dedicated_bearer_s4.LWG
p589
aVtc_241_491_israu_new_gn_to_s4_pdp_to_bearer_all_conversational_keep.LWG
p590
aVtc_241_601_israu_new_sgw_not_change_with_delicated_bearer_wait_mbr_buffer_ubr.LWG
p591
aVtc_241_672_israu_new_create_session_response_all_bearers_failed_then_intra_rau_sgw_unchange.LWG
p592
aVtc_241_731_service_request_wf_modify_bearer_response_interfered_by_iu_release_request.LWG
p593
aVtc_241_1573_intra_rau_in_one_rnc_with_bearer_sgw_change_wf_create_session_response_timeout.LWG
p594
aVtc_241_1642_israu_new_subscription_fault_followed_by_downlink_data_notification.LWG
p595
aVtc_247_10_inter_w_to_l_old_sgsn_two_pdn_all_successful_sgw_relocation.LWG
p596
aVtc_247_71_inter_w_to_l_old_cancel_location_timeout_sgw_relocation_s6d.LWG
p597
aVtc_247_93_inter_w_to_l_old_initial_ue_rau_wf_cancel_location.LWG
p598
aVtc_247_120_inter_w_to_l_old_wf_fwd_reloc_resp_interrupted_by_transfered_attach.LWG
p599
aVtc_247_151_inter_w_to_l_old_sgsn_context_request_wf_3gdt_ue_lost_relocation_cancel_response.LWG
p600
aVtc_247_210_inter_w_to_l_old_wo_sgw_relo_wf_cancel_location_interrupted_by_transfered_attach.LWG
p601
aVtc_304_266_tau_from_gnsgsn_2g_control_mode_wf_delete_all_bearers_response_exception_case_reject_congestion_subscriber_cancelled.LWG
p602
aVtc_110_005_inbound_outbound_pf_rule_cli_ip.LWG
p603
aVtc_312_004_inter_old_srns_reloc_s16_without_sgw_change_two_pdns_with_dedicate_bearer_partially_success.LWG
p604
aVtc_312_210_inter_old_srns_reloc_wf_forward_relocation_complete_interrupted_by_initial_ue_rau.LWG
p605
aVtc_312_228_inter_old_srns_reloc_wf_session_to_complete_interrupted_by_iu_release.LWG
p606
aVtc_312_250_inter_old_srns_reloc_wf_session_to_complete_interrupted_by_gtpv1_sgsn_context_request.LWG
p607
aVtc_73_41_gtpu_sgsn_dont_send_gpu_echo_request_w.LWG
p608
aVtc_73_07_itc_encrypted_gtpu_s4_payload_w.LWG
p609
aVtc_361_510_rau_l_to_w_S4SGSN_check_old_qos_failed_node_function_deactivate_pdp_after_rau_on.LWG
p610
aVtc_347_236_GW_Dedicated_Bearer_Deactivate__Location_Report_while_waiting_for_eRAB_Release_Response.LWG
p611
aVtc_316_217_ISD_With_PDN_Impact_Two_PDN_One_PDN_Type_Change__Backup_UE.LWG
p612
aVtc_316_268_GUTI_Attach_Transfer_Due_To_Wrong_AP__Backup_UE.LWG
p613
aVtc_316_708_SubRAN_modify_ne_rmc_with_turning_feature_off.LWG
p614
aVtc_297_098_isc_s4_l_to_g_home_user_with_imsi.LWG
p615
aVtc_297_208_inter_rau_new_s4_visitor_user_update_location_failed.LWG
p616
aVtc_298_111_EF_NRSPCA_S4_interfere_Deactivation_from_MS.LWG
p617
aVtc_298_150_EF_NRSPCA_S4_Create_Bearer_Request_During_Default_Bearer_Activation.LWG
p618
aVtc_298_308_EF_SIBD_S4_Deactivate_From_MS_Before_Deact_Accept.LWG
p619
aVtc_298_403_ms_init_deact_mf_tdi_false_ti_dedicated_bearer_with_rab.LWG
p620
aVtc_298_440_ms_init_deact_ef_default_bearer_deact_with_rab_interfered_by_dedicate_bearer_deact_request.LWG
p621
aVtc_298_540_sgsn_init_pdn_deact_ef_detach_req_wf_deact_accept.LWG
p622
aVtc_298_675_pgw_init_modification_af_qci_modify_from_gbr_to_non_gbr.LWG
p623
aVtc_298_725_S4_3GDT_Service_request_wf_modify_bearer_response_ef_vplmn_not_allowed.LWG
p624
aVtc_298_822_activate_secondary_pdp_context_request_with_NSAPI_exist_default_bearer_idle_state.LWG
p625
aVtc_363_018_mmi_get_ra.LWG
p626
aVtc_226_319_W__USC_Service_Request_ControlMode_On_Detach_Detach_Accept_timeout.LWG
p627
aVtc_245_211_inter_rau_new_s4_turning_back_from_mme_no_cancel_location_with_sgw_change.LWG
p628
aVtc_245_340_israu_new_l_to_w_with_GBR_dedicated_bearer_ipv6_3gdt.LWG
p629
aVtc_101_028_mbms_session_with_bitrate_ul.LWG
p630
aVtc_231_024_service_reject_skipped_umts_authentication_failure_S4.LWG
p631
aVtc_231_049_activate_2ndPDP_with_same_apn_without_dns_cache_uli_check.LWG
p632
aVtc_231_109_isd_vplmn_not_allowed_during_sgsn_init_deactivation_s4.LWG
p633
aVts_231_177_update_bearer_request_interfere_ms_init_detach.LWG
p634
aVtc_231_221_PGW_Init_Modification_AF_MS_Initiated_Modification.LWG
p635
aVtc_231_253_PGW_init_deletion_AF_context_not_found.LWG
p636
aVtc_231_355_insert_subscription_data_when_downlink_data_arrive_paging.LWG
p637
aVtc_231_503_act_req_with_same_apn_and_staticPDPAddr_interfere_modification.LWG
p638
aVtc_231_651_standalone_isd_payload_odb_bit_15_s4.LWG
p639
aVtc_231_734_delete_session_when_s4_feature_off_and_small_restart.LWG
p640
aVtc_322_032_smooth_move_af_no_frcn_idle.LWG
p641
aVtc_322_061_smooth_move_ef_detach_request_wf_frr_connected.LWG
p642
aVtc_322_099_smooth_move_ef_reset_wf_security_mode_complete.LWG
p643
aVtc_322_128_smooth_move_ef_cancel_location_update_wf_iu_releasing.LWG
p644
aVtc_322_158_smooth_move_ef_downlink_payload_idle.LWG
p645
aVtc_256_373_srvcc_ho_source_cs_only_failed_sv_pool_off_only_one_msc.LWG
p646
aVtc_311_154_intra_srns_reloc_s4_with_sgw_change_wf_delete_session_rsp_from_src_sgw_interrupted_by_initial_attach_request.LWG
p647
aVtc_311_173_intra_srns_reloc_s4_with_sgw_change_wf_rau_req_interrupted_by_initial_rau.LWG
p648
aVtc_311_197_intra_srns_reloc_s4_sgw_change_wf_reloc_complete_interrupted_by_target_rnc_reset.LWG
p649
aVtc_311_226_intra_srns_reloc_s4_sgw_change_wf_reloc_complete_interrupted_by_identification_req.LWG
p650
aVtc_311_246_intra_srns_reloc_s4_received_interfering_update_bearer_request_wf_modify_bearer_response.LWG
p651
aVtc_314_015_hlr_init_qos_modification_sigind.LWG
p652
aVtc_314_068_hss_init_qos_mod_pgw_init_dedicated_bearer_delete_after_mbfi.LWG
p653
aVtc_314_102_sgsn_init_qos_mod_inter_srns_reloc_mbc_timeout.LWG
p654
aVtc_286_118_pdn_disconnect_finished_pdn_connectivity_with_same_pti.L14b
p655
aVtc_274_276_Intra_and_pTAU__Handover_Required_with_old_TA_MSC_change_while_waiting_for_Location_Update_response_TAU_IMSI_Detach_TAU.L14b
p656
aVtc_103_602_georedundant_realm_routing.L14b
p657
aVtc_306_1342_ef_seamless_move_target_receive_Insert_Subscription_Data_TADS.L14b
p658
aVtc_44_850_mme_assoc_reestablish__board_restart_s1_mme.L14b
p659
aVtc_304_266_tau_from_gnsgsn_2g_control_mode_wf_delete_all_bearers_response_exception_case_reject_congestion_subscriber_cancelled.L14b
p660
aVtc_334_176_sgw_restart_af_create_session_with_dedicated_bearer_qos_failed.LW
p661
aVtc_324_231_ef_iu_release_request_wf_security_command_complete.LW
p662
aVtc_324_327_ef_service_req_data_direct_transfer_ingore.LW
p663
aVtc_321_071_gn_logging_ggsn_initiate_pdp_ctx_modification_and_deactivation.LW
p664
aVtc_219_131_s3_handover_w_to_l_with_cl_two_pdns_one_failed_sgw_relocation.LW
p665
aVtc_23_13_israu_out.LW
p666
aVtc_308_050_HSS_Init_QoS_Modification__Authentication_failed_when_service_request.LW
p667
aVtc_225_105_mo_call_active_mode_no_ue_release.LW
p668
aVtc_196_300_nrspca_iu_satellite_hpa_on_with_arp1_mf_paging_1st_try_success.LW
p669
aVtc_267_810_DDN_wf_service_req_interfer_by_CBR_DBR_ho_to_non_3gpp.LW
p670
aVtc_241_431_intra_rau_with_bearer_sgw_unchange_2_pdns_with_one_modify_no_response.LW
p671
aVtc_304_266_tau_from_gnsgsn_2g_control_mode_wf_delete_all_bearers_response_exception_case_reject_congestion_subscriber_cancelled.LW
p672
aVtc_26_025_activate_release_rab_streaming_context.LW
p673
aVtc_263_023_Attach_Flow__Attach_Request_Different_IEs_IP_OK_while_waiting_for_Modify_Bearer_Response.LW
p674
aVtc_286_118_pdn_disconnect_finished_pdn_connectivity_with_same_pti.LW
p675
aVtc_310_116_1_af__HO_Cancel_before_Response_from_MSC_after_error_Response_from_SGSN.LW
p676
aVtc_324_144_af_rab_assignment_resp_downgrade_qos_dedicated_bearer.W14b
p677
aVtc_12_134_attach_with_extended_mmumoc_iu_inactivity_timer.W14b
p678
aVtc_12_512_pmm_undefined_attach_when_updating_location_interfered_by_rnc_reset.W14b
p679
aVtc_334_176_sgw_restart_af_create_session_with_dedicated_bearer_qos_failed.W14b
p680
aVtc_322_037_smooth_move_af_no_cancel_location_request.W14b
p681
aVtc_241_159_israu_old_wait_for_sgsn_context_ack_interfere_by_reset_and_detach.W14b
p682
aVtc_359_061_handover_from_non3gpp_ef_activate_pdp_context_request_with_handover_other_nsapi.W14b
p683
aVtc_84_71_provide_subscriber_location_ef_paging_interrupted_by_rau_req.G14b
p684
aVtc_84_80_provide_subscriber_locaiton_ef_paging_interrupted_by_attach.G14b
p685
aVtc_84_71_provide_subscriber_location_ef_paging_interrupted_by_rau_req.G14b
p686
aVtc_79_034_rab_reestablish_on_downlink_no_rnc_response.W14b
p687
aVtc_334_176_sgw_restart_af_create_session_with_dedicated_bearer_qos_failed.W14b
p688
aVtc_248_114_inter_l_to_w_new_interfering_attach_request_received_wf_rau_complete.W14b
p689
aVtc_313_281_inter_new_srns_reloc_s16_with_sgw_change_downlink_data_notification_with_cause_received_wf_rau_complete.W14b
p690
aVtc_85_12_mo_sms.LW
p691
aVtc_248_165_inter_l_to_w_new_iu_release_request_none_user_inactivity_received_wf_modify_bearer_response.LW
p692
aVtc_44_004_small_restart__sctp_fe_restart.LW
p693
aVtc_38_81_intra_rau_new_rnc_with_authentication_no_ptmsi_signature.LW
p694
aVtc_334_176_sgw_restart_af_create_session_with_dedicated_bearer_qos_failed.LW
p695
aVtc_286_118_pdn_disconnect_finished_pdn_connectivity_with_same_pti.LW
p696
aVtc_304_266_tau_from_gnsgsn_2g_control_mode_wf_delete_all_bearers_response_exception_case_reject_congestion_subscriber_cancelled.LW
p697
aVtc_26_158_israu_new_not_updated_with_qos_upgradeNotAllowed.LW
p698
aVtc_194_506_Notification_during_Intra_MME_TAU_without_SGW_Relocation_Procedure.LW
p699
aVtc_298_209_SIBD_S4_Modify_2_Bearers_succeed.LW
p700
aVtc_298_424_ms_init_deact_ef_delicated_non_gbr_bearer_deact_interfered_by_rab_release_request.LW
p701
aVtc_298_821_activate_secondary_pdp_context_request_with_NSAPI_exist_dedicate_bearer_active_state.LW
p702
aVtc_53_57_inter_new_srns_reloc_rab_not_allocated_interrupt_by_reset.LW
p703
aVtc_283_015_2_GW_Deactivate_Bearer__Create_Bearer_Request_while_wf_deactivate_eps_bearer_context_accept.LW
p704
aVtc_313_001_inter_new_srns_reloc_s16_without_sgw_change.LW
p705
aVtc_219_131_s3_handover_w_to_l_with_cl_two_pdns_one_failed_sgw_relocation.LW
p706
aVtc_100_21_inter_w_to_g_old_mf_with_lawful_intercept.LWG
p707
aVtc_56_21_sending_recognized_information_in_log.LWG
p708
aVtc_334_176_sgw_restart_af_create_session_with_dedicated_bearer_qos_failed.LWG
p709
aVtc_334_231_sgw_restart_counter_changed_inter_new_srns_reloc_s16_without_sgw_change.LWG
p710
aVtc_214_099_large_and_sctp_restart.LWG
p711
aVtc_24_188_msc_pool_sgsn_pool_move_lu_reject_unexpected_cause_code_from_msc.LWG
p712
aVtc_73_41_gtpu_sgsn_dont_send_gpu_echo_request_w.LWG
p713
aVtc_73_07_itc_encrypted_gtpu_s4_payload_w.LWG
p714
aVtc_84_80_provide_subscriber_locaiton_ef_paging_interrupted_by_attach.LWG
p715
aVtc_286_118_pdn_disconnect_finished_pdn_connectivity_with_same_pti.LWG
p716
aVtc_39_920_ef_seamless_move_interrupted_by_transferred_attach.LWG
p717
aVtc_208_172_udp_df3_alarm_tcp_clear_alarm.LWG
p718
aVtc_11_147_rab_reestablish_on_service_request_data_pmm_connected.LWG
p719
aVtc_346_493_Small_Local_Restart__Terminate_when_UE_S1_release.LWG
p720
aVtc_44_750_s1_with_two_sctp_endpoints.LWG
p721
aVtc_92_05_60_old_format_counters.LWG
p722
aVtc_23_13_israu_out.LWG
p723
aVtc_236_167_intra_rau_dedicated_bearer_fail_partial_service_request.LWG
p724
aVtc_241_431_intra_rau_with_bearer_sgw_unchange_2_pdns_with_one_modify_no_response.LWG
p725
aVtc_241_432_intra_rau_with_bearer_sgw_unchange_2_pdns_3gdt.LWG
p726
aVtc_219_131_s3_handover_w_to_l_with_cl_two_pdns_one_failed_sgw_relocation.LWG
p727
aVtc_298_654_pgw_init_modification_mf_3gdt_enable.LWG
p728
aVtc_59_11_sequence_check_replica_values.LWG
p729
aVtc_304_266_tau_from_gnsgsn_2g_control_mode_wf_delete_all_bearers_response_exception_case_reject_congestion_subscriber_cancelled.LWG
p730
aVtc_304_477_uplink_nas_csfb_to_1xrtt_control_mode_threshold_exceeded_usc_detach_illegal_ue_in_ecm_connected.LWG
p731
aVtc_103_701_MME_restarts.LWG
p732
aVtc_263_204_Attach_Flow_Pb__Attach_Request_Same_IEs_while_waiting_for_Attach_Complete.LWG
p733
aVtc_262_164_new_mme_identification_procedure_missing_IE_imsi.LWG
p734
aVtc_285_012_PDN_Connectivity_Request__X2_Based_HO_while_waiting_for_Modify_Bearer_Response.LWG
p735
aVtc_220_420_csfb_to_1xrtt_ue_return_with_service_request_SGW_unavailable.LWG
p736
aVtc_73_07_itc_encrypted_gtpu_s4_payload_w.WG14a
p737
aVtc_304_266_tau_from_gnsgsn_2g_control_mode_wf_delete_all_bearers_response_exception_case_reject_congestion_subscriber_cancelled.L14b
p738
aVtc_286_118_pdn_disconnect_finished_pdn_connectivity_with_same_pti.L14b
p739
aVtc_335_01_mobility_to_wifi_in_ecm_connected_mf__decision_granted__1_pdn_deactived_ipv4.L14b
p740
aVtc_73_07_itc_encrypted_gtpu_s4_payload_w.WG14a
p741
aVtc_205_71_08_SCTP_OctetsChunksSent.LWG
p742
aVtc_318_188_sgw_restart_ef_relocate_interrupt_by_UpdateBearerReq.LWG
p743
aVtc_334_176_sgw_restart_af_create_session_with_dedicated_bearer_qos_failed.LWG
p744
aVtc_321_091_mt_sms_mf.LWG
p745
aVtc_56_21_sending_recognized_information_in_log.LWG
p746
aVtc_277_002_tau_inter_old_sgw_changed_two_pdn_connections.LWG
p747
aVtc_92_05_60_old_format_counters.LWG
p748
aVtc_304_266_tau_from_gnsgsn_2g_control_mode_wf_delete_all_bearers_response_exception_case_reject_congestion_subscriber_cancelled.LWG
p749
aVtc_39_924_ef_rnc_reset_wf_ptmsi_rel_comp_source_sgsn.LWG
p750
aVtc_316_223_PGW_Initiated_Dedicated_Bearers_Deactivation__Backup_UE.LWG
p751
aVtc_326_712_Intra_TAU_Recovery_subscription_check_ODB_Emergency_PDN_exist.LWG
p752
aVtc_298_424_ms_init_deact_ef_delicated_non_gbr_bearer_deact_interfered_by_rab_release_request.LWG
p753
aVtc_298_702_pgw_init_modification_ef_ms_deact_req_tdi_false_ti_default_wf_modify_accept.LWG
p754
aVtc_298_820_activate_secondary_pdp_context_request_with_NSAPI_exist_dedicate_bearer_idle_state.LWG
p755
aVtc_241_495_israu_new_gn_to_s4_pdp_to_bearer_with_10_secondary_pdp.LWG
p756
aVtc_241_635_intra_rau_with_bearer_sgw_change_with_3gdt_wait_release_access_resp_interfer_by_context_req.LWG
p757
aVtc_241_1694_intra_rau_without_sgw_change_interferred_by_reset_resource_after_modify_bearer_request.LWG
p758
aVtc_327_037_recovery_intra_TAU_active_off_sgw_unchanged__RAR_wf_CSR_due_to_S11_linkdown.LWG
p759
aVtc_103_800_device_watchdog_request_to_SGSN_MME.LWG
p760
aVtc_665_56_repeated_cm_restart.LWG
p761
aVtc_286_118_pdn_disconnect_finished_pdn_connectivity_with_same_pti.LWG
p762
aVtc_38_65_israu_old_sgsn_interfering_after_acknowledge.LWG
p763
aVtc_73_07_itc_encrypted_gtpu_s4_payload_w.LWG
p764
aVtc_266_026_DownlinkDataFailureInd_repeat_paging_timer_small_local_restart.L14b
p765
aVtc_103_402_diameterConnectionDown_alarm_unaffected_by_AP_restart.L14b
p766
aVtc_103_701_MME_restarts.L14b
p767
aVtc_262_1104_imsi_attach_volte_bearer_gauge_piggyback_dedicated_bearer.L14b
p768
aVtc_327_015_recovery_intra_TAU__initial_Attach_Request_while_waiting_for_Update_Location_Response.L14b
p769
aVtc_304_266_tau_from_gnsgsn_2g_control_mode_wf_delete_all_bearers_response_exception_case_reject_congestion_subscriber_cancelled.L14b
p770
aVtc_220_403_csfb_to_1xrtt_in_ecm_connected_path_switch_request_HO_success.L14b
p771
aVtc_286_118_pdn_disconnect_finished_pdn_connectivity_with_same_pti.L14b
p772
aVtc_241_201_s4_sgsn_pool_ms_move_target_sgsn_mf.W14b
p773
aVtc_334_176_sgw_restart_af_create_session_with_dedicated_bearer_qos_failed.W14b
p774
aVtc_313_281_inter_new_srns_reloc_s16_with_sgw_change_downlink_data_notification_with_cause_received_wf_rau_complete.W14b
p775
aVtc_231_227_PGW_Initiated_Modification_EARP_idle_one_tunnel.W14b
p776
aVtc_298_654_pgw_init_modification_mf_3gdt_enable.W14b
p777
aVtc_103_1000_modify_diameter_peer_prio.LW
p778
aVtc_103_1138_sx_resend__CCR_I_dpl_changed_host_and_realm.LW
p779
aVtc_334_176_sgw_restart_af_create_session_with_dedicated_bearer_qos_failed.LW
p780
aVtc_194_505_Notification_during_Intra_TAU_without_SGW_Relocation_HSS_Reset_Before_TAU.LW
p781
aVtc_324_239_ef_nas_ignore_update_loc_received_wf_modify_bearer_response.LW
p782
aVtc_304_266_tau_from_gnsgsn_2g_control_mode_wf_delete_all_bearers_response_exception_case_reject_congestion_subscriber_cancelled.LW
p783
aVtc_298_702_pgw_init_modification_ef_ms_deact_req_tdi_false_ti_default_wf_modify_accept.LW
p784
aVtc_349_108_RAU_new_sgsn__RAU_Req_on_new_iu_while_waiting_for_CCA_initial_transfer.LW
p785
aVtc_11_147_rab_reestablish_on_service_request_data_pmm_connected.LW
p786
aVtc_326_281_Intra_TAU_combined_type_with_unknown_GUTI_SGW_unavailable.LW
p787
aVtc_12_512_pmm_undefined_attach_when_updating_location_interfered_by_rnc_reset.LW
p788
aVtc_286_118_pdn_disconnect_finished_pdn_connectivity_with_same_pti.LW
p789
aVtc_219_131_s3_handover_w_to_l_with_cl_two_pdns_one_failed_sgw_relocation.LW
p790
aVtc_38_303_israu_new_sgsn_no_imsi_in_sgsn_context_response.LW
p791
aVtc_322_029_smooth_move_af_security_mode_reject.LW
p792
aVtc_313_281_inter_new_srns_reloc_s16_with_sgw_change_downlink_data_notification_with_cause_received_wf_rau_complete.LW
p793
aVtc_209_29_pdp_activate_deactivate_two_contexts_imsi.LW
p794
aVtc_73_07_itc_encrypted_gtpu_s4_payload_w.WG14a
p795
aVtc_304_121_initial_ue_intra_tau_control_mode_threshold_exceeded_usc_detach_wf_release_request_response.L14b
p796
aVtc_304_266_tau_from_gnsgsn_2g_control_mode_wf_delete_all_bearers_response_exception_case_reject_congestion_subscriber_cancelled.L14b
p797
aVtc_316_221_TAU_Timezone_Change__Backup_UE.L14b
p798
aVtc_286_118_pdn_disconnect_finished_pdn_connectivity_with_same_pti.L14b
p799
aVtc_327_033_recovery_intra_TAU__uplink_same_ie_intra_TAU_Request_while_waiting_for_Update_Location_Response.L14b
p800
aVtc_298_007_S4_Network_Request_Secondary_PDP_Activation_UE_no_Response_5_times.W14b
p801
aVtc_334_107_sgw_restart_mf_restoration_trigger_by_ReleaseAccessBearerResponse.W14b
p802
aVtc_334_176_sgw_restart_af_create_session_with_dedicated_bearer_qos_failed.W14b
p803
aVtc_39_433_mas_one_pdp_downlink_data_3gdt_upd_loc_ack_b4_upd_pdp_ctx_resp_target.W14b
p804
aVtc_38_303_israu_new_sgsn_no_imsi_in_sgsn_context_response.W14b
p805
aVtc_92_05_60_old_format_counters.LWG
p806
aVtc_306_068_ef_seamless_move_source_receive_service_request_wf_cancel_location_request.LWG
p807
aVtc_306_200_ef_seamless_move_source_receive_me_identity_check_answer_wf_frr_ecm_connected.LWG
p808
aVtc_306_1006_ef_seamless_move_target_handle_ddn_wf_new_s1_mbr.LWG
p809
aVtc_306_1106_ef_seamless_move_target_ecm_connected_receive_sgs_paging_with_sms_indicator_wf_paging_hold.LWG
p810
aVtc_306_1422_ef_seamless_move_target_receive_cancel_location_initial_wf_lur.LWG
p811
aVtc_329_363_s1_intra_ho_rs_restricted_emergency_plmn_change.LWG
p812
aVtc_259_01_provide_subscriber_information_w_connected.LWG
p813
aVtc_259_67_ef_provide_subscriber_information_attach_old_w.LWG
p814
aVtc_259_106_ef_tads_s4_interfere_inter_rau_old_w.LWG
p815
aVtc_259_151_ef_s6d_tads_interfere_israu_old_wf_israu_buffer_msg_wf_deleting_old_contexts.LWG
p816
aVtc_267_239_Service_Request__Handover_Required_eps_irat_Gn_ho_while_wf_modify_bearer_response.LWG
p817
aVtc_267_740_Service_Request__SMS_Paging_wf_ics_response_then_CS_paging_while_waiting_for_Modify_Bearer_Response.LWG
p818
aVtc_288_004_pgw_init_bearer_mod_incl_QoS_tft_apnAmbr_ecm_connected.LWG
p819
aVtc_288_360_pgw_init_bearer_mod_qci_counters__qci1_and_10.LWG
p820
aVtc_288_233_pgw_init_bearer_mod_QoS_UE_timeout_for_default_bearer_one_conn.LWG
p821
aVtc_236_049_s4_3gdt_rnc_reset_during_waiting_for_modify_beaer_rsp_in_service_request_procedure.LWG
p822
aVtc_236_170_s4_3gdt_activate_primary_pdp_context_odb_bit_15.LWG
p823
aVtc_236_260_SRNS_Relocation_S4_over_S16_target_DtSelMode_3_APN_in_APN_list_TAC_in_TAC_list.LWG
p824
aVtc_236_309_Activation_DtSelMode_3_APN_Requested_APN_in_APN_list.LWG
p825
aVtc_304_237_emergency_intra_isc_control_mode_threshold_exceeded_ignore.LWG
p826
aVtc_304_266_tau_from_gnsgsn_2g_control_mode_wf_delete_all_bearers_response_exception_case_reject_congestion_subscriber_cancelled.LWG
p827
aVtc_304_431_Service_Request_UE_Initiated__control_mode_threshold_exceeded_explicit_detach_connected_mode.LWG
p828
aVtc_26_058_activate_3_primary_contexts_different_policy_maps.LWG
p829
aVtc_284_132_emergency_pdn_connectivity_connection_already_exists.LWG
p830
aVtc_284_330_delete_bearer_interfere_handover_to_non_3GPP_ecm_connected_multi_pdn.LWG
p831
aVtc_286_118_pdn_disconnect_finished_pdn_connectivity_with_same_pti.LWG
p832
aVtc_103_1103_fallback_to_imsins_resend_no_more_peers.LWG
p833
aVtc_334_071_pgw_restart_ef_one_pdn_deactivated_wf_deactivate_accept_interfer_by_attach.LWG
p834
aVtc_334_176_sgw_restart_af_create_session_with_dedicated_bearer_qos_failed.LWG
p835
aVtc_334_196_sgw_restart_ef_one_pdn_relocation_wf_create_session_resp_interfere_by_rau.LWG
p836
aVtc_248_131_inter_l_to_w_new_rau_request_initial_ue_received_wf_rau_complete.LWG
p837
aVtc_248_190_inter_l_to_w_new_initial_attach_request_received_wf_modify_bearer_response.LWG
p838
aVtc_248_434_inter_l_to_w_new_create_bearer_request_received_wf_rau_complete.LWG
p839
aVtc_219_131_s3_handover_w_to_l_with_cl_two_pdns_one_failed_sgw_relocation.LWG
p840
aVtc_219_016_tau_g_to_l_with_cl.LWG
p841
aVtc_322_062_smooth_move_ef_detach_request_wf_frr_idle.LWG
p842
aVtc_322_155_smooth_move_ef_sms_mo.LWG
p843
aVtc_341_018_x1_query_target_info_request_imsi_ecm_connected_combined_attach.LWG
p844
aVtc_200_80_move_intra_rau_timeout.LWG
p845
aVtc_258_004_activate_cell_change_reporting_during_service_request.LWG
p846
aVtc_195_540_mme_logging_eps_handover_target_inter_relocation_cancel_Request_imeisv_using_imeisv_trace.LWG
p847
aVtc_347_201_Attach__Attach_Request_Different_IEs_IP_OK_while_waiting_for_CCA_Initial.LWG
p848
aVtc_203_200_mme_eps_ho_source_bearers_missing_in_response.LWG
p849
aVtc_203_435_mme_eps_ho_home_enodeb_id_emergency_type_a.LWG
p850
aVtc_231_070_activate_during_waiting_for_create_session_resp_interrupted_by_detach.LWG
p851
aVtc_231_176_sgsn_init_detach_interfered_by_context_request_wait_detach_accept.LWG
p852
aVtc_231_246_PGW_init_modification_EF_pgw_deactivation_and_cancel_loc.LWG
p853
aVtc_231_370_get_subscriber_info_during_activate_pdp_context_procedure_S4.LWG
p854
aVtc_231_660_PGW_init_modification_si_pgw_deactivation_idle_ms_not_responding.LWG
p855
aVtc_340_53_validation_move_w_s4_af_forward_relocation_response_request_rejected.LWG
p856
aVtc_268_081_Timer_Based_GBR_Deact__receive_DDN_contain_default_bearer_receive_interfering_DBR_UBR.LWG
p857
aVtc_230_008_create_session_response_with_chargingID.LWG
p858
aVtc_230_053_activate_deactivate_already_activated_same_nsapi_or_TI_s4.LWG
p859
aVtc_230_127_sgw_create_bearer_request_during_ms_init_deactivation_ef.LWG
p860
aVtc_230_235_activate_reject_visitor_requested_ipv4v6_subscribed_ipv6_aifav_false_aifv_false.LWG
p861
aVtc_283_011_GW_Deactivate_Bearer__Context_request_while_wf_delete_bearer_request.LWG
p862
aVtc_250_106_s6d_attach_reject_ARD_not_allowed.LWG
p863
aVtc_319_172_ho_af_gw_blacklisting_available_to_blocked_new_no_csr_response_s4_w_to_w.LWG
p864
aVtc_302_043_mo_csfb_to_1xrtt_Downlink_A21_AIS_after_suspend_and_after_resume.LWG
p865
aVtc_327_047_recovery_periodic_TAU__sgsap_downlink_unitdata_wf_CSR_due_to_S11_linkdown.LWG
p866
aVtc_327_211_recovery_service_request_emergency__Cancel_Location_subscription_withdrawal_while_waiting_for_Guti_Reallocation_Complete.LWG
p867
aVtc_327_323_recovery_service_request__uplink_Attach_Request_while_waiting_for_Guti_Rollback_complete.LWG
p868
aVtc_327_544_recovery_service_request__Msc_Reset_while_waiting_for_Location_Update_Response.LWG
p869
aVtc_298_041_S4_Network_Request_Secondary_PDP_Activation_PVI_not_Match_from_SGW.LWG
p870
aVtc_298_207_SIBD_S4_Service_Request_PDP_Context_Status_idle.LWG
p871
aVtc_298_231_SIBD_S4_RAB_Reestablishment_failed.LWG
p872
aVtc_298_525_pgw_init_dedicated_deletion_ef_update_bearer_reqest.LWG
p873
aVtc_298_734_sgw_error_indication_gtpu_default_bearer_when_wf_dbr_for_dedicated_bearer.LWG
p874
aVtc_225_204_in_ecm_idle_initial_context_setup_failure.LWG
p875
aVtc_225_601_exp_flow_path_swith_request_while_wf_modification_context_response.LWG
p876
aVtc_225_682_mt_call_paging_req_no_lai_while_la_updating_param_tamr_false.LWG
p877
aVtc_225_925_mt_sms_active_mode_resend_paging_request_with_cs_call_indicator.LWG
p878
aVtc_25_07_activate_ms99_req_subsc_qos_streaming_highest_background.LWG
p879
aVtc_179_318_Ccheck_TraceCollectionIpv6server.LWG
p880
aVtc_256_176_mme_eps_srvcc_ho_source_cs_only_ue_release_request_wf_srvcc_ps_to_cs_complete_notification.LWG
p881
aVtc_256_394_mme_eps_srvcc_ho_source_cs_only_ef_dbr_for_voice_bearer_wf_srvcc_ps_to_cs_response.LWG
p882
aVtc_357_328_gsm_international_roaming_user_inter_ps_handover_target_in_irr_ip_area_reject.LWG
p883
aVtc_357_439_wcdma_local_user_without_pdp_intra_rau_non_ip_area_to_ip_area.LWG
p884
aVtc_357_437_wcdma_local_user_inter_relocation_with_one_pdp_activated_in_no_ip_area_and_one_not.LWG
p885
aVtc_324_071_af_modify_bearer_pdn_particially_accept_3gdt.LWG
p886
aVtc_324_272_ef_reset_wf_modify_bearer_response_wf_isd.LWG
p887
aVtc_324_503_ef_update_bearer_request_seq_no_same_ignore_payload_after_ulr.LWG
p888
aVtc_246_062_israu_new_l_to_g_sgw_change_one_pdn_ubr_before_rau_complete_interfered_by_cancel_location.LWG
p889
aVtc_345_201_af__mt_csfb_with_psho__ecm_idle_no_FR_complete_from_target_sgsn.LWG
p890
aVtc_294_067_s1_intra_handover_type_d_with_emergency_pdn_no_tau_after_ho.LWG
p891
aVtc_294_431_s1_intra_ho_tac_based_roaming_restriction_table_matched_blacklist_exemptedlist.LWG
p892
aVtc_204_155_inter_s1ho_target_HeNB_emergency_type_a_not_allowed_in_csg_plmn_change.LWG
p893
aVtc_204_1100_mme_eps_ho_target_emergency_type_a__Cancel_Location_from_HSS_while_wf_modify_bearer_response.LWG
p894
aVtc_241_020_israu_new_with_bearer_3gdt_service_request_mf.LWG
p895
aVtc_241_310_israu_new_fail_to_create_session_then_israu_out.LWG
p896
aVtc_241_443_israu_new_with_dedicated_bearer_all_inactive.LWG
p897
aVtc_241_497_israu_new_gn_to_s4_pdp_to_bearer_lbi_from_sgw_changed.LWG
p898
aVtc_241_637_intra_rau_with_bearer_sgw_change_with_3gdt_wait_rau_complete_interfer_by_sgsn_context_req.LWG
p899
aVtc_241_1632_israu_new_create_session_response_timeout_followed_by_cancel_location.LWG
p900
aVtc_247_48_inter_w_to_l_old_relocation_cancel_ue_lost_wf_fwd_reloc_resp_3gdt.LWG
p901
aVtc_247_182_inter_w_to_l_old_wf_session_to_complete_interrupted_by_fwd_reloc_req.LWG
p902
aVtc_289_040_Modify_bearer__ERAB_modify_request_meanwhile_handover_required_HO_success_SGW_change.LWG
p903
aVtc_335_73_From_Wifi_ECM_Connected_MF__Decision_Not_Granted.LWG
p904
aVtc_218_113_tau_from_sgsn_path_switch_request_when_wf_modify_bearer_resp.LWG
p905
aVtc_311_10_intra_srns_reloc_s4_roaming_user_with_sgw_change_rab_setup_partial_success.LWG
p906
aVtc_311_159_intra_srns_reloc_s4_with_sgw_change_wf_reloc_complete_interrupted_by_direct_detach_request.LWG
p907
aVtc_311_227_intra_srns_reloc_s4_sgw_change_wf_create_session_rsp_interrupted_by_sgsn_context_request.LWG
p908
aVtc_313_045_inter_new_srns_reloc_s16_with_sgw_change_only_ipv6_for_sgw_cp_fteid_without_sgw_node_name.LWG
p909
aVtc_313_274_inter_new_srns_reloc_s16_without_sgw_change_delete_bearer_request_received_wf_modify_bearer_response.LWG
p910
aVtc_196_153_nrspca_ongoing_when_inter_old_srns_reloc.LWG
p911
aVtc_202_50_3gpp_move_cs_paging_wf_service_request.LWG
p912
aVtc_202_409_af_seamless_move_target_unsuccessful_ula_from_hss_wf_icsr.LWG
p913
aVtc_202_510_af_seamless_move_target_lte_sau_limit_reached.LWG
p914
aVtc_202_582_seamless_move_target_service_request_failed_due_to_eNB_with_buffered_imsi_detach.LWG
p915
aVtc_312_221_inter_old_srns_reloc_wf_fwd_reloc_resp_interrupted_by_relocation_cancel.LWG
p916
aVtc_73_41_gtpu_sgsn_dont_send_gpu_echo_request_w.LWG
p917
aVtc_73_07_itc_encrypted_gtpu_s4_payload_w.LWG
p918
aVtc_239_105_inter_rau_new_unchanged_multi_pdn_connection_one_fail.LWG
p919
aVtc_239_306_intra_rau_with_bearer_sgw_changed_s4_after_create_session_attach_interrupt.LWG
p920
aVtc_239_510_rau_request_waiting_creat_session_response_from_sgw_s4.LWG
p921
aVtc_310_105_af__SGSN_not_found.LWG
p922
aVtc_213_059_nrspca_gsm_wait_request_secondary_pdp_context_activation_response_timeout.LWG
p923
aVtc_213_157_nrspca_ignored_when_intra_rau.LWG
p924
aVtc_213_074_nrspca_ms_resend_activate_sec_request.LWG
p925
aVtc_349_307_Inter_new_srns_reloc__Service_Req_while_waiting_for_CCA_initial.LWG
p926
aVtc_226_206_W_S4_Initial_UE_USC_PTMSI_Attach_ControlMode_On_Reject_congestion.LWG
p927
aVtc_220_412_csfb_to_1xrtt_in_ecm_connected_handover_required_HO_retry_counter_exceed.LWG
p928
aVtc_220_625_Extended_Service_Request__Update_Bearer_Request_while_waiting_for_Initial_Context_Setup_Response.LWG
p929
aVtc_56_21_sending_recognized_information_in_log.LWG
p930
aVtc_110_005_inbound_outbound_pf_rule_cli_ip.LWG
p931
aVtc_244_806_mt_lr_donwlink_generic_nas_transport_meanwhile_handover_required_HO_success.LWG
p932
aVtc_262_122_emergency_attach_type_c_imei_check_answer_unknown_before_accept_ire_true.LWG
p933
aVtc_262_203_subscribed_qos_downgrade_apn_ambr_at_attach.LWG
p934
aVtc_262_1013_apn_resolution_ext_apn_not_included_in_arc_no_infix.LWG
p935
aVtc_292_096_x2_handover_with_csg_id_and_ta_change.LWG
p936
aVtc_297_091_isc_g_to_w_intra_rau.LWG
p937
aVtc_297_343_irat_w_to_g_fetch_imsi_no_gp_accept.LWG
p938
aVtc_263_245_Attach_Flow__S1_Reset_while_waiting_for_identification_response_gn.LWG
p939
aVtc_359_005_handover_from_non3gpp_mf_one_pdn_activation_static_pgw_id_in_subdata.LWG
p940
aVtc_251_67_l_to_w_to_l_gnsgsn.LWG
p941
aVtc_369_015_ecm_connected__notification_reachability_userstate_locationinfo_currentinfo__idr_flags.LWG
p942
aVtc_369_010_ecm_idle__notification_reachability_userstate_locationinfo_timezone__idr_flags.LWG
p943
aVtc_369_084_me_identity_check_answer_during_waiting_location_report__idr_flags_ef.LWG
p944
aVtc_261_04_inter_tau_isd_voip_restricted_ga_cc91.LWG
p945
aVtc_366_019_intra_ISC_W2L_tau_local_user_reject_ip_area_to_another_ip_area.LWG
p946
aVtc_245_325_israu_new_l_to_w_with_sgw_unchange_2_pdn_service_request_intefered_by_deactivate_pdp_req_with_tdi.LWG
p947
aVtc_274_041_Intra_and_pTAU__Intra_TAU_same_ies_while_waiting_for_Authentication_Response.LWG
p948
aVtc_332_052_2_mf__paging_due_to_UBR_during_paging_due_to_cs_sms_latest_with_high_prio.LWG
p949
aVtc_260_213_receive_sm_stop_req_while_wf_m3_start_resp.LWG
p950
aVtc_346_383_handover_inter_target_from_gn_establish_sx_session_with_bearer_control_mode_sx_only.LWG
p951
aVtc_346_529_AF__TAU_Inter_New_keep_old_sgw_2PDN_one_receive_diameter_cause_5003.LWG
p952
aVtc_346_589_sx_feature_off_during_intra_s1_handover_sx_only_RAR.LWG
p953
aVtc_346_728_pra_cn_predefined_lrc_optimization_x2_ho__continuous_ho_all_enbs_lrc_needed.LWG
p954
aVtc_326_225_Intra_TAU_Recovery_after_Node_Restart_fail_Retrieval_Response_timeout.LWG
p955
aVtc_326_323_Service_Reject_Identity_Reponse_timeout.LWG
p956
aVtc_326_417_Periodic_Inter_TAU_Recovery_GUTI_Unknown__IMEI_Check.LWG
p957
aVtc_326_684_tau_intra_SGW_unavailable_active_flag_off_after_MME_large_restart__create_session_partition_fail.LWG
p958
aVtc_348_012_activation_af__ggsn_return_failure_cause.LWG
p959
aVtc_348_363_inter_srns_reloc_af__new_sgsn_relocation_failure_received.LWG
p960
aVtc_314_100_sgsn_init_qos_mod_inter_srns_reloc_without_sgw_change.LWG
p961
aVtc_266_150_DownlinkDataNotification_with_CSG_Id_list_to_HeNB_GW.LWG
p962
aVtc_266_533_SGsAP_Paging_Request_init_service_request_no_modify_bearer_response.LWG
p963
aVtc_276_281_Inter_TAU_New_MME__Delete_Bearer_Request_while_waiting_for_Initial_Context_Setup_Response.LWG
p964
aVtc_361_180_rau_l_to_w_odb_bit_15.LWG
p965
aVtc_38_169_irat_old_pdp_ggsn_not_responding.LWG
p966
aVtc_318_266_sgw_restart_af_relocation_triggered_by_DDN_modify_bearer_request_failure.LWG
p967
aVtc_275_301_tau_inter_new_keep_old_sgw_too_high_QoS_for_all_default_bearers.LWG
p968
aVtc_249_111_act_pdp_ctx_dynamic_address_ipv4v6_gprs_sub.LWG
p969
aVtc_321_002_s4_logging_pgw_initiate_modification_traced_by_imeisv.LWG
p970
aVtc_321_101_intra_srns_reloc_relocation_failure.LWG
p971
aVtc_321_126_ms_attach_with_mocn.LWG
p972
aVtc_321_125_ptmsi_attach_identity_response.LWG
p973
aVtc_205_71_08_SCTP_OctetsChunksSent.LWG
p974
aVtc_238_006_irat_handover_w_to_l_target_via_s3_detach_odb_bit0.LWG
p975
aVtc_238_125_mme_eps_irat_ho_target_license_sau_limit_reached.LWG
p976
aVtc_238_179_mme_eps_irat_Gn_ho_target__with_gbr_pdp_context_apn_ambr_downgrade.LWG
p977
aVtc_293_041_X2_Based_HO__Sgw_reloc__Downlink_A21_AIS_while_wf_Delete_Session_Response.LWG
p978
aVtc_197_063_s1_handover_sgw_reselection_topon_emc_ims.LWG
p979
aVtc_197_442_pdn_connectivity_table_not_matched_type_a.LWG
p980
aVtc_197_703_apn_oi_replacement_pdn_connectivity_with_ims_ue_level_only.LWG
p981
aVtc_290_030_Timer_Based_GBR_Deact__attach_request_wf_ue_context_release_complete_before_timer_expires.LWG
p982
aVtc_12_31_attach_ptmsi_new_sgsn_imsi_not_known_with_ap_index_transfer.LWG
p983
aVtc_316_278_ISD_Subscriber_Data_Access_Restricted_Data_Change_To_3gpp_Not_Allowed__Delete_UE_Backup.LWG
p984
aVtc_281_042_Activate_bearer__Create_Bearer_Request_while_service_request_then_page_timeout.LWG
p985
aVtc_273_015_tau_intra_normal_idle_authentication_failes_invalid_res.LWG
p986
aVtc_273_400_tau_intra_bearer_status_ok.LWG
p987
aVtc_273_522_TAU_intra_sgw_unavailable_connect_rabr_context_not_exist__no_impact.LWG
p988
aVtc_214_035_combined_attach_combined_tau_intra_loc_update_reject.LWG
p989
aVtc_214_502_mt_sms_while_wf_tau_complete.LWG
p990
aVtc_214_821_SGW_unavailable_Combined_Intra_TAU.LWG
p991
aVtc_214_1150_la_selection_af_combined_attach_access_restriction_for_wcdma_and_gsm_for_legacy.LWG
p992
aVtc_265_125_Detach_Flow_NW_init__Reattach_Not_Required_Emergency_Attach_Request_while_waiting_for_Detach_Accept.LWG
p993
aVtc_219_131_s3_handover_w_to_l_with_cl_two_pdns_one_failed_sgw_relocation.LW
p994
aVtc_194_506_Notification_during_Intra_MME_TAU_without_SGW_Relocation_Procedure.LW
p995
aVtc_194_505_Notification_during_Intra_TAU_without_SGW_Relocation_HSS_Reset_Before_TAU.LW
p996
aVtc_241_201_s4_sgsn_pool_ms_move_target_sgsn_mf.LW
p997
aVtc_241_1694_intra_rau_without_sgw_change_interferred_by_reset_resource_after_modify_bearer_request.LW
p998
aVtc_248_09_inter_l_to_w_new_3gdt.LW
p999
aVtc_348_369_inter_srns_reloc_af__new_sgsn_update_location_ack_failed.LW
p1000
aVtc_304_266_tau_from_gnsgsn_2g_control_mode_wf_delete_all_bearers_response_exception_case_reject_congestion_subscriber_cancelled.LW
p1001
aVtc_286_118_pdn_disconnect_finished_pdn_connectivity_with_same_pti.LW
p1002
aVtc_209_70_israu_new_sgsn_one_pdp_context_wrong_pdp_type.LW
p1003
aVtc_334_176_sgw_restart_af_create_session_with_dedicated_bearer_qos_failed.LW
p1004
aVtc_81_013_israu_conversational_use_sub_ggsn_modifies_to_conv.LW
p1005
aVtc_304_266_tau_from_gnsgsn_2g_control_mode_wf_delete_all_bearers_response_exception_case_reject_congestion_subscriber_cancelled.L14b
p1006
aVtc_304_401_Extended_Service_Request_UE_Initiated__control_mode_threshold_exceeded.L14b
p1007
aVtc_286_118_pdn_disconnect_finished_pdn_connectivity_with_same_pti.L14b
p1008
aVtc_284_351_pdn_connectivity_pb_activate_1_dedicated_bearer_interrupted_by_path_switch_request.L14b
p1009
aVtc_285_006_PDN_Connectivity_Pb__Delete_default_bearer_request_while_wf_modify_bearer_response.L14b
p1010
aVtc_73_07_itc_encrypted_gtpu_s4_payload_w.WG14a
p1011
aVtc_324_512_ef_delete_bearer_request_ignore_payload_after_ulr.WG14a
p1012
aVtc_232_403_bfd__ipv4ipv6_alarm.LWG
p1013
aVtc_357_439_wcdma_local_user_without_pdp_intra_rau_non_ip_area_to_ip_area.LWG
p1014
aVtc_243_532_tau_from_sgsn_s3_active_flag_false_dl_data_notification_wf_tau_complete.LWG
p1015
aVtc_39_601_mas_unsucc_fwd_reloc_resp_mandatory_ie_missing_stop_source.LWG
p1016
aVtc_286_118_pdn_disconnect_finished_pdn_connectivity_with_same_pti.LWG
p1017
aVtc_59_9_mtmsi_restart_counter.LWG
p1018
aVtc_334_176_sgw_restart_af_create_session_with_dedicated_bearer_qos_failed.LWG
p1019
aVtc_334_281_path_failure_service_req_af_multi_pdn_create_session_no_resp.LWG
p1020
aVtc_73_07_itc_encrypted_gtpu_s4_payload_w.LWG
p1021
aVtc_172_12_record_cause_code_for_ps_handover_request_nack_if_cause_same_with_ps_handover_required_nack.LWG
p1022
aVtc_318_266_sgw_restart_af_relocation_triggered_by_DDN_modify_bearer_request_failure.LWG
p1023
aVtc_56_21_sending_recognized_information_in_log.LWG
p1024
aVtc_298_820_activate_secondary_pdp_context_request_with_NSAPI_exist_dedicate_bearer_idle_state.LWG
p1025
aVtc_301_002_activate_ipv6_visitor_requested_ipv6_subscribed_ipv6_aifav_false_aifv_true.LWG
p1026
aVtc_95_3_load_lkf.LWG
p1027
aVtc_81_013_israu_conversational_use_sub_ggsn_modifies_to_conv.LWG
p1028
aVtc_241_431_intra_rau_with_bearer_sgw_unchange_2_pdns_with_one_modify_no_response.LWG
p1029
aVtc_241_432_intra_rau_with_bearer_sgw_unchange_2_pdns_3gdt.LWG
p1030
aVtc_eabln37805_deactivate_after_detach.LWG
p1031
aVtc_26_058_activate_3_primary_contexts_different_policy_maps.LWG
p1032
aVtc_304_266_tau_from_gnsgsn_2g_control_mode_wf_delete_all_bearers_response_exception_case_reject_congestion_subscriber_cancelled.LWG
p1033
aVtc_259_67_ef_provide_subscriber_information_attach_old_w.LWG
p1034
aVtc_92_05_60_old_format_counters.LWG
p1035
aVtc_219_131_s3_handover_w_to_l_with_cl_two_pdns_one_failed_sgw_relocation.LWG
p1036
aVtc_256_012_mme_eps_srvcc_ho_source_cs_only_mf_with_rau_to_s4_sgsn_for_multi_voice_bearers_in_multi_pdns.LWG
p1037
aVtc_256_138_mme_eps_srvcc_ho_source_cs_only_initial_ue_tau_request_wf_srvcc_ps_to_cs_response.LWG
p1038
aVtc_44_004_small_restart__sctp_fe_restart.LWG
p1039
aVtc_166_067_all_rab_release_reestablish_interactive_rnc_nack.LWG
p1040
aVtc_166_166_inter_new_srns_ggsn_answers_with_v0.LWG
p1041
aVtc_166_283_wildcard_in_dt_apn_list_redirect_no_dns_answer_mode_2.LWG
p1042
aVtc_238_211_mme_eps_irat_ho_target__SGW_unavailable.LWG
p1043
aVtc_236_293_Relocation_3gdt_switchback_reset_received_wf_modify_bearer_response.LWG
p1044
aVtc_97_035_inter_sgsn_psho_mf_with_lawful_intercept.LWG
p1045
aVtc_231_227_PGW_Initiated_Modification_EARP_idle_one_tunnel.W14b
p1046
aVtc_334_176_sgw_restart_af_create_session_with_dedicated_bearer_qos_failed.W14b
p1047
aVtc_248_419_inter_l_to_w_new_two_pdns_with_target_gw_interface_gp_and_ipv6_user_plan_off.W14b
p1048
aVtc_313_281_inter_new_srns_reloc_s16_with_sgw_change_downlink_data_notification_with_cause_received_wf_rau_complete.W14b
p1049
aVtc_12_512_pmm_undefined_attach_when_updating_location_interfered_by_rnc_reset.LW
p1050
aVtc_304_266_tau_from_gnsgsn_2g_control_mode_wf_delete_all_bearers_response_exception_case_reject_congestion_subscriber_cancelled.LW
p1051
aVtc_298_723_service_request_ef_ms_deact_ti_default_wf_rab_assignment_response.LW
p1052
aVtc_241_066_israu_new_gn_to_s4_pdp_to_bearer_two_pdp_one_arp_higher_than_policy_map.LW
p1053
aVtc_326_217_Intra_TAU_Recovery_with_active_flag_two_PDN_partial_fail.LW
p1054
aVtc_334_176_sgw_restart_af_create_session_with_dedicated_bearer_qos_failed.LW
p1055
aVtc_219_131_s3_handover_w_to_l_with_cl_two_pdns_one_failed_sgw_relocation.LW
p1056
aVtc_286_118_pdn_disconnect_finished_pdn_connectivity_with_same_pti.LW
p1057
aVtc_327_610_Inter_TAU_SGW_Changed_then_Intra_TAU_while_waiting_for_20s_timeout.LW
p1058
aVtc_202_431_mf_seamless_move_target_service_request_modifyBearerReq_onePdnMultiBearer_oneBearerFail.LW
p1059
aVtc_324_069_af_modify_bearer_dedicated_bearer_fail.LW
p1060
aVtc_256_004_mme_eps_srvcc_ho_source_cs_only_mf_after_tau_from_gn_sgsn.LW
p1061
aVtc_335_24_wifi_to_mobility_in_ecm_idle_mf__all_cells_succeed_from_home_eNB.LW
p1062
aVtc_268_079_Timer_Based_GBR_Deact__receive_DDN_with_no_EBI_set_to_allbearers_paging_failed.LW
p1063
aVtc_194_505_Notification_during_Intra_TAU_without_SGW_Relocation_HSS_Reset_Before_TAU.LW
p1064
aVtc_267_009_Service_Request__Tracking_Area_update_while_waiting_for_Service_Request_Downlink_Data.LW
p1065
aVtc_286_118_pdn_disconnect_finished_pdn_connectivity_with_same_pti.LW
p1066
aVtc_12_512_pmm_undefined_attach_when_updating_location_interfered_by_rnc_reset.LW
p1067
aVtc_236_311_HO_over_S3_3GDT_switchback_ef_delete_bearer_request_received_wf_rab_assignment_response.LW
p1068
aVtc_78_105_imsi_attach_with_selected_plmn_and_redirection_flag.LW
p1069
aVtc_244_602_delete_eslmc.LW
p1070
aVtc_304_266_tau_from_gnsgsn_2g_control_mode_wf_delete_all_bearers_response_exception_case_reject_congestion_subscriber_cancelled.LW
p1071
aVtc_342_858_online_change_tneId.LW
p1072
aVtc_298_073_s4_nrspca_activate_same_nsapi_of_dedicated_bearer_rab_released.LW
p1073
aVtc_231_070_activate_during_waiting_for_create_session_resp_interrupted_by_detach.LW
p1074
aVtc_214_210_mo_sms_idle_sgs_link_broken.LW
p1075
aVtc_214_822_SGW_unavailable_Combined_Attach_mt_sms.LW
p1076
aVtc_304_266_tau_from_gnsgsn_2g_control_mode_wf_delete_all_bearers_response_exception_case_reject_congestion_subscriber_cancelled.L14b
p1077
aVtc_103_1102_fallback_to_imsins_success.L14b
p1078
aVtc_204_1362_mme_eps_ho__sgs_cs_paging_wf_location_update_answer.L14b
p1079
aVtc_286_118_pdn_disconnect_finished_pdn_connectivity_with_same_pti.L14b
p1080
aVtc_257_30_pws_sctp_device_failure.L14b
p1081
aVtc_313_281_inter_new_srns_reloc_s16_with_sgw_change_downlink_data_notification_with_cause_received_wf_rau_complete.WG14a
p1082
aVtc_73_07_itc_encrypted_gtpu_s4_payload_w.WG14a
p1083
aVtc_56_21_sending_recognized_information_in_log.LWG
p1084
aVtc_04_04_normal_gprs_imsi_attach_detach_imsi_attach_detach.LWG
p1085
aVtc_357_439_wcdma_local_user_without_pdp_intra_rau_non_ip_area_to_ip_area.LWG
p1086
aVtc_226_320_W__USC_Service_Request_ControlMode_On_Paging_failed.LWG
p1087
aVtc_298_301_EF_SIBD_S4_Activate_From_MS_TI_Flag.LWG
p1088
aVtc_298_724_service_request_ef_ms_deact_ti_dedicated_wf_rab_assignment_response.LWG
p1089
aVtc_305_040_oms_mmi.LWG
p1090
aVtc_73_07_itc_encrypted_gtpu_s4_payload_w.LWG
p1091
aVtc_304_266_tau_from_gnsgsn_2g_control_mode_wf_delete_all_bearers_response_exception_case_reject_congestion_subscriber_cancelled.LWG
p1092
aVtc_179_318_Ccheck_TraceCollectionIpv6server.LWG
p1093
aVtc_92_05_60_old_format_counters.LWG
p1094
aVtc_101_002_multiple_mbms_session.LWG
p1095
aVtc_166_428_rnc_initiated_rab_release_interfered_by_rnc_initiated_iu_release_request.LWG
p1096
aVtc_666_03_block_ss7_board.LWG
p1097
aVtc_205_71_08_SCTP_OctetsChunksSent.LWG
p1098
aVtc_286_118_pdn_disconnect_finished_pdn_connectivity_with_same_pti.LWG
p1099
aVtc_238_211_mme_eps_irat_ho_target__SGW_unavailable.LWG
p1100
aVtc_282_003_deactivate_bearer_2_of_2.LWG
p1101
aVtc_321_090_mo_sms_mf.LWG
p1102
aVtc_324_069_af_modify_bearer_dedicated_bearer_fail.LWG
p1103
aVtc_84_80_provide_subscriber_locaiton_ef_paging_interrupted_by_attach.LWG
p1104
aVtc_26_058_activate_3_primary_contexts_different_policy_maps.LWG
p1105
aVtc_39_601_mas_unsucc_fwd_reloc_resp_mandatory_ie_missing_stop_source.LWG
p1106
aVtc_204_1276_mme_eps_ho_target__emergency_typa_a_subscription_cancel_withdrawal__wf_handover_request_ack.LWG
p1107
aVtc_53_57_inter_new_srns_reloc_rab_not_allocated_interrupt_by_reset.LWG
p1108
aVtc_316_297_Attach_Detach_Then_Inter_MME_TAU_New_MME__Buffer_List_Delete.LWG
p1109
aVtc_320_072_ue_trace_ptmsi_conflict_with_another_ms.LWG
p1110
aVtc_196_155_nrspca_ongoing_when_ms_initiated_detach.LWG
p1111
aVtc_259_99_ef_s6d_s4_attach_old_w.LWG
p1112
aVtc_214_1141_la_selection_mf_oldmscpreferred_prau_during_ue_restoration.LWG
p1113
aVtc_219_131_s3_handover_w_to_l_with_cl_two_pdns_one_failed_sgw_relocation.LWG
p1114
aVtc_194_506_Notification_during_Intra_MME_TAU_without_SGW_Relocation_Procedure.LWG
p1115
aVtc_326_251_Intra_TAU_with_unknown_GUTI_with_active_flag_then_s1_Intra_HO.LWG
p1116
aVtc_245_301_inter_rau_insert_entry_into_interface_cache.LWG
p1117
aVtc_92_05_60_old_format_counters.LWG
p1118
aVtc_236_311_HO_over_S3_3GDT_switchback_ef_delete_bearer_request_received_wf_rab_assignment_response.LWG
p1119
aVtc_286_118_pdn_disconnect_finished_pdn_connectivity_with_same_pti.LWG
p1120
aVtc_73_07_itc_encrypted_gtpu_s4_payload_w.LWG
p1121
aVtc_284_351_pdn_connectivity_pb_activate_1_dedicated_bearer_interrupted_by_path_switch_request.LWG
p1122
aVtc_346_493_Small_Local_Restart__Terminate_when_UE_S1_release.LWG
p1123
aVtc_304_266_tau_from_gnsgsn_2g_control_mode_wf_delete_all_bearers_response_exception_case_reject_congestion_subscriber_cancelled.LWG
p1124
aVtc_316_299_GUTI_Attach_UnKnown_GUTI_Not_In_Pool_No_Broadcast_Force_Delete_Among_Pool.L14b
p1125
aVtc_266_026_DownlinkDataFailureInd_repeat_paging_timer_small_local_restart.L14b
p1126
aVtc_263_321_Attach_Flow__Attach_Request_Different_IEs_IP_OK_while__waiting_for_combined_attach_response.L14b
p1127
aVtc_260_272_receive_sm_stop_req_while_wf_setup_iteration.L14b
p1128
aVtc_103_706_delete_peer_send_DPR_error_result_code_in_DPA.L14b
p1129
aVtc_214_210_mo_sms_idle_sgs_link_broken.L14b
p1130
aVtc_199_92_manual_echo_recovery_counter_increased.L14b
p1131
aVts_346_630_pra_cn_predefined_tai_list__attach_out_of_pra1_pdn_in_pra2.L14b
p1132
aVtc_318_203_idle_deactivate_last_pdn_with_reactivate_req.L14b
p1133
aVtc_295_124_tau_after_ho_tz_change_emm_information_meanwhile_handover_required_HO_success.L14b
p1134
aVtc_304_266_tau_from_gnsgsn_2g_control_mode_wf_delete_all_bearers_response_exception_case_reject_congestion_subscriber_cancelled.L14b
p1135
aVtc_286_118_pdn_disconnect_finished_pdn_connectivity_with_same_pti.L14b
p1136
aVtc_262_751_attach_handover_indication_no_override_after_timeout.L14b
p1137
aVtc_194_1601__HSS_initiated_ISD_in_Connected_mode_when_current_CSG_Id_removed_Intefered_by_MT_SMS_wf_ue_context_modify_response.L14b
p1138
aVtc_84_80_provide_subscriber_locaiton_ef_paging_interrupted_by_attach.G14b
p1139
aVtc_286_118_pdn_disconnect_finished_pdn_connectivity_with_same_pti.LW
p1140
aVtc_44_072_s1ap_mdholpap_counters_attach.LW
p1141
aVtc_307_064_IRAT_HO_from_W_GnSGSN_downgrade_QoS.LW
p1142
aVtc_194_182_hss_reset_ue_activity_tau_request_after_handover.LW
p1143
aVtc_219_131_s3_handover_w_to_l_with_cl_two_pdns_one_failed_sgw_relocation.LW
p1144
aVtc_326_217_Intra_TAU_Recovery_with_active_flag_two_PDN_partial_fail.LW
p1145
aVtc_298_424_ms_init_deact_ef_delicated_non_gbr_bearer_deact_interfered_by_rab_release_request.LW
p1146
aVtc_262_560_url_during_initial_attach_roamer__no_userstate_no_locationinfo.LW
p1147
aVtc_304_266_tau_from_gnsgsn_2g_control_mode_wf_delete_all_bearers_response_exception_case_reject_congestion_subscriber_cancelled.LW
p1148
aVtc_73_07_itc_encrypted_gtpu_s4_payload_w.WG14a
p1149
aVtc_85_12_mo_sms.W14b
p1150
aVtc_298_231_SIBD_S4_RAB_Reestablishment_failed.W14b
p1151
aVtc_248_419_inter_l_to_w_new_two_pdns_with_target_gw_interface_gp_and_ipv6_user_plan_off.W14b
p1152
aVtc_313_281_inter_new_srns_reloc_s16_with_sgw_change_downlink_data_notification_with_cause_received_wf_rau_complete.W14b
p1153
aVtc_357_500_gsm_iterator_EF_RAU_Request_WF_deactivate_pdp_context_accept.WG14a
p1154
aVtc_324_455_ef_detach_request_poweroff_abort_wf_rab_assignment_response_wf_update_location_hss_service_req_data.WG14a
p1155
aVtc_73_07_itc_encrypted_gtpu_s4_payload_w.WG14a
p1156
aVtc_218_215_2_TAU_from_SGSN__ho_to_non_3gpp_while_waiting_for_failing_Initial_Context_Setup_Response.L14b
p1157
aVtc_286_118_pdn_disconnect_finished_pdn_connectivity_with_same_pti.L14b
p1158
aVtc_304_266_tau_from_gnsgsn_2g_control_mode_wf_delete_all_bearers_response_exception_case_reject_congestion_subscriber_cancelled.L14b
p1159
aVtc_266_026_DownlinkDataFailureInd_repeat_paging_timer_small_local_restart.L14b
p1160
aVtc_211_015_streamed_cell_trace_mapping_alarm_cease.L14b
p1161
aVtc_194_1600__HSS_initiated_ISD_in_Connected_mode_when_current_CSG_Id_removed_Intefered_by_MT_Call_wf_ue_context_modify_response.L14b
p1162
aVtc_103_024_modify_diameter_peer_switch_peer_numbers.L14b
p1163
aVtc_322_094_smooth_move_ef_service_request_idle_ignore.W14b
p1164
aVtc_236_288_Relocation_3gdt_switchback_iu_release_request_none_user_inactivity_received_wf_modify_bearer_response.W14b
p1165
aVtc_81_121_israu_ggsn_downgrade_to_stream_and_upgrade_gbr_no_new_resources.W14b
p1166
aVtc_326_509_Recovery_for_DDN__Retrieval_and_Paging_and_Inter_TAU_after_Paging_Timer_Expires.LW
p1167
aVtc_12_134_attach_with_extended_mmumoc_iu_inactivity_timer.LW
p1168
aVtc_225_354_mt_call_active_mode_ongoing_ims_call_emergency_pdn_exists.LW
p1169
aVtc_313_281_inter_new_srns_reloc_s16_with_sgw_change_downlink_data_notification_with_cause_received_wf_rau_complete.LW
p1170
aVtc_219_131_s3_handover_w_to_l_with_cl_two_pdns_one_failed_sgw_relocation.LW
p1171
aVtc_304_266_tau_from_gnsgsn_2g_control_mode_wf_delete_all_bearers_response_exception_case_reject_congestion_subscriber_cancelled.LW
p1172
aVtc_286_118_pdn_disconnect_finished_pdn_connectivity_with_same_pti.LW
p1173
aVtc_194_505_Notification_during_Intra_TAU_without_SGW_Relocation_HSS_Reset_Before_TAU.LW
p1174
aVtc_241_432_intra_rau_with_bearer_sgw_unchange_2_pdns_3gdt.LW
p1175
aVtc_346_593_sx_feature_off_ISD_RAR.LW
p1176
aVtc_298_231_SIBD_S4_RAB_Reestablishment_failed.LW
p1177
aVtc_179_318_Ccheck_TraceCollectionIpv6server.LWG
p1178
aVtc_306_005_ef_seamless_move_source_receive_attach_request_wf_modify_bearer_response.LWG
p1179
aVtc_306_158_ef_seamless_move_source_receive_insert_subscription_data_tads_ecm_connected.LWG
p1180
aVtc_306_1023_ef_seamless_move_target_ignore_tau_request_initial_with_ddn.LWG
p1181
aVtc_306_1258_ef_seamless_move_target_receive_sgsn_context_request_wf_mbr.LWG
p1182
aVtc_318_211_idle_deactivate_non_last_pdn_reactivate_req_but_wrong_service_request.LWG
p1183
aVtc_304_107_initial_ue_intra_tau_control_mode_threshold_exceeded_usc_reject.LWG
p1184
aVtc_304_234_inter_tau_control_mode_threshold_exceeded_ignore_replace_s1_wf_update_location_response.LWG
p1185
aVtc_304_266_tau_from_gnsgsn_2g_control_mode_wf_delete_all_bearers_response_exception_case_reject_congestion_subscriber_cancelled.LWG
p1186
aVtc_304_328_PDN_connectivity__control_mode_threshold_exceeded_action_reject_during_service_req.LWG
p1187
aVtc_304_216_combined_node_inter_tau_from_s4_control_mode_threshold_exceeded_reject_wf_tau_complete.LWG
p1188
aVtc_304_237_emergency_intra_isc_control_mode_threshold_exceeded_ignore.LWG
p1189
aVtc_304_502_Service_Request_UE_Initiated__control_mode_threshold_exceeded_dgn.LWG
p1190
aVtc_239_125_inter_rau_sgw_unchange_ubr_before_rau_complete_interfered_by_abnormal_rau_request.LWG
p1191
aVtc_239_417_inter_rau_old_wait_for_cancel_loacation_interfered_by_gmm_status_s4.LWG
p1192
aVtc_292_173_intra_handover_with_timer_expiration_of_x2_ho.LWG
p1193
aVtc_238_201_mme_eps_irat_Gn_ho_target__three_pdn_one_MBR_with_lbi.LWG
p1194
aVtc_238_166_mme_eps_irat_Gn_ho_target__No_fwd_rel_com_ack.LWG
p1195
aVtc_369_082_gn_identification_request_during_waiting_location_report__idr_flags_ef.LWG
p1196
aVtc_297_135_inter_rau_new_s4_fetch_imsi.LWG
p1197
aVtc_246_062_israu_new_l_to_g_sgw_change_one_pdn_ubr_before_rau_complete_interfered_by_cancel_location.LWG
p1198
aVtc_259_93_ef_provide_subscriber_information_service_request_w.LWG
p1199
aVtc_236_061_s4_3gdt_deactivation_during_waiting_for_release_bearer_rsp_in_rab_release_procedure.LWG
p1200
aVtc_236_206_G_to_W_intra_RAU_S4_DtSelMode_5_APN_not_in_APN_list_TAC_list_empty_without_SGW_Relocation.LWG
p1201
aVtc_236_293_Relocation_3gdt_switchback_reset_received_wf_modify_bearer_response.LWG
p1202
aVtc_346_546_AF__HO_Inter_Target__2PDN_BCM_Sx_only_one_CCA_U_cause_5003.LWG
p1203
aVtc_225_110_mo_call_active_mode_ongoing_ims_call.LWG
p1204
aVtc_225_650_mt_call_active_mode_no_lai_in_paging_req_param_tamr_true.LWG
p1205
aVtc_321_117_ms_init_secondary_pdp_context_activation_network_reject.LWG
p1206
aVtc_263_523_ReAttach_Flow_mt_cs_call_while_waiting_for_create_session_response_with_msc_change.LWG
p1207
aVtc_325_233_inter_old_srns_reloc_s4_to_gn_wf_fwd_reloc_resp_interrupted_by_isd_vplmn_not_allowed.LWG
p1208
aVts_231_179_update_bearer_request_interfere_sgsn_init_deactivation.LWG
p1209
aVtc_231_254_PGW_init_deletion_AF_with_ebi.LWG
p1210
aVtc_231_633_activate_successful_with_16m_flag_not_allowed_mmbru_policymap_mmbrd_16m_in_create_session_req.LWG
p1211
aVtc_92_05_60_old_format_counters.LWG
p1212
aVtc_316_215_Service_Request_With_Dedicated_Bearers_Partial_Success__Backup_UE.LWG
p1213
aVtc_327_166_recovery_intra_TAU_SGSN_Context_Request_while_waiting_for_Update_Location_Answer_sgw_change.LWG
p1214
aVtc_327_037_recovery_intra_TAU_active_off_sgw_unchanged__RAR_wf_CSR_due_to_S11_linkdown.LWG
p1215
aVtc_327_360_recovery_service_request__new_Service_Request_while_waiting_for_Ue_Backup_Response.LWG
p1216
aVtc_220_046_csfb_to_1xrtt_initial_ue_message_over_new_s1_connection.LWG
p1217
aVtc_220_583_csfb_to_1xrtt_in_ecm_idle_extended_service_request_as_paging_response_create_bearer.LWG
p1218
aVtc_73_41_gtpu_sgsn_dont_send_gpu_echo_request_w.LWG
p1219
aVtc_73_07_itc_encrypted_gtpu_s4_payload_w.LWG
p1220
aVtc_265_148_Detach_Flow_NW_init__Reattach_Not_Required_Detach_Request_non_poweroff_int_prot_nok_Initial_UE_while_waiting_for_Detach_Accept.LWG
p1221
aVtc_248_68_inter_l_to_w_new_timeout_waiting_for_modify_bearer_response.LWG
p1222
aVtc_248_146_inter_l_to_w_new_reset_resource_received_wf_rau_complete.LWG
p1223
aVtc_248_403_inter_l_to_w_new_two_pdns_with_sgw_change_license_off_and_ipv6_disable.LWG
p1224
aVtc_274_275_Intra_and_pTAU__Handover_Required_with_old_TA_MSC_change_while_waiting_for_Location_Update_response_IMSI_Detach_TAU.LWG
p1225
aVtc_280_010_activate_dedicated_bearer_feature_off.LWG
p1226
aVtc_340_110_ef_g_gn_pRAU_trigger_interfering_rau_request_wf_rau_complete.LWG
p1227
aVtc_290_070_Timer_Based_GBR_Deact__update_bearer_request_ecm_idle_before_timer_expires.LWG
p1228
aVtc_242_621_rau_sgsn_s3_sgsn_context_request_when_wf_session_response.LWG
p1229
aVtc_334_025_pgw_restart_mf_multiple_pdns_part_delete_and_part_deactivate_idle.LWG
p1230
aVtc_250_01_s6d_attach.LWG
p1231
aVtc_250_161_s6d_IDR_IDA_Change_GPRS_to_eps_subscription_re_attach.LWG
p1232
aVtc_275_511_inter_mme_tau__no_identity_response__enhanced_imei_check.LWG
p1233
aVtc_326_317_Service_Request_with_unknown_STMSI_node_restart_1xrtt_cs_registration_then_mo_sms.LWG
p1234
aVtc_326_382_Service_Request_with_unknown_STMSI_then_smooth_move.LWG
p1235
aVtc_326_658_tau_intra_periodic_SGW_unavailable_after_MME_large_restart__create_session_fail_reselect_SGW.LWG
p1236
aVtc_329_365_s1_intra_ho_rr_restricted.LWG
p1237
aVtc_289_066_Modify_bearer__UE_context_modification_failure_s1_intra_system_ho_triggered_two_pdn_SGW_send_new_UBR_before_ho_end.LWG
p1238
aVtc_226_060_Inter_RAU_L2G_S4SGSN_rejected_measurement_control_exceed_threshold_RAU_request_after_control.LWG
p1239
aVtc_39_921_ef_seamless_move_interrupted_by_normal_attach.LWG
p1240
aVtc_39_920_ef_seamless_move_interrupted_by_transferred_attach.LWG
p1241
aVtc_214_200_mo_sms_idle.LWG
p1242
aVtc_214_1099_la_selection_mf_reselection_combined_tau_with_imsi_attach_after_mme_triggered_imsi_detach_when_handling_sgs_paging.LWG
p1243
aVtc_214_1103_la_selection_mf_reselection_combined_intra_tau_with_imsi_attach_after_csfb.LWG
p1244
aVtc_665_56_repeated_cm_restart.LWG
p1245
aVtc_283_062_MME_Deactivate_Bearer__Delete_Bearer_Request_while_wf_Delete_Bearer_Request_same_2_bearers.LWG
p1246
aVtc_237_400_mme_eps_irat_ho_source_emergency_type_a_feu_on_csg_id.LWG
p1247
aVtc_322_133_smooth_move_ef_sgsn_context_request_wf_ignore.LWG
p1248
aVtc_219_026_tau_g_to_l_with_gbr_bearers.LWG
p1249
aVtc_262_018_3_imsi_attach_create_session_failed_context_non_existent_remote.LWG
p1250
aVtc_262_154_old_mme_identification_procedure_without_target_plmn_id.LWG
p1251
aVtc_262_907_attach_visitor_mispelled_apn.LWG
p1252
aVtc_335_21_wifi_to_mobility_in_ecm_idle_mf__one_cell_info_from_wic__all_cells_succeed_from_eNB.LWG
p1253
aVtc_218_531_tau_from_sgsn_gn_active_flag_true_gw_failure_restoration_lte_on_no_modify_bearer_response_two_pdn.LWG
p1254
aVtc_244_517_SLg_Location_Request__Insert_Subscription_Data_wwf_Location_Response_from_ESMLC.LWG
p1255
aVtc_244_808_mt_lr_nas_non_delivery_x2_handover_triggered_HO_all_bearers_fail.LWG
p1256
aVtc_286_118_pdn_disconnect_finished_pdn_connectivity_with_same_pti.LWG
p1257
aVtc_52_16_inter_old_relocation_cancel_even_later.LWG
p1258
aVtc_273_602_tau_intra_periodic_SGW_unavailable__with_static_SGW.LWG
p1259
aVtc_243_532_tau_from_sgsn_s3_active_flag_false_dl_data_notification_wf_tau_complete.LWG
p1260
aVtc_319_036_act_pdp_ef_table_not_matched_stop_by_detach.LWG
p1261
aVtc_319_108_attach_af_gw_blacklisting_sgw_blocked_no_pgw_response.LWG
p1262
aVtc_247_47_inter_w_to_l_old_relocation_cancel_wf_forward_relocation_response.LWG
p1263
aVtc_247_144_inter_w_to_l_old_wf_reloc_cancel_resp_interrupted_by_context_request.LWG
p1264
aVtc_320_065_cp_error_from_sgsn.LWG
p1265
aVtc_183_009_itc_sctp_trace.LWG
p1266
aVtc_256_008_mme_eps_srvcc_ho_source_cs_only_mf_after_tau_after_intra_mme_ho_with_srvcc_parameters_changed.LWG
p1267
aVtc_256_148_mme_eps_srvcc_ho_source_cs_only_emergency_update_bearer_request_wf_delete_session_response.LWG
p1268
aVtc_267_005_Service_Request__Attach_while_waiting_for_Service_Request.LWG
p1269
aVtc_267_810_DDN_wf_service_req_interfer_by_CBR_DBR_ho_to_non_3gpp.LWG
p1270
aVtc_364_212_af_sms_end_user_data_never_in_ue_tracer_log.LWG
p1271
aVtc_241_017_intra_rau_with_bearer_sgw_unchange_mf_s4_with_all_fTeid_undefined.LWG
p1272
aVtc_241_351_intra_rau_with_authentication_error.LWG
p1273
aVtc_241_540_israu_new_gn_to_s4_pdp_to_bearer_QoSsub_higher_than_QoSNeg.LWG
p1274
aVtc_241_701_inter_new_primary_secondary_pdp_sgw_change_odb_bit_15_s4.LWG
p1275
aVtc_241_1620_israu_out_wf_20s_israu_in_s4.LWG
p1276
aVtc_288_122_pgw_initiated_bearer_modification_tft_same_value.LWG
p1277
aVtc_288_363_pgw_init_bearer_mod_qci_counters__qci2_6_64_65_66_67_68.LWG
p1278
aVtc_324_043_af_mbr_higher_than_policymap.LWG
p1279
aVtc_324_091_af_ue_initiate_service_request_with_inactive_pdp_context_status.LWG
p1280
aVtc_324_310_ef_provide_location_request_service_request_after_ack.LWG
p1281
aVtc_313_015_inter_new_srns_reloc_s16_with_sgw_change_with_preserved_dedicate_bearer.LWG
p1282
aVtc_313_243_inter_new_srns_reloc_s16_with_sgw_change_cancel_location_subscription_withdrawn_received_from_hlr_wf_update_location_ack.LWG
p1283
aVtc_261_09_tau_after_ho_from_sgsn_tads_voip_no_restricted.LWG
p1284
aVtc_230_029_activate_try_next_sgw_due_to_no_sgw_response.LWG
p1285
aVtc_230_150_gprs_re_attach_with_pdp_si_session_msg.LWG
p1286
aVtc_230_551_apn_resolution_ext_apn_based_with_cc.LWG
p1287
aVtc_166_134_israu_new_3gdt_incompatible_ggsn.LWG
p1288
aVtc_166_211_inter_irat_w_to_g_old_main_flow.LWG
p1289
aVtc_166_292_error_indication_from_rnc_streaming_when_hlr_modify_qos.LWG
p1290
aVtc_166_427_ms_initiated_deactivation_ignore_rab_release_request.LWG
p1291
aVtc_284_330_delete_bearer_interfere_handover_to_non_3GPP_ecm_connected_multi_pdn.LWG
p1292
aVtc_296_020_son_intra_HeNB_format_targetid_direct_connected_target_HeNB.LWG
p1293
aVtc_311_25_intra_srns_reloc_s4_without_sgw_change_serving_network_trigger_mbr.LWG
p1294
aVtc_311_226_intra_srns_reloc_s4_sgw_change_wf_reloc_complete_interrupted_by_identification_req.LWG
p1295
aVtc_298_004_S4_Network_Request_Secondary_PDP_Activation_9_Dedicated_Bearer_in_2_PDN.LWG
p1296
aVtc_298_043_S4_Network_Request_Secondary_PDP_Activation_Uplink_MBR_Zero.LWG
p1297
aVtc_298_226_SIBD_S4_no_RAB_Response.LWG
p1298
aVtc_298_424_ms_init_deact_ef_delicated_non_gbr_bearer_deact_interfered_by_rab_release_request.LWG
p1299
aVtc_298_523_pgw_init_dedicated_deletion_ef_sm_status.LWG
p1300
aVtc_298_810_S4_3GDT_Release_Access_Bearers_failed_PDN_deactivation.LWG
p1301
a.