(lp0
Vtc_218_311_tau_from_sgsn_preserved_gbr_bearer_buffer_1_ubr_1_cbr.LW
p1
aVtc_281_025_Activate_bearer__ERAB_setup_response_s1_intra_system_handover_triggered.LW
p2
aVtc_324_386_ef_mt_sms_wf_frcn_wf_frca_wf_ula.LW
p3
aVtc_23_38_get_cause_codes_from_rab_release_request_and_iu_release_cmd_cause_diff.LW
p4
aVtc_260_351_sctp_disconnect_mce_reestablish_m3_setup.LW
p5
aVtc_231_113_rnc_reset_during_ms_act_si_ms_deact_rnc_contact.LW
p6
aVtc_231_502_act_req_with_same_apn_and_staticPDPAddr_interfere_ms_init_deactivation.LW
p7
aVtc_311_110_intra_srns_reloc_s4_sgw_selection_failure.LW
p8
aVtc_311_154_intra_srns_reloc_s4_with_sgw_change_wf_delete_session_rsp_from_src_sgw_interrupted_by_initial_attach_request.LW
p9
aVtc_311_187_intra_srns_reloc_s4_sgw_change_wf_modify_bearer_rsp_interrupted_by_target_iu_release.LW
p10
aVtc_311_225_intra_srns_reloc_s4_sgw_change_wf_reloc_req_ack_interrupted_by_identification_req.LW
p11
aVtc_103_850_error_code_DIAMETER_REALM_NOT_SERVED.LW
p12
aVtc_346_600_Location_Based_Policies__User_Location_Changes_Sx_Only_2_CCR_for_same_PDN.LW
p13
aVtc_292_131_x2_ho_with_sgw_relocation_1_pdn_fail_tau_while_cleanup.LW
p14
aVtc_306_135_ef_seamless_move_source_receive_s1_setup_wf_frcn.LW
p15
aVtc_194_102_check_gauge_worker_crash_not_parked.LW
p16
aVtc_241_752_W2W_GnSGSN_to_S4SGSN_one_pdp_arp_higher_than_policymap_sysprop_deactivate_pdp_after_tau_on.LW
p17
aVtc_241_801_israu_interfering_context_request_no_cancel_location_s4.LW
p18
aVtc_311_204_intra_srns_reloc_s4_sgw_change_wf_reloc_req_ack_interrupted_by_cancel_loc_subscrip_withdrawn.WG14a
p19
aVtc_73_05_insert_max_pdp_contexts_for_one_ms.WG14a
p20
aVtc_273_220_cell_trace_start_stop_when_tau_intra_periodic_idle_not_active.L14b
p21
aVtc_214_028_combined_attach_interfering_s1_reset.L14b
p22
aVtc_214_036_inter_tau_no_tau_complete.L14b
p23
aVtc_214_1105_la_selection_mf_oldmscpreferred_combined_intra_tau_with_imsi_attach_after_cs_fallback.L14b
p24
aVtc_304_433_Service_Request_UE_Initiated__control_mode_threshold_exceeded_onging_icsr_explicit_detach.L14b
p25
aVtc_256_046_mme_eps_srvcc_ho_source_cs_only_emergency_attach_delete_bearer_request_not_received.L14b
p26
aVtc_44_071_attach_long_imsi.L14b
p27
aVtc_316_246_CSFB_to_WG_UE_ECM_Connected__No_UE_Backup.L14b
p28
aVtc_329_800_geored_intra_tau_rr_restricted_after_update_location.L14b
p29
aVtc_306_1233_ef_seamless_move_target_receive_attach_request_wf_frca.L14b
p30
aVtc_225_200_mo_call_idle_mode.L14b
p31
aVtc_202_01_ecm_connected_s1_release.L14b
p32
aVtc_302_026_downlink_a21_echo_request_message.L14b
p33
aVtc_318_111_sgw_restart_mf_one_pdn_with_relocate_s8_interface.L14b
p34
aVtc_340_122_oms_consistence_check_for_create_pool_move_fileter_validaton_ga.L14b
p35
aVtc_217_071_rau_to_sgsn_pdn_disconnect_when_wf_session_response.L14b
p36
aVtc_326_321_Service_Reject_STMSI_missing.L14b
p37
aVtc_326_507_Recovery_for_DDN__Retrieval_and_Paging_also_as_Backup_MME_and_Serving_MME.L14b
p38
aVtc_284_351_pdn_connectivity_pb_activate_1_dedicated_bearer_interrupted_by_path_switch_request.L14b
p39
aVtc_194_403_tau_ul_fails_roaming_not_allowed_remap_on_with_err_diag.L14b
p40
aVtc_194_991_downlink_A21_AIS_during_waiting_location_report__idr_flags_ef.L14b
p41
aVtc_346_388_handover_intra_2PDN_BCM_sx_only_and_sxgx_location_report.L14b
p42
aVtc_281_024_Activate_bearer__ERAB_setup_request_s1_intra_system_handover_triggered_multiple_bearer.L14b
p43
aVtc_244_806_mt_lr_donwlink_generic_nas_transport_meanwhile_handover_required_HO_success.L14b
p44
aVtc_262_059_no_imei_check_after_large_restart.L14b
p45
aVtc_327_510_recovery_service_request__ue_context_release_request.L14b
p46
aVtc_289_017_Modify_bearer__ERAB_modify_request_meanwhile_path_switch_request_HO_success.L14b
p47
aVtc_204_068_mme_eps_ho__intra_mme_handover_during_tau_complete.L14b
p48
aVtc_250_105_ignore_IDR_when_EPS_sub_downgrade_GPRS_sub.W14b
p49
aVtc_298_430_ms_init_deact_ef_delicated_bearer_deact_interfered_by_delete_bearer_request_with_ebi.W14b
p50
aVtc_11_091_activate_secondary_pdp_context_wrong_LinkedTI.W14b
p51
aVtc_11_094_activate_secondary_reject_215.W14b
p52
aVtc_11_232_activate_primary_after_LR_III.W14b
p53
aVtc_322_161_smooth_move_ef_nas_after_paging_response_ignore.W14b
p54
aVtc_209_44_sgsn_init_pdp_modification.W14b
p55
aVtc_56_2_restart.LWG
p56
aVtc_202_41_type_a_emergency_pdn_ecm_idle.LWG
p57
aVtc_59_9_mtmsi_restart_counter.LWG
p58
aVtc_297_407_move_at_periodic_rau.LWG
p59
aVtc_324_386_ef_mt_sms_wf_frcn_wf_frca_wf_ula.LWG
p60
aVtc_11_386_ggsn_selec_pgw4epc_3g_act_pdp_noepccap.LWG
p61
aVtc_96_012_intra_sgsn_intra_ra_psho_llc_pdu_arrives_before_psho_complete.LWG
p62
aVtc_179_321_Ccheck_ipsec_sa.LWG
p63
aVtc_298_438_ms_init_deact_ef_delicated_bearer_deact_interfered_by_deactivate_pdp_request_pdn_level.LWG
p64
aVtc_44_004_small_restart__sctp_fe_restart.LWG
p65
aVtc_44_870_mme_assoc_reestablish__board_block_deblock_s1_mme.LWG
p66
aVtc_32_98_israu_new_updating_location_interrupted_by_iu_release.LWG
p67
aVtc_666_06_block_rt_board.LWG
p68
aVtc_666_02_reboot_ss7_board.LWG
p69
aVtc_12_512_pmm_undefined_attach_when_updating_location_interfered_by_rnc_reset.LWG
p70
aVtc_157_5_snmp_ipv6_consistent.LWG
p71
aVtc_110_004_inbound_outbound_pf_rule_cli_udp_sctp_tcp.LWG
p72
aVtc_73_06_insert_multiple_pdp_contexts_and_remove_some_of_them.LWG
p73
aVtc_73_21_itc_gtpu_s4_sgsn_send_echo_request_w.LWG
p74
aVtc_311_24_intra_srns_reloc_s4_with_sgw_change_with_11_pdns.LWG
p75
aVtc_327_008_recovery_intra_TAU__uplink_Attach_Request_while_waiting_for_Initial_Context_Setup_Response.LWG
p76
aVtc_295_124_tau_after_ho_tz_change_emm_information_meanwhile_handover_required_HO_success.LWG
p77
aVtc_208_22_attach_detach_imsi.LWG
p78
aVtc_208_40_sgsn_init_pdp_modification.LWG
p79
aVtc_208_43_interception_after_small_restart.LWG
p80
aVtc_17_102_inter_rau_new_one_context_with_ipv4v6_type_daf_off.G14b
p81
aVtc_297_237_inter_rau_new_s4_with_imsi_in_bssgp_home_user_update_location_no_response.G14b
p82
aVtc_208_43_interception_after_small_restart.G14b
p83
aVtc_23_09_transfer_to_primary_and_change_vip_addr.W14b
p84
aVtc_321_059_s4_logging_reattach_with_ue_trace.W14b
p85
aVtc_334_254_service_req_multi_pdn_restart_counter_changed.W14b
p86
aVtc_298_434_ms_init_deact_ef_default_bearer_deact_interfered_by_detach_request.W14b
p87
aVtc_247_201_inter_w_to_l_old_two_pdns_with_dedicated_bearer_one_pdn_failed_with_sgw_change.W14b
p88
aVtc_26_059_israu_gbr_changed_for_interactive.W14b
p89
aVtc_11_222_activate_primary_APN_test_IV.W14b
p90
aVtc_275_213_tau_inter_new_emergency_type_a_update_location_fails.LWG
p91
aVtc_19_100_move_periodic_rau_imsi_filter.LWG
p92
aVtc_178_970_m3_ietf_set_prim_ip_path.LWG
p93
aVtc_326_246_Intra_TAU_Recovery_fail_Modify_Bearer_fail_active_flag_SGW_Change.LWG
p94
aVtc_342_132_set_three_target_with_different_x2x3_addr_one_only_iri.LWG
p95
aVtc_28_002_mo_sms_service_request.LWG
p96
aVtc_236_107_s4_3gdt_based_on_sr_change_DtThresholdNumber.LWG
p97
aVtc_220_601_csfb_to_1xrtt_initial_ue_message_interfere_tau_intra.LWG
p98
aVtc_257_05_cli_commands.LWG
p99
aVtc_276_311_Inter_TAU_New_MME__DDN_with_error_indication_while_waiting_for_Create_Session_Response.LWG
p100
aVtc_157_5_snmp_ipv6_consistent.LWG
p101
aVtc_209_21_attach_detach_imsi.LWG
p102
aVtc_241_431_intra_rau_with_bearer_sgw_unchange_2_pdns_with_one_modify_no_response.LWG
p103
aVtc_52_04_inter_old_srns_reloc_one_unstable_context.LWG
p104
aVtc_666_06_block_rt_board.LWG
p105
aVtc_666_02_reboot_ss7_board.LWG
p106
aVtc_329_403_x2_ho_rs_restrict_emergency_plmn_change.LWG
p107
aVtc_39_773_interfering_rau_wf_forward_relocation_resp_source.LWG
p108
aVtc_304_408_Emergency_Service_Request__control_mode_threshold_not_reached.LWG
p109
aVtc_306_1130_ef_seamless_move_target_receive_detach_request_with_switchoff_wf_service_request.LWG
p110
aVtc_306_1335_ef_seamless_move_target_receive_cli_delete_subscriber_wf_service_request.LWG
p111
aVtc_73_06_insert_multiple_pdp_contexts_and_remove_some_of_them.LWG
p112
aVtc_245_343_israu_new_l_to_w_create_session_response_dedicated_bearer_failed.LWG
p113
aVtc_208_22_attach_detach_imsi.LWG
p114
aVtc_208_31_sms_mo.LWG
p115
aVtc_238_081_mme_eps_irat_ho_target__handover_from_s4_sgsn_to_mme_to_s4_sgsn.LWG
p116
aVtc_208_43_interception_after_small_restart.G14b
p117
aVtc_293_040_X2_Based_HO__Downlink_A21_AIS_while_wf_Modify_Bearer_Response.LW
p118
aVtc_306_1130_ef_seamless_move_target_receive_detach_request_with_switchoff_wf_service_request.LW
p119
aVtc_196_172_nrspca_during_t3385_when_receive_sgsn_context_ack_not_accepted.LW
p120
aVtc_12_109_detach_sgsn_initiated_interrupted_by_attach_req_II.LW
p121
aVtc_12_141_time_zone_in_gmm_information_after_attach.LW
p122
aVtc_204_428_mme_eps_ho_target_type_a_no_dedicated_emergency_bearer_transfered.LW
p123
aVtc_194_080_cl_update_procedure_during_auth.LW
p124
aVtc_194_185_hss_reset_with_full_user_id_list.LW
p125
aVtc_238_165_mme_eps_irat_Gn_ho_target__No_common_security_algorithm_before_tau_using_zuc_algorithm_eea3_eia3.LW
p126
aVtc_304_266_tau_from_gnsgsn_2g_control_mode_wf_delete_all_bearers_response_exception_case_reject_congestion_subscriber_cancelled.LW
p127
aVtc_359_049_handover_from_non3gpp_af_after_rau_without_fqdn_same_apn_no_pgw_id_in_sub_syspro_off.LW
p128
aVtc_195_512_mme_logging_old_mme_integrity_check_failed.LW
p129
aVtc_44_004_small_restart__sctp_fe_restart.LW
p130
aVtc_193_407_auth_vectors_attach_complete.LW
p131
aVtc_294_370_s1_intra_handover_emc_type_a_hss_reset_update_loc_fail.LW
p132
aVtc_326_406_Inter_TAU_Recovery_Unkonwn_GUTI__1xrtt_CS_Registration_Then_CSFB_To_1xRTT.LW
p133
aVtc_318_107_sgw_restart_mf_one_of_pdns_create_after_sgw_restart.L14b
p134
aVtc_318_120_sgw_restart_mf_both_s5_and_s8_interface.L14b
p135
aVtc_266_011_DownlinkDataNotification_interfering_ISD_sgsn00026976.L14b
p136
aVtc_266_026_DownlinkDataFailureInd_repeat_paging_timer_small_local_restart.L14b
p137
aVtc_214_503_mt_sms_while_wf_lu_accept.L14b
p138
aVtc_214_606_Combined_TAU_Location_Update_Accept_Expired_No_Retry_Since_No_Available_MSC.L14b
p139
aVtc_274_381_Intra_and_pTAU__Downlink_A21_AIS_while_waiting_for_Authentication_Response.L14b
p140
aVtc_195_404_ue_trace_start_s1_intra_system_handover_triggered_HO_cancel.L14b
p141
aVtc_225_315_mt_call_active_mode_nas_non_delivery__cs_service_notification_meanwhile_handover_required.L14b
p142
aVtc_327_510_recovery_service_request__ue_context_release_request.L14b
p143
aVtc_44_004_small_restart__sctp_fe_restart.L14b
p144
aVtc_44_044_config_ep_SLg.L14b
p145
aVtc_268_014_UE_Release_Flow__Downlink_A21_AIS_while_waiting_for_Relase_Access_Bearer_Response.L14b
p146
aVtc_43_101__removal_of_disconnected_eNodeBs__CLI_removal.L14b
p147
aVtc_44_004_small_restart__sctp_fe_restart.LWG
p148
aVtc_209_44_sgsn_init_pdp_modification.LWG
p149
aVtc_265_102_Detach_Flow_NW_init__Reattach_Required_Attach_Request_while_waiting_for_Context_Release_Complete.LWG
p150
aVtc_329_800_geored_intra_tau_rr_restricted_after_update_location.LWG
p151
aVtc_166_506_3gdt_based_on_sr_Intra_Relocation_non_dt_rnc_to_dt_rnc.LWG
p152
aVtc_195_411_ue_trace_deactivate_trace_s1_intra_system_handover_triggered_sgw_change_create_session_failed.LWG
p153
aVtc_195_532_mme_logging_ue_unrechable.LWG
p154
aVtc_276_241_Inter_TAU_New_MME__Create_Bearer_Request_while_waiting_for_TAU_Complete.LWG
p155
aVtc_157_5_snmp_ipv6_consistent.LWG
p156
aVtc_241_045_intra_with_multi_bearer_sgw_change_try_next.LWG
p157
aVtc_241_431_intra_rau_with_bearer_sgw_unchange_2_pdns_with_one_modify_no_response.LWG
p158
aVtc_241_801_israu_interfering_context_request_no_cancel_location_s4.LWG
p159
aVtc_666_06_block_rt_board.LWG
p160
aVtc_666_02_reboot_ss7_board.LWG
p161
aVtc_232_402_bfd__ipv6_alarm.LWG
p162
aVtc_194_903_notification_during_intra_mme_tau__idr_flags.LWG
p163
aVtc_218_311_tau_from_sgsn_preserved_gbr_bearer_buffer_1_ubr_1_cbr.LWG
p164
aVtc_218_312_tau_from_sgsn_preserved_gbr_bearer_2_pdn_buffer_1_ubr_1_dbr.LWG
p165
aVtc_179_321_Ccheck_ipsec_sa.LWG
p166
aVtc_257_17_pws_etws_write_replace_warning_request_rejected_when_olp.LWG
p167
aVtc_95_10_fingerprint.LWG
p168
aVtc_110_001_inbound_outbound_pf_policy_cli.LWG
p169
aVtc_110_003_inbound_outbound_pf_rule_cli_icmp.LWG
p170
aVtc_110_005_inbound_outbound_pf_rule_cli_ip.LWG
p171
aVtc_178_970_m3_ietf_set_prim_ip_path.LWG
p172
aVtc_289_100_last_pdn_pgw_init_bearer_mod_wf_service_interrupted_by_dbr_with_lbi.LWG
p173
aVtc_259_102_ef_tads_s4_interfere_inter_rau_old_g.LWG
p174
aVtc_326_406_Inter_TAU_Recovery_Unkonwn_GUTI__1xrtt_CS_Registration_Then_CSFB_To_1xRTT.LWG
p175
aVtc_326_233_Intra_TAU_Recovery_fail_Security_Mode_Reject_then_Reattach.LWG
p176
aVtc_326_223_Intra_TAU_Recovery_fail_Identity_Response_timeout_then_Recover_successful.LWG
p177
aVtc_313_012_inter_new_srns_reloc_s16_with_sgw_change_two_pdns_with_dedicate_bearer_setup_rabs_one_pdn_failed.LWG
p178
aVtc_132_002_create_ip_interface_eth.LWG
p179
aVtc_236_307_Activation_DtSelMode_5_APN_requested_wrong_SGSN_default_APN_in_APN_list_TAC_in_TAC_list.LWG
p180
aVtc_220_593_csfb_to_1xrtt_context_request_during_extended_service_request.LWG
p181
aVtc_277_103_tau_inter_old_plmn_change_unauthenticated_emergency_ongoing_implicit_detach.LWG
p182
aVtc_267_224_Service_Request__PDN_Connectivity_Request_while_waiting_for_Modify_Bearer_Response_where_dedicated_fails.LWG
p183
aVtc_59_9_mtmsi_restart_counter.LWG
p184
aVtc_256_039_mme_eps_srvcc_ho_source_cs_only_without_msisdn.L14b
p185
aVtc_274_340_Intra_and_pTAU__Downlink_Data_Notification_while_wating_for_Context_Setup_Response.L14b
p186
aVtc_329_821_geored_service_request_rs_restricted.L14b
p187
aVtc_266_026_DownlinkDataFailureInd_repeat_paging_timer_small_local_restart.L14b
p188
aVtc_318_107_sgw_restart_mf_one_of_pdns_create_after_sgw_restart.L14b
p189
aVtc_293_040_X2_Based_HO__Downlink_A21_AIS_while_wf_Modify_Bearer_Response.L14b
p190
aVtc_304_252_tau_from_gnsgsn_roaming_restricted_control_mode_reject_illegal_UE.L14b
p191
aVtc_295_137_mt_call_during_s1_ho_tau_request_when_wf_handover_notify.L14b
p192
aVtc_326_406_Inter_TAU_Recovery_Unkonwn_GUTI__1xrtt_CS_Registration_Then_CSFB_To_1xRTT.L14b
p193
aVtc_44_071_attach_long_imsi.L14b
p194
aVtc_44_201_sctp_endpoint_config__modify_rt_Diameter.L14b
p195
aVtc_244_702_mt_lr_LPPa_mobility_unstable_after_lr.L14b
p196
aVtc_244_535_SLg_Location_Request__Downlink_A21_AIS_wwf_Location_Response_from_ESMLC.L14b
p197
aVtc_202_18_downlink_data_after_s1_release.L14b
p198
aVtc_202_17_service_request_during_release_access_bearers.L14b
p199
aVtc_245_340_israu_new_l_to_w_with_GBR_dedicated_bearer_ipv6_3gdt.W14b
p200
aVtc_322_161_smooth_move_ef_nas_after_paging_response_ignore.W14b
p201
aVtc_298_684_S4_3GDT_Iu_release_wait_RABR_ef_delete_bearer_request_lbi.W14b
p202
aVtc_31_068_standalone_isd_fails_when_detached.W14b
p203
aVtc_12_512_pmm_undefined_attach_when_updating_location_interfered_by_rnc_reset.W14b
p204
aVtc_324_368_ef_cancel_location_with_updateProcedure_wf_modify_bearer_response_after_ula_hss.W14b
p205
aVtc_290_064_Timer_Based_GBR_Deact__cancel_location_with_update_procedure_ecm_idle_before_timer_expires.LW
p206
aVtc_32_94_iu_releasing_interfered_by_service_request_initial_ue.LW
p207
aVtc_324_006_mf_ser_req_signaling_after_ack_3gdt.LW
p208
aVtc_324_424_ef_payload_buffered_wf_security_mode_complete_payload_different_contextId.LW
p209
aVtc_78_121_israu_old_without_bearer_from_s4_to_gn_with_selected_plmn.LW
p210
aVtc_275_020_tau_inter_new_imsi_ns_access_restricted.LW
p211
aVtc_292_071_x2_handover_type_a_new_plmn_emc_sup_different_profile.LW
p212
aVtc_292_069_x2_handover_type_a_new_plmn_no_emc_sup.LW
p213
aVtc_204_503_mme_eps_ho_target_emergency_type_a_imei_check_answer_unknown_before_tau_accept_ire_true.LW
p214
aVtc_202_18_downlink_data_after_s1_release.LW
p215
aVtc_202_40_emergency_pdn_ecm_connected.LW
p216
aVtc_202_431_mf_seamless_move_target_service_request_modifyBearerReq_onePdnMultiBearer_oneBearerFail.LW
p217
aVtc_218_311_tau_from_sgsn_preserved_gbr_bearer_buffer_1_ubr_1_cbr.LW
p218
aVtc_334_288_path_failure_service_req_connected_3gdt_af_multi_pdn_try_next.LW
p219
aVtc_316_206_TAU_From_S4_SGSN_Multiple_PDN_Connections_With_Max_Dedicated_Bearers__Backup_UE.LW
p220
aVtc_52_58_inter_old_wf_reloc_cancel_response_interrupted_by_iu_release.LW
p221
aVtc_263_022_Attach_Flow__Attach_Request_Different_IEs_IP_OK_while_waiting_for_Attach_Complete.LW
p222
aVtc_361_154_rau_l_to_w_with_cl_not_released_eia3_eea3.LW
p223
aVtc_44_870_mme_assoc_reestablish__board_block_deblock_s1_mme.LW
p224
aVtc_298_438_ms_init_deact_ef_delicated_bearer_deact_interfered_by_deactivate_pdp_request_pdn_level.LW
p225
aVtc_306_1130_ef_seamless_move_target_receive_detach_request_with_switchoff_wf_service_request.LW
p226
aVtc_11_335_apnresolving_cc27_check_session_log.LW
p227
aVtc_248_303_inter_l_to_w_new_ms_connected_handover_from_mme.LW
p228
aVtc_248_167_inter_l_to_w_interfering_rab_release_request_not_wf_rau_complete.LW
p229
aVtc_248_432_inter_l_to_w_new_two_pdns_with_dedicated_bearers_relocation_cancel_wf_reloc_req_ack_with_sgw_change.LW
p230
aVtc_304_018_attach_detach_then_guti_attach__control_mode_threshold_exceeded_usc_reject_congestion.LW
p231
aVtc_304_304_PDN_connectivity__control_log_entry_at_control_period_end.LW
p232
aVtc_304_005_attach_reject__control_mode_log_status_off.LW
p233
aVtc_06_086_apnresolving_not_vplmnallowed_no_apn_requested.G14b
p234
aVtc_208_43_interception_after_small_restart.G14b
p235
aVtc_17_102_inter_rau_new_one_context_with_ipv4v6_type_daf_off.G14b
p236
aVtc_19_26_moving_2_mss_to_different_targets.G14b
p237
aVtc_208_31_sms_mo.G14b
p238
aVtc_26_020_activate_primary_Qos_trfclass_background.W14b
p239
aVtc_209_31_sms_mo.W14b
p240
aVtc_231_173_ms_init_detach_interfered_by_cancel_location_withdraw.W14b
p241
aVtc_78_360_intra_rau_with_undefined_imsi_reject_with_cc_10_and_redirection_complete.W14b
p242
aVtc_359_101_handover_from_3gpp_mf_connected_Notify_UE_true.W14b
p243
aVtc_39_187_detach_trigger_re_attach_new_iu.W14b
p244
aVtc_39_433_mas_one_pdp_downlink_data_3gdt_upd_loc_ack_b4_upd_pdp_ctx_resp_target.W14b
p245
aVtc_11_233_sgsn_modify_interfer_ser_req.W14b
p246
aVtc_53_35_inter_new_srns_reloc_interfering_signal_cancel_location_wf_rau_complete.LW
p247
aVtc_52_45_inter_old_srns_reloc_main_flow_interfered_by_delete_subscr.LW
p248
aVtc_44_870_mme_assoc_reestablish__board_block_deblock_s1_mme.LW
p249
aVtc_103_1104_attach_resend_of_ULR_no_more_peers.LW
p250
aVtc_256_143_mme_eps_srvcc_ho_source_cs_only_initial_ue_extended_service_request_wf_srvcc_ps_to_cs_response.LW
p251
aVtc_284_351_pdn_connectivity_pb_activate_1_dedicated_bearer_interrupted_by_path_switch_request.LW
p252
aVtc_273_421_Report_SN_intra_TAU_without_SGW_changed.LW
p253
aVtc_298_438_ms_init_deact_ef_delicated_bearer_deact_interfered_by_deactivate_pdp_request_pdn_level.LW
p254
aVtc_326_216_Intra_TAU_Recovery_combined_type_Location_Update_Reject.LW
p255
aVtc_214_1059_la_selection_mf_oldlapreferred_combined_tau_dyn_tailist_without_old_la.LW
p256
aVtc_327_005_recovery_intra_TAU__uplink_Attach_Request_while_waiting_for_Create_Session_Response.LW
p257
aVtc_39_247_attach_trigger_imsi_profile_imsi_attach.LW
p258
aVtc_347_223_Service_Request__RAR_while_waiting_for_Modify_Bearer_Response.LW
p259
aVtc_12_135_attach_imsi_rejected_releasing_iu_and_another_attach_imsi_on_new_iu.LW
p260
aVtc_275_650_tau_inter_new_same_apn_pdntype_pdns.LW
p261
aVtc_236_286_3gdt_swichback_delete_bearer_request_received_wf_modify_bearer_response.LW
p262
aVtc_306_135_ef_seamless_move_source_receive_s1_setup_wf_frcn.LW
p263
aVtc_22_004_wcdma_arm_edp_disconnect_at_dp_estack.LWG
p264
aVtc_306_1130_ef_seamless_move_target_receive_detach_request_with_switchoff_wf_service_request.LWG
p265
aVtc_238_157_mme_eps_irat_Gn_ho_target__no_ho_request_ack.LWG
p266
aVtc_79_035_israu_new_streaming_context_MBR_not_zero.LWG
p267
aVtc_218_311_tau_from_sgsn_preserved_gbr_bearer_buffer_1_ubr_1_cbr.LWG
p268
aVtc_110_005_inbound_outbound_pf_rule_cli_ip.LWG
p269
aVtc_19_26_moving_2_mss_to_different_targets.LWG
p270
aVtc_157_5_snmp_ipv6_consistent.LWG
p271
aVtc_11_335_apnresolving_cc27_check_session_log.LWG
p272
aVtc_666_06_block_rt_board.LWG
p273
aVtc_666_02_reboot_ss7_board.LWG
p274
aVtc_208_43_interception_after_small_restart.LWG
p275
aVtc_23_09_transfer_to_primary_and_change_vip_addr.LWG
p276
aVtc_318_116_sgw_restart_mf_one_pdn_with_relocate_by_ReleaseAccessBearersResponse.LWG
p277
aVtc_213_150_nrspca_ignored_when_isc_g_to_w.LWG
p278
aVtc_178_938_sctp_setprofile.LWG
p279
aVtc_178_970_m3_ietf_set_prim_ip_path.LWG
p280
aVtc_361_510_rau_l_to_w_S4SGSN_check_old_qos_failed_node_function_deactivate_pdp_after_rau_on.LWG
p281
aVtc_236_284_HO_over_S3_3GDT_switchback_ef_ms_deact_ti_dedicated_wf_rab_assignment_response.LWG
p282
aVtc_15_108_intra_rau_when_Gb_MS_inactivity_time_limit_is_exceeded.LWG
p283
aVtc_214_312_combined_tau_intra_la_change_new_msc_while_wf_tau_complete.L14b
p284
aVtc_214_1028_la_selection_af_oldlapreferred_combined_intra_tau_without_old_la.L14b
p285
aVtc_244_806_mt_lr_donwlink_generic_nas_transport_meanwhile_handover_required_HO_success.L14b
p286
aVtc_103_603_georedundant_modify_diameter_peer.L14b
p287
aVtc_103_1101_resending_AIR_interfering_CLR.L14b
p288
aVtc_194_100_check_gauge_unstable_not_parked.L14b
p289
aVtc_329_821_geored_service_request_rs_restricted.L14b
p290
aVtc_329_800_geored_intra_tau_rr_restricted_after_update_location.L14b
p291
aVtc_195_417_ue_trace_deactivate_trace_s1_intra_system_handover_triggered_HO_ongoing_timeout.L14b
p292
aVtc_195_532_mme_logging_ue_unrechable.L14b
p293
aVtc_318_120_sgw_restart_mf_both_s5_and_s8_interface.L14b
p294
aVtc_204_901_mme_eps_ho_target_insert_subscriber_data_with_odb_bit0_during_wf_tau_complete.L14b
p295
aVtc_202_102_small_restart.L14b
p296
aVtc_281_025_Activate_bearer__ERAB_setup_response_s1_intra_system_handover_triggered.L14b
p297
aVtc_220_503_csfb_to_1xrtt_in_ecm_idle_tau_request_wf_initial_context_setup_response.L14b
p298
aVtc_289_010_Modify_Bearer__Delete_Bearer_Req_HO_non_3gpp_while_wf_UE_cxt_modification_resp.L14b
p299
aVtc_294_067_s1_intra_handover_type_d_with_emergency_pdn_no_tau_after_ho.L14b
p300
aVtc_304_236_isc_active_flag_on_control_mode_threshold_exceeded_ignore_replace_s1_wf_initial_context_setup_response.L14b
p301
aVtc_268_027_Release_Request__sgsn_context_request_wf_release_access_bearer_resp.L14b
p302
aVtc_346_546_AF__HO_Inter_Target__2PDN_BCM_Sx_only_one_CCA_U_cause_5003.L14b
p303
aVtc_297_407_move_at_periodic_rau.G14b
p304
aVtc_347_055_Intra_HO_S1__Location_Report_from_source_BCM_Sx_only_while_waiting_for_Handover_Request_Ack.L14b
p305
aVtc_318_107_sgw_restart_mf_one_of_pdns_create_after_sgw_restart.L14b
p306
aVtc_281_029_Activate_bearer__ERAB_setup_response_s1_inta_system_handover_triggered_resend_2_times.L14b
p307
aVtc_273_421_Report_SN_intra_TAU_without_SGW_changed.L14b
p308
aVtc_267_229_Service_Request__PDN_connectivity_request_while_wf_authentication_response.L14b
p309
aVtc_225_616_exp_flow_handover_required_intra_while_wf_modification_context_response.L14b
p310
aVtc_103_711_diameter_incorrect_CEA_handling.L14b
p311
aVtc_195_416_ue_trace_deactivate_trace_s1_intra_system_handover_triggered.L14b
p312
aVtc_44_004_small_restart__sctp_fe_restart.L14b
p313
aVtc_44_002_small_restart.L14b
p314
aVtc_304_133_initial_ue_intra_tau_control_mode_threshold_exceeded_usc_reject_handover.L14b
p315
aVtc_202_10_downlink_data_during_paging.L14b
p316
aVtc_295_130_Intra_S1_HO__Sgw_reloc__Downlink_A21_AIS_while_waiting_for_Delete_Session_Response.L14b
p317
aVtc_257_11_pws_etws_stop_warning_request_feature_off.L14b
p318
aVtc_262_1055_imsi_attach_with_csg_id_is_rejected.L14b
p319
aVtc_346_510_AF__TAU_Inter_New__2PDN_one_fail_in_enodeb.L14b
p320
aVtc_346_491_Small_Restart__Terminate_when_UE1_PDN_Conenctivity_waiting_for_CCAI_UE2_Location_Report_waiting_for_CCAU.L14b
p321
aVtc_346_508_AF__TAU_Inter_New__higher_qos_no_sx_for_pdn_to_be_deleted.L14b
p322
aVtc_346_492_Small_Restart__No_Terminate_when_UE1_Attach_waiting_for_CCA_Initial_UE2_Attach_waiting_for_MBR.L14b
p323
aVtc_346_490_Small_Restart__Terminate_when_UE_S1_release.L14b
p324
aVtc_289_059_Modify_bearer__UE_context_modification_failure_x2_handover_triggered_two_pdn_all_sessions_fail.LW
p325
aVtc_275_048_tau_inter_new_keep_old_sgw_two_pdn_connections_all_failed.LW
p326
aVtc_268_014_UE_Release_Flow__Downlink_A21_AIS_while_waiting_for_Relase_Access_Bearer_Response.LW
p327
aVtc_318_116_sgw_restart_mf_one_pdn_with_relocate_by_ReleaseAccessBearersResponse.LW
p328
aVtc_44_870_mme_assoc_reestablish__board_block_deblock_s1_mme.LW
p329
aVtc_298_438_ms_init_deact_ef_delicated_bearer_deact_interfered_by_deactivate_pdp_request_pdn_level.LW
p330
aVtc_103_701_MME_restarts.LW
p331
aVtc_346_491_Small_Restart__Terminate_when_UE1_PDN_Conenctivity_waiting_for_CCAI_UE2_Location_Report_waiting_for_CCAU.LW
p332
aVtc_346_490_Small_Restart__Terminate_when_UE_S1_release.LW
p333
aVtc_236_107_s4_3gdt_based_on_sr_change_DtThresholdNumber.LW
p334
aVtc_304_216_combined_node_inter_tau_from_s4_control_mode_threshold_exceeded_reject_wf_tau_complete.LW
p335
aVtc_203_005_mme_eps_handover_source_inter__forw_rel_resp_not_accepted.LW
p336
aVtc_195_416_ue_trace_deactivate_trace_s1_intra_system_handover_triggered.LW
p337
aVtc_248_453_inter_l_to_w_new_partially_succ_interfering_attach_request_received_wf_rau_complete.LW
p338
aVtc_260_092_one_mbms_session_started_one_mce_add_one_session_not_send_to_new_mce.LW
p339
aVtc_293_111_X2_Based_HO_One_Bearer_Failure__Create_Bearer_Request_while_wf_Tau_Request.LW
p340
aVtc_321_123_ms_send_sm_status.W14b
p341
aVtc_298_438_ms_init_deact_ef_delicated_bearer_deact_interfered_by_deactivate_pdp_request_pdn_level.W14b
p342
aVtc_26_119_inter_SGSN_RAU_WtoW_old_ARP_ggsn_not_support.W14b
p343
aVtc_231_640_activate_pdp_interfered_by_detach_reqeust.W14b
p344
aVtc_236_049_s4_3gdt_rnc_reset_during_waiting_for_modify_beaer_rsp_in_service_request_procedure.W14b
p345
aVtc_245_301_inter_rau_insert_entry_into_interface_cache.W14b
p346
aVtc_236_041_s4_3gdt_detach_modify_bearer_response_reject_in_active_procedure.LWG
p347
aVtc_239_354_ignore_new_activation_in_deactivating_when_s4_on.LWG
p348
aVtc_239_011_israu_interfering_context_request_no_cancel_location_s4.LWG
p349
aVtc_304_460_initial_ue_csfb_to_1xrtt_control_mode_detach_then_attach_usc_reject_congestion.LWG
p350
aVtc_318_116_sgw_restart_mf_one_pdn_with_relocate_by_ReleaseAccessBearersResponse.LWG
p351
aVtc_666_06_block_rt_board.LWG
p352
aVtc_666_02_reboot_ss7_board.LWG
p353
aVtc_326_406_Inter_TAU_Recovery_Unkonwn_GUTI__1xrtt_CS_Registration_Then_CSFB_To_1xRTT.LWG
p354
aVtc_157_5_snmp_ipv6_consistent.LWG
p355
aVtc_324_226_ef_detach_request_abort_wf_modify_bearer_response_wf_update_location_hlr_ack_timeout.LWG
p356
aVtc_178_970_m3_ietf_set_prim_ip_path.LWG
p357
aVtc_230_038_activate_reject_sgw_conditional_ie_pgw_fteidc_missing.LWG
p358
aVtc_306_1130_ef_seamless_move_target_receive_detach_request_with_switchoff_wf_service_request.LWG
p359
aVtc_208_43_interception_after_small_restart.LWG
p360
aVtc_251_66_w_to_l_to_w_with_cl_type_initialAttach_cl_after_sgsn_con_req.LWG
p361
aVtc_237_008_mme_eps_irat_ho_source__main_flow_with_sgw_relocation.LWG
p362
aVtc_209_31_sms_mo.LWG
p363
aVtc_39_601_mas_unsucc_fwd_reloc_resp_mandatory_ie_missing_stop_source.LWG
p364
aVtc_110_003_inbound_outbound_pf_rule_cli_icmp.LWG
p365
aVtc_316_272_Inter_RAT_S3_HO_SUT_As_Source_With_Dedicated_Bearer_Subpool_ID_Change__Delete_UE_Backup.LWG
p366
aVtc_303_003_Intra_S1_HO__Downlink_A21_AIS_while_wf_Handover_Request_Ack__Reset_from_source_eNB_while_wf_Handover_Notify.LW
p367
aVtc_327_020_recovery_intra_TAU__uplink_Detach_Request_while_waiting_for_Modify_Bearer_Response.LW
p368
aVtc_304_202_emergency_inter_tau_reject__control_mode_threshold_exceeded.LW
p369
aVtc_304_419_Geored_Service_Request_UE_Initiated__control_mode_threshold_exceeded_reject.LW
p370
aVtc_346_491_Small_Restart__Terminate_when_UE1_PDN_Conenctivity_waiting_for_CCAI_UE2_Location_Report_waiting_for_CCAU.LW
p371
aVtc_346_490_Small_Restart__Terminate_when_UE_S1_release.LW
p372
aVtc_214_312_combined_tau_intra_la_change_new_msc_while_wf_tau_complete.LW
p373
aVtc_214_1103_la_selection_mf_reselection_combined_intra_tau_with_imsi_attach_after_csfb.LW
p374
aVtc_326_406_Inter_TAU_Recovery_Unkonwn_GUTI__1xrtt_CS_Registration_Then_CSFB_To_1xRTT.LW
p375
aVtc_326_524_Recovery_for_DDN__IMSI_analysis_failure_emergency_attached.LW
p376
aVtc_326_505_Recovery_for_DDN__after_node_restart_Retrieval_and_Paging_no_response.LW
p377
aVtc_326_486_Inter_TAU_Recovery_Unknown_GUTI__Then_ISD_UE_AMBR_Change.LW
p378
aVtc_231_046_activate_reject_sgw_cause26_no_memory_available.LW
p379
aVtc_231_173_ms_init_detach_interfered_by_cancel_location_withdraw.LW
p380
aVtc_248_453_inter_l_to_w_new_partially_succ_interfering_attach_request_received_wf_rau_complete.LW
p381
aVtc_52_56_reloc_wf_forw_rel_resp_interrupted_by_transfered_attach.LW
p382
aVtc_23_10_transfer_to_primary_and_change_vip_addr_from_gn_to_gom.LW
p383
aVtc_31_017_attach_ul_fails_network_failure_timeout.LW
p384
aVtc_241_619_intra_rau_with_dedicated_bearer_sgw_change_wait_security_mode_complete_handle_dbr.LW
p385
aVtc_241_801_israu_interfering_context_request_no_cancel_location_s4.LW
p386
aVtc_257_03_pws_etws_main_flow_stop_warning_request_with_ta_list.LW
p387
aVtc_324_386_ef_mt_sms_wf_frcn_wf_frca_wf_ula.LW
p388
aVtc_288_126_TR_30240_pgw_init_bearer_mod_after_handover_from_w_to_l.L14b
p389
aVtc_295_137_mt_call_during_s1_ho_tau_request_when_wf_handover_notify.L14b
p390
aVtc_44_811_mme_assoc_reestablish__abort_sbc.L14b
p391
aVtc_44_890_mme_assoc_reestablish__service_request_on_reestablished_sctp_association.L14b
p392
aVtc_329_821_geored_service_request_rs_restricted.L14b
p393
aVtc_329_803_geored_intra_tau_rs_restricted_after_update_location.L14b
p394
aVtc_284_330_delete_bearer_interfere_handover_to_non_3GPP_ecm_connected_multi_pdn.L14b
p395
aVtc_194_097_check_gauge_visiting_nat.L14b
p396
aVtc_266_026_DownlinkDataFailureInd_repeat_paging_timer_small_local_restart.L14b
p397
aVtc_326_406_Inter_TAU_Recovery_Unkonwn_GUTI__1xrtt_CS_Registration_Then_CSFB_To_1xRTT.L14b
p398
aVtc_304_430_Service_Request_UE_Initiated__control_mode_threshold_exceeded_explicit_detach_idle_mode.L14b
p399
aVtc_290_052_Timer_Based_GBR_Deact__context_request_wf_ue_context_release_complete_before_timer_expires.L14b
p400
aVtc_214_312_combined_tau_intra_la_change_new_msc_while_wf_tau_complete.L14b
p401
aVtc_214_1073_la_selection_mf_oldmscpreferred_combined_intra_tau_la_with_old_msc_not_ue_capable.L14b
p402
aVtc_103_101_destination_host_is_peer.L14b
p403
aVtc_274_261_Intra_and_pTAU__Path_Switch_Request_with_old_TA_while_waiting_for_TAU_Request_after_HO.L14b
p404
aVtc_271_006_sctp_paging_olp_stop_discarding_all_paging_under_pagingOlpDiscardAllCpuThreshold.L14b
p405
aVtc_202_43_type_d_emergency_pdn_ecm_idle.L14b
p406
aVtc_257_12_pws_etws_write_replace_warning_request_enb_failure.L14b
p407
aVtc_318_107_sgw_restart_mf_one_of_pdns_create_after_sgw_restart.L14b
p408
aVtc_318_116_sgw_restart_mf_one_pdn_with_relocate_by_ReleaseAccessBearersResponse.L14b
p409
aVtc_346_491_Small_Restart__Terminate_when_UE1_PDN_Conenctivity_waiting_for_CCAI_UE2_Location_Report_waiting_for_CCAU.L14b
p410
aVtc_346_490_Small_Restart__Terminate_when_UE_S1_release.L14b
p411
aVtc_214_312_combined_tau_intra_la_change_new_msc_while_wf_tau_complete.LWG
p412
aVtc_346_1014_AF__seamless_move_target_ula_time_out.LWG
p413
aVtc_59_9_mtmsi_restart_counter.LWG
p414
aVtc_73_41_gtpu_sgsn_dont_send_gpu_echo_request_w.LWG
p415
aVtc_316_206_TAU_From_S4_SGSN_Multiple_PDN_Connections_With_Max_Dedicated_Bearers__Backup_UE.LWG
p416
aVtc_179_321_Ccheck_ipsec_sa.LWG
p417
aVtc_179_318_Ccheck_TraceCollectionIpv6server.LWG
p418
aVtc_208_43_interception_after_small_restart.LWG
p419
aVtc_103_602_georedundant_realm_routing.LWG
p420
aVtc_311_17_intra_srns_reloc_s4_without_sgw_change_3gdt_flow.LWG
p421
aVtc_311_167_intra_srns_reloc_s4_wf_reloc_req_ack_interrupted_by_direct_rau_request.LWG
p422
aVtc_97_035_inter_sgsn_psho_mf_with_lawful_intercept.LWG
p423
aVtc_205_71_08_SCTP_OctetsChunksSent.LWG
p424
aVtc_107_101_eth_vlan_cli.LWG
p425
aVtc_284_560_emergency_pdn_connectivity_multiple_pgw.LWG
p426
aVtc_293_041_X2_Based_HO__Sgw_reloc__Downlink_A21_AIS_while_wf_Delete_Session_Response.LWG
p427
aVtc_23_09_transfer_to_primary_and_change_vip_addr.LWG
p428
aVtc_326_406_Inter_TAU_Recovery_Unkonwn_GUTI__1xrtt_CS_Registration_Then_CSFB_To_1xRTT.LWG
p429
aVtc_283_060_GW_Deactivate_Bearer__Gn_handover_while_wf_ERAB_Release_Response.LWG
p430
aVtc_157_5_snmp_ipv6_consistent.LWG
p431
aVtc_232_204_bfd__multiplier_variations_ipv6.LWG
p432
aVtc_31_103_attach_ul_fails_access_restriction_same_plmn.LWG
p433
aVtc_178_970_m3_ietf_set_prim_ip_path.LWG
p434
aVtc_239_011_israu_interfering_context_request_no_cancel_location_s4.LWG
p435
aVtc_298_145_EF_NRSPCA_interfere_Activation.LWG
p436
aVtc_280_142_tz_change_create_bearer_intra_tau_active.LWG
p437
aVtc_110_005_inbound_outbound_pf_rule_cli_ip.LWG
p438
aVtc_15_019_normal_successful_rau_followed_by_new_normal_rau_new_ptmsi.LWG
p439
aVtc_132_002_create_ip_interface_eth.LWG
p440
aVtc_220_024_csfb_to_1xrtt_ue_suspended_inter_mme_tau_old.LWG
p441
aVtc_275_037_tau_inter_new_bearer_status_mismatch.LWG
p442
aVtc_275_744_tau_ula_dia_invalid_avp_value_nw_failure_for_roamer.LWG
p443
aVtc_291_40_action_ue_trace.LWG
p444
aVtc_666_06_block_rt_board.LWG
p445
aVtc_666_02_reboot_ss7_board.LWG
p446
aVtc_263_204_Attach_Flow_Pb__Attach_Request_Same_IEs_while_waiting_for_Attach_Complete.LWG
p447
aVtc_322_098_smooth_move_ef_reset_wf_service_request.LWG
p448
aVtc_297_407_move_at_periodic_rau.G14b
p449
aVtc_96_064_intra_sgsn_intra_ra_psho_interfered_by_delete_pdp_then_received_error_indi_from_ggsn.G14b
p450
aVtc_17_102_inter_rau_new_one_context_with_ipv4v6_type_daf_off.G14b
p451
aVtc_324_113_af_no_frca_service_request_data_rab_partially_setup_3gdt.W14b
p452
aVtc_209_44_sgsn_init_pdp_modification.W14b
p453
aVtc_26_016_ms_initiated_pdp_context_modification.W14b
p454
aVtc_236_049_s4_3gdt_rnc_reset_during_waiting_for_modify_beaer_rsp_in_service_request_procedure.W14b
p455
aVtc_236_173_s4_3gdt_release_access_bearer_timeout_triggered_paging_si_intra_rau.W14b
p456
aVtc_347_055_Intra_HO_S1__Location_Report_from_source_BCM_Sx_only_while_waiting_for_Handover_Request_Ack.LW
p457
aVtc_47_003_unstable_ue_ap_loss.LW
p458
aVtc_79_026_sgsn_init_modification_rnc_not_supporting_modify_II.LW
p459
aVtc_103_1101_resending_AIR_interfering_CLR.LW
p460
aVtc_303_003_Intra_S1_HO__Downlink_A21_AIS_while_wf_Handover_Request_Ack__Reset_from_source_eNB_while_wf_Handover_Notify.LW
p461
aVtc_306_132_ef_seamless_move_source_receive_s1_setup_wf_target_guti_reallocation_complete.LW
p462
aVtc_257_19_pws_etws_resend_write_replace_warning_request_with_ta_list.LW
p463
aVtc_257_21_pws_etws_write_replace_warning_request_with_unknown_tai.LW
p464
aVtc_324_006_mf_ser_req_signaling_after_ack_3gdt.LW
p465
aVtc_324_424_ef_payload_buffered_wf_security_mode_complete_payload_different_contextId.LW
p466
aVtc_38_196_unknown_ra_dns_query_success_context_request_imsi_not_known_imsi_defined_imsi_not_known_homer.LW
p467
aVtc_274_381_Intra_and_pTAU__Downlink_A21_AIS_while_waiting_for_Authentication_Response.LW
p468
aVtc_326_247_Intra_TAU_Recovery_fail_Modify_Bearer_timeout_active_flag.LW
p469
aVtc_346_491_Small_Restart__Terminate_when_UE1_PDN_Conenctivity_waiting_for_CCAI_UE2_Location_Report_waiting_for_CCAU.LW
p470
aVtc_346_490_Small_Restart__Terminate_when_UE_S1_release.LW
p471
aVtc_44_004_small_restart__sctp_fe_restart.LW
p472
aVtc_44_870_mme_assoc_reestablish__board_block_deblock_s1_mme.LW
p473
aVtc_11_112_deactivate_interrupted_by_detach.LW
p474
aVtc_322_161_smooth_move_ef_nas_after_paging_response_ignore.WG14a
p475
aVtc_275_711_tau_inter_without_SGW_Change_receive_TZCR_flag_set_in_context_response_SN_change.L14b
p476
aVtc_214_1092_la_selection_mf_oldmscpreferred_combined_intra_tau_with_imsi_attach_after_ue_initiated_imsi_detach.L14b
p477
aVtc_103_1101_resending_AIR_interfering_CLR.L14b
p478
aVtc_306_1335_ef_seamless_move_target_receive_cli_delete_subscriber_wf_service_request.L14b
p479
aVtc_44_071_attach_long_imsi.L14b
p480
aVtc_304_029_guti_attach_reject__control_mode_threshold_exceeded_then_action_stop.L14b
p481
aVtc_260_355_sctp_disconnect_no_mce_reestablish_session_stop.L14b
p482
aVtc_346_491_Small_Restart__Terminate_when_UE1_PDN_Conenctivity_waiting_for_CCAI_UE2_Location_Report_waiting_for_CCAU.L14b
p483
aVtc_346_490_Small_Restart__Terminate_when_UE_S1_release.L14b
p484
aVtc_262_1031_emergency_imsi_attach_multiple_pgw_try_next_pgw_fqdn_error.L14b
p485
aVtc_257_30_pws_sctp_device_failure.L14b
p486
aVtc_43_053_eNB_configuration_update__attach_finish_recv_eNB_conf_update_then_paging_successed.L14b
p487
aVtc_244_806_mt_lr_donwlink_generic_nas_transport_meanwhile_handover_required_HO_success.L14b
p488
aVtc_326_406_Inter_TAU_Recovery_Unkonwn_GUTI__1xrtt_CS_Registration_Then_CSFB_To_1xRTT.L14b
p489
aVtc_274_081_Intra_and_pTAU__S1_Reset_EnbId_while_waiting_for_Authentication_Response.L14b
p490
aVtc_276_045_Inter_TAU_New_MME__S1_Reset_while_waiting_for_Identity_Response__enhanced_imei_check.L14b
p491
aVtc_208_31_sms_mo.G14b
p492
aVtc_208_40_sgsn_init_pdp_modification.G14b
p493
aVtc_208_43_interception_after_small_restart.G14b
p494
aVtc_05_028_gprs_ptmsi_attach_detach_identification_req_resp_97.G14b
p495
aVtc_297_407_move_at_periodic_rau.G14b
p496
aVtc_19_26_moving_2_mss_to_different_targets.G14b
p497
aVtc_236_307_Activation_DtSelMode_5_APN_requested_wrong_SGSN_default_APN_in_APN_list_TAC_in_TAC_list.LWG
p498
aVtc_306_230_ef_seamless_move_source_receive_create_bearer_request.LWG
p499
aVtc_342_066_x2_attach_detach_imsi_msisdn.LWG
p500
aVtc_666_06_block_rt_board.LWG
p501
aVtc_666_02_reboot_ss7_board.LWG
p502
aVtc_208_43_interception_after_small_restart.LWG
p503
aVtc_119_101_ospf_area_cli.LWG
p504
aVtc_324_083_af_sec_modify_bearer_response_dedicated_bearer_fail.LWG
p505
aVtc_324_386_ef_mt_sms_wf_frcn_wf_frca_wf_ula.LWG
p506
aVtc_284_046_pdn_connectivity_pb_activate_1_dedicated_bearer_2_pdn_parallel_other_responses_order.LWG
p507
aVtc_284_053_emergency_pdn_connectivity_pb_activate_1_dedicated_bearer.LWG
p508
aVtc_219_131_s3_handover_w_to_l_with_cl_two_pdns_one_failed_sgw_relocation.LWG
p509
aVtc_219_231_IRAT_PSHO_WtoL_Combined_Node_With_SGW_change__Backup_UE.LWG
p510
aVtc_267_503_Service_Request_SGW_unavailable__Detach_Request_without_switch_off_while_wf_Create_Session_Response.LWG
p511
aVtc_259_116_ef_s6d_tads_interfere_inter_rau_old_w.LWG
p512
aVtc_220_609_csfb_to_1xrtt_in_ecm_idle_with_extra_pdn_and_gbr_bearers.LWG
p513
aVtc_53_141_inter_new_subscription_data_changes.LWG
p514
aVtc_193_009_background_fetching_off.LWG
p515
aVtc_193_008_background_fetching_s1_sel_freq_1.LWG
p516
aVtc_304_266_tau_from_gnsgsn_2g_control_mode_wf_delete_all_bearers_response_exception_case_reject_congestion_subscriber_cancelled.LWG
p517
aVtc_318_116_sgw_restart_mf_one_pdn_with_relocate_by_ReleaseAccessBearersResponse.LWG
p518
aVtc_271_003_sctp_paging_olp_verify_pagingOlpDiscardAllCpuThreshold.LWG
p519
aVtc_69_003_block_unblock_of_ptp_bvc.LWG
p520
aVtc_110_004_inbound_outbound_pf_rule_cli_udp_sctp_tcp.LWG
p521
aVtc_110_005_inbound_outbound_pf_rule_cli_ip.LWG
p522
aVtc_73_41_gtpu_sgsn_dont_send_gpu_echo_request_w.LWG
p523
aVtc_231_173_ms_init_detach_interfered_by_cancel_location_withdraw.LWG
p524
aVtc_101_004_single_mbms_session_rnc_rab_and_iu_release.LWG
p525
aVtc_298_438_ms_init_deact_ef_delicated_bearer_deact_interfered_by_deactivate_pdp_request_pdn_level.LWG
p526
aVtc_298_783_S4_3GDT_downlink_data_notification_wait_MBR_ef_detach.LWG
p527
aVtc_157_5_snmp_ipv6_consistent.LWG
p528
aVtc_311_253_intra_srns_reloc_s4_sgw_change_with_sgw_restart_and_wf_rau_complete_interrupted_by_context_request.W14b
p529
aVtc_11_236_activate_primary_with_aace_mtz.W14b
p530
aVtc_81_011_israu_conversational_use_sub.W14b
p531
aVtc_39_187_detach_trigger_re_attach_new_iu.W14b
p532
aVtc_26_155_activate_secondary_pdp_with_upgradeAllowed.W14b
p533
aVtc_303_001_MT_CSFB_to_1xRTT_idle__S1_Reset_while_wf_Initial_Context_Setup_Response.L14b
p534
aVtc_262_192_new_mme_identification_procedure_gn.L14b
p535
aVtc_256_175_mme_eps_srvcc_ho_source_cs_only_ue_release_request_wf_srvcc_ps_to_cs_response.L14b
p536
aVtc_244_535_SLg_Location_Request__Downlink_A21_AIS_wwf_Location_Response_from_ESMLC.L14b
p537
aVtc_318_107_sgw_restart_mf_one_of_pdns_create_after_sgw_restart.L14b
p538
aVtc_318_187_sgw_restart_ef_relocate_interrupt_by_CreateBearerReq.L14b
p539
aVtc_214_048_combined_tau_inter_new_interfering_s1_reset.L14b
p540
aVtc_214_1105_la_selection_mf_oldmscpreferred_combined_intra_tau_with_imsi_attach_after_cs_fallback.L14b
p541
aVtc_276_282_Inter_TAU_New_MME__Delete_Bearer_Request_change_to_non_3gpp_while_waiting_for_Modify_Bearer_Response.L14b
p542
aVtc_275_053_tau_inter_new_active_flag_get_new_sgw_two_pdn_connections_all_failed.L14b
p543
aVtc_195_416_ue_trace_deactivate_trace_s1_intra_system_handover_triggered.L14b
p544
aVtc_266_128_emergency_service_request_with_emergency_pdn.L14b
p545
aVtc_260_355_sctp_disconnect_no_mce_reestablish_session_stop.L14b
p546
aVtc_306_1335_ef_seamless_move_target_receive_cli_delete_subscriber_wf_service_request.L14b
p547
aVtc_292_061_x2_handover_type_b_new_plmn_roaming_restricted_emc_sup_same_profile.L14b
p548
aVtc_295_136_mo_call_during_s1_ho_tau_request_when_wf_handover_notify.L14b
p549
aVtc_295_124_tau_after_ho_tz_change_emm_information_meanwhile_handover_required_HO_success.L14b
p550
aVtc_293_009_X2_Based_HO__TAU_Request_in_uplink_NAS_from_source_while_wf_Modify_Bearer_Response.L14b
p551
aVtc_346_491_Small_Restart__Terminate_when_UE1_PDN_Conenctivity_waiting_for_CCAI_UE2_Location_Report_waiting_for_CCAU.L14b
p552
aVtc_346_490_Small_Restart__Terminate_when_UE_S1_release.L14b
p553
aVtc_103_701_MME_restarts.L14b
p554
aVtc_103_840_error_code_UNRECOGNIZED_CLASS_in_answer_Result_Code.L14b
p555
aVtc_274_440_Intra_Tau_Attach_Request_while_waiting_for_Create_Session_Response_sgw_unavailable.L14b
p556
aVtc_214_032_combined_tau_intra_eps_attach.LWG
p557
aVtc_214_312_combined_tau_intra_la_change_new_msc_while_wf_tau_complete.LWG
p558
aVtc_214_142_combined_attach_feature_off_mo_sms_imsi_detach.LWG
p559
aVtc_214_702_msc_pool_intra_tau_with_associated_msc_info_la_change_msc_unreachable.LWG
p560
aVtc_214_1103_la_selection_mf_reselection_combined_intra_tau_with_imsi_attach_after_csfb.LWG
p561
aVtc_320_003_s4_logging_inter_rau_new_sgsn_context_response_gtpv1_with_imeisv_traced_by_imei.LWG
p562
aVtc_44_004_small_restart__sctp_fe_restart.LWG
p563
aVtc_276_301_Inter_TAU_New_MME__Downlink_Data_Notification_while_waiting_for_Update_Location_Answer.LWG
p564
aVtc_276_240_Inter_TAU_New_MME__Create_Bearer_Request_while_waiting_for_Modify_Bearer_Response.LWG
p565
aVtc_276_260_Inter_TAU_New_MME__Update_Bearer_Request_while_waiting_for_Create_Session_Response.LWG
p566
aVtc_276_305_Inter_TAU_New_MME__Downlink_Data_Notification_while_waiting_for_failing_Modify_Bearer_Response.LWG
p567
aVtc_276_282_Inter_TAU_New_MME__Delete_Bearer_Request_change_to_non_3gpp_while_waiting_for_Modify_Bearer_Response.LWG
p568
aVtc_88_020_attach_after_sms_toggled.LWG
p569
aVtc_322_100_smooth_move_ef_reset_wf_ptmsi_reallocation_complete.LWG
p570
aVtc_43_005_s1ap_setup.LWG
p571
aVtc_205_71_08_SCTP_OctetsChunksSent.LWG
p572
aVtc_666_06_block_rt_board.LWG
p573
aVtc_666_02_reboot_ss7_board.LWG
p574
aVtc_73_21_itc_gtpu_s4_sgsn_send_echo_request_w.LWG
p575
aVtc_73_40_gtpu_sgsn_send_gpu_echo_request_w.LWG
p576
aVtc_221_052__Emergency_type_a_notification_on_emergency_lbi_id_3_default.LWG
p577
aVtc_195_505_mme_logging_mme_initiated_echo_procedure.LWG
p578
aVtc_298_145_EF_NRSPCA_interfere_Activation.LWG
p579
aVtc_298_317_EF_SIBD_S4_Create_Bearer_Request.LWG
p580
aVtc_275_200_tau_inter_new_emergency_type_a_no_restriction.LWG
p581
aVtc_11_354_dns_one_ggsn_blocked_gives_even_distribution_over_remaining_ggsns_wcdma.LWG
p582
aVtc_335_221_TAI_List_CC_Check_For_GA__DNS_U_Query__Intra_TAU_With_Last_TAI_in_Same_GA_with_Current.LWG
p583
aVtc_119_101_ospf_area_cli.LWG
p584
aVtc_204_062_mme_eps_ho__s1_reset_during_wf_forward_relocation_complete_ack.LWG
p585
aVtc_204_400_mme_eps_ho_target_type_a_no_restriction_same_profile_emc_sup_auth_only.LWG
p586
aVtc_204_1221_mme_eps_ho_target_tau_ula_dia_resources_exceeded_nw_failure.LWG
p587
aVtc_263_016_Attach_Flow__Attach_Request_New_S1_Different_IEs_IP_OK_while_waiting_for_Delete_Session_Response.LWG
p588
aVtc_290_019_Timer_Based_GBR_Deact__s1_reset_wf_release_access_bearer_response_before_timer_expires.LWG
p589
aVtc_324_131_af_service_request_data_isd_timeout_3gdt.LWG
p590
aVtc_237_090_mme_eps_irat_ho_source_zuc_algorithm_eea3_eia3.LWG
p591
aVtc_249_109_sms_capcity_without_supportedfea_telelist_in_IDR.LWG
p592
aVtc_347_135_Seamless_Move_Target__Identification_Request_v1_while_waiting_for_CCA_initial.LWG
p593
aVtc_250_72_s6d_EF_CLR_updateprocedure_attach_waiting_ULA.LWG
p594
aVtc_292_151_x2_handover_emc_type_b_hss_reset_update_loc_fail.LWG
p595
aVtc_220_010_csfb_to_1xrtt_message_decode_error.LWG
p596
aVtc_220_621_Extended_Service_Request__Cancel_Location_Subscription_Withdrawal_while_waiting_for_Initial_Context_Setup_Response.LWG
p597
aVtc_326_211_Intra_TAU_with_unknown_GUTI_backup_no_vector_change_Replication_Option.LWG
p598
aVtc_326_406_Inter_TAU_Recovery_Unkonwn_GUTI__1xrtt_CS_Registration_Then_CSFB_To_1xRTT.LWG
p599
aVtc_326_374_Service_Request_with_unknown_STMSI_Restriction_2_pdn_mmtel_off_emergency_pdn_deleted.LWG
p600
aVtc_326_524_Recovery_for_DDN__IMSI_analysis_failure_emergency_attached.LWG
p601
aVtc_279_013_tai_list_attach_intra_tau_diff_tz.LWG
p602
aVtc_262_047_imsins_undefined.LWG
p603
aVtc_262_164_new_mme_identification_procedure_missing_IE_imsi.LWG
p604
aVtc_262_722_attach_in_g_and_w_when_license_lte_sau_limit_reached.LWG
p605
aVtc_281_027_Activate_bearer__ERAB_setup_response_s1_intra_system_handover_triggered_two_pdn_uninvolved_default_bearer_fail.LWG
p606
aVtc_289_031_Modify_bearer__Downlink_nas_transport_meanwhile_path_switch_request_HO_success.LWG
p607
aVtc_327_203_recovery_service_request__Cancel_Location_udpate_procedure_while_waiting_for_Guti_Reallocation_Complete.LWG
p608
aVtc_327_552_Recovery_for_DDN__Service_Request_while_waiting_for_Ue_Backup_Response.LWG
p609
aVtc_110_003_inbound_outbound_pf_rule_cli_icmp.LWG
p610
aVtc_251_004_tau_w_to_l_with_cl.LWG
p611
aVtc_194_150_notify_no_pgw.LWG
p612
aVtc_194_967_cancel_location_subscription_withdrawn_from_hss_during_waiting_location_report__idr_flags_ef.LWG
p613
aVtc_308_003_HSS_Init_QoS_Modification__Handover_Required_during_MBC.LWG
p614
aVtc_225_655_mt_call_active_mode_no_lai_in_paging_req_current_la_not_supported.LWG
p615
aVtc_304_007_cleaning_of_internal_tables.LWG
p616
aVtc_304_302_Emergency_PDN_connectivity__control_mode_threshold_exceeded.LWG
p617
aVtc_260_274_receive_m3_reset_while_wf_setup_iteration.LWG
p618
aVtc_306_117_ef_seamless_move_source_receive_sgsn_context_request_wf_target_guti_reallocation_complete.LWG
p619
aVtc_306_1130_ef_seamless_move_target_receive_detach_request_with_switchoff_wf_service_request.LWG
p620
aVtc_306_1114_ef_seamless_move_target_receive_detach_request_without_switchoff_wf_frca_timeout.LWG
p621
aVtc_306_1308_ef_seamless_move_target_buffer_update_bearer_request.LWG
p622
aVtc_231_173_ms_init_detach_interfered_by_cancel_location_withdraw.LWG
p623
aVtc_256_040_mme_eps_srvcc_ho_source_cs_only_srvcc_ps_to_cs_response_with_reject_cause.LWG
p624
aVtc_256_374_srvcc_ho_source_cs_only_sv_pool_off_two_msc_available.LWG
p625
aVtc_244_701_mt_lr_LPPa_mobility_unstable_before_lr.LWG
p626
aVtc_244_517_SLg_Location_Request__Insert_Subscription_Data_wwf_Location_Response_from_ESMLC.LWG
p627
aVtc_197_304_visiting_attach_req_oi_vplmn.LWG
p628
aVtc_197_520_intra_tau_without_sgw_relocation_table_not_matched_snaptr_failed.LWG
p629
aVtc_197_922_ho_from_gnsgsn_separated_records_for_s8_and_gp.LWG
p630
aVtc_239_011_israu_interfering_context_request_no_cancel_location_s4.LWG
p631
aVtc_242_040_rau_to_sgsn_s3_keep_sgw_two_pdn_connections.LWG
p632
aVtc_218_019_tau_from_sgsn_no_non_gbr_bearer_from_old_sgsn.LWG
p633
aVtc_218_252_tau_from_sgsn_detach_wf_tau_complete.LWG
p634
aVtc_316_294_GUTI_Attach_UnKnown_IMSI_Broadcast_Force_Delete_Among_Pool.LWG
p635
aVtc_316_228_PGW_Initiated_Default_Bearer_Deactivation_With_Multiple_PDN__Backup_UE.LWG
p636
aVtc_266_306_Service_Request_SGW_unavailable__create_session_two_PDN_one_failed.LWG
p637
aVtc_266_142_Emergency_Service_Request_Type_A_With_CSG_ID.LWG
p638
aVtc_294_300_preparation_in_mme_fails_bad_ho_data.LWG
p639
aVtc_273_170_tau_intra_periodic_after_large_restart.LWG
p640
aVtc_314_041_sgsn_init_qos_modification_intra_rau_l_to_w.LWG
p641
aVtc_06_047_ms_init_modification_bss_nack_10.LWG
p642
aVtc_06_011_activate_deactivate_secondary_ms_99_gtp_99_static_ip.LWG
p643
aVtc_202_419_af_seamless_move_target_initialCtxSetupResponse_timeout.LWG
p644
aVtc_202_521_seamless_move_source_ue_ecm_idle_SGW_unavailable.LWG
p645
aVtc_202_467_af_seamless_move_source_no_FRCN_with_s1_recovery.LWG
p646
aVtc_359_045_handover_from_non3gpp_af_after_rau_with_fqdn_same_apn_no_pgw_id_in_sub.LWG
p647
aVtc_345_003_mf__mo_csfb_with_psho__ecm_idle_Gn.LWG
p648
aVtc_241_495_israu_new_gn_to_s4_pdp_to_bearer_with_10_secondary_pdp.LWG
p649
aVtc_208_43_interception_after_small_restart.LWG
p650
aVtc_341_950_test_event_serial_number.LWG
p651
aVtc_284_312_mme_initiated_deactivate_bearer_3_def_in_parallel.LWG
p652
aVtc_39_187_detach_trigger_re_attach_new_iu.W14b
p653
aVtc_26_202_service_request_after_hlr_modify_EARP_ggsn_upgrade_qos.W14b
p654
aVtc_324_131_af_service_request_data_isd_timeout_3gdt.W14b
p655
aVtc_209_44_sgsn_init_pdp_modification.W14b
p656
aVtc_298_723_service_request_ef_ms_deact_ti_default_wf_rab_assignment_response.W14b
p657
aVtc_17_102_inter_rau_new_one_context_with_ipv4v6_type_daf_off.G14b
p658
aVtc_103_701_MME_restarts.LW
p659
aVtc_326_406_Inter_TAU_Recovery_Unkonwn_GUTI__1xrtt_CS_Registration_Then_CSFB_To_1xRTT.LW
p660
aVtc_275_020_tau_inter_new_imsi_ns_access_restricted.LW
p661
aVtc_324_042_af_gbr_higher_than_policymap.LW
p662
aVtc_324_424_ef_payload_buffered_wf_security_mode_complete_payload_different_contextId.LW
p663
aVtc_306_1130_ef_seamless_move_target_receive_detach_request_with_switchoff_wf_service_request.LW
p664
aVtc_306_1214_ef_seamless_move_target_receive_s1_setup_wf_icsr_and_lur.LW
p665
aVtc_306_1332_ef_seamless_move_target_receive_delete_subscriber_PDN_Withdrawal.LW
p666
aVtc_267_224_Service_Request__PDN_Connectivity_Request_while_waiting_for_Modify_Bearer_Response_where_dedicated_fails.LW
p667
aVtc_289_031_Modify_bearer__Downlink_nas_transport_meanwhile_path_switch_request_HO_success.LW
p668
aVtc_289_008_Modify_Bearer__Handover_Required_while_wf_ERAB_Modify_Bearer_Resp.LW
p669
aVtc_289_070_GW_Init_Bearer_Modification_Flow_two_CBR_one_UBR_while_wf_modify_eps_bearer_context_accept.LW
p670
aVtc_303_002_Service_Request__Downlink_A21_AIS_while_wf_Initial_Context_Setup_Response__Extended_Service_Request_while_wf_Initial_Context_Setup_Response.LW
p671
aVtc_204_206_mme_eps_ho__multi_pdn_no_modify_response.LW
p672
aVtc_12_134_attach_with_extended_mmumoc_iu_inactivity_timer.LW
p673
aVtc_12_512_pmm_undefined_attach_when_updating_location_interfered_by_rnc_reset.LW
p674
aVtc_311_251_intra_srns_reloc_s4_with_sgw_change_sn_changed.LW
p675
aVtc_327_010_recovery_intra_TAU__uplink_Attach_Request_while_waiting_for_TAU_Complete.LW
p676
aVtc_327_552_Recovery_for_DDN__Service_Request_while_waiting_for_Ue_Backup_Response.LW
p677
aVtc_195_537_mme_logging_tau_inter_old_s10_s3_the_same_address.LW
p678
aVtc_321_059_s4_logging_reattach_with_ue_trace.LW
p679
aVtc_220_508_csfb_to_1xrtt_in_ecm_idle_service_request_wf_ue_context_release_complete.LW
p680
aVtc_220_046_csfb_to_1xrtt_initial_ue_message_over_new_s1_connection.LW
p681
aVtc_220_618_Extended_Service_Request__Attach_Request_while_waiting_for_Initial_Context_Setup_Response.LW
p682
aVtc_295_130_Intra_S1_HO__Sgw_reloc__Downlink_A21_AIS_while_waiting_for_Delete_Session_Response.LW
p683
aVtc_214_312_combined_tau_intra_la_change_new_msc_while_wf_tau_complete.LW
p684
aVtc_298_145_EF_NRSPCA_interfere_Activation.LW
p685
aVtc_243_200_tau_from_sgsn_s3_get_new_sgw_two_pdn_connections_all_ok.LW
p686
aVtc_241_801_israu_interfering_context_request_no_cancel_location_s4.LW
p687
aVtc_346_491_Small_Restart__Terminate_when_UE1_PDN_Conenctivity_waiting_for_CCAI_UE2_Location_Report_waiting_for_CCAU.LW
p688
aVtc_346_490_Small_Restart__Terminate_when_UE_S1_release.LW
p689
aVtc_33_17_isc_rau_authenticating_interrupted_by_subscription_withdrawn.WG14a
p690
aVtc_322_126_smooth_move_ef_cancel_location_initialAttach_wf_cancel_location.WG14a
p691
aVtc_297_407_move_at_periodic_rau.G14b
p692
aVtc_04_19_gprs_ptmsi_attach_identification_req_resp_97.G14b
p693
aVtc_311_253_intra_srns_reloc_s4_sgw_change_with_sgw_restart_and_wf_rau_complete_interrupted_by_context_request.WG14a
p694
aVtc_322_161_smooth_move_ef_nas_after_paging_response_ignore.WG14a
p695
aVtc_84_09_bvc_reset_lcs_capability.LWG
p696
aVtc_259_93_ef_provide_subscriber_information_service_request_w.LWG
p697
aVtc_30_012_attach_ul_fails_gprs_subscription_unknown_when_data_not_confirmed.LWG
p698
aVtc_236_039_s4_3gdt_detach_during_waiting_for_modify_bearer_rsp_in_active_procedure.LWG
p699
aVtc_248_09_inter_l_to_w_new_3gdt.LWG
p700
aVtc_327_552_Recovery_for_DDN__Service_Request_while_waiting_for_Ue_Backup_Response.LWG
p701
aVtc_262_1055_imsi_attach_with_csg_id_is_rejected.LWG
p702
aVtc_257_18_pws_etws_stop_warning_request_rejected_when_olp.LWG
p703
aVtc_666_06_block_rt_board.LWG
p704
aVtc_666_02_reboot_ss7_board.LWG
p705
aVtc_110_003_inbound_outbound_pf_rule_cli_icmp.LWG
p706
aVtc_11_346_apn_redirect_to_SubscribedAPN_ApnRedirectForMultipleApn_lowestpdpcontextid.LWG
p707
aVtc_326_268_Periodic_Intra_TAU_with_unknown_GUTI_update_location_fail.LWG
p708
aVtc_326_267_Intra_TAU_with_unknown_GUTI_Restriction_2_pdn_SAU_license_limit_reached.LWG
p709
aVtc_578_02_check_parse_ebm_and_ci_eci_g.LWG
p710
aVtc_578_02_check_parse_ebm_and_ci_eci_w.LWG
p711
aVtc_221_034__Selection_Table_Matches_On_IMEINS.LWG
p712
aVtc_194_1011_normal_attach_insert_odb_detach_with_cause_of_reattach_not_required_with_not_allowed_apn_in_odb_free_apn_list__odb_bit0.LWG
p713
aVtc_44_870_mme_assoc_reestablish__board_block_deblock_s1_mme.LWG
p714
aVtc_346_576_AF__HO_X2_2PDN_CSR_failure_for_1PDN_terminate_sx.LWG
p715
aVtc_179_273_Ccheck_dns_server.LWG
p716
aVtc_39_197_detach_trigger_re_attach_attach_complete_timeout_iu_reset.LWG
p717
aVtc_306_1130_ef_seamless_move_target_receive_detach_request_with_switchoff_wf_service_request.LWG
p718
aVtc_202_18_downlink_data_after_s1_release.LWG
p719
aVtc_202_421_af_seamless_move_target_initialCtxSetupResponse_noSuccDefaultBearer_implicit_detach.LWG
p720
aVtc_202_17_service_request_during_release_access_bearers.LWG
p721
aVtc_304_266_tau_from_gnsgsn_2g_control_mode_wf_delete_all_bearers_response_exception_case_reject_congestion_subscriber_cancelled.LW
p722
aVtc_264_080_MME_Initiated_Detach__UE_ECM_Idle__Paging_Failed_due_to_OLP.LW
p723
aVtc_316_274_Inter_MME_TAU_Old_MME_SGW_change__Delete_UE_Backup.LW
p724
aVtc_241_751_W2W_S4SGSN_S4SGSN_no_create_session_response_node_function_deactivate_pdp_after_rau_on.LW
p725
aVtc_346_491_Small_Restart__Terminate_when_UE1_PDN_Conenctivity_waiting_for_CCAI_UE2_Location_Report_waiting_for_CCAU.LW
p726
aVtc_346_490_Small_Restart__Terminate_when_UE_S1_release.LW
p727
aVtc_26_058_activate_3_primary_contexts_different_policy_maps.LW
p728
aVtc_194_082_consecutive_hss_resets.LW
p729
aVtc_194_966_path_switch_request_during_waiting_location_report__idr_flags_ef.LW
p730
aVtc_194_915_ecm_connected__notification_reachability_userstate_locationinfo_currentinfo__idr_flags.LW
p731
aVtc_218_311_tau_from_sgsn_preserved_gbr_bearer_buffer_1_ubr_1_cbr.LW
p732
aVtc_12_134_attach_with_extended_mmumoc_iu_inactivity_timer.LW
p733
aVtc_103_1101_resending_AIR_interfering_CLR.LW
p734
aVtc_324_006_mf_ser_req_signaling_after_ack_3gdt.LW
p735
aVtc_209_44_sgsn_init_pdp_modification.LW
p736
aVtc_326_406_Inter_TAU_Recovery_Unkonwn_GUTI__1xrtt_CS_Registration_Then_CSFB_To_1xRTT.LW
p737
aVtc_322_173_smooth_move_ef_cli_s6d_delete_subscriber_data_wf_ptmsi_relocation_complete.LW
p738
aVtc_231_281_activate_pdp_request_ignore_during_s4_pdp_deactivating.LW
p739
aVtc_44_890_mme_assoc_reestablish__service_request_on_reestablished_sctp_association.LW
p740
aVtc_292_062_x2_handover_type_c_new_plmn_roaming_restricted_emc_sup_same_profile.LW
p741
aVtc_243_700_tau_from_sgsn_s3_no_modify_bearer_response_transfer_due_to_wrong_ap_index.LW
p742
aVtc_11_241_rab_release_request_interrupted_by_iu_release.W14b
p743
aVtc_322_161_smooth_move_ef_nas_after_paging_response_ignore.W14b
p744
aVtc_298_434_ms_init_deact_ef_default_bearer_deact_interfered_by_detach_request.W14b
p745
aVtc_298_438_ms_init_deact_ef_delicated_bearer_deact_interfered_by_deactivate_pdp_request_pdn_level.W14b
p746
aVtc_26_118_inter_SGSN_RAU_WtoW_old_ARP.W14b
p747
aVtc_334_300_service_req_relocation_ef_sm_status_when_wf_deactivate_pdp_context_accept.W14b
p748
aVtc_245_340_israu_new_l_to_w_with_GBR_dedicated_bearer_ipv6_3gdt.W14b
p749
aVtc_313_281_inter_new_srns_reloc_s16_with_sgw_change_downlink_data_notification_with_cause_received_wf_rau_complete.W14b
p750
aVtc_231_640_activate_pdp_interfered_by_detach_reqeust.W14b
p751
aVtc_236_045_s4_3gdt_iu_release_during_waiting_for_modify_bearer_rsp_in_service_request_procedure.W14b
p752
aVtc_236_091_service_request_si_iu_release_at_sgw_flow_si_cancel_location.W14b
p753
aVtc_342_033_x2_connection_heartbeat.W14b
p754
aVtc_306_1130_ef_seamless_move_target_receive_detach_request_with_switchoff_wf_service_request.L14b
p755
aVtc_318_116_sgw_restart_mf_one_pdn_with_relocate_by_ReleaseAccessBearersResponse.L14b
p756
aVtc_318_252_restoration_triggered_by_create_session_response.L14b
p757
aVtc_327_322_recovery_service_request__initial_Imsi_Attach_Request_while_waiting_for_Ue_Backup_Response.L14b
p758
aVtc_303_003_Intra_S1_HO__Downlink_A21_AIS_while_wf_Handover_Request_Ack__Reset_from_source_eNB_while_wf_Handover_Notify.L14b
p759
aVtc_103_1101_resending_AIR_interfering_CLR.L14b
p760
aVtc_282_020_delete_bearer_request_handover_to_non_3GPP_ecm_connected_multi_pdn.L14b
p761
aVtc_273_201_tau_intra_roaming_restricted_plmn.L14b
p762
aVtc_273_242_tau_intra__sgw_relocation_mult_pdn_connections_and_failures.L14b
p763
aVtc_202_02_ecm_idle_s1_release.L14b
p764
aVtc_268_014_UE_Release_Flow__Downlink_A21_AIS_while_waiting_for_Relase_Access_Bearer_Response.L14b
p765
aVtc_276_045_Inter_TAU_New_MME__S1_Reset_while_waiting_for_Identity_Response__enhanced_imei_check.L14b
p766
aVtc_260_355_sctp_disconnect_no_mce_reestablish_session_stop.L14b
p767
aVtc_242_001_rau_to_sgsn_s3_keep_sgw.L14b
p768
aVtc_346_425_AF__PDN_Connectivity__CCA_I_timeout.L14b
p769
aVtc_346_491_Small_Restart__Terminate_when_UE1_PDN_Conenctivity_waiting_for_CCAI_UE2_Location_Report_waiting_for_CCAU.L14b
p770
aVtc_346_490_Small_Restart__Terminate_when_UE_S1_release.L14b
p771
aVtc_326_406_Inter_TAU_Recovery_Unkonwn_GUTI__1xrtt_CS_Registration_Then_CSFB_To_1xRTT.L14b
p772
aVtc_342_052_x2_intra_rau_msisdn_with_pdp.W14b
p773
aVtc_236_040_s4_3gdt_detach_during_waiting_for_modify_bearer_rsp_in_service_request_procedure.W14b
p774
aVtc_236_286_3gdt_swichback_delete_bearer_request_received_wf_modify_bearer_response.W14b
p775
aVtc_245_301_inter_rau_insert_entry_into_interface_cache.W14b
p776
aVtc_311_253_intra_srns_reloc_s4_sgw_change_with_sgw_restart_and_wf_rau_complete_interrupted_by_context_request.W14b
p777
aVtc_26_161_subscriber_data_changed_with_qos_upgrade_by_ggsn_with_override.W14b
p778
aVtc_39_187_detach_trigger_re_attach_new_iu.W14b
p779
aVtc_322_161_smooth_move_ef_nas_after_paging_response_ignore.W14b
p780
aVtc_298_434_ms_init_deact_ef_default_bearer_deact_interfered_by_detach_request.W14b
p781
aVtc_11_264_apnresolving_vplmn_not_allowed_subscribed_apn_hplmn_apn_criteria_cc.W14b
p782
aVtc_289_111_multi_pdns_wf_ERAB_Modify_Resp_timeout.L14b
p783
aVtc_194_141_cl_subscription_withdrawn_existing_emergency_pdn.L14b
p784
aVtc_194_903_notification_during_intra_mme_tau__idr_flags.L14b
p785
aVtc_327_600_Inter_TAU_Recovery__Attach_Request_IMSI_while_waiting_for_ue_backup_retrieval_Response.L14b
p786
aVtc_275_055_tau_inter_new_active_flag_get_new_sgw_two_pdn_connections_first_failed_second_ok.L14b
p787
aVtc_261_41_isd_ef_mme_pool_3gpp_move.L14b
p788
aVtc_197_509_inter_tau_with_sgw_relocation_gw_selection_off_send_without_sgw_name.L14b
p789
aVtc_214_806_mo_sms_active_donwlink_nas_transport_meanwhile_handover_required_HO_success.L14b
p790
aVtc_214_1099_la_selection_mf_reselection_combined_tau_with_imsi_attach_after_mme_triggered_imsi_detach_when_handling_sgs_paging.L14b
p791
aVtc_281_009_Activate_bearer__Handover_Required_while_wf_eps_bearer_context_accept.L14b
p792
aVtc_295_137_mt_call_during_s1_ho_tau_request_when_wf_handover_notify.L14b
p793
aVtc_329_003_attach_rs_allowed_emergency_plmn_change_ula_fails.L14b
p794
aVtc_202_18_downlink_data_after_s1_release.L14b
p795
aVtc_266_011_DownlinkDataNotification_interfering_ISD_sgsn00026976.L14b
p796
aVtc_266_020_DownlinkDataFailureInd_repeat_paging_timer_on.L14b
p797
aVtc_346_454_AF__Intra_TAU_CCA_Update_with_out_of_range_RFSP.L14b
p798
aVtc_346_491_Small_Restart__Terminate_when_UE1_PDN_Conenctivity_waiting_for_CCAI_UE2_Location_Report_waiting_for_CCAU.L14b
p799
aVtc_346_490_Small_Restart__Terminate_when_UE_S1_release.L14b
p800
aVtc_257_11_pws_etws_stop_warning_request_feature_off.L14b
p801
aVtc_326_203_Intra_TAU_after_node_restart_with_two_retrieval_responses_with_SGW_change_with_emergency_PDN.L14b
p802
aVtc_326_252_Intra_TAU_Recovery_after_node_restart_then_pool_move.L14b
p803
aVtc_318_252_restoration_triggered_by_create_session_response.L14b
p804
aVtc_284_553_multi_pdn_connectity_apn_resolution_ext_with_different_apn_resolution_criteria.L14b
p805
aVtc_666_06_block_rt_board.LWG
p806
aVtc_666_02_reboot_ss7_board.LWG
p807
aVtc_243_201_tau_from_sgsn_s3_get_new_sgw_two_pdn_connections_all_failed.LWG
p808
aVtc_243_200_tau_from_sgsn_s3_get_new_sgw_two_pdn_connections_all_ok.LWG
p809
aVtc_23_09_transfer_to_primary_and_change_vip_addr.LWG
p810
aVtc_289_031_Modify_bearer__Downlink_nas_transport_meanwhile_path_switch_request_HO_success.LWG
p811
aVtc_289_047_Modify_bearer__ERAB_modify_response_s1_intra_system_handover_triggered_activate_dedicated_bearer_one_pdn_multiple_bearer.LWG
p812
aVtc_220_602_csfb_to_1xrtt_uplink_nas_transport_interfere_tau_inter_new.LWG
p813
aVtc_103_702_CEA_timeout.LWG
p814
aVtc_219_131_s3_handover_w_to_l_with_cl_two_pdns_one_failed_sgw_relocation.LWG
p815
aVtc_208_43_interception_after_small_restart.LWG
p816
aVtc_241_159_israu_old_wait_for_sgsn_context_ack_interfere_by_reset_and_detach.LWG
p817
aVtc_290_087_Timer_Based_GBR_Deact__cancel_location_with_subscription_withdrawn_wf_delete_bearer_request_after_timer_expires.LWG
p818
aVtc_248_147_inter_l_to_w_new_cancel_location_received_wf_rau_complete.LWG
p819
aVtc_326_290_Intra_TAU_with_unknown_GUTI_with_SGW_Change.LWG
p820
aVtc_326_406_Inter_TAU_Recovery_Unkonwn_GUTI__1xrtt_CS_Registration_Then_CSFB_To_1xRTT.LWG
p821
aVtc_306_1130_ef_seamless_move_target_receive_detach_request_with_switchoff_wf_service_request.LWG
p822
aVtc_256_175_mme_eps_srvcc_ho_source_cs_only_ue_release_request_wf_srvcc_ps_to_cs_response.LWG
p823
aVtc_06_116_atm142_create_MS99_GTP97_with_aace_support_with_imei.LWG
p824
aVtc_06_138_delete_req_ggsn_during_activate_camel_est_ack.LWG
p825
aVtc_259_116_ef_s6d_tads_interfere_inter_rau_old_w.LWG
p826
aVtc_298_438_ms_init_deact_ef_delicated_bearer_deact_interfered_by_deactivate_pdp_request_pdn_level.LWG
p827
aVtc_314_022_hss_reset_restoration_followed_by_service_request_smah_off.LWG
p828
aVtc_119_202_ospf_interface_opt_vals.LWG
p829
aVtc_59_9_mtmsi_restart_counter.LWG
p830
aVtc_44_870_mme_assoc_reestablish__board_block_deblock_s1_mme.LWG
p831
aVtc_275_037_tau_inter_new_bearer_status_mismatch.LWG
p832
aVtc_239_620_inter_rau_new_with_bearer_sgw_not_change_isd_odb_bit0_wf_rau_compl_deactivation.G14b
p833
aVtc_230_115_sgw_create_bearer_request_s4.G14b
p834
aVtc_208_22_attach_detach_imsi.G14b
p835
aVtc_103_1101_resending_AIR_interfering_CLR.LW
p836
aVtc_103_403_diameterConnectionDown_alarm_raised_at_initial_establishement.LW
p837
aVtc_346_490_Small_Restart__Terminate_when_UE_S1_release.LW
p838
aVtc_346_491_Small_Restart__Terminate_when_UE1_PDN_Conenctivity_waiting_for_CCAI_UE2_Location_Report_waiting_for_CCAU.LW
p839
aVtc_39_114_attach_move_interfering_ptmsi_attach_after_complete.LW
p840
aVtc_304_202_emergency_inter_tau_reject__control_mode_threshold_exceeded.LW
p841
aVtc_304_029_guti_attach_reject__control_mode_threshold_exceeded_then_action_stop.LW
p842
aVtc_241_801_israu_interfering_context_request_no_cancel_location_s4.LW
p843
aVtc_248_453_inter_l_to_w_new_partially_succ_interfering_attach_request_received_wf_rau_complete.LW
p844
aVtc_326_406_Inter_TAU_Recovery_Unkonwn_GUTI__1xrtt_CS_Registration_Then_CSFB_To_1xRTT.LW
p845
aVtc_263_320_Attach_Flow__Attach_Request_Different_IEs_IP_OK_while_waiting_for_Update_Location_Answer.LW
p846
aVtc_257_36_pws_etws_stop_warning_request_when_olp_rshl_false.LW
p847
aVtc_236_286_3gdt_swichback_delete_bearer_request_received_wf_modify_bearer_response.LW
p848
aVtc_225_616_exp_flow_handover_required_intra_while_wf_modification_context_response.LW
p849
aVtc_53_132_inter_new_mbr_set_to_zero_in_qos_req.LW
p850
aVtc_327_403_recovery_service_request__S3_Identification_Request_while_waiting_for_Sub_Procedure.LW
p851
aVtc_194_065_activate_loc_not_confirmed_ul_fails_other_failure.LW
p852
aVtc_209_31_sms_mo.LW
p853
aVtc_209_44_sgsn_init_pdp_modification.LW
p854
aVtc_44_870_mme_assoc_reestablish__board_block_deblock_s1_mme.LW
p855
aVtc_293_041_X2_Based_HO__Sgw_reloc__Downlink_A21_AIS_while_wf_Delete_Session_Response.LW
p856
aVtc_214_1161_inteferring_tau_keep_last_paging_msc_wf_la_update.LW
p857
aVtc_172_07_get_latest_cause_codes_for_ps_handover_required.G14b
p858
aVtc_297_137_inter_rau_new_s4_fetch_imsi_transfered.G14b
p859
aVtc_297_427_ef_irat_w_to_g_attach_request_received.G14b
p860
aVtc_06_300_activate_deactivate_primary_ms_99_gtp_99_dynamic_ipv4v6.G14b
p861
aVtc_98_114_inter_sgsn_new_psho_one_ipv4v6_one_ipv4_daf_off.G14b
p862
aVtc_324_042_af_gbr_higher_than_policymap.LW
p863
aVtc_324_420_ef_payload_buffered.LW
p864
aVtc_324_425_ef_payload_buffered_wf_security_mode_complete_payload_different_pdn.LW
p865
aVtc_326_406_Inter_TAU_Recovery_Unkonwn_GUTI__1xrtt_CS_Registration_Then_CSFB_To_1xRTT.LW
p866
aVtc_326_524_Recovery_for_DDN__IMSI_analysis_failure_emergency_attached.LW
p867
aVtc_326_487_Inter_TAU_Recovery_Unknown_GUTI__Retrieval_Response_After_Timer_Expires.LW
p868
aVtc_327_019_recovery_intra_TAU__uplink_Detach_Request_while_waiting_for_Create_Session_Response.LW
p869
aVtc_303_002_Service_Request__Downlink_A21_AIS_while_wf_Initial_Context_Setup_Response__Extended_Service_Request_while_wf_Initial_Context_Setup_Response.LW
p870
aVtc_316_206_TAU_From_S4_SGSN_Multiple_PDN_Connections_With_Max_Dedicated_Bearers__Backup_UE.LW
p871
aVtc_241_045_intra_with_multi_bearer_sgw_change_try_next.LW
p872
aVtc_241_447_israu_new_with_dedicated_bearer_create_session_response_default_bearer_failed.LW
p873
aVtc_241_801_israu_interfering_context_request_no_cancel_location_s4.LW
p874
aVtc_101_016_single_mbms_session_dp_restart.LW
p875
aVtc_210_052_tau_inter_old.LW
p876
aVtc_346_491_Small_Restart__Terminate_when_UE1_PDN_Conenctivity_waiting_for_CCAI_UE2_Location_Report_waiting_for_CCAU.LW
p877
aVtc_346_490_Small_Restart__Terminate_when_UE_S1_release.LW
p878
aVtc_298_702_pgw_init_modification_ef_ms_deact_req_tdi_false_ti_default_wf_modify_accept.LW
p879
aVtc_52_14_inter_old_treloccomplete_timeout.LW
p880
aVtc_209_31_sms_mo.LW
p881
aVtc_194_140_cl_subscription_withdraw_idle_paging_ue_not_responding_with_gbr_bearers.LW
p882
aVtc_196_172_nrspca_during_t3385_when_receive_sgsn_context_ack_not_accepted.LW
p883
aVtc_243_205_tau_from_sgsn_s3_keep_old_sgw_two_pdn_connections_all_failed.LW
p884
aVtc_329_203_inter_tau_new_rs_restricted_emergency.LW
p885
aVtc_329_820_geored_service_request_rr_restricted_after_update_location.LW
p886
aVtc_342_864_online_change_LI_U.LW
p887
aVtc_304_022_attach_successful_then_guti_attach__control_mode_threshold_exceeded_usc_reject_congestion.LW
p888
aVtc_306_016_ef_in_af_seamless_move_source_receive_detach_request_wf_guti_reallocation_complete_af.LW
p889
aVtc_306_1004_ef_seamless_move_target_handle_ddn_wf_service_request.LW
p890
aVtc_306_1130_ef_seamless_move_target_receive_detach_request_with_switchoff_wf_service_request.LW
p891
aVtc_274_381_Intra_and_pTAU__Downlink_A21_AIS_while_waiting_for_Authentication_Response.LW
p892
aVtc_78_057_intra_rau_intra_plmn_forced_csps_coord_foreign_ms.LW
p893
aVtc_78_300_non_mocn_israu_old_sgsn_israu_new_sgsn_accept.LW
p894
aVtc_326_252_Intra_TAU_Recovery_after_node_restart_then_pool_move.L14b
p895
aVtc_326_406_Inter_TAU_Recovery_Unkonwn_GUTI__1xrtt_CS_Registration_Then_CSFB_To_1xRTT.L14b
p896
aVtc_326_226_Intra_TAU_Recovery_fail_Authentication_Reject_from_HSS.L14b
p897
aVtc_220_413_csfb_to_1xrtt_in_ecm_connected_handover_required_meanwhile_CBR_received.L14b
p898
aVtc_262_102_emergency_imsi_attach_imsi_undefined_in_mme.L14b
p899
aVtc_327_322_recovery_service_request__initial_Imsi_Attach_Request_while_waiting_for_Ue_Backup_Response.L14b
p900
aVtc_327_510_recovery_service_request__ue_context_release_request.L14b
p901
aVtc_346_388_handover_intra_2PDN_BCM_sx_only_and_sxgx_location_report.L14b
p902
aVtc_346_446_AF__Intra_TAU_CCA_Update_result_code_5003.L14b
p903
aVtc_346_491_Small_Restart__Terminate_when_UE1_PDN_Conenctivity_waiting_for_CCAI_UE2_Location_Report_waiting_for_CCAU.L14b
p904
aVtc_346_490_Small_Restart__Terminate_when_UE_S1_release.L14b
p905
aVtc_273_311_tau_periodic_emergency_mobile_reachable_expired.L14b
p906
aVtc_195_406_ue_trace_start_meanwhile_handover_required.L14b
p907
aVtc_266_026_DownlinkDataFailureInd_repeat_paging_timer_small_local_restart.L14b
p908
aVtc_202_102_small_restart.L14b
p909
aVtc_294_037_s1_intra_handover_type_c_new_plmn_roaming_restricted_emc_sup_sim_only_same_profile.L14b
p910
aVtc_194_806_isd_private_extension_of_wi_denied_during_pdn_connectivity_request.L14b
p911
aVtc_329_310_s1_inter_ho_target_rs_restricted.L14b
p912
aVtc_44_071_attach_long_imsi.L14b
p913
aVtc_214_312_combined_tau_intra_la_change_new_msc_while_wf_tau_complete.L14b
p914
aVtc_214_1126_la_selection_mf_oldlapreferred_combined_intra_tau_after_imsi_detach_triggered_by_sgs_paging.L14b
p915
aVtc_276_045_Inter_TAU_New_MME__S1_Reset_while_waiting_for_Identity_Response__enhanced_imei_check.L14b
p916
aVtc_274_041_Intra_and_pTAU__Intra_TAU_same_ies_while_waiting_for_Authentication_Response.L14b
p917
aVtc_241_710_intra_rau_dedicate_bearer_update_failed_and_pgw_delete_bearer_after_rau.W14b
p918
aVtc_31_135_cl_update_procedure_during_ms_auth.W14b
p919
aVtc_209_21_attach_detach_imsi.W14b
p920
aVtc_11_235_ser_req_interfer_deactivation.W14b
p921
aVtc_11_591_activate_pdp_request_type_ipv4v6_subscribed_ipv4v6_daf_on_gst_nevertrypgw.LWG
p922
aVtc_666_06_block_rt_board.LWG
p923
aVtc_666_02_reboot_ss7_board.LWG
p924
aVtc_294_051_s1_intra_handover_type_b_new_plmn_no_roaming_restriction_emc_sup_all_same_profile.LWG
p925
aVtc_294_337_intra_handover_tz_change_prep_fail_followed_by_intra_tau_tz_unchange.LWG
p926
aVtc_257_12_pws_etws_write_replace_warning_request_enb_failure.LWG
p927
aVtc_257_18_pws_etws_stop_warning_request_rejected_when_olp.LWG
p928
aVtc_304_029_guti_attach_reject__control_mode_threshold_exceeded_then_action_stop.LWG
p929
aVtc_243_753_tau_from_sgsn_s3_change_sgw_emergency_type_a_not_allowed_in_csg.LWG
p930
aVtc_274_381_Intra_and_pTAU__Downlink_A21_AIS_while_waiting_for_Authentication_Response.LWG
p931
aVtc_250_105_ignore_IDR_when_EPS_sub_downgrade_GPRS_sub.LWG
p932
aVtc_282_132_deactivate_1_then_the_last_default_bearer.LWG
p933
aVtc_282_007_mme_initiated_deactivate_bearer_2_of_4.LWG
p934
aVtc_282_011_deactivate_bearer_1_then_1_of_2_idle_mode.LWG
p935
aVtc_95_7_negative_tests.LWG
p936
aVtc_290_024_Timer_Based_GBR_Deact__cancel_location_with_update_procedure_wf_release_access_bearer_response_before_timer_expires.LWG
p937
aVtc_290_048_Timer_Based_GBR_Deact__delete_bearer_request_wf_ue_context_release_complete_before_timer_expires.LWG
p938
aVtc_284_135_emergency_pdn_connectivity_no_notify_request.LWG
p939
aVtc_225_205_service_reject_integrity_failure.LWG
p940
aVtc_38_14_israu_new_sgsn_unknown_imsi.LWG
p941
aVtc_318_201_idle_deactivate_dedicated_bearers_one_by_one_reactivate_req.LWG
p942
aVtc_306_1119_ef_seamless_move_target_receive_detach_request_without_switchoff_wf_service_request_and_wf_lua.LWG
p943
aVtc_306_1200_ef_seamless_move_target_receive_hss_reset.LWG
p944
aVtc_107_101_eth_vlan_cli.LWG
p945
aVtc_73_41_gtpu_sgsn_dont_send_gpu_echo_request_w.LWG
p946
aVtc_295_130_Intra_S1_HO__Sgw_reloc__Downlink_A21_AIS_while_waiting_for_Delete_Session_Response.LWG
p947
aVtc_218_311_tau_from_sgsn_preserved_gbr_bearer_buffer_1_ubr_1_cbr.LWG
p948
aVtc_209_21_attach_detach_imsi.LWG
p949
aVtc_209_44_sgsn_init_pdp_modification.LWG
p950
aVtc_194_100_check_gauge_unstable_not_parked.LWG
p951
aVtc_110_005_inbound_outbound_pf_rule_cli_ip.LWG
p952
aVtc_311_224_intra_srns_reloc_s4_sgw_change_wf_create_session_rsp_interrupted_by_identification_req.LWG
p953
aVtc_43_101__removal_of_disconnected_eNodeBs__CLI_removal.LWG
p954
aVtc_297_511_inter_rau_roaming_auth_info_failed_with_cause_data_missing.LWG
p955
aVtc_342_864_online_change_LI_U.LWG
p956
aVtc_298_783_S4_3GDT_downlink_data_notification_wait_MBR_ef_detach.LWG
p957
aVtc_326_406_Inter_TAU_Recovery_Unkonwn_GUTI__1xrtt_CS_Registration_Then_CSFB_To_1xRTT.LWG
p958
aVtc_219_131_s3_handover_w_to_l_with_cl_two_pdns_one_failed_sgw_relocation.LWG
p959
aVtc_24_177_msc_pool_psho_no_msc_from_old_sgsn_select_msc.LWG
p960
aVtc_56_2_restart.LWG
p961
aVtc_208_31_sms_mo.LWG
p962
aVtc_208_43_interception_after_small_restart.LWG
p963
aVtc_247_201_inter_w_to_l_old_two_pdns_with_dedicated_bearer_one_pdn_failed_with_sgw_change.LWG
p964
aVtc_51_068_reloc_interfered_by_rau.LW
p965
aVtc_298_783_S4_3GDT_downlink_data_notification_wait_MBR_ef_detach.LW
p966
aVtc_22_013_wcdma_change_of_position_context_ISRAU.LW
p967
aVtc_346_550_AF__HO_Inter_Target_from_gn_CCR_Initial_no_CCA_received.LW
p968
aVtc_346_491_Small_Restart__Terminate_when_UE1_PDN_Connectivity_waiting_for_CCAI_UE2_Location_Report_waiting_for_CCAU.LW
p969
aVtc_346_490_Small_Restart__Terminate_when_UE_S1_release.LW
p970
aVtc_236_115_s4_3gdt_based_on_sr_dt_to_non_dt_selective_service_request.LW
p971
aVtc_103_1101_resending_AIR_interfering_CLR.LW
p972
aVtc_311_248_intra_srns_reloc_s4_received_interfering_update_bearer_request_wf_reloc_complete.LW
p973
aVtc_202_431_mf_seamless_move_target_service_request_modifyBearerReq_onePdnMultiBearer_oneBearerFail.LW
p974
aVtc_329_203_inter_tau_new_rs_restricted_emergency.LW
p975
aVtc_335_122_Intra_S1_HO_AF__GA_change.LW
p976
aVtc_44_811_mme_assoc_reestablish__abort_sbc.LW
p977
aVtc_44_004_small_restart__sctp_fe_restart.LW
p978
aVtc_326_524_Recovery_for_DDN__IMSI_analysis_failure_emergency_attached.LW
p979
aVtc_273_249_tau_intra__sgw_reloc_mult_pdn_bearerstatus_mismatch.LW
p980
aVtc_322_092_smooth_move_ef_service_request_data_wf_paging_response.LW
p981
aVtc_324_069_af_modify_bearer_dedicated_bearer_fail.LW
p982
aVtc_327_552_Recovery_for_DDN__Service_Request_while_waiting_for_Ue_Backup_Response.LW
p983
aVtc_241_152_intra_rau_wait_for_delete_session_resp_interfere_by_poweroff_detach.LW
p984
aVtc_277_100_tau_inter_old_unauthenticated_emergency_ongoing_no_clr.LW
p985
aVtc_578_23_check_usc_report.LW
p986
aVtc_172_04_get_latest_cause_code_for_create_bss_pfc_nack.G14b
p987
aVtc_98_114_inter_sgsn_new_psho_one_ipv4v6_one_ipv4_daf_off.G14b
p988
aVtc_303_001_MT_CSFB_to_1xRTT_idle__S1_Reset_while_wf_Initial_Context_Setup_Response.LWG
p989
aVtc_256_135_mme_eps_srvcc_ho_source_cs_only_initial_ue_detach_request_wf_srvcc_ps_to_cs_complete_notification.LWG
p990
aVtc_327_552_Recovery_for_DDN__Service_Request_while_waiting_for_Ue_Backup_Response.LWG
p991
aVtc_326_253_Intra_TAU_Recovery_fail_retrieval_response_with_unexpected_revision_number.LWG
p992
aVtc_238_026_mme_eps_irat_ho_target__multi_pdn_sgw_relocation_setup_fails.LWG
p993
aVtc_44_004_small_restart__sctp_fe_restart.LWG
p994
aVtc_44_870_mme_assoc_reestablish__board_block_deblock_s1_mme.LWG
p995
aVtc_53_54_inter_new_srns_reloc_ef_reset_1_pdp_wf_rab_delete_response.LWG
p996
aVtc_73_41_gtpu_sgsn_dont_send_gpu_echo_request_w.LWG
p997
aVtc_110_001_inbound_outbound_pf_policy_cli.LWG
p998
aVtc_110_003_inbound_outbound_pf_rule_cli_icmp.LWG
p999
aVtc_110_004_inbound_outbound_pf_rule_cli_udp_sctp_tcp.LWG
p1000
aVtc_257_35_pws_etws_write_replace_warning_request_when_olp_rshl_false.LWG
p1001
aVtc_241_801_israu_interfering_context_request_no_cancel_location_s4.LWG
p1002
aVtc_666_06_block_rt_board.LWG
p1003
aVtc_666_02_reboot_ss7_board.LWG
p1004
aVtc_274_403_DDN_with_cc6_interfere_intra_tau_with_sgw_change_active_flag_on.LWG
p1005
aVtc_209_31_sms_mo.LWG
p1006
aVtc_347_237_GW_Dedicated_Bearer_Deactivate__Location_Report_while_waiting_for_Deactiavte_EPS_Bearer_Context_Accept.LWG
p1007
aVtc_250_67_s6d_activation_with_EPS_data_s4_license_off.LWG
p1008
aVtc_306_1130_ef_seamless_move_target_receive_detach_request_with_switchoff_wf_service_request.LWG
p1009
aVtc_306_1200_ef_seamless_move_target_receive_hss_reset.LWG
p1010
aVtc_324_455_ef_detach_request_poweroff_abort_wf_rab_assignment_response_wf_update_location_hss_service_req_data.LWG
p1011
aVtc_19_26_moving_2_mss_to_different_targets.LWG
p1012
aVtc_243_081_tau_from_sgsn_s3_without_sgw_node_name.LWG
p1013
aVtc_23_13_israu_out.LWG
p1014
aVtc_23_09_transfer_to_primary_and_change_vip_addr.LWG
p1015
aVtc_245_340_israu_new_l_to_w_with_GBR_dedicated_bearer_ipv6_3gdt.W14b
p1016
aVtc_26_082_israu_qos_neg_preserved.W14b
p1017
aVtc_334_254_service_req_multi_pdn_restart_counter_changed.W14b
p1018
aVtc_12_130_service_request_transfer_to_attached_ms_fraud.W14b
p1019
aVtc_318_150_sgw_restart_af_invalid_restart_counter.L14b
p1020
aVtc_346_492_Small_Restart__No_Terminate_when_UE1_Attach_waiting_for_CCA_Initial_UE2_Attach_waiting_for_MBR.L14b
p1021
aVtc_346_491_Small_Restart__Terminate_when_UE1_PDN_Connectivity_waiting_for_CCAI_UE2_Location_Report_waiting_for_CCAU.L14b
p1022
aVtc_346_495_Small_Local_Restart__No_Terminate_when_UE1_Attach_waiting_for_CCA_Initial_UE2_Attach_waiting_for_MBR.L14b
p1023
aVtc_346_490_Small_Restart__Terminate_when_UE_S1_release.L14b
p1024
aVtc_44_004_small_restart__sctp_fe_restart.L14b
p1025
aVtc_220_403_csfb_to_1xrtt_in_ecm_connected_path_switch_request_HO_success.L14b
p1026
aVtc_195_416_ue_trace_deactivate_trace_s1_intra_system_handover_triggered.L14b
p1027
aVtc_202_02_ecm_idle_s1_release.L14b
p1028
aVtc_202_421_af_seamless_move_target_initialCtxSetupResponse_noSuccDefaultBearer_implicit_detach.L14b
p1029
aVtc_329_003_attach_rs_allowed_emergency_plmn_change_ula_fails.L14b
p1030
aVtc_329_310_s1_inter_ho_target_rs_restricted.L14b
p1031
aVtc_193_152_tau_req_during_auth_ue.L14b
p1032
aVtc_262_1031_emergency_imsi_attach_multiple_pgw_try_next_pgw_fqdn_error.L14b
p1033
aVtc_262_1055_imsi_attach_with_csg_id_is_rejected.L14b
p1034
aVtc_33_17_isc_rau_authenticating_interrupted_by_subscription_withdrawn.WG14a
p1035
aVtc_324_131_af_service_request_data_isd_timeout_3gdt.WG14a
p1036
aVtc_334_290_service_req_relocation_multi_3gdt_ef_iu_release_when_wf_rab_assignment_response.W14b
p1037
aVtc_39_187_detach_trigger_re_attach_new_iu.W14b
p1038
aVtc_241_705_intra_rau_with_sgw_change_isd_with_odb_bit_15_EF_interfer_by_update_bearer_req.W14b
p1039
aVtc_11_251_apnresolving_apnopid_hplmn_present_regional_apn.W14b
p1040
aVtc_236_040_s4_3gdt_detach_during_waiting_for_modify_bearer_rsp_in_service_request_procedure.W14b
p1041
aVtc_298_434_ms_init_deact_ef_default_bearer_deact_interfered_by_detach_request.W14b
p1042
aVtc_298_438_ms_init_deact_ef_delicated_bearer_deact_interfered_by_deactivate_pdp_request_pdn_level.W14b
p1043
aVtc_327_610_Inter_TAU_SGW_Changed_then_Intra_TAU_while_waiting_for_20s_timeout.LW
p1044
aVtc_203_001_mme_eps_handover_source_inter_with_enodeb_status_transfer.LW
p1045
aVtc_218_405_tau_abort_nas_non_delivery_indication_security_mode_command.LW
p1046
aVtc_304_266_tau_from_gnsgsn_2g_control_mode_wf_delete_all_bearers_response_exception_case_reject_congestion_subscriber_cancelled.LW
p1047
aVtc_103_1101_resending_AIR_interfering_CLR.LW
p1048
aVtc_204_901_mme_eps_ho_target_insert_subscriber_data_with_odb_bit0_during_wf_tau_complete.LW
p1049
aVtc_346_491_Small_Restart__Terminate_when_UE1_PDN_Connectivity_waiting_for_CCAI_UE2_Location_Report_waiting_for_CCAU.LW
p1050
aVtc_346_490_Small_Restart__Terminate_when_UE_S1_release.LW
p1051
aVtc_194_077_cli_get_subscriber_during_ul.LW
p1052
aVtc_322_098_smooth_move_ef_reset_wf_service_request.LW
p1053
aVtc_009_001_attach_after_restart.LW
p1054
aVtc_326_406_Inter_TAU_Recovery_Unkonwn_GUTI__1xrtt_CS_Registration_Then_CSFB_To_1xRTT.LW
p1055
aVtc_202_564_seamless_move_target_Connected_mode_Emergency_Type_A__service_request_with_CSG_Id_after_ULA.LW
p1056
aVtc_47_002_imsi_attach_ap_gain.LW
p1057
aVtc_276_045_Inter_TAU_New_MME__S1_Reset_while_waiting_for_Identity_Response__enhanced_imei_check.LW
p1058
aVtc_324_114_af_all_gbr_dedicated_bearer_fail_3gdt.LW
p1059
aVtc_324_113_af_no_frca_service_request_data_rab_partially_setup_3gdt.LW
p1060
aVtc_324_420_ef_payload_buffered.LW
p1061
aVtc_197_312_visiting_attach_static_pgw_in_hplmn.LW
p1062
aVtc_12_512_pmm_undefined_attach_when_updating_location_interfered_by_rnc_reset.LW
p1063
aVtc_23_09_transfer_to_primary_and_change_vip_addr.LW
p1064
aVtc_79_082_sgsn_init_modification_rnc_not_supporting_modify_cause19.LW
p1065
aVtc_39_046_attach_move_timeout_during_israu_old.LW
p1066
aVtc_39_601_mas_unsucc_fwd_reloc_resp_mandatory_ie_missing_stop_source.LW
p1067
aVtc_220_007_csfb_to_1xrtt_ue_return_with_extended_service_request.LW
p1068
aVtc_306_1305_ef_seamless_move_target_buffer_create_bearer_request.LWG
p1069
aVtc_239_011_israu_interfering_context_request_no_cancel_location_s4.LWG
p1070
aVtc_259_30_af_provide_subscriber_information_g_imsi_unknown.LWG
p1071
aVtc_220_585_csfb_to_1xrtt_in_ecm_idle_extended_service_request_as_paging_response_downlink_data_notification.LWG
p1072
aVtc_220_025_csfb_to_1xrtt_ue_suspended_hss_reset.LWG
p1073
aVtc_103_1100_resending_AIR_dpl_changed.LWG
p1074
aVtc_204_901_mme_eps_ho_target_insert_subscriber_data_with_odb_bit0_during_wf_tau_complete.LWG
p1075
aVtc_298_438_ms_init_deact_ef_delicated_bearer_deact_interfered_by_deactivate_pdp_request_pdn_level.LWG
p1076
aVtc_318_116_sgw_restart_mf_one_pdn_with_relocate_by_ReleaseAccessBearersResponse.LWG
p1077
aVtc_73_41_gtpu_sgsn_dont_send_gpu_echo_request_w.LWG
p1078
aVtc_92_0620_remove_member_from_suspended_pm_job.LWG
p1079
aVtc_666_06_block_rt_board.LWG
p1080
aVtc_666_02_reboot_ss7_board.LWG
p1081
aVtc_322_029_smooth_move_af_security_mode_reject.LWG
p1082
aVtc_100_65_intra_w_to_g_unknown_target_cell.LWG
p1083
aVtc_205_71_01_ss7_SCCP_CR_DT1_RLSD.LWG
p1084
aVtc_276_370_Inter_TAU_New_MME__Attach_Request_while_waiting_for_Create_Session_Response_sgw_unavailable.LWG
p1085
aVtc_81_074_ms_modify_upgrade_to_conv_no_resources.LWG
p1086
aVtc_166_428_rnc_initiated_rab_release_interfered_by_rnc_initiated_iu_release_request.LWG
p1087
aVtc_202_18_downlink_data_after_s1_release.LWG
p1088
aVtc_236_107_s4_3gdt_based_on_sr_change_DtThresholdNumber.LWG
p1089
aVtc_346_510_AF__TAU_Inter_New__2PDN_one_fail_in_enodeb.LWG
p1090
aVtc_578_33_check_ebm_para_statistics_enb_sn.LWG
p1091
aVtc_578_32_check_ebm_para_statistics_ue_return_duration.LWG
p1092
aVtc_324_386_ef_mt_sms_wf_frcn_wf_frca_wf_ula.LWG
p1093
aVtc_326_274_Periodic_Intra_TAU_with_unknown_GUTI_old_SGW_unavailable.LWG
p1094
aVtc_326_406_Inter_TAU_Recovery_Unkonwn_GUTI__1xrtt_CS_Registration_Then_CSFB_To_1xRTT.LWG
p1095
aVtc_232_403_bfd__ipv4ipv6_alarm.LWG
p1096
aVtc_132_002_create_ip_interface_eth.LWG
p1097
aVtc_318_116_sgw_restart_mf_one_pdn_with_relocate_by_ReleaseAccessBearersResponse.L14b
p1098
aVtc_262_1055_imsi_attach_with_csg_id_is_rejected.L14b
p1099
aVtc_243_202_tau_from_sgsn_s3_get_new_sgw_two_pdn_connections_first_ok_second_failed.L14b
p1100
aVtc_238_178_mme_eps_irat_Gn_ho_target__type_c_emc_cancel.L14b
p1101
aVtc_306_1335_ef_seamless_move_target_receive_cli_delete_subscriber_wf_service_request.L14b
p1102
aVtc_206_023_ebm_server_connection_failed.L14b
p1103
aVtc_266_020_DownlinkDataFailureInd_repeat_paging_timer_on.L14b
p1104
aVtc_327_704_recovery_service_request__pdn_req_fail_while_wf_ULA_fail.L14b
p1105
aVtc_225_321_mt_call_active_mode_nas_non_delivery__cs_service_notification__handover_required_meanwhile_CBR_received.L14b
p1106
aVtc_103_860_ue_trace_retransmit.L14b
p1107
aVtc_293_041_X2_Based_HO__Sgw_reloc__Downlink_A21_AIS_while_wf_Delete_Session_Response.L14b
p1108
aVtc_346_491_Small_Restart__Terminate_when_UE1_PDN_Connectivity_waiting_for_CCAI_UE2_Location_Report_waiting_for_CCAU.L14b
p1109
aVtc_346_490_Small_Restart__Terminate_when_UE_S1_release.L14b
p1110
aVtc_276_045_Inter_TAU_New_MME__S1_Reset_while_waiting_for_Identity_Response__enhanced_imei_check.L14b
p1111
aVtc_214_312_combined_tau_intra_la_change_new_msc_while_wf_tau_complete.L14b
p1112
aVtc_214_1092_la_selection_mf_oldmscpreferred_combined_intra_tau_with_imsi_attach_after_ue_initiated_imsi_detach.L14b
p1113
aVtc_244_535_SLg_Location_Request__Downlink_A21_AIS_wwf_Location_Response_from_ESMLC.L14b
p1114
aVtc_43_101__removal_of_disconnected_eNodeBs__CLI_removal.L14b
p1115
aVtc_44_004_small_restart__sctp_fe_restart.L14b
p1116
aVtc_303_004_X2_Based_HO__Downlink_A21_AIS_while_wf_TAU_Request_and_Emm_Information_in_nas_nondeliver.L14b
p1117
aVtc_326_406_Inter_TAU_Recovery_Unkonwn_GUTI__1xrtt_CS_Registration_Then_CSFB_To_1xRTT.L14b
p1118
aVtc_44_860_mme_assoc_reestablish__sctp_fe_restart_s1_mme.LW
p1119
aVtc_50_019_activate_background_16oct_16mbit_fls_and_policy_limit_4mbit.LW
p1120
aVtc_267_010_Service_Request__Service_Request_while_waiting_for_Modify_Bearer_Response_Downlink_Data.LW
p1121
aVtc_76_026_deactivate_ggsn_initiated_ms_deactivate_request.LW
p1122
aVtc_32_75_test_transfer_2.LW
p1123
aVtc_303_002_Service_Request__Downlink_A21_AIS_while_wf_Initial_Context_Setup_Response__Extended_Service_Request_while_wf_Initial_Context_Setup_Response.LW
p1124
aVtc_28_052_mo_sms_homer_block_visiting_redirection.LW
p1125
aVtc_218_311_tau_from_sgsn_preserved_gbr_bearer_buffer_1_ubr_1_cbr.LW
p1126
aVtc_346_600_Location_Based_Policies__User_Location_Changes_Sx_Only_2_CCR_for_same_PDN.LW
p1127
aVtc_346_491_Small_Restart__Terminate_when_UE1_PDN_Connectivity_waiting_for_CCAI_UE2_Location_Report_waiting_for_CCAU.LW
p1128
aVtc_346_490_Small_Restart__Terminate_when_UE_S1_release.LW
p1129
aVtc_206_010_attach_while_only_streaming.LW
p1130
aVtc_206_014_activate_EbmStream_ebm_feature_off.LW
p1131
aVtc_206_021_ebm_server_crashes_and_recovers_while_attached.LW
p1132
aVtc_206_024_ebm_server_modify_ip.LW
p1133
aVtc_206_101_Ccheck_EventJob_EbmStream_ip_configuration.LW
p1134
aVtc_244_535_SLg_Location_Request__Downlink_A21_AIS_wwf_Location_Response_from_ESMLC.LW
p1135
aVtc_194_991_downlink_A21_AIS_during_waiting_location_report__idr_flags_ef.LW
p1136
aVtc_250_182_s6d_inter_new_rau_ul_rejected_roaming_not_allowed_remap_on_with_err_diag.LW
p1137
aVtc_250_105_ignore_IDR_when_EPS_sub_downgrade_GPRS_sub.LW
p1138
aVtc_298_058_S4_Network_Request_Secondary_PDP_Activation_class_Streaming_3GDT.LW
p1139
aVtc_298_062_S4_nrspca_s4_connected_TI_Different_Reject_to_UE.LW
p1140
aVtc_298_104_EF_NRSPCA_S4_Detach_from_MS_NRSPCA.LW
p1141
aVtc_298_111_EF_NRSPCA_S4_interfere_Deactivation_from_MS.LW
p1142
aVtc_298_420_ms_init_deact_af_no_delete_session_response_multiple_pdn_multiple_pdp.LW
p1143
aVtc_298_421_ms_init_deact_af_no_del_bearer_req_and_no_del_session_res_after_retransmission.LW
p1144
aVtc_298_425_ms_init_deact_ef_default_bearer_deact_interfered_by_rab_release_request.LW
p1145
aVtc_298_423_ms_init_deact_ef_pgw_init_dedicated_bearer_deletion_wf_delete_bearer_cmd.LW
p1146
aVtc_241_342_eul11m_israu_new_with_bearer_sgw_unchange_mf_s4.LW
p1147
aVtc_241_404_israu_new_with_16m_flag_not_allowed_in_context_response_transfer_to_new_tcw.LW
p1148
aVtc_241_406_intra_rau_new_with_16m_flag_allowed_in_rau_req_transfer_to_new_tcw.LW
p1149
aVtc_241_420_israu_new_sgw_change_4_pdn_buffer_ubr_s6d_on.LW
p1150
aVtc_241_423_israu_new_g_to_w_sgw_change_2_pdn_buffer_ubr.LW
p1151
aVtc_241_432_intra_rau_with_bearer_sgw_unchange_2_pdns_3gdt.LW
p1152
aVtc_241_433_inter_rau_with_bearer_sgw_unchanged_sncr_off.LW
p1153
aVtc_241_437_israu_new_s4_to_s4_imei_check_and_sgw_selection_fail.LW
p1154
aVtc_241_440_israu_old_with_dedicated_bearer_mf_s4.LW
p1155
aVtc_241_446_israu_new_with_dedicated_bearer_create_session_response_dedicated_bearer_failed.LW
p1156
aVtc_241_448_israu_new_with_bearer_sgw_change_NRSPCA_disabled_flag_is_one.LW
p1157
aVtc_241_450_israu_new_with_two_pdn_sgw_change_mf_s4_dual_stack.LW
p1158
aVtc_241_637_intra_rau_with_bearer_sgw_change_with_3gdt_wait_rau_complete_interfer_by_sgsn_context_req.LW
p1159
aVtc_359_131_handover_from_3gpp_ef_delete_bearer_during_waiting_for_modify_bearer_rep.LW
p1160
aVtc_243_206_tau_from_sgsn_s3_keep_old_sgw_two_pdn_connections_first_ok_second_failed.LW
p1161
aVtc_318_107_sgw_restart_mf_one_of_pdns_create_after_sgw_restart.LW
p1162
aVtc_318_201_idle_deactivate_dedicated_bearers_one_by_one_reactivate_req.LW
p1163
aVtc_326_406_Inter_TAU_Recovery_Unkonwn_GUTI__1xrtt_CS_Registration_Then_CSFB_To_1xRTT.LW
p1164
aVtc_280_123_activate_dedicated_bearer_sgw_reject_during_service_request.LW
p1165
aVtc_284_411_pdn_connectivity__check_unsorted_bearer_ids_after_newly_adding_default_bearers_with_another_pdn.LW
p1166
aVtc_295_130_Intra_S1_HO__Sgw_reloc__Downlink_A21_AIS_while_waiting_for_Delete_Session_Response.LW
p1167
aVtc_304_213_isc_control_mode_threshold_exceeded_wf_session_response_reject.LW
p1168
aVtc_225_610_exp_flow_context_request_while_wf_extended_service_request.LW
p1169
aVtc_342_084_x3_maximum_payload.LW
p1170
aVtc_12_4_attach_ptmsi_signalling_connection_release.LW
p1171
aVtc_324_386_ef_mt_sms_wf_frcn_wf_frca_wf_ula.LW
p1172
aVtc_324_424_ef_payload_buffered_wf_security_mode_complete_payload_different_contextId.LW
p1173
aVtc_51_015_intra_srns_reloc_rau_request_with_invalid_mandatory_info.LW
p1174
aVtc_51_051_reloc_wf_reloc_req_ack_interrupted_by_service_request_new_rai_new_iu.LW
p1175
aVtc_51_042_reloc_wf_reloc_comp_interrupted_by_target_rnc_reset.LW
p1176
aVtc_51_061_reloc_wf_reloc_request_ack_interrupted_by_source_iu_release.LW
p1177
aVtc_52_30_reloc_wf_forw_rel_resp_interrupted_by_detach_on_new_iu.LW
p1178
aVtc_209_20_target_info_query_id_format_error.LW
p1179
aVtc_209_25_attach_detach_imsi_msisdn_imei.LW
p1180
aVtc_209_44_sgsn_init_pdp_modification.LW
p1181
aVtc_327_560_Recovery_for_DDN__Cancel_Location_WithDraw_while_waiting_for_Ue_Backup_Response.LW
p1182
aVtc_335_24_wifi_to_mobility_in_ecm_idle_mf__all_cells_succeed_from_home_eNB.LW
p1183
aVtc_237_062_mme_eps_irat_ho_source__equipement_blacklisted_wwf_Cancel_Location.LW
p1184
aVtc_345_003_mf__mo_csfb_with_psho__ecm_idle_Gn.LWG
p1185
aVtc_310_010_mf__S3_new_SGW_1_voice_bearer_1_non_em_PDN_1_em_PDN_conf_dont_send_em_PDN.LWG
p1186
aVtc_74_041_oms_mmi.LWG
p1187
aVtc_303_001_MT_CSFB_to_1xRTT_idle__S1_Reset_while_wf_Initial_Context_Setup_Response.LWG
p1188
aVtc_303_003_Intra_S1_HO__Downlink_A21_AIS_while_wf_Handover_Request_Ack__Reset_from_source_eNB_while_wf_Handover_Notify.LWG
p1189
aVtc_666_06_block_rt_board.LWG
p1190
aVtc_666_02_reboot_ss7_board.LWG
p1191
aVtc_231_227_PGW_Initiated_Modification_EARP_idle_one_tunnel.LWG
p1192
aVtc_119_101_ospf_area_cli.LWG
p1193
aVtc_73_21_itc_gtpu_s4_sgsn_send_echo_request_w.LWG
p1194
aVtc_78_055_intra_rau_forced_csps_coord_accept_home_ms.LWG
p1195
aVtc_78_309_mocn_iu_released_israu_new_sgsn_one_context_cc194_reject_ggsn_delete_fail.LWG
p1196
aVtc_327_373_recovery_service_request__initial_extended_service_request_while_waiting_for_Location_Update_Response.LWG
p1197
aVtc_265_102_Detach_Flow_NW_init__Reattach_Required_Attach_Request_while_waiting_for_Context_Release_Complete.LWG
p1198
aVtc_297_304_inter_rau_new_unknow_old_sgsn_with_imsi_in_bssgp_reject.LWG
p1199
aVtc_297_251_inter_home_wo_imsi_auth_success_update_location_fail_other_reason.LWG
p1200
aVtc_297_313_isc_gn_l_to_g_home_user_rr_cc13.LWG
p1201
aVtc_297_315_isc_gn_l_to_g_roaming_user_wo_imsi_rr_cc15.LWG
p1202
aVtc_297_514_intra_rau_isc_w_to_g_roaming_auth_info_failed_with_cause_unexpected_data_value.LWG
p1203
aVtc_297_518_inter_rau_home_update_loc_ack_with_cause_system_failure.LWG
p1204
aVtc_267_011_Service_Request__Service_Request_while_waiting_for_Initial_Ctx_Setup_Response_Dedicated.LWG
p1205
aVtc_52_29_inter_old_srns_reloc_main_flow_interfered_by_identific_req.LWG
p1206
aVtc_325_104_inter_old_srns_reloc_s4_to_gn_waiting_for_forward_relocation_complete_timeout.LWG
p1207
aVtc_205_40_ss7_M3ua.LWG
p1208
aVtc_314_086_hss_init_qos_mod_wf_ubr_ef_ms_initiated_detach_request.LWG
p1209
aVtc_59_9_mtmsi_restart_counter.LWG
p1210
aVtc_259_52_isd_tads_s4_w_pmmidle_inter_rau_l_to_w.LWG
p1211
aVtc_232_401_bfd__ipv4_alarm.LWG
p1212
aVtc_313_012_inter_new_srns_reloc_s16_with_sgw_change_two_pdns_with_dedicate_bearer_setup_rabs_one_pdn_failed.LWG
p1213
aVtc_179_321_Ccheck_ipsec_sa.LWG
p1214
aVtc_212_016_Ccheck_qos_policymap_w.LWG
p1215
aVtc_250_105_ignore_IDR_when_EPS_sub_downgrade_GPRS_sub.LWG
p1216
aVtc_361_154_rau_l_to_w_with_cl_not_released_eia3_eea3.LWG
p1217
aVtc_56_5_restart_during_SR.LWG
p1218
aVtc_209_21_attach_detach_imsi.LWG
p1219
aVtc_209_32_sms_mt.LWG
p1220
aVtc_209_49_attach_detach_imsi_ap_takeover.LWG
p1221
aVtc_209_57_move_non_intercepted_sim_to_intercepted_ms.LWG
p1222
aVtc_209_44_sgsn_init_pdp_modification.LWG
p1223
aVtc_209_63_isc_attach_g_to_w_activate_deactivate.LWG
p1224
aVtc_209_70_israu_new_sgsn_one_pdp_context_wrong_pdp_type.LWG
p1225
aVtc_44_850_mme_assoc_reestablish__board_restart_s1_mme.LWG
p1226
aVtc_236_107_s4_3gdt_based_on_sr_change_DtThresholdNumber.LWG
p1227
aVtc_75_024_ebs_counters_llc_suspended.LWG
p1228
aVtc_284_053_emergency_pdn_connectivity_pb_activate_1_dedicated_bearer.LWG
p1229
aVtc_76_001_deactivate_ggsn_initiated_teardown_I.LWG
p1230
aVtc_76_004_activate_secondary_deactivate_with_tdi.LWG
p1231
aVtc_76_005_deactivate_primary_gtpv0_no_tdi.LWG
p1232
aVtc_76_019_deactivate_ggsn_initiated_ms_rab_released.LWG
p1233
aVtc_54_201_enb_direct_information_destination_unknown.LWG
p1234
aVtc_206_023_ebm_server_connection_failed.LWG
p1235
aVtc_243_203_tau_from_sgsn_s3_get_new_sgw_two_pdn_connections_first_failed_second_ok.LWG
p1236
aVtc_298_001_nrspca_s4_connected_mf.LWG
p1237
aVtc_298_031_nrspca_s4_request_secondary_reject_Control_Mode_Violation.LWG
p1238
aVtc_298_145_EF_NRSPCA_interfere_Activation.LWG
p1239
aVtc_289_017_Modify_bearer__ERAB_modify_request_meanwhile_path_switch_request_HO_success.LWG
p1240
aVtc_289_047_Modify_bearer__ERAB_modify_response_s1_intra_system_handover_triggered_activate_dedicated_bearer_one_pdn_multiple_bearer.LWG
p1241
aVtc_347_229_Extended_Service_Request__RAR_while_waiting_for_Initial_UE_Context_Response_csfb_to_1xrtt_in_ecm_idle.LWG
p1242
aVtc_241_157_israu_old_wait_for_context_ack_interfere_by_reset.LWG
p1243
aVtc_241_343_eul11m_israu_new_gn_to_s4_pdp_to_bearer.LWG
p1244
aVtc_241_342_eul11m_israu_new_with_bearer_sgw_unchange_mf_s4.LWG
p1245
aVtc_241_401_israu_new_with_16m_flag_not_allowed_in_rau_request_and_sgw_unchanged.LWG
p1246
aVtc_241_404_israu_new_with_16m_flag_not_allowed_in_context_response_transfer_to_new_tcw.LWG
p1247
aVtc_241_402_israu_new_with_16m_flag_allowed_in_rau_request_and_not_allowed_in_context_response_and_sgw_changed.LWG
p1248
aVtc_241_409_israu_new_with_16m_flag_allowed_and_sgw_changed.LWG
p1249
aVtc_241_421_israu_new_sgw_change_buffer_ubr_1_create_session_no_resp_reject_ubr.LWG
p1250
aVtc_241_427_intra_rau_new_g_to_w_sgw_unchange_buffer_ubr_interferred_by_detach.LWG
p1251
aVtc_241_016_intra_rau_with_bearer_sgw_unchange_mf_s4_with_all_fTeid_undefined_service_request_data.LWG
p1252
aVtc_241_449_israu_new_with_dedicated_bearer_context_response_default_bearer_validation_failed.LWG
p1253
aVtc_241_453_israu_new_with_dedicated_bearer_gbr_sgw_change_downgrade_apnambr.LWG
p1254
aVtc_241_711_inter_rau_dedicate_bearer_feature_off_and_pgw_delete_bearer_after_rau.LWG
p1255
aVtc_241_1562_intra_rau_with_bearer_sgw_change_create_session_rejected_interfere_by_DSD.LWG
p1256
aVtc_261_03_inter_tau_isd_voip_restricted_imsins_cc91.LWG
p1257
aVtc_44_010_imsi_attach_then_crash.L14b
p1258
aVtc_44_031_config_ep_1.L14b
p1259
aVtc_44_050_sctp_s1ap_corrupt_data_length_6.L14b
p1260
aVtc_44_850_mme_assoc_reestablish__board_restart_s1_mme.L14b
p1261
aVtc_44_831_mme_assoc_reestablish__local_ep_restart_sbc.L14b
p1262
aVtc_302_221_1xrtt_srvcc_with_unauthenticated_emergency.L14b
p1263
aVtc_302_231_Timer_Based_GBR_Deact__UE_Context_Release_Request_after_A21_Ack_Sent_to_IWS_during_SRVCC_to_1xRTT.L14b
p1264
aVtc_266_020_DownlinkDataFailureInd_repeat_paging_timer_on.L14b
p1265
aVtc_341_603_x2_activity_event_tau_inter_new_sgw_unchanged.L14b
p1266
aVtc_346_301_Combination__PGW_Selection_UserLocationChange.L14b
p1267
aVtc_346_491_Small_Restart__Terminate_when_UE1_PDN_Connectivity_waiting_for_CCAI_UE2_Location_Report_waiting_for_CCAU.L14b
p1268
aVtc_346_490_Small_Restart__Terminate_when_UE_S1_release.L14b
p1269
aVtc_346_493_Small_Local_Restart__Terminate_when_UE_S1_release.L14b
p1270
aVtc_306_1335_ef_seamless_move_target_receive_cli_delete_subscriber_wf_service_request.L14b
p1271
aVtc_244_806_mt_lr_donwlink_generic_nas_transport_meanwhile_handover_required_HO_success.L14b
p1272
aVtc_204_417_mme_eps_ho_target_type_c_imsi_undefined_same_profile_emc_sup_sim_only.L14b
p1273
aVtc_204_450_mme_eps_ho_target_type_d_same_profile_emc_sup_all.L14b
p1274
aVtc_204_456_mme_eps_ho_target_type_d_emc_sgw_relocation.L14b
p1275
aVtc_204_452_mme_eps_ho_target_type_d_emc_same_plmn_emc_not_supported.L14b
p1276
aVtc_204_458_mme_eps_ho_target_type_d_emc_relocation_cancel.L14b
p1277
aVtc_204_501_mme_eps_ho_target_emergency_type_d_imei_check_answer_blacklisted_after_tau_accept_ire_true.L14b
p1278
aVtc_204_503_mme_eps_ho_target_emergency_type_a_imei_check_answer_unknown_before_tau_accept_ire_true.L14b
p1279
aVtc_327_602_Inter_TAU_Recovery__Attach_Request_while_waiting_for_Ue_Authentication_Response.L14b
p1280
aVtc_303_004_X2_Based_HO__Downlink_A21_AIS_while_wf_TAU_Request_and_Emm_Information_in_nas_nondeliver.L14b
p1281
aVtc_304_001_attach__control_mode_threshold_not_reached.L14b
p1282
aVtc_238_060_mme_eps_irat_ho_target__relocation_cancel_before_reloc_response.L14b
p1283
aVtc_326_406_Inter_TAU_Recovery_Unkonwn_GUTI__1xrtt_CS_Registration_Then_CSFB_To_1xRTT.L14b
p1284
aVtc_242_158_rau_to_sgsn_s3_emergency_not_allowed_no_pdns_transferred.L14b
p1285
aVtc_242_511_rau_to_sgsn_s3_cancel_location_update_procedure_when_wf_session_response.L14b
p1286
aVtc_242_602_rau_sgsn_s3_interrupted_by_tranfer_attach_when_wf_context_ack.L14b
p1287
aVtc_242_603_rau_sgsn_s3_interrupted_by_tranfer_attach_when_wf_session_response.L14b
p1288
aVtc_242_605_rau_sgsn_s3_sgw_change_interrupted_by_tranfer_attach_when_wf_timeout.L14b
p1289
aVtc_242_621_rau_sgsn_s3_sgsn_context_request_when_wf_session_response.L14b
p1290
aVtc_242_622_rau_sgsn_s3_context_request_when_wf_context_ack.L14b
p1291
aVtc_243_002_tau_from_sgsn_s3_keep_old_sgw_transfer_due_to_wrong_ap_index.L14b
p1292
aVtc_243_004_tau_from_sgsn_s3_keep_old_sgw_guti_timestamp_reset.L14b
p1293
aVtc_243_003_tau_from_sgsn_s3_keep_old_sgw_followed_by_paging.L14b
p1294
aVtc_243_001_tau_from_sgsn_s3_keep_old_sgw.L14b
p1295
aVtc_243_033_tau_from_sgsn_s3_ptmsi_signature_mismatch_twice.L14b
p1296
aVtc_276_045_Inter_TAU_New_MME__S1_Reset_while_waiting_for_Identity_Response__enhanced_imei_check.L14b
p1297
aVtc_103_001_destination_host_is_peer.L14b
p1298
aVtc_103_207_sticky_hss_host_name_primary_host_down.L14b
p1299
aVtc_103_1102_fallback_to_imsins_success.L14b
p1300
aVtc_273_247_tau_intra__sgw_reloc_mult_pdn_connections_active_2_ok_1_fail.L14b
p1301
aVtc_295_008_Intra_S1_HO__Attach_req_while_wf_handover_request_acknowledge.L14b
p1302
aVtc_295_011_Intra_S1_HO__Detach_request_from_source_eNB_without_switch_off_while_wf_handover_notify.L14b
p1303
aVtc_295_013_Intra_S1_HO__Detach_request_while_wf_modify_bearer.L14b
p1304
aVtc_295_023_Intra_S1_HO__TAU_request_in_uplink_nas_from_target_while_wf_modify_bearer_response.L14b
p1305
aVtc_209_44_sgsn_init_pdp_modification.W14b
p1306
aVtc_26_009_ms_initiated_pdp_context_modification_MBR_set_to_zero.W14b
p1307
aVtc_11_231_activate_primary_after_LR_II.W14b
p1308
aVtc_236_071_hard_ho_intra_rau_with_3gdt_bearer_sgw_change_without_seq.W14b
p1309
aVtc_578_02_check_parse_ebm_and_ci_eci_w.WG14a
p1310
aVtc_208_22_attach_detach_imsi.G14b
p1311
aVtc_208_31_sms_mo.G14b
p1312
aVtc_208_43_interception_after_small_restart.G14b
p1313
aVtc_324_042_af_gbr_higher_than_policymap.WG14a
p1314
aVtc_256_136_mme_eps_srvcc_ho_source_cs_only_uplink_detach_request_wf_delete_bearer_request.LW
p1315
aVtc_256_143_mme_eps_srvcc_ho_source_cs_only_initial_ue_extended_service_request_wf_srvcc_ps_to_cs_response.LW
p1316
aVtc_12_134_attach_with_extended_mmumoc_iu_inactivity_timer.LW
p1317
aVtc_311_103_intra_srns_reloc_s4_pool_move_in_progress.LW
p1318
aVtc_311_199_intra_srns_reloc_s4_sgw_change_wf_modify_bearer_rsp_interrupted_by_target_rnc_reset.LW
p1319
aVtc_311_21_intra_srns_reloc_s4_without_sgw_change_3gdt_flow_preserved_default_bearer.LW
p1320
aVtc_311_116_intra_srns_reloc_s4_sgw_reloc_two_pdns_create_session_request_rejected.LW
p1321
aVtc_311_34_intra_srns_reloc_s4_roaming_user_with_eps_subscription_with_local_rfsp.LW
p1322
aVtc_311_25_intra_srns_reloc_s4_without_sgw_change_serving_network_trigger_mbr.LW
p1323
aVtc_311_22_intra_srns_reloc_s4_with_sgw_change_3gdt_service_request_frequency.LW
p1324
aVtc_53_154_inter_new_srns_reloc_ipv6andipv6_pdptype_ipv6_sysprop_not_supported.LW
p1325
aVtc_292_134_x2_ho_with_sgw_relocation_dedicated_bearers_failed_in_eNb.LW
p1326
aVtc_209_19_target_info_query_ms_unknown.LW
p1327
aVtc_209_36_start_of_interception_imsi_msisdn_imei.LW
p1328
aVtc_298_081_eul11m_nrspca_s4_connected_mf.LW
p1329
aVtc_298_101_EF_NRSPCA_S4_Deactivate_from_MS_Security.LW
p1330
aVtc_298_110_EF_NRSPCA_S4_Deactivation_from_S4SGSN_APN_after_paging_req.LW
p1331
aVtc_298_111_EF_NRSPCA_S4_interfere_Deactivation_from_MS.LW
p1332
aVtc_298_429_ms_init_deact_ef_default_bearer_deact_interfered_by_delete_bearer_request.LW
p1333
aVtc_298_437_ms_init_deact_ef_delicated_bearer_deact_interfered_by_deactivate_pdp_request_bearer_level.LW
p1334
aVtc_298_441_ms_init_deact_ef_delicated_bearer_deact_interfered_by_default_bearer_deact_without_tdi.LW
p1335
aVtc_298_506_pgw_init_deletion_af_ebi_part_of_ebi_not_exist.LW
p1336
aVtc_51_035_reloc_wf_reloc_comp_interrupted_by_normal_detach_on_target_iu.LW
p1337
aVtc_303_003_Intra_S1_HO__Downlink_A21_AIS_while_wf_Handover_Request_Ack__Reset_from_source_eNB_while_wf_Handover_Notify.LW
p1338
aVtc_303_001_MT_CSFB_to_1xRTT_idle__S1_Reset_while_wf_Initial_Context_Setup_Response.LW
p1339
aVtc_313_228_inter_new_srns_reloc_s16_with_sgw_change_rau_request_initial_ue_received_wf_rau_complete.LW
p1340
aVtc_342_111_set_two_target_and_modify_one_x2_addr_with_same_connection.LW
p1341
aVtc_241_344_eul11m_israu_old_with_bearer_from_s4_to_gn.LW
p1342
aVtc_241_404_israu_new_with_16m_flag_not_allowed_in_context_response_transfer_to_new_tcw.LW
p1343
aVtc_241_421_israu_new_sgw_change_buffer_ubr_1_create_session_no_resp_reject_ubr.LW
p1344
aVtc_241_409_israu_new_with_16m_flag_allowed_and_sgw_changed.LW
p1345
aVtc_241_430_israu_new_gn_to_s4_sgw_change_1_pdn_buffer_ubr.LW
p1346
aVtc_241_424_intra_rau_w_sgw_change_2_pdn_buffer_2_ubr.LW
p1347
aVtc_241_431_intra_rau_with_bearer_sgw_unchange_2_pdns_with_one_modify_no_response.LW
p1348
aVtc_241_435_israu_new_s4_to_s4_illegal_me_in_imei_after_israu.LW
p1349
aVtc_241_437_israu_new_s4_to_s4_imei_check_and_sgw_selection_fail.LW
p1350
aVtc_241_440_israu_old_with_dedicated_bearer_mf_s4.LW
p1351
aVtc_241_442_israu_old_with_dedicated_bearer_from_s4_to_gn.LW
p1352
aVtc_241_449_israu_new_with_dedicated_bearer_context_response_default_bearer_validation_failed.LW
p1353
aVtc_241_308_intra_rau_with_bearer_sgw_change_then_intra_rau_sgw_unchange.LW
p1354
aVtc_241_619_intra_rau_with_dedicated_bearer_sgw_change_wait_security_mode_complete_handle_dbr.LW
p1355
aVtc_241_801_israu_interfering_context_request_no_cancel_location_s4.LW
p1356
aVtc_241_1621_intra_rau_in_one_RNC_with_bearer_sgw_changed_wf_current_rab_released_buffer_ubr_3gdt.LW
p1357
aVtc_306_1130_ef_seamless_move_target_receive_detach_request_with_switchoff_wf_service_request.LW
p1358
aVtc_306_1335_ef_seamless_move_target_receive_cli_delete_subscriber_wf_service_request.LW
p1359
aVtc_238_061_mme_eps_irat_ho_target__no_modify_bearer_response_tau_req.LW
p1360
aVtc_194_010_cl_subscription_withdrawn_detached.LW
p1361
aVtc_194_138_cl_subscription_withdrawn_idle.LW
p1362
aVtc_346_491_Small_Restart__Terminate_when_UE1_PDN_Connectivity_waiting_for_CCAI_UE2_Location_Report_waiting_for_CCAU.LW
p1363
aVtc_346_490_Small_Restart__Terminate_when_UE_S1_release.LW
p1364
aVtc_39_921_ef_seamless_move_interrupted_by_normal_attach.LW
p1365
aVtc_274_380_Intra_and_pTAU__Downlink_A21_AIS_while_waiting_for_Create_Session_Response.LW
p1366
aVtc_244_046_mt_lr_service_request_received_wf_location_report.LW
p1367
aVtc_50_015_activate_interactive_16Mbit_downgraded_by_rnc_ggsn.LW
p1368
aVtc_50_080_activate_interactive_16oct_84mbit_get_16oct_84mbit.LW
p1369
aVtc_44_850_mme_assoc_reestablish__board_restart_s1_mme.LW
p1370
aVtc_289_019_Modify_bearer__ERAB_modify_request_meanwhile_path_switch_request_HO_success_TAU.LW
p1371
aVtc_324_420_ef_payload_buffered.LW
p1372
aVtc_324_426_ef_payload_buffered_wf_security_mode_complete_payload_different_pdn_non_3gdt.LW
p1373
aVtc_206_013_activate_EbmStream_requestedJobState_STOPPED.LW
p1374
aVtc_206_021_ebm_server_crashes_and_recovers_while_attached.LW
p1375
aVtc_206_024_ebm_server_modify_ip.LW
p1376
aVtc_206_101_Ccheck_EventJob_EbmStream_ip_configuration.LW
p1377
aVtc_206_102_Ccheck_EventJob_EbmStream_with_FileOutputEnabled_true.LW
p1378
aVtc_307_053_IRAT_Mobility__TAU_from_W_S4SGSN_buffered_UBR.LW
p1379
aVtc_04_37_gprs_imsi_attach_imsi_attach_in_ready_state.G14b
p1380
aVtc_297_122_inter_rau_new_transfered_s4_home_accept.G14b
p1381
aVtc_217_106_rau_to_sgsn_tau_request_when_wf_20s_timeout_delete_session_transaction_failed.LWG
p1382
aVtc_217_070_rau_to_sgsn_pdn_disconnect_when_wf_20s_timeout.LWG
p1383
aVtc_275_020_tau_inter_new_imsi_ns_access_restricted.LWG
p1384
aVtc_69_003_block_unblock_of_ptp_bvc.LWG
p1385
aVtc_69_005_bssgp_cli_commands.LWG
p1386
aVtc_69_006_bssgp_pm_counters_bss_pfc.LWG
p1387
aVtc_288_241_pgw_init_bearer_mod_AMBR_change_odd_update_bearer_format.LWG
p1388
aVtc_209_26_attach_reject_imsi.LWG
p1389
aVtc_209_28_sgsn_initiated_pdp_deactivate_imsi.LWG
p1390
aVtc_209_24_attach_detach_imei.LWG
p1391
aVtc_209_30_pdp_context_reject_imsi.LWG
p1392
aVtc_209_27_pdp_activate_deactivate_imsi.LWG
p1393
aVtc_209_153_ul_payload_msisdn_imsi_imei.LWG
p1394
aVtc_209_41_inter_srns_new_sgsn_msisdn.LWG
p1395
aVtc_74_020_oms_mmi.LWG
p1396
aVtc_53_155_inter_new_srns_reloc_ipv4_and_ipv4v6_daf_off.LWG
p1397
aVtc_73_03_send_payload_for_nonexisting_teid.LWG
p1398
aVtc_73_45_echo_ping.LWG
p1399
aVtc_295_006_Intra_S1_HO_Attach_request_from_source_eNB_while_wf_handover_notify.LWG
p1400
aVtc_326_406_Inter_TAU_Recovery_Unkonwn_GUTI__1xrtt_CS_Registration_Then_CSFB_To_1xRTT.LWG
p1401
aVtc_92_0180_oms_pm_A27_02.LWG
p1402
aVtc_248_164_inter_l_to_w_new_iu_release_request_none_user_inactivity_received_wf_forward_relocation_complete_ack.LWG
p1403
aVtc_211_022_streamed_cell_trace_mapping_stream_only_ipv6.LWG
p1404
aVtc_212_0230_Ccheck_QosPolicyProfile.LWG
p1405
aVtc_230_236_activate_ipv4_visitor_requested_ipv4v6_subscribed_ipv4_aifav_true_aifv_true.LWG
p1406
aVtc_230_518_activation_reject_due_to_empty_apn_when_license_off_in_gprs_sub.LWG
p1407
aVtc_107_101_eth_vlan_cli.LWG
p1408
aVtc_67_006_ms_initiated_xid_negotiation_of_ack_mode_parameters.LWG
p1409
aVtc_44_851_mme_assoc_reestablish__board_restart_sbc.LWG
p1410
aVtc_280_001_activate_1_dedicated_bearer.LWG
p1411
aVtc_39_771_mas_rnc_reset_when_wf_ptmsi_realloc_cmpl_source.LWG
p1412
aVtc_119_101_ospf_area_cli.LWG
p1413
aVtc_119_202_ospf_interface_opt_vals.LWG
p1414
aVtc_231_275_rab_release_si_deactivate_with_TDI_false_TI_dedicated_bearer.LWG
p1415
aVtc_294_125_s1_intra_handover_with_csg_id_reject_after_Update_Location_Answer.LWG
p1416
aVtc_220_575_csfb_to_1xrtt_in_ecm_connected_extended_service_request_wf_ue_context_release_complete.LWG
p1417
aVtc_220_024_csfb_to_1xrtt_ue_suspended_inter_mme_tau_old.LWG
p1418
aVtc_220_605_csfb_to_1xrtt_in_ecm_connected_extended_service_request_during_downlink_data_notification.LWG
p1419
aVtc_28_044_mo_sms_two_mo_messages.LWG
p1420
aVtc_262_1055_imsi_attach_with_csg_id_is_rejected.LWG
p1421
aVtc_103_1110_attach_negative_AIA_resend_success_s6d.LWG
p1422
aVtc_213_052_nrspca_with_different_sequence_number_but_same_correlation_id_2.LWG
p1423
aVtc_51_035_reloc_wf_reloc_comp_interrupted_by_normal_detach_on_target_iu.LWG
p1424
aVtc_208_22_attach_detach_imsi.LWG
p1425
aVtc_208_150_dl_payload_imsi.LWG
p1426
aVtc_208_40_sgsn_init_pdp_modification.LWG
p1427
aVtc_208_43_interception_after_small_restart.LWG
p1428
aVtc_210_042_attach_detach_imei.LWG
p1429
aVtc_298_317_EF_SIBD_S4_Create_Bearer_Request.LWG
p1430
aVtc_218_048_tau_from_sgsn_subscription_cancelled_when_wf_tau_complete.LWG
p1431
aVtc_219_140_s3_handover_w_to_l_to_w_with_sgw_relocation.LWG
p1432
aVtc_214_300_mt_sms_active_mode.LWG
p1433
aVtc_214_063_combined_attach_combined_tau_interfering_periodic_tau.LWG
p1434
aVtc_214_094_cc_La_Check_GaTaRange.LWG
p1435
aVtc_214_051_rau_to_sgsn.LWG
p1436
aVtc_214_613_inter_handover_as_new_then_as_old_check_isdn_number_transfer_new_selection.LWG
p1437
aVtc_278_2000_9_Inter_TAU_Old_MME__Fwd_Reloc_Req_SGW_Changed_TransferTAU_Interfering.LWG
p1438
aVtc_236_293_Relocation_3gdt_switchback_reset_received_wf_modify_bearer_response.LWG
p1439
aVtc_202_01_ecm_connected_s1_release.LWG
p1440
aVtc_260_246_receive_m3_setup_req_while_wf_m3_stop_resp.LWG
p1441
aVtc_297_208_inter_rau_new_s4_visitor_user_update_location_failed.LWG
p1442
aVtc_297_212_inter_rau_new_s4_undefined_user.LWG
p1443
aVtc_297_228_inter_rau_new_s4_roaming_fetch_imsi_cs_ps_cor.LWG
p1444
aVtc_297_237_inter_rau_new_s4_with_imsi_in_bssgp_home_user_update_location_no_response.LWG
p1445
aVtc_297_322_isc_s4_w_to_g_unknow_old_sgsn_fetch_imsi_roaming_user_csps_coor.LWG
p1446
aVtc_297_326_isc_s4_w_to_g_unknow_old_sgsn_fetch_imsi_home_user_with_imsi.LWG
p1447
aVtc_297_328_isc_s4_w_to_g_unknow_old_sgsn_fetch_imsi_roaming_user_cc11_with_imsi.LWG
p1448
aVtc_297_331_isc_gn_psho_g_to_w_home_mf.LWG
p1449
aVtc_52_62_reloc_wf_forw_rel_compl_interrupted_by_sgsn_context_request.LWG
p1450
aVtc_284_102_pdn_connectivity_create_session_no_response_from_sgw_no_fallback.LWG
p1451
aVtc_198_057_IPv6_route_selection.LWG
p1452
aVtc_250_105_ignore_IDR_when_EPS_sub_downgrade_GPRS_sub.LWG
p1453
aVtc_342_123_update_target_same_connection_to_different.LWG
p1454
aVtc_59_9_mtmsi_restart_counter.LWG
p1455
aVtc_204_046_inter_mme_handover_with_ta_change_tai_from_global_enodebid_s1ho.LWG
p1456
aVtc_204_1100_mme_eps_ho_target_emergency_type_a__Cancel_Location_from_HSS_while_wf_modify_bearer_response.LWG
p1457
aVtc_204_000_mme_eps_handover_target_inter_main_flow.LWG
p1458
aVtc_303_003_Intra_S1_HO__Downlink_A21_AIS_while_wf_Handover_Request_Ack__Reset_from_source_eNB_while_wf_Handover_Notify.LWG
p1459
aVtc_666_06_block_rt_board.LWG
p1460
aVtc_666_02_reboot_ss7_board.LWG
p1461
aVtc_241_045_intra_with_multi_bearer_sgw_change_try_next.LWG
p1462
aVtc_241_143_israu_old_wait_for_20s_delay_interfere_by_rau_request.LWG
p1463
aVtc_241_228_pool_relay_default_sgsn_send_version_not_supported.LWG
p1464
aVtc_241_308_intra_rau_with_bearer_sgw_change_then_intra_rau_sgw_unchange.LWG
p1465
aVtc_241_310_israu_new_fail_to_create_session_then_israu_out.LWG
p1466
aVtc_241_309_israu_new_with_bearer_authentication_failed.LWG
p1467
aVtc_241_313_israu_new_gn_to_s4_pdp_to_bearer_3gdt_off_to_on.LWG
p1468
aVtc_241_318_israu_new_gn_to_s4_two_pdp_to_bearer_3gdt_off_to_on.LWG
p1469
aVtc_241_344_eul11m_israu_old_with_bearer_from_s4_to_gn.LWG
p1470
aVtc_241_351_intra_rau_with_authentication_error.LWG
p1471
aVtc_241_342_eul11m_israu_new_with_bearer_sgw_unchange_mf_s4.LWG
p1472
aVtc_241_420_israu_new_sgw_change_4_pdn_buffer_ubr_s6d_on.LWG
p1473
aVtc_241_432_intra_rau_with_bearer_sgw_unchange_2_pdns_3gdt.LWG
p1474
aVtc_132_002_create_ip_interface_eth.LWG
p1475
aVtc_290_020_Timer_Based_GBR_Deact__enodeb_configuration_update_wf_release_access_bearer_response_before_timer_expires.LWG
p1476
aVtc_279_021_tai_list_attach_dns_list_detach_change_to_visited_attach.LWG
p1477
aVtc_279_553_la_selection_oldlapreferred_eps_attach_dyn_tailist_update.LWG
p1478
aVtc_279_028_tai_list_max_length_exceeded.LWG
p1479
aVtc_306_1130_ef_seamless_move_target_receive_detach_request_with_switchoff_wf_service_request.LWG
p1480
aVtc_306_1335_ef_seamless_move_target_receive_cli_delete_subscriber_wf_service_request.LWG
p1481
aVtc_306_133_ef_seamless_move_source_receive_s1_setup_wf_source_guti_reallocation_complete.LWG
p1482
aVtc_275_020_tau_inter_new_imsi_ns_access_restricted.L14b
p1483
aVtc_275_043_tau_inter_new_get_new_sgw_two_pdn_connections_all_ok.L14b
p1484
aVtc_202_41_type_a_emergency_pdn_ecm_idle.L14b
p1485
aVtc_287_010_PDN_Disconnect__Detach_request_while_wf_delete_session_response.L14b
p1486
aVtc_47_005_implict_detach_timer_ap_loss.L14b
p1487
aVtc_281_022_Activate_bearer__ERAB_setup_request_meanwhile_path_switch_request_no_CBR_from_new_SGW.L14b
p1488
aVtc_243_002_tau_from_sgsn_s3_keep_old_sgw_transfer_due_to_wrong_ap_index.L14b
p1489
aVtc_243_003_tau_from_sgsn_s3_keep_old_sgw_followed_by_paging.L14b
p1490
aVtc_243_020_tau_from_sgsn_s3_no_tau_complete.L14b
p1491
aVtc_243_030_tau_from_sgsn_s3_ptmsi_signature_mismatch.L14b
p1492
aVtc_243_760_tau_from_sgsn_s3_tac_based_roaming_restriction_table_matched_blacklist.L14b
p1493
aVtc_302_220_1xrtt_srvcc_with_emergency_main_flow.L14b
p1494
aVtc_302_218_1xrtt_srvcc_no_gbr_bearers.L14b
p1495
aVtc_302_231_Timer_Based_GBR_Deact__UE_Context_Release_Request_after_A21_Ack_Sent_to_IWS_during_SRVCC_to_1xRTT.L14b
p1496
aVtc_260_100_one_mbms_session_started_two_mce_response_timeout_one_mce_add.L14b
p1497
aVtc_44_004_small_restart__sctp_fe_restart.L14b
p1498
aVtc_44_010_imsi_attach_then_crash.L14b
p1499
aVtc_44_045_config_ep_SBc.L14b
p1500
aVtc_44_850_mme_assoc_reestablish__board_restart_s1_mme.L14b
p1501
aVtc_204_421_mme_eps_ho_target_type_a_update_location_fails.L14b
p1502
aVtc_204_422_mme_eps_ho_target_type_b_update_location_fails.L14b
p1503
aVtc_204_424_mme_eps_ho_target_type_a_auth_in_tau_after_ho_nok_no_emm_cause.L14b
p1504
aVtc_204_427_mme_eps_ho_target_type_a_then_delete_dedicated_bearer_then_delete_pdn.L14b
p1505
aVtc_204_428_mme_eps_ho_target_type_a_no_dedicated_emergency_bearer_transfered.L14b
p1506
aVtc_204_453_mme_eps_ho_target_type_d_emc_same_plmn_mmtel_off.L14b
p1507
aVtc_318_107_sgw_restart_mf_one_of_pdns_create_after_sgw_restart.L14b
p1508
aVtc_220_403_csfb_to_1xrtt_in_ecm_connected_path_switch_request_HO_success.L14b
p1509
aVtc_194_187_hss_reset_after_large_restart_with_full_imsi.L14b
p1510
aVtc_194_991_downlink_A21_AIS_during_waiting_location_report__idr_flags_ef.L14b
p1511
aVtc_242_510_rau_to_sgsn_s3_subscription_withdrawn_in_wf_context_ack.L14b
p1512
aVtc_242_511_rau_to_sgsn_s3_cancel_location_update_procedure_when_wf_session_response.L14b
p1513
aVtc_242_605_rau_sgsn_s3_sgw_change_interrupted_by_tranfer_attach_when_wf_timeout.L14b
p1514
aVtc_242_620_rau_sgsn_s3_context_request_when_wf_timeout.L14b
p1515
aVtc_242_621_rau_sgsn_s3_sgsn_context_request_when_wf_session_response.L14b
p1516
aVtc_103_1105_attach_no_diameter_peer_available.L14b
p1517
aVtc_341_800_x2_connection_heartbeat_test.L14b
p1518
aVtc_346_491_Small_Restart__Terminate_when_UE1_PDN_Connectivity_waiting_for_CCAI_UE2_Location_Report_waiting_for_CCAU.L14b
p1519
aVtc_346_490_Small_Restart__Terminate_when_UE_S1_release.L14b
p1520
aVtc_266_011_DownlinkDataNotification_interfering_ISD_sgsn00026976.L14b
p1521
aVtc_266_026_DownlinkDataFailureInd_repeat_paging_timer_small_local_restart.L14b
p1522
aVtc_276_045_Inter_TAU_New_MME__S1_Reset_while_waiting_for_Identity_Response__enhanced_imei_check.L14b
p1523
aVtc_276_312_Inter_TAU_New_MME__DDN_with_error_indication_while_waiting_for_Modify_Bearer_Response.L14b
p1524
aVtc_276_311_Inter_TAU_New_MME__DDN_with_error_indication_while_waiting_for_Create_Session_Response.L14b
p1525
aVtc_295_016_Intra_S1_HO__Reset_from_source_eNB_while_wf_handover_notify.L14b
p1526
aVtc_295_018_Intra_S1_HO__Ue_context_release_request_from_source_while_wf_handover_notify.L14b
p1527
aVtc_295_021_Intra_S1_HO__TAU_req_uplink_nas_from_target_while_wf_handover_notify.L14b
p1528
aVtc_295_020_Intra_S1_HO__Detach_request_from_target_eNB_while_wf_handover_notify.L14b
p1529
aVtc_214_008_combined_attach_ue_initiated_imsi_detach_switch_off.L14b
p1530
aVtc_304_001_attach__control_mode_threshold_not_reached.L14b
p1531
aVtc_244_906_mt_lr_ecm_idle_and_t3x01_time_out_when_connected_oriented_info_with_LPP.L14b
p1532
aVtc_244_916_mt_lr_connected_oriented_info_LPPa_wf_esmlc_response_and_ecm_connected_for_LPP.L14b
p1533
aVtc_244_535_SLg_Location_Request__Downlink_A21_AIS_wwf_Location_Response_from_ESMLC.L14b
p1534
aVtc_31_092_concurrent_msd_while_ul_that_fails.W14b
p1535
aVtc_324_388_ef_mo_sms_wf_ula.W14b
p1536
aVtc_250_182_s6d_inter_new_rau_ul_rejected_roaming_not_allowed_remap_on_with_err_diag.W14b
p1537
aVtc_236_039_s4_3gdt_detach_during_waiting_for_modify_bearer_rsp_in_active_procedure.W14b
p1538
a.