(lp0
Vtc_44_004_small_restart__sctp_fe_restart.LW
p1
aVtc_322_050_smooth_move_ebt_rau_after_move.LW
p2
aVtc_318_157_sgw_restart_af_relocation_triggered_by_service_request_fail.LW
p3
aVtc_326_210_Intra_TAU_combined_after_large_restart_after_EPS_attach.LW
p4
aVtc_12_134_attach_with_extended_mmumoc_iu_inactivity_timer.LW
p5
aVtc_304_266_tau_from_gnsgsn_2g_control_mode_wf_delete_all_bearers_response_exception_case_reject_congestion_subscriber_cancelled.LW
p6
aVtc_286_118_pdn_disconnect_finished_pdn_connectivity_with_same_pti.LW
p7
aVtc_286_118_pdn_disconnect_finished_pdn_connectivity_with_same_pti.LWG
p8
aVtc_24_81_comb_att_hlr_reset_peridic_rau.LWG
p9
aVtc_56_21_sending_recognized_information_in_log.LWG
p10
aVtc_241_067_israu_new_s4_to_s4_illegal_me_in_imei_check_after_israu.LWG
p11
aVtc_349_107_RAU_new_sgsn__Detach_Req_with_power_off_while_waiting_for_CCA_initial.LWG
p12
aVtc_294_353_intra_handover_sgw_relocation_2_pdns_dedicated_fails_notify_timeout.LWG
p13
aVtc_73_07_itc_encrypted_gtpu_s4_payload_w.LWG
p14
aVtc_219_131_s3_handover_w_to_l_with_cl_two_pdns_one_failed_sgw_relocation.LWG
p15
aVtc_238_190_mme_eps_irat_Gn_ho_target__handover_from_gn_sgsn_to_mme_to_gn_sgsn.LWG
p16
aVtc_236_311_HO_over_S3_3GDT_switchback_ef_delete_bearer_request_received_wf_rab_assignment_response.LWG
p17
aVtc_12_134_attach_with_extended_mmumoc_iu_inactivity_timer.LWG
p18
aVtc_259_116_ef_s6d_tads_interfere_inter_rau_old_w.LWG
p19
aVtc_58_2_dyn_to_dyn.LWG
p20
aVtc_180_02_test_multiple_ip_w.LWG
p21
aVtc_92_05_60_old_format_counters.LWG
p22
aVtc_264_080_MME_Initiated_Detach__UE_ECM_Idle__Paging_Failed_due_to_OLP.LWG
p23
aVtc_326_472_Inter_TAU_Recovery_multiple_retrieval_responses_with_different_revision_number.LWG
p24
aVtc_304_266_tau_from_gnsgsn_2g_control_mode_wf_delete_all_bearers_response_exception_case_reject_congestion_subscriber_cancelled.LWG
p25
aVtc_284_020_pdn_connectivity_with_static_pdn_address_paa_type_ipv6_addr_ipv4v6.LWG
p26
aVtc_335_25_wifi_to_mobility_in_ecm_idle_mf__more_than_1_cell_infos_from_wic__all_cells_succeed_from_eNB.LWG
p27
aVtc_335_31_wifi_to_mobility_in_ecm_idle_af__cells_from_eNB_more_than_from_WIC.LWG
p28
aVtc_262_043_imsi_attach_NOK_emm_registered_ecm_connected.LWG
p29
aVtc_298_207_SIBD_S4_Service_Request_PDP_Context_Status_idle.LWG
p30
aVtc_298_685_S4_3GDT_Iu_release_wait_RABR_ef_delete_bearer_request_ebi.LWG
p31
aVtc_214_1140_la_selection_mf_oldlapreferred_prau_during_ue_restoration.LWG
p32
aVtc_283_037_GW_Deactivate_Bearer__Default_bearer_Delete_Interrupt_Dedicated_Bearer_Delete_no_response_from_ue.LW
p33
aVtc_313_281_inter_new_srns_reloc_s16_with_sgw_change_downlink_data_notification_with_cause_received_wf_rau_complete.LW
p34
aVtc_219_131_s3_handover_w_to_l_with_cl_two_pdns_one_failed_sgw_relocation.LW
p35
aVtc_250_150_isd_with_odb_init_deactivation.LW
p36
aVtc_322_029_smooth_move_af_security_mode_reject.LW
p37
aVtc_241_201_s4_sgsn_pool_ms_move_target_sgsn_mf.LW
p38
aVtc_334_231_sgw_restart_counter_changed_inter_new_srns_reloc_s16_without_sgw_change.LW
p39
aVtc_327_007_recovery_intra_TAU__uplink_Attach_Request_while_waiting_for_Location_Update_Response.LW
p40
aVtc_289_070_GW_Init_Bearer_Modification_Flow_two_CBR_one_UBR_while_wf_modify_eps_bearer_context_accept.LW
p41
aVtc_304_266_tau_from_gnsgsn_2g_control_mode_wf_delete_all_bearers_response_exception_case_reject_congestion_subscriber_cancelled.LW
p42
aVtc_194_506_Notification_during_Intra_MME_TAU_without_SGW_Relocation_Procedure.LW
p43
aVtc_194_505_Notification_during_Intra_TAU_without_SGW_Relocation_HSS_Reset_Before_TAU.LW
p44
aVtc_256_382_Sv_Path_Mgt__available_MSC_disable_Sv.LW
p45
aVtc_256_371_srvcc_ho_source_cs_only_sv_pool_off_only_one_msc.LW
p46
aVtc_225_323_csfb_mt_call_X2_HO_NonDeliveryIndication_before_path_switch_ack.LW
p47
aVtc_286_118_pdn_disconnect_finished_pdn_connectivity_with_same_pti.LW
p48
aVtc_220_403_csfb_to_1xrtt_in_ecm_connected_path_switch_request_HO_success.LW
p49
aVtc_367_119_pgw_reselection_ho_without_qci_1_buffered_cbr_reject_then_reactivate_requested.LWG
p50
aVtc_166_276_activate_primary_dt_apn_list_empty_3gdt_apn_in_hlr_apn_r_empty_mode_3.LWG
p51
aVtc_342_079_x3_tcp_fail_during_signalling.LWG
p52
aVtc_289_013_Modify_bearer__ERAB_modify_response_s1_intra_system_handover_triggered_two_pdn_uninvolved_default_bearer_fail.LWG
p53
aVtc_92_05_60_old_format_counters.LWG
p54
aVtc_236_176_intra_rau_s4_3gdt_with_dedicated_bearer_paging_by_dl_notification_mf.LWG
p55
aVtc_236_311_HO_over_S3_3GDT_switchback_ef_delete_bearer_request_received_wf_rab_assignment_response.LWG
p56
aVtc_236_270_SRNS_Relocation_S4_over_S16_target_DtSelMode_4_PDN_with_preserved_bearer_with_switch_back.LWG
p57
aVtc_39_601_mas_unsucc_fwd_reloc_resp_mandatory_ie_missing_stop_source.LWG
p58
aVtc_39_921_ef_seamless_move_interrupted_by_normal_attach.LWG
p59
aVtc_194_505_Notification_during_Intra_TAU_without_SGW_Relocation_HSS_Reset_Before_TAU.LWG
p60
aVtc_56_4_abort.LWG
p61
aVtc_56_21_sending_recognized_information_in_log.LWG
p62
aVtc_346_803_outbound_olp_sx_terminate_reject_by_rate.LWG
p63
aVtc_232_401_bfd__ipv4_alarm.LWG
p64
aVtc_291_40_action_ue_trace.LWG
p65
aVtc_288_101_pgw_init_bearer_mod_one_bad_one_good_one_unknown_one_not_responding_bearer.LWG
p66
aVtc_302_125_imsi_min_then_change_to_imsi.LWG
p67
aVtc_266_616_Service_Request_Alert_Request__CS_Call_Paging_request_while_waiting_for_AIA.LWG
p68
aVtc_204_407_mme_eps_ho_target_type_a_roaming_restriction_same_profile_emc_sup_auth_only.LWG
p69
aVtc_204_154_inter_s1ho_target_HeNB_emergency_type_d_csg_id.LWG
p70
aVtc_292_181_X2_Based_HO_twice.LWG
p71
aVtc_273_511_TAU_intra_SGW_unavailable__try_second_SGW_dedicated_bearer_failed.LWG
p72
aVtc_313_003_inter_new_srns_reloc_s16_without_sgw_change_two_pdns_with_dedicate_bearer_without_sgw_node_name.LWG
p73
aVtc_298_235_SIBD_S4_Modify_Bearer_failed_Default_Bearer_ContextNotFound.LWG
p74
aVtc_369_108_HSS_based_PCSCF_restoration_ecm_connected_isc_tau_from_w_to_l.LWG
p75
aVtc_286_118_pdn_disconnect_finished_pdn_connectivity_with_same_pti.LWG
p76
aVtc_262_1005_attach_apn_resolution_ext_apn_based_with_cc.LWG
p77
aVtc_304_266_tau_from_gnsgsn_2g_control_mode_wf_delete_all_bearers_response_exception_case_reject_congestion_subscriber_cancelled.LWG
p78
aVtc_259_116_ef_s6d_tads_interfere_inter_rau_old_w.LWG
p79
aVtc_327_042_recovery_intra_TAU_active_off_sgw_unchanged__gtpv2_identify_request_wf_CSR_due_to_S11_linkdown.LWG
p80
aVtc_214_631_combined_attach_MSC_selection_in_pool_then_paging_delete_MSC_La.LWG
p81
aVtc_214_630_combined_attach_MSC_selection_in_pool_then_paging_MSC_pool_feature_off.LWG
p82
aVtc_58_2_dyn_to_dyn.LWG
p83
aVtc_73_07_itc_encrypted_gtpu_s4_payload_w.LWG
p84
aVtc_279_007_tai_list_dns_intra_tau_last_visited_diff_epl.LWG
p85
aVtc_103_1132_sx_resend__CCR_I_diameter_out_of_space_another_pdn_timeout_diameter_too_busy_host_and_realm.LWG
p86
aVtc_326_367_Service_Request_with_unknown_STMSI_Restriction_imsi_undefined_emergency_authenticated.LWG
p87
aVtc_334_291_service_req_relocation_activate_pdp_context_when_wf_create_session_resp.LWG
p88
aVtc_266_026_DownlinkDataFailureInd_repeat_paging_timer_small_local_restart.L14b
p89
aVtc_286_118_pdn_disconnect_finished_pdn_connectivity_with_same_pti.L14b
p90
aVtc_304_266_tau_from_gnsgsn_2g_control_mode_wf_delete_all_bearers_response_exception_case_reject_congestion_subscriber_cancelled.L14b
p91
aVtc_260_213_receive_sm_stop_req_while_wf_m3_start_resp.L14b
p92
aVtc_103_024_modify_diameter_peer_switch_peer_numbers.L14b
p93
aVtc_195_532_mme_logging_ue_unrechable.L14b
p94
aVtc_326_235_Intra_TAU_Recovery_fail_Modify_Bearer_timeout_with_active_flag.L14b
p95
aVtc_73_07_itc_encrypted_gtpu_s4_payload_w.WG14a
p96
aVtc_194_811_isd_private_extension_of_lzone_from_invalid_to_lzone_followed_by_pdn_connectivity_request.LW
p97
aVtc_12_134_attach_with_extended_mmumoc_iu_inactivity_timer.LW
p98
aVtc_324_512_ef_delete_bearer_request_ignore_payload_after_ulr.LW
p99
aVtc_219_231_IRAT_PSHO_WtoL_Combined_Node_With_SGW_change__Backup_UE.LW
p100
aVtc_219_131_s3_handover_w_to_l_with_cl_two_pdns_one_failed_sgw_relocation.LW
p101
aVtc_326_246_Intra_TAU_Recovery_fail_Modify_Bearer_fail_active_flag_SGW_Change.LW
p102
aVtc_241_201_s4_sgsn_pool_ms_move_target_sgsn_mf.LW
p103
aVtc_278_451_Inter_TAU_Old_MME__Ecm_Idle_Sgs_CS_Paging_SMS_while_wait_for_context_ack.LW
p104
aVtc_347_282_Delete_Bearer__RAR_while_waiting_ERAB_Release_Response.LW
p105
aVtc_238_065_mme_eps_irat_ho_target__location_report_wf_frck.LW
p106
aVtc_304_266_tau_from_gnsgsn_2g_control_mode_wf_delete_all_bearers_response_exception_case_reject_congestion_subscriber_cancelled.LW
p107
aVtc_304_478_uplink_nas_csfb_to_1xrtt_control_mode_threshold_exceeded_usc_detach_congestion_in_ecm_connected_wf_ue_modifacation.LW
p108
aVtc_578_52_check_uetracer_parser.LW
p109
aVtc_236_311_HO_over_S3_3GDT_switchback_ef_delete_bearer_request_received_wf_rab_assignment_response.LW
p110
aVtc_286_118_pdn_disconnect_finished_pdn_connectivity_with_same_pti.LW
p111
aVtc_253_001_no_sccp_ssn_during_small_restart.G14b
p112
aVtc_51_006_intra_srns_reloc_no_response_from_target_rnc.W14b
p113
aVtc_248_419_inter_l_to_w_new_two_pdns_with_target_gw_interface_gp_and_ipv6_user_plan_off.W14b
p114
aVtc_298_049_nrspca_s4_idle_no_paging_response_timeout_GBR.W14b
p115
aVtc_103_1132_sx_resend__CCR_I_diameter_out_of_space_another_pdn_timeout_diameter_too_busy_host_and_realm.LWG
p116
aVtc_103_705_delete_peer_send_DPR_timeout_on_DPA.LWG
p117
aVtc_103_710_commlost_small_restart.LWG
p118
aVtc_247_208_inter_w_to_l_old_one_pdn_with_dedicated_bearers_customized_qci_validation.LWG
p119
aVtc_340_113_ef_g_s4_intra_rau_trigger_interfering_message_ignored.LWG
p120
aVtc_304_026_attach_successful_then_imsi_attach__control_mode_threshold_exceeded_usc_reject_illegal_ue.LWG
p121
aVtc_304_266_tau_from_gnsgsn_2g_control_mode_wf_delete_all_bearers_response_exception_case_reject_congestion_subscriber_cancelled.LWG
p122
aVtc_304_305_PDN_connectivity__total_nr_of_msgs_in_measurement_log_entry.LWG
p123
aVtc_349_104_RAU_new_sgsn__Relocation_Req_while_waiting_for_CCA_initial.LWG
p124
aVtc_349_115_isc_rau_g_to_w__Cancel_Location_sub_withdrawn_while_waiting_for_CCA_initial.LWG
p125
aVtc_286_118_pdn_disconnect_finished_pdn_connectivity_with_same_pti.LWG
p126
aVtc_310_313_S3_same_SGW_msc_all_unavailable_select_default.LWG
p127
aVtc_213_169_nrspca_aborted_during_t3385_when_receive_sgsn_context_request.LWG
p128
aVtc_346_416_AF__Attach__DNS_query_pgw_fail.LWG
p129
aVtc_346_712_pra_cn_predefined_lrc_optimization_TAIs_eCGIs_in_pra_TAIs_intersection_with_eNB.LWG
p130
aVtc_297_106_inter_rau_new_roaming_restriction_hlr_cc14.LWG
p131
aVtc_297_349_irat_w_to_g_imsi_in_bssgp_home_user_update_location_failed_to_redirect.LWG
p132
aVtc_238_156_mme_eps_irat_Gn_ho_target__roaming_restricted.LWG
p133
aVtc_238_301_mme_eps_irat_ho_target_HeNB_with_csg_id_reject.LWG
p134
aVtc_200_5_move_detach_one_ms_cli_move_use_detach.LWG
p135
aVtc_220_004_csfb_to_1xrtt_ue_return_with_intra_tau_request.LWG
p136
aVtc_220_583_csfb_to_1xrtt_in_ecm_idle_extended_service_request_as_paging_response_create_bearer.LWG
p137
aVtc_220_620_Extended_Service_Request__UE_Context_Release_Request_while_waiting_for_Initial_Context_Setup_Response.LWG
p138
aVtc_266_304_Service_Request_SGW_unavailable__create_session_request_timeout.LWG
p139
aVtc_312_224_inter_old_srns_reloc_wf_session_to_complete_interrupted_by_relocation_cancel.LWG
p140
aVtc_274_266_Intra_and_pTAU__Path_Switch_Request_with_new_TA_while_waiting_for_TAU_Request_after_HO.LWG
p141
aVtc_262_517_attach_pb_activate_dedicated_bearers_partially_successful_erab_failure.LWG
p142
aVtc_262_128_attach_then_emergency_attach_same_imei_on_different_ap.LWG
p143
aVtc_262_1000_attach_apn_resolution_ext_imsins_based_with_msisdn.LWG
p144
aVtc_262_1055_imsi_attach_with_csg_id_is_rejected.LWG
p145
aVtc_262_1016_apn_resolution_ext_with_apn_oi_replacement.LWG
p146
aVtc_282_160_pgw_init_deactivate_bearer_indexed_counter_qci128_qci255.LWG
p147
aVtc_258_002_activate_cell_change_reporting_during_attach.LWG
p148
aVtc_324_230_ef_iu_release_request_ignore.LWG
p149
aVtc_324_322_ef_service_req_data_initial_ue_handle_wf_modify_bearer.LWG
p150
aVtc_218_315_tau_from_sgsn_preserved_gbr_bearer_buffer_1_cbr_activate_dedicated_bearer_fail.LWG
p151
aVtc_209_61_start_interception_during_new_inter_rau_with_camel.LWG
p152
aVtc_281_016_Activate_bearer__ERAB_setup_response_x2_handover_triggered_two_pdn_HO_all_sessions_fail.LWG
p153
aVtc_248_305_inter_l_to_w_new_ms_connected_handover_from_mme_interfering_imsi_attach.LWG
p154
aVtc_248_360_inter_l_to_w_new_without_sgw_change_2_pdn_buffer_ubr_3GDT_on.LWG
p155
aVtc_275_552_inter_tau_new_active_flag_on_tau_complete_come_first_detach_odb_bit0.LWG
p156
aVtc_166_247_inter_g_to_w_switch_back_to_two_tunnels.LWG
p157
aVtc_166_243_switch_back_to_two_tunnels_streaming_no_resources.LWG
p158
aVtc_166_068_iu_release_reestablish_paging_interactive.LWG
p159
aVtc_166_099_intra_rau_new_rnc_service_req_reestablish_streaming.LWG
p160
aVtc_231_054_activate_reject_sgw_cause83_preferred_dpn_type_not_supported.LWG
p161
aVtc_231_282_activate_pdp_request_ignore_during_gn_pdp_deactivating.LWG
p162
aVtc_231_503_act_req_with_same_apn_and_staticPDPAddr_interfere_modification.LWG
p163
aVtc_237_314_mme_eps_irat_Gn_ho_source__type_b_emc_new_plmn_fep_off_feu_on.LWG
p164
aVtc_367_106_pgw_reselection_ho_with_qci_1_bearer_not_setup_reattach_required.LWG
p165
aVtc_367_120_pgw_reselection_ho_without_qci_1_buffered_dbr_then_sgw_dbr_reactivate_requested.LWG
p166
aVtc_290_046_Timer_Based_GBR_Deact__delete_subscription_data_wf_ue_context_release_complete_before_timer_expires.LWG
p167
aVtc_195_222_mme_logging_maximum_s6a_if_only.LWG
p168
aVtc_195_539_mme_logging_eps_handover_target_inter_relocation_cancel_Request_with_imeisv_using_imei_trace.LWG
p169
aVtc_345_270_ef__mo_csfb_with_psho__ho_cancel_while_wf_forward_relocation_response.LWG
p170
aVtc_265_142_Detach_Flow_NW_init__Reattach_Not_Required_Detach_Request_non_poweroff_Uplink_NAS_while_waiting_for_Detach_Accept.LWG
p171
aVtc_203_412_Inter_HO_source_cancel_location_wf_relocation_cancel_response_update_procedure.LWG
p172
aVtc_208_39_ms_init_pdp_modification.LWG
p173
aVtc_245_017_inter_rau_new_mf_with_sgw_change_1_dedicated_bearer_no_upd.LWG
p174
aVtc_245_038_intra_tau_w_to_l_fallback_to_gtpv1.LWG
p175
aVtc_294_090_eps_handover_6_bearers_modified_5_removed.LWG
p176
aVtc_294_030_s1_intra_handover_type_a_same_plmn_no_roaming_restriction.LWG
p177
aVtc_294_336_mme_handle_eps_handover_with_tla_mismatch1.LWG
p178
aVtc_319_028_pdn_connectivity_ef_static_selection_on_table_not_matched_stop_by_detach.LWG
p179
aVtc_319_132_pdn_connectivity_af_gw_blacklisting_sgw_blocked_no_pgw_response.LWG
p180
aVtc_319_036_act_pdp_ef_table_not_matched_stop_by_detach.LWG
p181
aVtc_236_039_s4_3gdt_detach_during_waiting_for_modify_bearer_rsp_in_active_procedure.LWG
p182
aVtc_236_182_hard_ho_intra_rau_with_3gdt_wf_release_access_bearer_resp_si_cancel_location_withdraw.LWG
p183
aVtc_236_290_SRNS_Relocation_with_preserved_bearer_3gdt_swichback_HLR_initiated_modification_wf_rab_assignment_response.LWG
p184
aVtc_56_4_abort.LWG
p185
aVtc_56_21_sending_recognized_information_in_log.LWG
p186
aVtc_277_021_tau_inter_old_with_tzcr_and_sncr_set_in_2_pdns.LWG
p187
aVtc_214_063_combined_attach_combined_tau_interfering_periodic_tau.LWG
p188
aVtc_214_631_combined_attach_MSC_selection_in_pool_then_paging_delete_MSC_La.LWG
p189
aVtc_214_1235_hss_reset_then_s1_release_interferred_by_sgsap_paging_csfb_then_interferred_by_combined_tau.LWG
p190
aVtc_214_184_imsi_paging_large_restart_cs_call_indicator_ts12a1_expired.LWG
p191
aVtc_327_380_recovery_service_request__create_bearer_request_while_waiting_for_Location_Update_Response.LWG
p192
aVtc_327_411_recovery_service_request__S10_Identification_Request_while_wf_Guti_Rollback_complete.LWG
p193
aVtc_327_163_recovery_intra_TAU_Context_Request_while_waiting_for_TAU_Complete.LWG
p194
aVtc_204_501_mme_eps_ho_target_emergency_type_d_imei_check_answer_blacklisted_after_tau_accept_ire_true.LWG
p195
aVtc_204_423_mme_eps_ho_target_type_a_auth_in_tau_after_ho.LWG
p196
aVtc_320_072_ue_trace_ptmsi_conflict_with_another_ms.LWG
p197
aVtc_225_614_exp_flow_context_request_while_wf_ue_context_release_complete.LWG
p198
aVtc_225_318_mt_call_active_mode_nas_non_delivery__x2_ho_triggered_HO_all_bearer_fail.LWG
p199
aVtc_244_500_SLg_Location_Request__Attach_Request_wwf_Location_Response_from_ESMLC.LWG
p200
aVtc_311_127_intra_srns_reloc_s4_sgw_change_rab_setup_partial_reloc_complete_timeout.LWG
p201
aVtc_239_619_inter_rau_new_sgw_changed_missing_S4U_FTEID_in_create_session_response.LWG
p202
aVtc_239_612_inter_rau_l_to_g_new_with_bearer_sgw_change_odb_bit_15_s4.LWG
p203
aVtc_178_690_action_sctp_sys_assoc_move_command.LWG
p204
aVtc_302_015_cdma_tunneling_uplink_message_sector_id_out_of_range.LWG
p205
aVtc_226_115_W_S4_USC_PDP_Context_Activation__ControlMode_On_detach_action_different_ongoing_wf_rab_response.LWG
p206
aVtc_226_060_Inter_RAU_L2G_S4SGSN_rejected_measurement_control_exceed_threshold_RAU_request_after_control.LWG
p207
aVtc_39_921_ef_seamless_move_interrupted_by_normal_attach.LWG
p208
aVtc_241_447_israu_new_with_dedicated_bearer_create_session_response_default_bearer_failed.LWG
p209
aVtc_241_410_intra_rau_with_bearer_with_16m_flag_not_allowed_sgw_unchanged.LWG
p210
aVtc_241_686_israu_new_with_bearer_sgw_change_si_delete_bearer_request.LWG
p211
aVtc_241_1602_israu_old_wf_timeout_interfere_by_poweroff_detach.LWG
p212
aVtc_202_43_type_d_emergency_pdn_ecm_idle.LWG
p213
aVtc_202_363_mf_seamless_move_by_ue_source_1outof5_subscribers.LWG
p214
aVtc_358_139_lte_local_user_reject_x2_handover_and_detach_restricted_area_to_unrestricted_area.LWG
p215
aVtc_280_135_activate_2_dedicated_bearers_on_emergency_pdn_connection.LWG
p216
aVtc_15_115_inter_old_sgsn_interupted_by_returning_ms.LWG
p217
aVtc_256_072_mme_eps_srvcc_ho_source_to_geran_cs_only_emergency_mf_without_DTM_with_GBR_bearers_in_normal_pdn.LWG
p218
aVtc_334_025_pgw_restart_mf_multiple_pdns_part_delete_and_part_deactivate_idle.LWG
p219
aVtc_257_39_pws_etws_write_replace_warning_request_with_2_cbc_when_olp_rshl_false.LWG
p220
aVtc_59_12_sequence_on_demand_indexbased_replica_values_during_takeover.LWG
p221
aVtc_197_501_inter_tau_with_sgw_relocation_table_matched.LWG
p222
aVtc_197_495_tau_from_gnsgsn_table_not_matched_type_a.LWG
p223
aVtc_332_101_af__inter_mme_TAU_rrc_cause_high_when_not_MPS_subscriber.LWG
p224
aVtc_318_273_sgw_restart_af_relocation_triggered_by_DDN_create_session_dedicated_bearer_failed.LWG
p225
aVtc_314_045_sgsn_init_qos_modification_intra_rau_g_to_w.LWG
p226
aVtc_314_068_hss_init_qos_mod_pgw_init_dedicated_bearer_delete_after_mbfi.LWG
p227
aVtc_347_001_Inter_TAU_New_MME__Attach_Req_while_waiting_for_CCA_initial.LWG
p228
aVtc_306_124_ef_seamless_move_source_receive_s1_reset_wf_frcn.LWG
p229
aVtc_306_281_ef_seamless_move_source_ignore_downlink_unitdata_in_ecm_idle.LWG
p230
aVtc_306_1216_ef_seamless_move_target_receive_s1_setup_ecm_idle.LWG
p231
aVtc_306_1373_ef_seamless_move_target_ignore_erab_release_indication_wf_lua_mbr.LWG
p232
aVtc_259_102_ef_tads_s4_interfere_inter_rau_old_g.LWG
p233
aVtc_268_040_Timer_Based_GBR_Deact__Receive_DDN_with_known_IMSI_before_Timer_Expires.LWG
p234
aVtc_322_110_smooth_move_ef_iu_release_request_ignore.LWG
p235
aVtc_322_139_smooth_move_ef_ddn_wf_ptmsi_reallocation_complete_wf_frcn_wf_iu.LWG
p236
aVtc_260_212_receive_sm_start_req_while_wf_m3_start_resp_diff_abs_time.LWG
p237
aVtc_288_241_pgw_init_bearer_mod_AMBR_change_odd_update_bearer_format.LWG
p238
aVtc_288_103_pgw_init_bearer_mod_enb_not_responding.LWG
p239
aVtc_359_052_handover_from_non3gpp_af_try_next_gw_due_to_no_resource.LWG
p240
aVtc_298_504_pgw_init_deletion_af_ebi_contain_lbi_value.LWG
p241
aVtc_298_660_pgw_init_modification_af_include_diff_pdn_bearer.LWG
p242
aVtc_298_826_NRSPCA_S4_nsapi_collision_receiving_detach_request_while_waiting_for_delete_bearer_request.LWG
p243
aVtc_292_045_Report_SN_X2HO_with_SGW_changed.LWG
p244
aVtc_292_133_x2_ho_s1_release_while_cleanup.LWG
p245
aVtc_194_403_tau_ul_fails_roaming_not_allowed_remap_on_with_err_diag.LWG
p246
aVtc_194_1573_HSS_initiated_DSD_in_Emergency_Type_A_in_Idle_mode_when_all_CSG_Id_removed__TAU_Request.LWG
p247
aVtc_250_67_s6d_activation_with_EPS_data_s4_license_off.LWG
p248
aVtc_92_05_60_old_format_counters.LWG
p249
aVtc_326_251_Intra_TAU_with_unknown_GUTI_with_active_flag_then_s1_Intra_HO.LWG
p250
aVtc_326_325_Service_Reject_Retrival_Response_timeout_then_Reattach.LWG
p251
aVtc_326_800_Service_Request_with_unknown_STMSI_default_bearer_fail_to_setup_Spontaneous_UL_failed_skip_SubData.LWG
p252
aVtc_326_658_tau_intra_periodic_SGW_unavailable_after_MME_large_restart__create_session_fail_reselect_SGW.LWG
p253
aVtc_73_06_insert_multiple_pdp_contexts_and_remove_some_of_them.LWG
p254
aVtc_73_07_itc_encrypted_gtpu_s4_payload_w.LWG
p255
aVtc_196_172_nrspca_during_t3385_when_receive_sgsn_context_ack_not_accepted.LWG
p256
aVtc_232_403_bfd__ipv4ipv6_alarm.LWG
p257
aVtc_230_074_activation_wait_create_session_response_interrupted_by_sgsn_context_req.LWG
p258
aVtc_230_504_apn_redirection_due_to_empty_apn_when_arfma_lowestcontextid_in_gprs_sub.LWG
p259
aVtc_231_227_PGW_Initiated_Modification_EARP_idle_one_tunnel.W14b
p260
aVtc_32_8_attach_identity_checking_ap_index_transfer_interrupted_by_new_attach.W14b
p261
aVtc_298_006_S4_Network_Request_Secondary_PDP_Activation_UE_no_Response_timeout.W14b
p262
aVtc_298_654_pgw_init_modification_mf_3gdt_enable.W14b
p263
aVtc_52_59_inter_old_relocation_cancel_radio_connection_lost.W14b
p264
aVtc_324_043_af_mbr_higher_than_policymap.WG14a
p265
aVtc_324_371_ef_cancel_location_intialAttach_wf_modify_bearer_response_service_req_data.WG14a
p266
aVtc_73_07_itc_encrypted_gtpu_s4_payload_w.WG14a
p267
aVtc_226_114_W_S4_USC_PDP_Context_Activation__ControlMode_On_detach_action_same_ongoing_wf_sgw_response.WG14a
p268
aVtc_259_67_ef_provide_subscriber_information_attach_old_w.LWG
p269
aVtc_56_10_cm_restart_during_SR.LWG
p270
aVtc_266_306_Service_Request_SGW_unavailable__create_session_two_PDN_one_failed.LWG
p271
aVtc_84_71_provide_subscriber_location_ef_paging_interrupted_by_rau_req.LWG
p272
aVtc_273_591_TAU_intra__active_flag_on_no_modify_bearer_response_sgw_unchange_two_pdn.LWG
p273
aVtc_665_11_dp_reboot_init_cm_restart_with_traffic.LWG
p274
aVtc_166_134_israu_new_3gdt_incompatible_ggsn.LWG
p275
aVtc_166_161_inter_new_srns_reloc_streaming.LWG
p276
aVtc_166_160_inter_new_srns_reloc.LWG
p277
aVtc_166_428_rnc_initiated_rab_release_interfered_by_rnc_initiated_iu_release_request.LWG
p278
aVtc_166_409_israu_new_service_req_reestablish_streaming_dt_ggsn_address_2T.LWG
p279
aVtc_214_632_combined_attach_MSC_selection_in_pool_then_paging_MSC_pool_feature_off_when_waiting_for_modify_bearer_response.LWG
p280
aVtc_214_822_SGW_unavailable_Combined_Attach_mt_sms.LWG
p281
aVtc_12_512_pmm_undefined_attach_when_updating_location_interfered_by_rnc_reset.LWG
p282
aVtc_12_134_attach_with_extended_mmumoc_iu_inactivity_timer.LWG
p283
aVtc_243_203_tau_from_sgsn_s3_get_new_sgw_two_pdn_connections_first_failed_second_ok.LWG
p284
aVtc_329_159_intra_tau_rs_restricted_tai_list_rs_config_change_rs_feature_off.LWG
p285
aVtc_194_505_Notification_during_Intra_TAU_without_SGW_Relocation_HSS_Reset_Before_TAU.LWG
p286
aVtc_274_508_TAU_intra_active_flag_on_pdn_connection_wf_modify_bearer_response.LWG
p287
aVtc_304_266_tau_from_gnsgsn_2g_control_mode_wf_delete_all_bearers_response_exception_case_reject_congestion_subscriber_cancelled.LWG
p288
aVtc_334_165_sgw_restart_mf_multiple_pdn_s5_deactivation_and_s8_relocation.LWG
p289
aVtc_257_35_pws_etws_write_replace_warning_request_when_olp_rshl_false.LWG
p290
aVtc_211_025_streamed_cell_trace_mapping_alarm_cease_ipv6.LWG
p291
aVtc_318_158_sgw_restart_af_relocation_triggered_by_intra_tau_procedure_fail.LWG
p292
aVtc_326_325_Service_Reject_Retrival_Response_timeout_then_Reattach.LWG
p293
aVtc_284_331_deactivate_1_default_bearer_of_not_last_active_pdn_while_1_pdn_is_creating_and_wf_create_session_response.LWG
p294
aVtc_286_118_pdn_disconnect_finished_pdn_connectivity_with_same_pti.LWG
p295
aVtc_298_201_SIBD_S4_RAB_Release_3GDT_GTP_Resource_Unavailable.LWG
p296
aVtc_298_690_S4_3GDT_Service_request_wait_MBR_ef_delete_bearer_request_lbi.LWG
p297
aVtc_342_085_x3_tunnel_setup_fail_x2_fail_setup.LWG
p298
aVtc_51_056_reloc_wf_rau_complete_interrupted_by_attach_on_new_iu.LWG
p299
aVtc_292_012_x2_based_ho_with_emergency_pdn_and_tai_list.LWG
p300
aVtc_241_431_intra_rau_with_bearer_sgw_unchange_2_pdns_with_one_modify_no_response.LWG
p301
aVtc_241_351_intra_rau_with_authentication_error.LWG
p302
aVtc_241_1694_intra_rau_without_sgw_change_interferred_by_reset_resource_after_modify_bearer_request.LWG
p303
aVtc_183_011_itc_trace_file_wrap.LWG
p304
aVtc_73_07_itc_encrypted_gtpu_s4_payload_w.LWG
p305
aVtc_92_05_60_old_format_counters.LWG
p306
aVtc_297_142_inter_rau_new_fetch_imsi_no_gp_old_sgsn_no_response.LWG
p307
aVtc_27_028_mt_sms_suspend_during_paging.LWG
p308
aVtc_268_072_Timer_Based_GBR_Deact__receive_first_DDN_contains_only_GBR_second_DDN_contains_non_GBR.LWG
p309
aVtc_310_246_ef__S1_Reset_wf_Delete_Bearer_Request.L14b
p310
aVtc_306_721_ef_seamless_move_by_mme_ue_ecm_idle_wf_forward_relocation_response_interfered_by_sms_paging.L14b
p311
aVtc_304_266_tau_from_gnsgsn_2g_control_mode_wf_delete_all_bearers_response_exception_case_reject_congestion_subscriber_cancelled.L14b
p312
aVtc_304_490_uplink_nas_csfb_to_wg_control_mode_threshold_exceeded_int_prot_nok_usc_ignore_in_ecm_connected.L14b
p313
aVtc_44_860_mme_assoc_reestablish__sctp_fe_restart_s1_mme.L14b
p314
aVtc_276_380_Inter_TAU_New_MME__active_flag_true_Update_Bearer_Request_and_new_TAU_wf_TAU_Complete.L14b
p315
aVtc_286_118_pdn_disconnect_finished_pdn_connectivity_with_same_pti.L14b
p316
aVtc_304_266_tau_from_gnsgsn_2g_control_mode_wf_delete_all_bearers_response_exception_case_reject_congestion_subscriber_cancelled.LW
p317
aVtc_298_074_s4_nrspca_activate_same_nsapi_of_dedicated_bearer_apn_failed.LW
p318
aVtc_298_702_pgw_init_modification_ef_ms_deact_req_tdi_false_ti_default_wf_modify_accept.LW
p319
aVtc_219_250_W2L_Intra_HO_Partially_TZ_and_SN_Reported_in_MBR.LW
p320
aVtc_274_605_combined_TAU_two_CS_Call_Paging_request_while_waiting_for_AIA.LW
p321
aVtc_346_494_Small_Local_Restart__Terminate_when_UE1_PDN_Connectivity_waiting_for_CCAI_UE2_Location_Report_waiting_for_CCAU.LW
p322
aVtc_346_493_Small_Local_Restart__Terminate_when_UE_S1_release.LW
p323
aVtc_286_118_pdn_disconnect_finished_pdn_connectivity_with_same_pti.LW
p324
aVtc_260_219_receive_2_m3_reset_req_while_wf_m3_start_resp.LW
p325
aVtc_43_023_s1ap_setup_with_changed_csg_id_list.LW
p326
aVtc_310_310_S3_new_SGW_emergency_attach_sv_pool_on_msc_one_offloading_one_available.LW
p327
aVtc_256_393_mme_eps_srvcc_ho_source_cs_only_emergency__ubr_wf_ps_to_cs_response.LW
p328
aVtc_24_130_msc_pool_ngaf_after_hlr_reset.G14b
p329
aVtc_98_045_inter_sgsn_new_psho_rau_aborted_due_to_Gs_alert.G14b
p330
aVtc_73_07_itc_encrypted_gtpu_s4_payload_w.WG14a
p331
aVtc_322_050_smooth_move_ebt_rau_after_move.WG14a
p332
aVtc_304_266_tau_from_gnsgsn_2g_control_mode_wf_delete_all_bearers_response_exception_case_reject_congestion_subscriber_cancelled.L14b
p333
aVtc_195_543_mme_logging_new_mme_identification_request_with_old_guti_type_trace_imei.L14b
p334
aVtc_202_12_attach_during_paging.L14b
p335
aVtc_44_850_mme_assoc_reestablish__board_restart_s1_mme.L14b
p336
aVtc_286_118_pdn_disconnect_finished_pdn_connectivity_with_same_pti.L14b
p337
aVtc_217_061_rau_to_sgsn_create_bearer_request_when_wf_20s_timeout.L14b
p338
aVtc_12_134_attach_with_extended_mmumoc_iu_inactivity_timer.LW
p339
aVtc_218_203_TAU_from_SGSN__Attach_Request_while_waiting_for_Context_Response.LW
p340
aVtc_324_043_af_mbr_higher_than_policymap.LW
p341
aVtc_244_032_mt_lr_connected_mode_resend_LRC_twice_then_no_response.LW
p342
aVtc_286_118_pdn_disconnect_finished_pdn_connectivity_with_same_pti.LW
p343
aVtc_304_266_tau_from_gnsgsn_2g_control_mode_wf_delete_all_bearers_response_exception_case_reject_congestion_subscriber_cancelled.LW
p344
aVtc_318_131_sgw_restart_mf_restoration_triggered_by_intra_tau_procedure.LW
p345
aVtc_79_032_rab_reestablish_on_downlink_data_packets_rab_fail_cause_116.LW
p346
aVtc_236_297_HO_over_S3_3GDT_switchback_ef_relocation_required_wf_modify_bearer_response.LW
p347
aVtc_194_506_Notification_during_Intra_MME_TAU_without_SGW_Relocation_Procedure.LW
p348
aVtc_334_231_sgw_restart_counter_changed_inter_new_srns_reloc_s16_without_sgw_change.LW
p349
aVtc_103_1005_secondary_dpl_used_when_all_peers_in_dpl_unavailable_with_sls.LW
p350
aVtc_310_226_ef__Ue_Release_Request_wf_Delete_Bearer_Request.LW
p351
aVtc_199_83_imsi_attach_S11_echo_alarm.LW
p352
aVtc_241_066_israu_new_gn_to_s4_pdp_to_bearer_two_pdp_one_arp_higher_than_policy_map.LW
p353
aVtc_241_159_israu_old_wait_for_sgsn_context_ack_interfere_by_reset_and_detach.LW
p354
aVtc_221_020_paging__2_dedicated_bearers_default_profile.LW
p355
aVtc_209_18_target_info_query.W14b
p356
aVtc_11_147_rab_reestablish_on_service_request_data_pmm_connected.W14b
p357
aVtc_313_281_inter_new_srns_reloc_s16_with_sgw_change_downlink_data_notification_with_cause_received_wf_rau_complete.W14b
p358
aVtc_250_150_isd_with_odb_init_deactivation.W14b
p359
aVtc_281_004_Activate_bearer__Create_Bearer_Request_while_wf_erab_setup_response.LWG
p360
aVtc_283_038_GW_Deactivate_Bearer__Default_bearer_Delete_Interrupt_Dedicated_Bearer_Delete_no_response_from_ue_ecm_connected.LWG
p361
aVtc_324_043_af_mbr_higher_than_policymap.LWG
p362
aVtc_324_061_af_frcn_not_received.LWG
p363
aVtc_324_513_ef_delete_bearer_request_seq_no_same_ignore_payload_after_ulr.LWG
p364
aVtc_297_381_inter_rau_new_interrupted_by_attach_request.LWG
p365
aVtc_306_055_ef_seamless_move_source_receive_cancel_location_update_wf_frcn.LWG
p366
aVtc_306_1160_ef_seamless_move_target_receive_handover_required_ignore.LWG
p367
aVtc_28_002_mo_sms_service_request.LWG
p368
aVtc_271_100_sctp_paging_olp_verify_emergency_UE_is_immune.LWG
p369
aVtc_296_026_ANR_Support__eNodeB_Configuration_Transfer_request_flow_with_ip_address.LWG
p370
aVtc_304_266_tau_from_gnsgsn_2g_control_mode_wf_delete_all_bearers_response_exception_case_reject_congestion_subscriber_cancelled.LWG
p371
aVtc_665_1_dp_reboot_init_cm_restart_with_traffic.LWG
p372
aVtc_341_531_x2_activity_event_emergency_attach_detach_simless_ue_imei.LWG
p373
aVtc_327_332_recovery_service_request__initial_Detach_Request_while_waiting_for_Sub_Procedure__Guti_Reallocation_Complete.LWG
p374
aVtc_327_163_recovery_intra_TAU_Context_Request_while_waiting_for_TAU_Complete.LWG
p375
aVtc_273_302_tau_intra_emergency_ongoing_different_profile.LWG
p376
aVtc_12_512_pmm_undefined_attach_when_updating_location_interfered_by_rnc_reset.LWG
p377
aVtc_12_134_attach_with_extended_mmumoc_iu_inactivity_timer.LWG
p378
aVtc_288_213_pgw_init_bearer_mod_QoS_equal_PCO_included_ecm_connected.LWG
p379
aVtc_274_140_Intra_and_pTAU__Imei_Check_Answer_Unknown_Equipment_while_waiting_for_TAU_Complete.LWG
p380
aVtc_274_450_tau_intra__sgw_relocation_with_csg_id_plmn_change_during_service_request_reject.LWG
p381
aVtc_81_010_israu_conversational.LWG
p382
aVtc_210_044_attach_reject_imsi_cc_96.LWG
p383
aVtc_251_66_w_to_l_to_w_with_cl_type_initialAttach_cl_after_sgsn_con_req.LWG
p384
aVtc_314_049_sgsn_init_qos_modification_handover_l_to_w_interrupt_by_reset_paging_succ.LWG
p385
aVtc_178_680_action_ss7_sctp_base.LWG
p386
aVtc_178_662_action_ss7_sccp_local_sap_sendssa.LWG
p387
aVtc_178_530_action_ss7_m3ua_local_as_stop.LWG
p388
aVtc_39_921_ef_seamless_move_interrupted_by_normal_attach.LWG
p389
aVtc_202_384_mf_seamless_move_target_service_request_before_ula_without_ddn_seq1.LWG
p390
aVtc_202_590_mf_seamless_move_target_ddn_on_removed_PDN_before_ula.LWG
p391
aVtc_245_325_israu_new_l_to_w_with_sgw_unchange_2_pdn_service_request_intefered_by_deactivate_pdp_req_with_tdi.LWG
p392
aVtc_26_058_activate_3_primary_contexts_different_policy_maps.LWG
p393
aVtc_326_462_Inter_TAU_Recovery_Unknown_GUTI__Emergency_Type_a_Roaming_Restricted.LWG
p394
aVtc_103_710_commlost_small_restart.LWG
p395
aVtc_56_21_sending_recognized_information_in_log.LWG
p396
aVtc_267_224_Service_Request__PDN_Connectivity_Request_while_waiting_for_Modify_Bearer_Response_where_dedicated_fails.LWG
p397
aVtc_226_203_W_S4_Initial_UE_USC_PTMSI_Attach_ControlMode_On_Reject_gprs_service_not_allowed.LWG
p398
aVtc_334_122_sgw_restart_mf_one_pdn_deactivate_APN_in_APNList_s5.LWG
p399
aVtc_196_191_nrspca_iu_released_with_iu_satellite_hpa_arp1.LWG
p400
aVtc_346_202_RFSP__CCA_Initial_with_RFSP__Two_PDNs_with_same_RFSP__RAR_in_ECM_Connected.LWG
p401
aVtc_346_634_pra_cn_predefined_tai_ecgi_list__attach_in__pdn_out_of_pra.LWG
p402
aVtc_348_368_inter_srns_reloc_af__new_sgsn_rau_request_timeout.LWG
p403
aVtc_236_039_s4_3gdt_detach_during_waiting_for_modify_bearer_rsp_in_active_procedure.LWG
p404
aVtc_236_303_Activation_DtSelMode_3_without_APN_Requested_SGSN_default_APN_not_in_APN_list.LWG
p405
aVtc_358_105_lte_local_user_reactivate_pdn_intra_tau_ip_area_to_another_irr_nrr_ip_area.LWG
p406
aVtc_256_082_mme_eps_srvcc_ho_source_to_geran_cs_only_af_with_msc_pool_msc_select_failed_by_target_cell_id.LWG
p407
aVtc_166_265_activate_primary_dt_apn_list_apn_r_3gdt_prefix.LWG
p408
aVtc_166_105_intra_rau_iu_released_new_rnc_service_req_reestablish_interactive.LWG
p409
aVtc_194_506_Notification_during_Intra_MME_TAU_without_SGW_Relocation_Procedure.LWG
p410
aVtc_194_505_Notification_during_Intra_TAU_without_SGW_Relocation_HSS_Reset_Before_TAU.LWG
p411
aVtc_232_403_bfd__ipv4ipv6_alarm.LWG
p412
aVtc_239_158_inter_rau_new_sgw_changed_create_session_timeout.LWG
p413
aVtc_231_123_error_indication_from_rnc_during_sgsn_init_deactivation_s4.LWG
p414
aVtc_231_503_act_req_with_same_apn_and_staticPDPAddr_interfere_modification.LWG
p415
aVtc_302_075_mt_sms_from_second_msc_second_iws_with_reselection.LWG
p416
aVtc_92_05_60_old_format_counters.LWG
p417
aVtc_197_520_intra_tau_without_sgw_relocation_table_not_matched_snaptr_failed.LWG
p418
aVtc_218_065_tau_from_sgsn_two_pdns_one_apn_not_subscribed_ddn_on_live_pdn_wf_tau_complete.LWG
p419
aVtc_220_509_csfb_to_1xrtt_in_ecm_idle_extended_service_request_wf_initial_context_setup_response.LWG
p420
aVtc_195_222_mme_logging_maximum_s6a_if_only.LWG
p421
aVtc_289_102_multi_pdns_pgw_init_bearer_mod_ecm_active_interrupted_by_dbr_with_lbi.LWG
p422
aVtc_268_007_release_request_no_response.LWG
p423
aVtc_298_510_pgw_init_pdn_deletion_ef_pgw_init_deletion.LWG
p424
aVtc_298_685_S4_3GDT_Iu_release_wait_RABR_ef_delete_bearer_request_ebi.LWG
p425
aVtc_230_177_pgw_init_deletion_ef_redundance_request.LWG
p426
aVtc_249_41_s6d_inter_rau_old_hss_context_id_out_of_range_nodeprop_off.LWG
p427
aVtc_290_013_Timer_Based_GBR_Deact__TAU_request_wf_release_access_bearer_response_before_timer_expires.LWG
p428
aVtc_247_203_inter_w_to_l_old_one_pdn_connection_without_sgw_change_s6d.LWG
p429
aVtc_262_210_new_mme_identification_procedure_with_cause_imsi_not_known_gn.LWG
p430
aVtc_262_1055_imsi_attach_with_csg_id_is_rejected.LWG
p431
aVtc_225_112_mo_call_active_mode_ongoing_ims_emergency_call_emergency_csfb.LWG
p432
aVtc_310_246_ef__S1_Reset_wf_Delete_Bearer_Request.LWG
p433
aVtc_310_202_ef__Detach_wf_PS_to_CS_Response.LWG
p434
aVtc_257_59_MPS_classified_paging_pws_ongoing_DPDP_true.LWG
p435
aVtc_244_002_mt_lr_idle_mode.LWG
p436
aVtc_214_148_combined_tau_intra_interfering_mo_sms_s1_reset.LWG
p437
aVtc_214_1210_combined_attach_with_emergency_pdn_ue_initiated_imsi_detach_csg_restricted.LWG
p438
aVtc_214_1099_la_selection_mf_reselection_combined_tau_with_imsi_attach_after_mme_triggered_imsi_detach_when_handling_sgs_paging.LWG
p439
aVtc_321_012_s4_logging_inter_rau_l2w_new_ddn_failure.LWG
p440
aVtc_316_213_Intra_MME_X2_HO_With_TA_Change__Backup_UE.LWG
p441
aVtc_259_93_ef_provide_subscriber_information_service_request_w.LWG
p442
aVtc_313_043_inter_new_srns_reloc_s16_with_sgw_change_then_do_intra_srns_relocation.LWG
p443
aVtc_241_066_israu_new_gn_to_s4_pdp_to_bearer_two_pdp_one_arp_higher_than_policy_map.LWG
p444
aVtc_241_045_intra_with_multi_bearer_sgw_change_try_next.LWG
p445
aVtc_241_432_intra_rau_with_bearer_sgw_unchange_2_pdns_3gdt.LWG
p446
aVtc_241_532_intra_rau_with_failed_dedicated_sgw_error_indication_default.LWG
p447
aVtc_286_118_pdn_disconnect_finished_pdn_connectivity_with_same_pti.LWG
p448
aVtc_73_07_itc_encrypted_gtpu_s4_payload_w.LWG
p449
aVtc_367_102_pgw_reselection_ho_without_qci_1_feature_off.LWG
p450
aVtc_84_71_provide_subscriber_location_ef_paging_interrupted_by_rau_req.G14b
p451
aVtc_202_412_af_seamless_move_target_lur_resp_timeout_from_msc.L14b
p452
aVtc_283_032_GW_Deactivate_Bearer__Default_bearer_Ue_context_release_while_waiting_erab_release_response.L14b
p453
aVtc_304_266_tau_from_gnsgsn_2g_control_mode_wf_delete_all_bearers_response_exception_case_reject_congestion_subscriber_cancelled.L14b
p454
aVtc_327_532_recovery_service_request__Imsi_Page_while_waiting_for_Location_Update_Answer.L14b
p455
aVtc_286_118_pdn_disconnect_finished_pdn_connectivity_with_same_pti.L14b
p456
aVtc_194_100_check_gauge_unstable_not_parked.L14b
p457
aVtc_367_117_pgw_reselection_ho_2_ims_pdn_all_qci_1_sgw_send_dbr.LW
p458
aVtc_358_136_lte_local_user_intra_handover_ip_area_to_unrestricted_ip_area_with_one_pdn_activated_in_unrestricted_ip_area.LW
p459
aVtc_327_037_recovery_intra_TAU_active_off_sgw_unchanged__RAR_wf_CSR_due_to_S11_linkdown.LW
p460
aVtc_236_168_s4_3gdt_with_dedicated_bearer_paging_by_dl_notification_all_rab_setup_failed.LW
p461
aVtc_236_311_HO_over_S3_3GDT_switchback_ef_delete_bearer_request_received_wf_rab_assignment_response.LW
p462
aVtc_195_025_attr_time_first_started_ok.LW
p463
aVtc_304_266_tau_from_gnsgsn_2g_control_mode_wf_delete_all_bearers_response_exception_case_reject_congestion_subscriber_cancelled.LW
p464
aVtc_263_458_Attach_Flow__Cancel_Location_Initial_Attach_then_Attach_again_while_waiting_for_Create_Session_Response.LW
p465
aVtc_263_330_Attach_Flow__Path_Switch_Request_while_waiting_for_Modify_Bearer_Response_and_modify_bear_fail.LW
p466
aVtc_262_1055_imsi_attach_with_csg_id_is_rejected.LW
p467
aVtc_262_752_attach_handover_indication_no_override_other_apn.LW
p468
aVtc_209_44_sgsn_init_pdp_modification.LW
p469
aVtc_44_004_small_restart__sctp_fe_restart.LW
p470
aVtc_103_602_georedundant_realm_routing.LW
p471
aVtc_245_128_inter_rau_old_with_sgw_reloc_wf_Cancel_Location_interfere_by_attach_req.LW
p472
aVtc_286_118_pdn_disconnect_finished_pdn_connectivity_with_same_pti.LW
p473
aVtc_12_512_pmm_undefined_attach_when_updating_location_interfered_by_rnc_reset.LW
p474
aVtc_12_134_attach_with_extended_mmumoc_iu_inactivity_timer.LW
p475
aVtc_12_154_detached_receives_reset.LW
p476
aVtc_346_132_Location_Based_Policies__User_Location_Change_Sx_Only__Intra_TAU_Service_Request_2_PDNs.LW
p477
aVtc_307_009_HSS_Init_QoS_Modification__Emergency_type_a_APNAMBR_RFSP_Changed.LWG
p478
aVtc_284_575_emergency_pdn_connectivity_pb_activate_dedicated_bearer_after_configured_max_bearers_setup.LWG
p479
aVtc_248_97_inter_l_to_w_new_update_bearer_request_received_wf_modify_bearer_response_timeout.LWG
p480
aVtc_259_92_ef_provide_subscriber_information_psho_intra_g_to_w.LWG
p481
aVtc_346_372_isc_tau_w_to_l_establish_sx_session.LWG
p482
aVtc_346_671_pra_cn_predefined_cca_u_for_initial_report_failure_in_2nd_pdn_then_intra_tau_active_flag_out.LWG
p483
aVtc_220_408_csfb_to_1xrtt_in_ecm_connected_ue_context_modification_failure_s1_intra_system_handover_triggered_receive_HO_all_bearer_fail.LWG
p484
aVtc_220_412_csfb_to_1xrtt_in_ecm_connected_handover_required_HO_retry_counter_exceed.LWG
p485
aVtc_236_104_s4_3gdt_based_on_sr_inter_rau_then_rau_back_within_20s_with_new_ptmsi.LWG
p486
aVtc_236_311_HO_over_S3_3GDT_switchback_ef_delete_bearer_request_received_wf_rab_assignment_response.LWG
p487
aVtc_230_063_activate_ignore_ef_deactivate_when_s4_can_use_and_s4_in_use.LWG
p488
aVtc_230_275_act_req_with_same_apn_and_staticPDPAddr_interfere_modification.LWG
p489
aVtc_369_055_tau_request_during_waiting_for_location_report__idr_flags_ef.LWG
p490
aVtc_311_229_intra_srns_reloc_s4_sgw_change_wf_relocation_complete_interrupted_by_sgsn_context_request.LWG
p491
aVtc_321_078_gn_logging_smooth_move_idle_no_pdp_target.LWG
p492
aVtc_226_303_W__USC_Service_Request_ControlMode_On_Ongoing_Reject.LWG
p493
aVtc_306_064_ef_seamless_move_source_receive_service_request_wf_target_guti_reallocation_complete.LWG
p494
aVtc_306_724_ef_seamless_move_by_mme_ue_ecm_idle_wf_forward_relocation_response_failed_interfered_by_cs_paging.LWG
p495
aVtc_214_143_combined_attach_emergency_attach.LWG
p496
aVtc_214_807_mo_sms_active_donwlink_nas_transport_meanwhile_handover_required_HO_success_TAU.LWG
p497
aVtc_262_100_emergency_imsi_attach_access_restriction_emc_sup_auth_only.LWG
p498
aVtc_304_023_attach_detach_then_guti_attach_when_attaching__control_mode_threshold_exceeded_usc_reject_congestion.LWG
p499
aVtc_304_264_tau_from_gnsgsn_2g_control_mode_wf_combined_procedure_reject_PS_service_not_allowed.LWG
p500
aVtc_304_266_tau_from_gnsgsn_2g_control_mode_wf_delete_all_bearers_response_exception_case_reject_congestion_subscriber_cancelled.LWG
p501
aVtc_304_430_Service_Request_UE_Initiated__control_mode_threshold_exceeded_explicit_detach_idle_mode.LWG
p502
aVtc_197_522_inter_tau_with_sgw_relocation_table_not_matched_snaptr_failed.LWG
p503
aVtc_53_57_inter_new_srns_reloc_rab_not_allocated_interrupt_by_reset.LWG
p504
aVtc_225_203_service_reject_sgs_null_idle_mode.LWG
p505
aVtc_225_655_mt_call_active_mode_no_lai_in_paging_req_current_la_not_supported.LWG
p506
aVtc_204_409_mme_eps_ho_target_type_b_roaming_restriction_same_profile_emc_sup_sim_only.LWG
p507
aVtc_204_1233_mme_eps_ho_tac_based_roaming_restriction_table_not_matched_blacklist.LWG
p508
aVtc_237_030_mme_eps_irat_ho_source__service_request_before_forw_rel_resp.LWG
p509
aVtc_231_176_sgsn_init_detach_interfered_by_context_request_wait_detach_accept.LWG
p510
aVtc_231_637_PGW_init_modification_with_16m_flag_not_allowed_ambr_from_pgw_equal_to_primary_pdp.LWG
p511
aVtc_213_008_activate_primary_and_secondary_pdp_context_nrspca_off.LWG
p512
aVtc_335_120_Intra_TAU_AF__GA_change.LWG
p513
aVtc_219_411_intra_tau_from_sgsn_no_active_bearer_from_tau_req.LWG
p514
aVtc_196_191_nrspca_iu_released_with_iu_satellite_hpa_arp1.LWG
p515
aVtc_256_048_mme_eps_srvcc_ho_source_cs_only_emergency_attach_delete_session_response_not_received.LWG
p516
aVtc_256_252_srvcc_ho_source_cs_only_emergency_mf_after_emergency_attach_unauthenticated_imsi_slr_handover.LWG
p517
aVtc_325_106_inter_old_srns_reloc_s4_to_gn_with_gbr_bearer_waiting_for_forward_relocation_complete_timeout.LWG
p518
aVtc_268_104_ue_release__cs_paging_followed_by_downlink_data_notification_wf_ue_release_complete.LWG
p519
aVtc_273_422_Report_SN_intra_TAU_without_SGW_changed_2_PDN.LWG
p520
aVtc_249_103_s6d_attach_reject_due_to_auth_vector_is_null.LWG
p521
aVtc_178_446_modify_ss7_sctp_profile_hbwps.LWG
p522
aVtc_347_015_Inter_TAU_New_MME_from_gn__Attach_Req_while_waiting_for_CCA_initial.LWG
p523
aVtc_347_266_PDN_Connectivity__Location_Report_while_waiting_activate_default_eps_bearer_context_accept.LWG
p524
aVtc_56_4_abort.LWG
p525
aVtc_56_21_sending_recognized_information_in_log.LWG
p526
aVtc_349_111_RAU_new_sgsn__MO_SMS_while_waiting_for_CCA_initial.LWG
p527
aVtc_357_401_wcdma_reject_international_roaming_user_attach_from_irr_ip_area.LWG
p528
aVtc_275_105_Inter_TAU_New_MME__Imei_Check_Answer_Whitelisted_before_TAU_Accept.LWG
p529
aVtc_260_247_cli_trigger_stop_ssrm_true_while_wf_m3_stop_resp.LWG
p530
aVtc_203_454_mme_eps_handover_source__cs_paging_wf_forward_relocation_response_by_rejection.LWG
p531
aVtc_38_169_irat_old_pdp_ggsn_not_responding.LWG
p532
aVtc_310_311_S3_same_SGW_combine_attach_msc_unavailable_select_another_one.LWG
p533
aVtc_247_130_inter_w_to_l_old_wf_fwd_reloc_resp_interrupted_by_hlr_reset.LWG
p534
aVtc_247_48_inter_w_to_l_old_relocation_cancel_ue_lost_wf_fwd_reloc_resp_3gdt.LWG
p535
aVtc_239_359_inter_rau_old_cancel_location_after_t3_timerout_s4.LWG
p536
aVtc_327_017_recovery_intra_TAU__uplink_Detach_Request_while_waiting_for_Ue_Backup_Response.LWG
p537
aVtc_327_037_recovery_intra_TAU_active_off_sgw_unchanged__RAR_wf_CSR_due_to_S11_linkdown.LWG
p538
aVtc_327_254_recovery_service_request_MBR_timeout__Extended_Service_Request_wf_Guti_Reallocation_Complete.LWG
p539
aVtc_327_530_recovery_service_request__Imsi_Page_while_waiting_for_Initial_Context_Setup_Response.LWG
p540
aVtc_245_332_israu_new_l_to_w_with_sgw_unchange_1_pdn_buffer_ubr_before_mbr.LWG
p541
aVtc_334_152_sgw_restart_mf_dt_and_dedicated_bearer_trigger_by_rau.LWG
p542
aVtc_28_047_mt_sms_old_cdr_format_r7.LWG
p543
aVtc_324_069_af_modify_bearer_dedicated_bearer_fail.LWG
p544
aVtc_324_210_ef_attach_request_abort_wf_rab_assignment_response_payload.LWG
p545
aVtc_73_07_itc_encrypted_gtpu_s4_payload_w.LWG
p546
aVtc_296_030_ANR_Support__eNodeB_Configuration_Transfer_reply_flow_with_gtp_addresses.LWG
p547
aVtc_24_38_alert_request_unknown_imsi.LWG
p548
aVtc_333_101_af__OLP_Priority_after_CBR_eNodeB_rejects_partly.LWG
p549
aVtc_95_10_fingerprint.LWG
p550
aVtc_266_304_Service_Request_SGW_unavailable__create_session_request_timeout.LWG
p551
aVtc_200_4_move_detach_one_ms_cli_move_start.LWG
p552
aVtc_280_141_emergency_paging_1_dedicated_bearers.LWG
p553
aVtc_342_039_x2_connection_fail_with_default_x2_connection_fail_send_alarm.LWG
p554
aVtc_326_260_Intra_TAU_with_unknown_GUTI_Restriction_SAU_license_limit_reached.LWG
p555
aVtc_326_412_Combined_TAU_Recovery_Context_Respone_With_Cause_IMSI_Not_Known__Location_Update.LWG
p556
aVtc_217_090_rau_to_sgsn_while_deactivate_gbr_bearer.LWG
p557
aVtc_232_401_bfd__ipv4_alarm.LWG
p558
aVtc_232_403_bfd__ipv4ipv6_alarm.LWG
p559
aVtc_313_037_inter_new_srns_reloc_s16_with_sgw_change_3gdt_flow_with_preserved_dedicate_bearer.LWG
p560
aVtc_195_213_mme_logging_maximum_csfb_to_1xrtt_extended_service_request.LWG
p561
aVtc_289_071_GW_Init_Bearer_Modification_Flow__CBR_and_Downlink_Notif_while_wf_modify_eps_bearer_context_accept.LWG
p562
aVtc_286_118_pdn_disconnect_finished_pdn_connectivity_with_same_pti.LWG
p563
aVtc_244_004_mt_lr_lcs_qos_no_vertical_accuracy.LWG
p564
aVtc_322_146_smooth_move_ef_provide_location_request_with_pp_true_plr_true.LWG
p565
aVtc_298_024_nrspca_s4_request_secondary_reject_activation_rejected_unspecified.LWG
p566
aVtc_298_132_EF_NRSPCA_S4_Activate_TiFlag.LWG
p567
aVtc_298_534_sgsn_init_pdn_deact_ef_deact_req_ti_default_bearer_wf_deact_accept.LWG
p568
aVtc_298_685_S4_3GDT_Iu_release_wait_RABR_ef_delete_bearer_request_ebi.LWG
p569
aVtc_166_276_activate_primary_dt_apn_list_empty_3gdt_apn_in_hlr_apn_r_empty_mode_3.LWG
p570
aVtc_166_428_rnc_initiated_rab_release_interfered_by_rnc_initiated_iu_release_request.LWG
p571
aVtc_297_163_inter_rau_af_sgsn_context_response_sys_failure.LWG
p572
aVtc_358_128_lte_local_user_inter_handover_target_in_ip_area_reject.LWG
p573
aVtc_292_093_x2_handover_with_csg_id.LWG
p574
aVtc_319_004_attach_mf_static_selection_on_table_matched_low_priority.LWG
p575
aVtc_218_021_tau_from_sgsn_no_colocated_gw_cause_from_sgw_tau_accept.LWG
p576
aVtc_218_053_tau_from_sgsn_roaming_restricted_transfer_due_to_wrong_ap_index.LWG
p577
aVtc_92_05_60_old_format_counters.LWG
p578
aVtc_341_530_x2_activity_event_emergency_attach_detach_imsi.LWG
p579
aVtc_238_020_mme_eps_irat_ho_target__sgw_relocation_default_bearer_failes_sgw.LWG
p580
aVtc_238_250_mme_eps_irat_Gn_ho_target__two_pdns_only_one_ggsn_pgw_mapping_successful.LWG
p581
aVtc_194_403_tau_ul_fails_roaming_not_allowed_remap_on_with_err_diag.LWG
p582
aVtc_194_505_Notification_during_Intra_TAU_without_SGW_Relocation_HSS_Reset_Before_TAU.LWG
p583
aVtc_274_266_Intra_and_pTAU__Path_Switch_Request_with_new_TA_while_waiting_for_TAU_Request_after_HO.LWG
p584
aVtc_52_17_inter_old_treloccomplete_timeout_before_ack.LWG
p585
aVtc_276_364_Inter_TAU_New_MME__S1_Reset_while_waiting_for_initial_context_setup_Response.LWG
p586
aVtc_316_208_PGW_Initiated_Bearer_Mod_ECM_Connected_Only_TFT_Changed__Backup_UE.LWG
p587
aVtc_241_142_israu_new_wait_for_modify_session_resp_interfere_by_detach.LWG
p588
aVtc_241_405_israu_new_with_16m_flag_allowed_in_context_response_and_epc_cap_in_rau_req_transfer_to_new_tcw.LWG
p589
aVtc_241_443_israu_new_with_dedicated_bearer_all_inactive.LWG
p590
aVtc_241_432_intra_rau_with_bearer_sgw_unchange_2_pdns_3gdt.LWG
p591
aVtc_241_638_intra_rau_with_bearer_sgw_change_with_3gdt_wait_create_session_resp_interfer_by_modify_pdp_req.LWG
p592
aVtc_313_281_inter_new_srns_reloc_s16_with_sgw_change_downlink_data_notification_with_cause_received_wf_rau_complete.WG14a
p593
aVtc_73_07_itc_encrypted_gtpu_s4_payload_w.WG14a
p594
aVtc_239_620_inter_rau_new_with_bearer_sgw_not_change_isd_odb_bit0_wf_rau_compl_deactivation.G14b
p595
aVtc_84_71_provide_subscriber_location_ef_paging_interrupted_by_rau_req.G14b
p596
aVtc_84_80_provide_subscriber_locaiton_ef_paging_interrupted_by_attach.G14b
p597
aVtc_298_074_s4_nrspca_activate_same_nsapi_of_dedicated_bearer_apn_failed.W14b
p598
aVtc_298_140_EF_NRSPCA_interfere_intraRAU_without_SGW_Changed.W14b
p599
aVtc_51_025_reloc_wf_reloc_req_ack_interrupted_by_cancel_loc_subscrip_withdrawn.W14b
p600
aVtc_241_1700_sgw_prioritized_gw_selection_rau_s4.W14b
p601
aVtc_359_155_sgw_prioritized_gw_selection_s4_handover_from_non3gpp.W14b
p602
aVtc_231_800_sgw_prioritized_gw_selection_initial_pdn_connection_wcdma.W14b
p603
aVtc_236_029_s4_3gdt_release_access_bearers_failed.W14b
p604
aVtc_73_07_itc_encrypted_gtpu_s4_payload_w.WG14a
p605
aVtc_349_005_Activation__Reset_from_RNC_while_waiting_for_CCA_initial.WG14a
p606
aVtc_324_043_af_mbr_higher_than_policymap.WG14a
p607
aVtc_166_428_rnc_initiated_rab_release_interfered_by_rnc_initiated_iu_release_request.WG14a
p608
aVtc_284_159_pdn_conn_successful_csr_piggybacked_with_cbr_qos_too_high_for_some_bearers.L14b
p609
aVtc_327_105_recovery_intra_TAU__Cancel_Location_subscription_withdrawal_while_waiting_for_Ue_Backup_Response.L14b
p610
aVtc_347_134_Seamless_Move_Target__DDN_with_imsi_while_waiting_for_CCA_initial.L14b
p611
aVtc_347_227_Extended_Service_Request__RAR_while_waiting_for_UE_Context_Release_Request_csfb_to_1xrtt_in_ecm_idle.L14b
p612
aVtc_294_450_s1_intra_ho__volte_bearer_gauge_create_session_response_with_new_qci.L14b
p613
aVtc_225_601_exp_flow_path_swith_request_while_wf_modification_context_response.L14b
p614
aVtc_286_118_pdn_disconnect_finished_pdn_connectivity_with_same_pti.L14b
p615
aVtc_304_266_tau_from_gnsgsn_2g_control_mode_wf_delete_all_bearers_response_exception_case_reject_congestion_subscriber_cancelled.L14b
p616
aVtc_304_276_tau_from_gnsgsn_with_active_flag_when_wf_tau_complete_control_mode_ignore.L14b
p617
aVtc_304_415_Service_Request_UE_Initiated__control_mode_threshold_exceeded_implicity_detach.L14b
p618
aVtc_84_71_provide_subscriber_location_ef_paging_interrupted_by_rau_req.G14b
p619
aVtc_26_058_activate_3_primary_contexts_different_policy_maps.LWG
p620
aVtc_73_41_gtpu_sgsn_dont_send_gpu_echo_request_w.LWG
p621
aVtc_73_07_itc_encrypted_gtpu_s4_payload_w.LWG
p622
aVtc_209_211_s4_no_sm_events_activate_failed.LWG
p623
aVtc_209_200_s4_context_activate_modify_deactivate.LWG
p624
aVtc_219_131_s3_handover_w_to_l_with_cl_two_pdns_one_failed_sgw_relocation.LWG
p625
aVtc_286_118_pdn_disconnect_finished_pdn_connectivity_with_same_pti.LWG
p626
aVtc_92_05_60_old_format_counters.LWG
p627
aVtc_197_063_s1_handover_sgw_reselection_topon_emc_ims.LWG
p628
aVtc_313_281_inter_new_srns_reloc_s16_with_sgw_change_downlink_data_notification_with_cause_received_wf_rau_complete.LWG
p629
aVtc_195_208_mme_logging_maximum_modify_eps_bearer_context.LWG
p630
aVtc_56_21_sending_recognized_information_in_log.LWG
p631
aVtc_288_114_pgw_init_bearer_mod_paging_one_bearer_rejected_in_modify_bearer_response.LWG
p632
aVtc_39_920_ef_seamless_move_interrupted_by_transferred_attach.LWG
p633
aVtc_39_921_ef_seamless_move_interrupted_by_normal_attach.LWG
p634
aVtc_264_043_delete_subscriber_PPF_Clear.LWG
p635
aVtc_304_266_tau_from_gnsgsn_2g_control_mode_wf_delete_all_bearers_response_exception_case_reject_congestion_subscriber_cancelled.LWG
p636
aVtc_286_118_pdn_disconnect_finished_pdn_connectivity_with_same_pti.LW
p637
aVtc_304_266_tau_from_gnsgsn_2g_control_mode_wf_delete_all_bearers_response_exception_case_reject_congestion_subscriber_cancelled.LW
p638
aVtc_284_351_pdn_connectivity_pb_activate_1_dedicated_bearer_interrupted_by_path_switch_request.LW
p639
aVtc_284_350_pdn_connectivity_interrupted_by_path_switch_request.LW
p640
aVtc_195_208_mme_logging_maximum_modify_eps_bearer_context.LW
p641
aVtc_32_66_israu_old_sgsn_connected_context_ack_failure_interrupted_by_rnc_reset.LW
p642
aVtc_248_165_inter_l_to_w_new_iu_release_request_none_user_inactivity_received_wf_modify_bearer_response.LW
p643
aVtc_219_131_s3_handover_w_to_l_with_cl_two_pdns_one_failed_sgw_relocation.LW
p644
aVtc_298_301_EF_SIBD_S4_Activate_From_MS_TI_Flag.LW
p645
aVtc_263_312_Attach_Flow__Attach_Request_from_new_eNodeB__page_to_new_eNodeB.LW
p646
aVtc_12_134_attach_with_extended_mmumoc_iu_inactivity_timer.LW
p647
aVtc_346_592_sx_feature_off_after_receive_buffered_RAR.LW
p648
aVtc_241_431_intra_rau_with_bearer_sgw_unchange_2_pdns_with_one_modify_no_response.LW
p649
aVtc_11_322_serv_req_data_uplink_data_status_two_serv_req.W14b
p650
aVtc_241_705_intra_rau_with_sgw_change_isd_with_odb_bit_15_EF_interfer_by_update_bearer_req.W14b
p651
aVtc_241_1700_sgw_prioritized_gw_selection_rau_s4.W14b
p652
aVtc_231_800_sgw_prioritized_gw_selection_initial_pdn_connection_wcdma.W14b
p653
aVtc_359_155_sgw_prioritized_gw_selection_s4_handover_from_non3gpp.W14b
p654
aVtc_236_025_s4_3gdt_error_indication_from_sgw_to_rnc.W14b
p655
aVtc_357_420_wcdma_international_roaming_user_reject_intra_relocation_ip_area_to_another_irr_ip_area.WG14a
p656
aVtc_73_07_itc_encrypted_gtpu_s4_payload_w.WG14a
p657
aVtc_322_163_smooth_move_ef_other_nas_after_paging_response_ignore.WG14a
p658
aVtc_33_16_isc_rau_authenticating_interrupted_by_rnc_reset.WG14a
p659
aVtc_231_800_sgw_prioritized_gw_selection_initial_pdn_connection_wcdma.W14b
p660
aVtc_12_512_pmm_undefined_attach_when_updating_location_interfered_by_rnc_reset.W14b
p661
aVtc_349_107_RAU_new_sgsn__Detach_Req_with_power_off_while_waiting_for_CCA_initial.W14b
p662
aVtc_298_820_activate_secondary_pdp_context_request_with_NSAPI_exist_dedicate_bearer_idle_state.W14b
p663
aVtc_313_281_inter_new_srns_reloc_s16_with_sgw_change_downlink_data_notification_with_cause_received_wf_rau_complete.W14b
p664
aVtc_359_155_sgw_prioritized_gw_selection_s4_handover_from_non3gpp.W14b
p665
aVtc_241_1700_sgw_prioritized_gw_selection_rau_s4.W14b
p666
aVtc_250_74_s6d_EF_hss_reset_waiting_delete_session_response.W14b
p667
aVtc_84_71_provide_subscriber_location_ef_paging_interrupted_by_rau_req.G14b
p668
aVtc_259_93_ef_provide_subscriber_information_service_request_w.LWG
p669
aVtc_241_405_israu_new_with_16m_flag_allowed_in_context_response_and_epc_cap_in_rau_req_transfer_to_new_tcw.LWG
p670
aVtc_241_432_intra_rau_with_bearer_sgw_unchange_2_pdns_3gdt.LWG
p671
aVtc_110_005_inbound_outbound_pf_rule_cli_ip.LWG
p672
aVtc_54_112_rim_inter_sgsn_mme_w_to_l_through_gn_and_back.LWG
p673
aVtc_26_058_activate_3_primary_contexts_different_policy_maps.LWG
p674
aVtc_92_05_60_old_format_counters.LWG
p675
aVtc_92_09_20_autoupdate.LWG
p676
aVtc_218_029_tau_from_sgsn_sgw_returns_not_all_bearers.LWG
p677
aVtc_236_311_HO_over_S3_3GDT_switchback_ef_delete_bearer_request_received_wf_rab_assignment_response.LWG
p678
aVtc_347_266_PDN_Connectivity__Location_Report_while_waiting_activate_default_eps_bearer_context_accept.LWG
p679
aVtc_304_266_tau_from_gnsgsn_2g_control_mode_wf_delete_all_bearers_response_exception_case_reject_congestion_subscriber_cancelled.LWG
p680
aVtc_327_211_recovery_service_request_emergency__Cancel_Location_subscription_withdrawal_while_waiting_for_Guti_Reallocation_Complete.LWG
p681
aVtc_166_451_rab_release_interfered_by_detach.LWG
p682
aVtc_166_162_inter_old_srns_reloc.LWG
p683
aVtc_166_245_inter_srns_relco_switch_back_to_two_tunnels.LWG
p684
aVtc_275_212_tau_inter_new_emergency_type_c_sim_only.LWG
p685
aVtc_310_335_ef_dbr_non_voice_bearer_wf_forward_relocation_complete_and_forward_relocation_complete_ack.LWG
p686
aVtc_52_52_reloc_wf_forw_rel_resp_interrupted_by_rnc_reset.LWG
p687
aVtc_363_011_cli_get_ra.LWG
p688
aVtc_288_114_pgw_init_bearer_mod_paging_one_bearer_rejected_in_modify_bearer_response.LWG
p689
aVtc_290_044_Timer_Based_GBR_Deact__cancel_location_with_update_procedure_wf_ue_context_release_complete_before_timer_expires.LWG
p690
aVtc_346_021_PGW_Selection__PDN_Connectivity__PGW_FQDN_only.LWG
p691
aVtc_340_34_validation_move_g_s4_filter_all_apn.LWG
p692
aVtc_73_07_itc_encrypted_gtpu_s4_payload_w.LWG
p693
aVtc_298_711_pgw_init_modification_ef_update_bearer_request_apn_ambr_in_second_UBR.LWG
p694
aVtc_39_771_mas_rnc_reset_when_wf_ptmsi_realloc_cmpl_source.LWG
p695
aVtc_103_504_outbound_olp_avp_decoding_error.LWG
p696
aVtc_103_1105_attach_no_diameter_peer_available.LWG
p697
aVtc_286_118_pdn_disconnect_finished_pdn_connectivity_with_same_pti.LWG
p698
aVtc_286_118_pdn_disconnect_finished_pdn_connectivity_with_same_pti.LW
p699
aVtc_236_117_s4_3gdt_based_on_sr_dt_to_non_dt_gtpu_data_received_not_all_rabs_reestablished.LW
p700
aVtc_219_131_s3_handover_w_to_l_with_cl_two_pdns_one_failed_sgw_relocation.LW
p701
aVtc_327_173_recovery_intra_TAU_SGSN_Context_Request_while_waiting_for_Initial_Context_Setup_Response.LW
p702
aVtc_327_541_recovery_service_request__Msc_Reset_while_waiting_for_Retrieval_Response.LW
p703
aVtc_26_058_activate_3_primary_contexts_different_policy_maps.LW
p704
aVtc_241_066_israu_new_gn_to_s4_pdp_to_bearer_two_pdp_one_arp_higher_than_policy_map.LW
p705
aVtc_241_303_intra_rau_create_session_failed_and_paging_timeout.LW
p706
aVtc_241_405_israu_new_with_16m_flag_allowed_in_context_response_and_epc_cap_in_rau_req_transfer_to_new_tcw.LW
p707
aVtc_284_109_pdn_connectivity_connection_same_apn_other_pdn_type.LW
p708
aVtc_304_266_tau_from_gnsgsn_2g_control_mode_wf_delete_all_bearers_response_exception_case_reject_congestion_subscriber_cancelled.LW
p709
aVtc_285_013_PDN_Connectivity__Delete_bearer_req_while_wf_erab_setup_response.L14b
p710
aVtc_327_158_recovery_intra_TAU_Update_Bearer_Request_while_waiting_for_Update_Location_Answer.L14b
p711
aVtc_326_349_Service_Reject_emm_deregistered.L14b
p712
aVtc_304_266_tau_from_gnsgsn_2g_control_mode_wf_delete_all_bearers_response_exception_case_reject_congestion_subscriber_cancelled.L14b
p713
aVtc_238_162_mme_eps_irat_Gn_ho_target__Relocation_cancel_when_wf_handover_notify.L14b
p714
aVtc_286_118_pdn_disconnect_finished_pdn_connectivity_with_same_pti.L14b
p715
aVtc_44_301_sctp_counter_MessageSent_Received.L14b
p716
aVtc_194_506_Notification_during_Intra_MME_TAU_without_SGW_Relocation_Procedure.LWG
p717
aVtc_298_440_ms_init_deact_ef_default_bearer_deact_with_rab_interfered_by_dedicate_bearer_deact_request.LWG
p718
aVtc_298_685_S4_3GDT_Iu_release_wait_RABR_ef_delete_bearer_request_ebi.LWG
p719
aVtc_286_118_pdn_disconnect_finished_pdn_connectivity_with_same_pti.LWG
p720
aVtc_219_131_s3_handover_w_to_l_with_cl_two_pdns_one_failed_sgw_relocation.LWG
p721
aVtc_92_05_60_old_format_counters.LWG
p722
aVtc_288_230_pgw_init_bearer_mod_QoS_UE_reject_dedicated_cc_neqs_invalid_bearer_one_conn.LWG
p723
aVtc_282_111_3_mme_initiated_deactivate_bearer_delete_invalid_request.LWG
p724
aVtc_73_07_itc_encrypted_gtpu_s4_payload_w.LWG
p725
aVtc_160_010_reset_rnc_initated_no_tcw.LWG
p726
aVtc_281_008_Activate_bearer__Update_Bearer_Request_Dedicated_Bearer_while_wf_activate_dedicated_eps_bearer_context_accept.LWG
p727
aVtc_54_300_rnc_direct_information_license_not_activated.LWG
p728
aVtc_178_111_modify_ss7_sctp_end_point_local_ip_addresses.LWG
p729
aVtc_304_266_tau_from_gnsgsn_2g_control_mode_wf_delete_all_bearers_response_exception_case_reject_congestion_subscriber_cancelled.LWG
p730
aVtc_213_174_nrspca_ignored_when_intra_sgsn_inter_bss_psho.LWG
p731
aVtc_56_21_sending_recognized_information_in_log.LWG
p732
aVtc_361_510_rau_l_to_w_S4SGSN_check_old_qos_failed_node_function_deactivate_pdp_after_rau_on.LWG
p733
aVtc_11_311_rab_setup_interrupted_by_service_request_iu_release_and_rnc_reset.LWG
p734
aVtc_295_119_Intra_S1_HO__With_sgw_relocation_main_flow.LWG
p735
aVtc_295_090_Intra_S1_HO__Path_Switch_Request_with_old_TA_MSC_change_while_waiting_for_Location_Update_response.LWG
p736
aVtc_74_039_oms_mmi.LWG
p737
aVtc_286_118_pdn_disconnect_finished_pdn_connectivity_with_same_pti.LW
p738
aVtc_211_025_streamed_cell_trace_mapping_alarm_cease_ipv6.LW
p739
aVtc_12_134_attach_with_extended_mmumoc_iu_inactivity_timer.LW
p740
aVtc_301_014_activate_ipv4v6_visitor_requested_ipv4v6_subscribed_ipv4v6_aifav_true_aifv_true_daf_off.LW
p741
aVtc_241_201_s4_sgsn_pool_ms_move_target_sgsn_mf.LW
p742
aVtc_304_266_tau_from_gnsgsn_2g_control_mode_wf_delete_all_bearers_response_exception_case_reject_congestion_subscriber_cancelled.LW
p743
aVtc_214_632_combined_attach_MSC_selection_in_pool_then_paging_MSC_pool_feature_off_when_waiting_for_modify_bearer_response.LW
p744
aVtc_194_001_attach_new_subscriber.LW
p745
aVtc_103_409_diameterConnectionDown_alarm_raised_due_to_negative_CEA.LW
p746
aVtc_11_102_activate_secondary_same_ti.LW
p747
aVtc_289_020_Modify_bearer__ERAB_modify_request_meanwhile_handover_required_HO_success_TAU.LW
p748
aVtc_219_131_s3_handover_w_to_l_with_cl_two_pdns_one_failed_sgw_relocation.LW
p749
aVtc_326_680_tau_intra_SGW_unavailable_active_flag_off_after_MME_large_restart__two_pdn.LW
p750
aVtc_32_35_cancel_location_interrupted_by_reset_2.W14b
p751
aVtc_32_37_intra_rau_ciphering_interrupted_by_rnc_reset_pmm_connected.W14b
p752
aVtc_241_405_israu_new_with_16m_flag_allowed_in_context_response_and_epc_cap_in_rau_req_transfer_to_new_tcw.W14b
p753
aVtc_322_126_smooth_move_ef_cancel_location_initialAttach_wf_cancel_location.W14b
p754
aVtc_44_251_sctp_assoc_config__modify_rt_Diameter.L14b
p755
aVtc_304_266_tau_from_gnsgsn_2g_control_mode_wf_delete_all_bearers_response_exception_case_reject_congestion_subscriber_cancelled.L14b
p756
aVtc_286_118_pdn_disconnect_finished_pdn_connectivity_with_same_pti.L14b
p757
aVtc_266_026_DownlinkDataFailureInd_repeat_paging_timer_small_local_restart.L14b
p758
aVtc_73_07_itc_encrypted_gtpu_s4_payload_w.WG14a
p759
aVtc_33_42_attach_g_pool_ms_to_w_outside_pool_same_sgsn.WG14a
p760
aVtc_322_022_smooth_move_af_frr_with_service_not_supported_no_moveIndicator.WG14a
p761
aVtc_276_282_Inter_TAU_New_MME__Delete_Bearer_Request_change_to_non_3gpp_while_waiting_for_Modify_Bearer_Response.LWG
p762
aVtc_346_517_AF__TAU_Inter_New_from_gn_ULR_timeout_terminate_sx.LWG
p763
aVtc_56_4_abort.LWG
p764
aVtc_56_21_sending_recognized_information_in_log.LWG
p765
aVtc_92_05_60_old_format_counters.LWG
p766
aVtc_286_118_pdn_disconnect_finished_pdn_connectivity_with_same_pti.LWG
p767
aVtc_231_227_PGW_Initiated_Modification_EARP_idle_one_tunnel.LWG
p768
aVtc_304_266_tau_from_gnsgsn_2g_control_mode_wf_delete_all_bearers_response_exception_case_reject_congestion_subscriber_cancelled.LWG
p769
aVtc_304_502_Service_Request_UE_Initiated__control_mode_threshold_exceeded_dgn.LWG
p770
aVtc_259_93_ef_provide_subscriber_information_service_request_w.LWG
p771
aVtc_358_010_lte_iterator_ipAddressReset_nrrEnabled_modify_to_true_while_one_pdn_already_in_target_area.LWG
p772
aVtc_297_171_irat_l_to_g.LWG
p773
aVtc_194_506_Notification_during_Intra_MME_TAU_without_SGW_Relocation_Procedure.LWG
p774
aVtc_298_685_S4_3GDT_Iu_release_wait_RABR_ef_delete_bearer_request_ebi.LWG
p775
aVtc_298_821_activate_secondary_pdp_context_request_with_NSAPI_exist_dedicate_bearer_active_state.LWG
p776
aVtc_73_07_itc_encrypted_gtpu_s4_payload_w.LWG
p777
aVtc_275_720_inter_tau_new_active_flag_on_enhanced_imei_check.LWG
p778
aVtc_219_131_s3_handover_w_to_l_with_cl_two_pdns_one_failed_sgw_relocation.LWG
p779
aVtc_273_502_TAU_intra_SGW_unavailable__no_create_session_response.LWG
p780
aVtc_311_223_intra_srns_reloc_s4_sgw_change_wf_rau_complete_interrupted_by_downlink_data_notification_with_cause.LWG
p781
aVtc_327_037_recovery_intra_TAU_active_off_sgw_unchanged__RAR_wf_CSR_due_to_S11_linkdown.LWG
p782
aVtc_345_221_af__mt_csfb_with_psho__ecm_idle_sgw_relocation_no_cancel_location_from_hss.LWG
p783
aVtc_304_103_emergency_intra_tau_success__control_mode_threshold_not_reached.L14b
p784
aVtc_304_266_tau_from_gnsgsn_2g_control_mode_wf_delete_all_bearers_response_exception_case_reject_congestion_subscriber_cancelled.L14b
p785
aVtc_274_380_Intra_and_pTAU__Downlink_A21_AIS_while_waiting_for_Create_Session_Response.L14b
p786
aVtc_286_118_pdn_disconnect_finished_pdn_connectivity_with_same_pti.L14b
p787
aVtc_268_013_UE_Release_Flow__GBR_Bearers_non_User_Inactivity__Update_Bearer_Request_while_waiting_for_Delete_Bearer_Request.L14b
p788
aVtc_302_201_1xrtt_srvcc_2_gbr_bearers.L14b
p789
aVtc_194_1601__HSS_initiated_ISD_in_Connected_mode_when_current_CSG_Id_removed_Intefered_by_MT_SMS_wf_ue_context_modify_response.L14b
p790
aVtc_44_850_mme_assoc_reestablish__board_restart_s1_mme.L14b
p791
aVtc_301_001_activate_ipv6_visitor_requested_ipv6_subscribed_ipv6_aifav_true_aifv_true.L14b
p792
aVtc_103_701_MME_restarts.L14b
p793
aVtc_237_121_mme_eps_irat_ho_source_type_d__relocation_cancel_request_before_forw_rel_resp.L14b
p794
aVtc_238_066_mme_eps_irat_ho_target__location_report.L14b
p795
aVtc_26_149_inter_sgsn_back_before_20s_with_qos_upgradeAllowed.LW
p796
aVtc_32_36_intra_rau_ciphering_interrupted_by_rnc_reset_pmm_idle.LW
p797
aVtc_273_085_tau_intra_normal_connected_active_one_default_bearer_status_inactive.LW
p798
aVtc_12_512_pmm_undefined_attach_when_updating_location_interfered_by_rnc_reset.LW
p799
aVtc_214_631_combined_attach_MSC_selection_in_pool_then_paging_delete_MSC_La.LW
p800
aVtc_28_042_mo_sms_ok_for_home_when_blocked_for_visiting.LW
p801
aVtc_52_17_inter_old_treloccomplete_timeout_before_ack.LW
p802
aVtc_241_405_israu_new_with_16m_flag_allowed_in_context_response_and_epc_cap_in_rau_req_transfer_to_new_tcw.LW
p803
aVtc_298_702_pgw_init_modification_ef_ms_deact_req_tdi_false_ti_default_wf_modify_accept.LW
p804
aVtc_39_771_mas_rnc_reset_when_wf_ptmsi_realloc_cmpl_source.LW
p805
aVtc_38_145_israu_old_20_timer_expire_no_purge_response_and_back_ok.LW
p806
aVtc_322_126_smooth_move_ef_cancel_location_initialAttach_wf_cancel_location.LW
p807
aVtc_304_266_tau_from_gnsgsn_2g_control_mode_wf_delete_all_bearers_response_exception_case_reject_congestion_subscriber_cancelled.LW
p808
aVtc_286_118_pdn_disconnect_finished_pdn_connectivity_with_same_pti.LW
p809
aVtc_11_163_deactivate_ms.LW
p810
aVtc_313_281_inter_new_srns_reloc_s16_with_sgw_change_downlink_data_notification_with_cause_received_wf_rau_complete.WG14a
p811
aVtc_73_07_itc_encrypted_gtpu_s4_payload_w.WG14a
p812
aVtc_11_645_downlink_gtpu_wf_paging_resp_ef_transfer_service_req_data.W14b
p813
aVtc_32_35_cancel_location_interrupted_by_reset_2.W14b
p814
aVtc_248_165_inter_l_to_w_new_iu_release_request_none_user_inactivity_received_wf_modify_bearer_response.W14b
p815
aVtc_327_045_recovery_intra_TAU_active_off_sgw_unchanged__sgsap_reset_wf_CSR_due_to_S11_linkdown.L14b
p816
aVtc_47_002_imsi_attach_ap_gain.L14b
p817
aVtc_286_118_pdn_disconnect_finished_pdn_connectivity_with_same_pti.L14b
p818
aVtc_103_206_sticky_hss_host_name.L14b
p819
aVtc_304_266_tau_from_gnsgsn_2g_control_mode_wf_delete_all_bearers_response_exception_case_reject_congestion_subscriber_cancelled.L14b
p820
aVtc_304_305_PDN_connectivity__total_nr_of_msgs_in_measurement_log_entry.L14b
p821
aVtc_357_304_gsm_local_user_reactivate_pdp_intra_rau_ip_area_to_another_ip_area.G14b
p822
aVtc_262_105_emergency_imsi_attach_park_worker_check_gauges.LW
p823
aVtc_241_303_intra_rau_create_session_failed_and_paging_timeout.LW
p824
aVtc_26_029_israu_old_new_is_gtpv0_mixed_contexts_II.LW
p825
aVtc_26_058_activate_3_primary_contexts_different_policy_maps.LW
p826
aVtc_219_131_s3_handover_w_to_l_with_cl_two_pdns_one_failed_sgw_relocation.LW
p827
aVtc_220_027_csfb_to_1xrtt_in_ecm_connected_ue_context_modification_failure.LW
p828
aVtc_286_118_pdn_disconnect_finished_pdn_connectivity_with_same_pti.LW
p829
aVtc_304_266_tau_from_gnsgsn_2g_control_mode_wf_delete_all_bearers_response_exception_case_reject_congestion_subscriber_cancelled.LW
p830
aVtc_11_311_rab_setup_interrupted_by_service_request_iu_release_and_rnc_reset.LW
p831
aVtc_334_178_sgw_restart_af_create_session_with_default_bearer_failed_idle.W14b
p832
aVtc_248_128_inter_l_to_w_new_rau_request_intial_ue_received_wf_update_location_resp.W14b
p833
aVtc_236_293_Relocation_3gdt_switchback_reset_received_wf_modify_bearer_response.W14b
p834
aVtc_298_610_sgsn_init_bearer_deact_ef_iu_release_wf_delete_req.W14b
p835
aVtc_298_207_SIBD_S4_Service_Request_PDP_Context_Status_idle.LWG
p836
aVtc_298_821_activate_secondary_pdp_context_request_with_NSAPI_exist_dedicate_bearer_active_state.LWG
p837
aVtc_241_159_israu_old_wait_for_sgsn_context_ack_interfere_by_reset_and_detach.LWG
p838
aVtc_334_231_sgw_restart_counter_changed_inter_new_srns_reloc_s16_without_sgw_change.LWG
p839
aVgn_wcdma_payload_no_context_ensure_stored.LWG
p840
aVtc_322_024_smooth_move_af_frr_without_moveIndicator.LWG
p841
aVtc_307_032_HSS_Init_QoS_Modification__APNAMBR_QCI_APR_Changed_2PDN_CSFB_to_WG_with_DTM.LWG
p842
aVtc_73_41_gtpu_sgsn_dont_send_gpu_echo_request_w.LWG
p843
aVtc_73_07_itc_encrypted_gtpu_s4_payload_w.LWG
p844
aVtc_246_061_israu_new_l_to_g_sgw_change_one_pdn_ubr_before_rau_complete_interfered_by_inter_rau_request.LWG
p845
aVtc_248_165_inter_l_to_w_new_iu_release_request_none_user_inactivity_received_wf_modify_bearer_response.LWG
p846
aVtc_103_1107_fallback_to_imsins_resend_fail_due_to_result_code.LWG
p847
aVtc_56_21_sending_recognized_information_in_log.LWG
p848
aVtc_665_56_repeated_cm_restart.LWG
p849
aVtc_286_118_pdn_disconnect_finished_pdn_connectivity_with_same_pti.LWG
p850
aVtc_236_117_s4_3gdt_based_on_sr_dt_to_non_dt_gtpu_data_received_not_all_rabs_reestablished.LWG
p851
aVtc_219_131_s3_handover_w_to_l_with_cl_two_pdns_one_failed_sgw_relocation.LWG
p852
aVtc_345_221_af__mt_csfb_with_psho__ecm_idle_sgw_relocation_no_cancel_location_from_hss.LWG
p853
aVtc_166_428_rnc_initiated_rab_release_interfered_by_rnc_initiated_iu_release_request.LWG
p854
aVtc_141_016_eth_conf_vlan_novlan.LWG
p855
aVtc_24_150_msc_pool_cs_paging_gs_null_sgsn_reset_ms_idle_no_lai_from_msc.LWG
p856
aVtc_92_05_60_old_format_counters.LWG
p857
aVtc_304_266_tau_from_gnsgsn_2g_control_mode_wf_delete_all_bearers_response_exception_case_reject_congestion_subscriber_cancelled.LWG
p858
aVtc_73_07_itc_encrypted_gtpu_s4_payload_w.WG14a
p859
aVtc_226_213_W_Initial_UE_USC_PTMSI_Attach_wf_ins_sub_data_ControlMode_On_Reject_illegal_ue.WG14a
p860
aVtc_324_371_ef_cancel_location_intialAttach_wf_modify_bearer_response_service_req_data.WG14a
p861
aVtc_286_118_pdn_disconnect_finished_pdn_connectivity_with_same_pti.LW
p862
aVtc_578_52_check_uetracer_parser.LW
p863
aVtc_12_512_pmm_undefined_attach_when_updating_location_interfered_by_rnc_reset.LW
p864
aVtc_262_143_guti_attach_old_guti_unprotected.LW
p865
aVtc_241_066_israu_new_gn_to_s4_pdp_to_bearer_two_pdp_one_arp_higher_than_policy_map.LW
p866
aVtc_31_063_hlr_reset.LW
p867
aVtc_326_207_Intra_TAU_Recovery_with_1xrtt_cs_registration_then_CSFB_to_1xrtt.LW
p868
aVtc_304_266_tau_from_gnsgsn_2g_control_mode_wf_delete_all_bearers_response_exception_case_reject_congestion_subscriber_cancelled.LW
p869
aVtc_92_05_60_old_format_counters.LWG
p870
aVtc_244_706_mt_lr_LPPa_payload_type_missing.LWG
p871
aVtc_250_64_s6d_activation_with_GPRS_with_AllUE_selection_mode.LWG
p872
aVtc_26_062_israu_mbr_set_to_zero_interactive.LWG
p873
aVtc_26_058_activate_3_primary_contexts_different_policy_maps.LWG
p874
aVtc_219_131_s3_handover_w_to_l_with_cl_two_pdns_one_failed_sgw_relocation.LWG
p875
aVtc_73_07_itc_encrypted_gtpu_s4_payload_w.LWG
p876
aVtc_179_318_Ccheck_TraceCollectionIpv6server.LWG
p877
aVtc_326_462_Inter_TAU_Recovery_Unknown_GUTI__Emergency_Type_a_Roaming_Restricted.LWG
p878
aVtc_289_013_Modify_bearer__ERAB_modify_response_s1_intra_system_handover_triggered_two_pdn_uninvolved_default_bearer_fail.LWG
p879
aVtc_304_266_tau_from_gnsgsn_2g_control_mode_wf_delete_all_bearers_response_exception_case_reject_congestion_subscriber_cancelled.LWG
p880
aVtc_44_004_small_restart__sctp_fe_restart.LWG
p881
aVtc_665_6_dp_block_deblock_with_traffic.LWG
p882
aVtc_97_035_inter_sgsn_psho_mf_with_lawful_intercept.LWG
p883
aVtc_286_118_pdn_disconnect_finished_pdn_connectivity_with_same_pti.LWG
p884
aVtc_73_07_itc_encrypted_gtpu_s4_payload_w.WG14a
p885
aVtc_322_021_smooth_move_af_frr_with_service_not_supported.W14b
p886
aVtc_322_058_smooth_move_ef_attach_request_wf_cancel_location.W14b
p887
aVtc_359_108_PGW_init_deletion_legacy_with_Notify_UE_false.W14b
p888
aVtc_231_733_activation_tac_based_apn_redirection_dnsfail_succeed.W14b
p889
aVtc_39_433_mas_one_pdp_downlink_data_3gdt_upd_loc_ack_b4_upd_pdp_ctx_resp_target.W14b
p890
aVtc_314_085_hss_init_qos_mod_wf_ubr_ef_sgsn_init_deac.W14b
p891
aVtc_313_281_inter_new_srns_reloc_s16_with_sgw_change_downlink_data_notification_with_cause_received_wf_rau_complete.W14b
p892
aVtc_349_122_RAU_back_in_20s__Detach_Req_while_waiting_for_CCA_initial_with_failed_pdp.W14b
p893
aVtc_348_023_deactivation__hlr_init_cancel_location_subscriber_withdraw.W14b
p894
aVtc_348_164_israu_af__new_sgsn_ggsn_return_higher_qos.W14b
p895
aVtc_348_365_inter_srns_reloc_af__new_sgsn_ggsn_timeout_partially.W14b
p896
aVtc_348_050_large_restart.W14b
p897
aVtc_241_800_israu_old_no_cancel_location_s4.W14b
p898
aVtc_250_104_s6d_IDR_ARD_not_allowed.W14b
p899
aVtc_250_160_s6d_IDR_IDA_Change_GPRS_to_eps_subscription.W14b
p900
aVtc_236_311_HO_over_S3_3GDT_switchback_ef_delete_bearer_request_received_wf_rab_assignment_response.W14b
p901
aVtc_324_328_ef_service_req_data_direct_transfer_ingore_wf_update_location.W14b
p902
aVtc_266_402_service_request_modify_bearer_no_response_mult_PDN_with_feature_on.L14b
p903
aVtc_286_118_pdn_disconnect_finished_pdn_connectivity_with_same_pti.L14b
p904
aVtc_306_1342_ef_seamless_move_target_receive_Insert_Subscription_Data_TADS.L14b
p905
aVtc_304_266_tau_from_gnsgsn_2g_control_mode_wf_delete_all_bearers_response_exception_case_reject_congestion_subscriber_cancelled.L14b
p906
aVtc_346_464_AF__Service_Request_CCA_Update_with_Result_Code_5003_4003.L14b
p907
aVtc_346_510_AF__TAU_Inter_New__2PDN_one_fail_in_enodeb.L14b
p908
aVtc_346_521_AF__TAU_Inter_New_from_gn_2PDN_one_fail_in_enodeb.L14b
p909
aVtc_84_80_provide_subscriber_locaiton_ef_paging_interrupted_by_attach.G14b
p910
aVtc_73_07_itc_encrypted_gtpu_s4_payload_w.WG14a
p911
aVtc_298_690_S4_3GDT_Service_request_wait_MBR_ef_delete_bearer_request_lbi.W14b
p912
aVtc_334_203_path_failure_intra_rau_inter_rnc_idle_3gdt_mf.W14b
p913
aVtc_231_227_PGW_Initiated_Modification_EARP_idle_one_tunnel.W14b
p914
aVtc_239_620_inter_rau_new_with_bearer_sgw_not_change_isd_odb_bit0_wf_rau_compl_deactivation.G14b
p915
aVtc_84_71_provide_subscriber_location_ef_paging_interrupted_by_rau_req.G14b
p916
aVtc_318_158_sgw_restart_af_relocation_triggered_by_intra_tau_procedure_fail.L14b
p917
aVtc_284_350_pdn_connectivity_interrupted_by_path_switch_request.L14b
p918
aVtc_304_236_isc_active_flag_on_control_mode_threshold_exceeded_ignore_replace_s1_wf_initial_context_setup_response.L14b
p919
aVtc_304_266_tau_from_gnsgsn_2g_control_mode_wf_delete_all_bearers_response_exception_case_reject_congestion_subscriber_cancelled.L14b
p920
aVtc_214_028_combined_attach_interfering_s1_reset.L14b
p921
aVtc_44_250_sctp_assoc_config__modify_rt_Diameter.L14b
p922
aVtc_306_079_ef_seamless_move_source_receive_uplink_nas_transport_wf_target_guti_reallocation_complete.L14b
p923
aVtc_313_118_inter_new_srns_reloc_s16_without_sgw_change_with_dedicate_bearer_but_failed_to_setup_default_bearer.LW
p924
aVtc_304_266_tau_from_gnsgsn_2g_control_mode_wf_delete_all_bearers_response_exception_case_reject_congestion_subscriber_cancelled.LW
p925
aVtc_298_826_NRSPCA_S4_nsapi_collision_receiving_detach_request_while_waiting_for_delete_bearer_request.LW
p926
aVtc_194_506_Notification_during_Intra_MME_TAU_without_SGW_Relocation_Procedure.LW
p927
aVtc_236_311_HO_over_S3_3GDT_switchback_ef_delete_bearer_request_received_wf_rab_assignment_response.LW
p928
aVtc_79_026_sgsn_init_modification_rnc_not_supporting_modify_II.LW
p929
aVtc_53_34_inter_new_srns_reloc_interfering_signal_cancel_location_ignore.LW
p930
aVtc_335_40_wifi_to_mobility_in_ecm_idle_af__two_cell_infos_from_wic__one_eNB_not_support.LW
p931
aVtc_327_167_recovery_intra_TAU_SGSN_Context_Request_while_waiting_for_Update_Location_Answer.LW
p932
aVtc_219_131_s3_handover_w_to_l_with_cl_two_pdns_one_failed_sgw_relocation.LW
p933
aVtc_262_1102_imsi_attach_volte_bearer_gauge_reattach.LW
p934
aVtc_73_07_itc_encrypted_gtpu_s4_payload_w.LWG
p935
aVtc_103_855_error_code_DIAMETER_CONTRADICTING_AVPS.LWG
p936
aVtc_103_1144_sx_resend__timeout_timeout_duplicate_CCA_I_Auth_fail.LWG
p937
aVtc_340_25_validation_move_g_af_modify_trigger_stop_ongoing_job.LWG
p938
aVtc_241_159_israu_old_wait_for_sgsn_context_ack_interfere_by_reset_and_detach.LWG
p939
aVtc_289_100_last_pdn_pgw_init_bearer_mod_wf_service_interrupted_by_dbr_with_lbi.LWG
p940
aVtc_304_266_tau_from_gnsgsn_2g_control_mode_wf_delete_all_bearers_response_exception_case_reject_congestion_subscriber_cancelled.LWG
p941
aVtc_262_523_attach_pb_activate_dedicated_bearer_when_configured_max_bearer_1.LWG
p942
aVtc_334_203_path_failure_intra_rau_inter_rnc_idle_3gdt_mf.LWG
p943
aVtc_39_920_ef_seamless_move_interrupted_by_transferred_attach.LWG
p944
aVtc_92_05_60_old_format_counters.LWG
p945
aVtc_320_080_attach_imsi_implicit_detach_rau_reject_intra_sgsn.LWG
p946
aVtc_239_506_intra_rau_detach_poweroff_waiting_creat_session_response_from_sgw_s4.LWG
p947
aVtc_219_131_s3_handover_w_to_l_with_cl_two_pdns_one_failed_sgw_relocation.LWG
p948
aVtc_56_21_sending_recognized_information_in_log.LWG
p949
aVtc_363_021_gbip_feature_off_nses_bscconfirmed_trun_to_false.LWG
p950
aVtc_266_026_DownlinkDataFailureInd_repeat_paging_timer_small_local_restart.L14b
p951
aVtc_44_850_mme_assoc_reestablish__board_restart_s1_mme.L14b
p952
aVtc_221_111_paging__feature_off.L14b
p953
aVtc_193_420_service_request_aia_dia_realm_not_served.L14b
p954
aVtc_268_056_Timer_Based_GBR_Deact__Context_Request_from_New_MME_SGW_change_before_Timer_Expires.L14b
p955
aVtc_304_266_tau_from_gnsgsn_2g_control_mode_wf_delete_all_bearers_response_exception_case_reject_congestion_subscriber_cancelled.L14b
p956
aVtc_73_07_itc_encrypted_gtpu_s4_payload_w.WG14a
p957
aVtc_324_152_af_rab_assignment_resp_downgrade_qos_dedicated_bearer_3gdt_rab_partially_setup.WG14a
p958
aVtc_324_328_ef_service_req_data_direct_transfer_ingore_wf_update_location.WG14a
p959
aVtc_29_043_attach_w_attach_g_access_restricted_diff_plmn.WG14a
p960
aVtc_322_126_smooth_move_ef_cancel_location_initialAttach_wf_cancel_location.WG14a
p961
aVtc_193_407_auth_vectors_attach_complete.LW
p962
aVtc_193_411_attach_ue_release_request_recieved_while_wf_smc.LW
p963
aVtc_103_710_commlost_small_restart.LW
p964
aVtc_103_711_diameter_incorrect_CEA_handling.LW
p965
aVtc_103_835_device_watchdog_request_from_SGSN_MME.LW
p966
aVtc_327_167_recovery_intra_TAU_SGSN_Context_Request_while_waiting_for_Update_Location_Answer.LW
p967
aVtc_327_190_recovery_intra_TAU_MBR_timeout__Indentification_Request_wf_UE_context_release_complete.LW
p968
aVtc_51_040_reloc_wf_reloc_req_ack_interrupted_by_source_rnc_reset.LW
p969
aVtc_194_006_cl_update_procedure_coop_mme.LW
p970
aVtc_12_512_pmm_undefined_attach_when_updating_location_interfered_by_rnc_reset.LW
p971
aVtc_265_004_Detach_Flow_UE_init__Service_Request_while_waiting_for_Delete_Session_Response.LW
p972
aVtc_262_164_new_mme_identification_procedure_missing_IE_imsi.LW
p973
aVtc_304_266_tau_from_gnsgsn_2g_control_mode_wf_delete_all_bearers_response_exception_case_reject_congestion_subscriber_cancelled.LW
p974
aVtc_219_131_s3_handover_w_to_l_with_cl_two_pdns_one_failed_sgw_relocation.LW
p975
aVtc_26_078_israu_invalid_qos_sub.W14b
p976
aVtc_209_70_israu_new_sgsn_one_pdp_context_wrong_pdp_type.W14b
p977
aVtc_250_51_standalone_cancel_location_initial_attach_not_combined_node.W14b
p978
aVtc_26_058_activate_3_primary_contexts_different_policy_maps.LWG
p979
aVtc_236_311_HO_over_S3_3GDT_switchback_ef_delete_bearer_request_received_wf_rab_assignment_response.LWG
p980
aVtc_304_266_tau_from_gnsgsn_2g_control_mode_wf_delete_all_bearers_response_exception_case_reject_congestion_subscriber_cancelled.LWG
p981
aVtc_340_124_oms_consistence_check_for_action_pool_move_validation_start.LWG
p982
aVtc_73_07_itc_encrypted_gtpu_s4_payload_w.LWG
p983
aVtc_39_921_ef_seamless_move_interrupted_by_normal_attach.LWG
p984
aVtc_92_05_60_old_format_counters.LWG
p985
aVtc_219_131_s3_handover_w_to_l_with_cl_two_pdns_one_failed_sgw_relocation.LWG
p986
aVtc_262_1055_imsi_attach_with_csg_id_is_rejected.LWG
p987
aVtc_259_93_ef_provide_subscriber_information_service_request_w.LWG
p988
aVtc_239_402_inter_rau_old_wait_for_context_ack_interfered_by_cancel_location_s4.LWG
p989
aVtc_324_043_af_mbr_higher_than_policymap.LWG
p990
aVtc_232_403_bfd__ipv4ipv6_alarm.LWG
p991
aVtc_277_016_tau_inter_old_dedicated_bearer_unstable_no_cancel_location.LW
p992
aVtc_327_038_recovery_intra_TAU_active_off_sgw_unchanged__downlink_A21_AIS_wf_CSR_due_to_S11_linkdown.LW
p993
aVtc_327_037_recovery_intra_TAU_active_off_sgw_unchanged__RAR_wf_CSR_due_to_S11_linkdown.LW
p994
aVtc_284_350_pdn_connectivity_interrupted_by_path_switch_request.LW
p995
aVtc_12_512_pmm_undefined_attach_when_updating_location_interfered_by_rnc_reset.LW
p996
aVtc_241_431_intra_rau_with_bearer_sgw_unchange_2_pdns_with_one_modify_no_response.LW
p997
aVtc_275_117_tau_inter_new_rrc_cause_emergency_no_active_flag.LW
p998
aVtc_39_924_ef_rnc_reset_wf_ptmsi_rel_comp_source_sgsn.LW
p999
aVtc_103_1007_secondary_dpl_set_and_then_emptied.LW
p1000
aVtc_103_1005_secondary_dpl_used_when_all_peers_in_dpl_unavailable_with_sls.LW
p1001
aVtc_103_603_georedundant_modify_diameter_peer.LW
p1002
aVtc_304_266_tau_from_gnsgsn_2g_control_mode_wf_delete_all_bearers_response_exception_case_reject_congestion_subscriber_cancelled.LW
p1003
aVtc_44_040_config_ep_S1.LW
p1004
aVtc_242_001_rau_to_sgsn_s3_keep_sgw.L14b
p1005
aVtc_304_266_tau_from_gnsgsn_2g_control_mode_wf_delete_all_bearers_response_exception_case_reject_congestion_subscriber_cancelled.L14b
p1006
aVtc_284_337_deactivate_1_default_bearer_of_last_active_pdn_while_2_pdn_is_creating.L14b
p1007
aVtc_103_701_MME_restarts.L14b
p1008
aVtc_103_1102_fallback_to_imsins_success.L14b
p1009
aVtc_294_301_preparation_in_target_enodeb_fails.LWG
p1010
aVtc_238_026_mme_eps_irat_ho_target__multi_pdn_sgw_relocation_setup_fails.LWG
p1011
aVtc_259_67_ef_provide_subscriber_information_attach_old_w.LWG
p1012
aVtc_259_77_ef_isd_paging_s4_w.LWG
p1013
aVtc_56_21_sending_recognized_information_in_log.LWG
p1014
aVtc_284_350_pdn_connectivity_interrupted_by_path_switch_request.LWG
p1015
aVtc_236_311_HO_over_S3_3GDT_switchback_ef_delete_bearer_request_received_wf_rab_assignment_response.LWG
p1016
aVtc_236_307_Activation_DtSelMode_5_APN_requested_wrong_SGSN_default_APN_in_APN_list_TAC_in_TAC_list.LWG
p1017
aVtc_73_07_itc_encrypted_gtpu_s4_payload_w.LWG
p1018
aVtc_665_1_dp_reboot_init_cm_restart_with_traffic.LWG
p1019
aVtc_298_702_pgw_init_modification_ef_ms_deact_req_tdi_false_ti_default_wf_modify_accept.LWG
p1020
aVtc_92_05_60_old_format_counters.LWG
p1021
aVtc_262_1055_imsi_attach_with_csg_id_is_rejected.LWG
p1022
aVtc_251_66_w_to_l_to_w_with_cl_type_initialAttach_cl_after_sgsn_con_req.LWG
p1023
aVtc_340_124_oms_consistence_check_for_action_pool_move_validation_start.LWG
p1024
aVtc_195_208_mme_logging_maximum_modify_eps_bearer_context.LWG
p1025
aVtc_179_318_Ccheck_TraceCollectionIpv6server.LWG
p1026
aVtc_219_131_s3_handover_w_to_l_with_cl_two_pdns_one_failed_sgw_relocation.LWG
p1027
aVtc_267_530_DDN_SGW_unavailable__Attach_Request_while_wf_Create_Session_Response.LWG
p1028
aVtc_230_115_sgw_create_bearer_request_s4.LWG
p1029
aVtc_304_266_tau_from_gnsgsn_2g_control_mode_wf_delete_all_bearers_response_exception_case_reject_congestion_subscriber_cancelled.LWG
p1030
aVtc_73_07_itc_encrypted_gtpu_s4_payload_w.WG14a
p1031
aVtc_313_281_inter_new_srns_reloc_s16_with_sgw_change_downlink_data_notification_with_cause_received_wf_rau_complete.WG14a
p1032
aVtc_311_223_intra_srns_reloc_s4_sgw_change_wf_rau_complete_interrupted_by_downlink_data_notification_with_cause.W14b
p1033
aVtc_236_091_service_request_si_iu_release_at_sgw_flow_si_cancel_location.W14b
p1034
aVtc_236_104_s4_3gdt_based_on_sr_inter_rau_then_rau_back_within_20s_with_new_ptmsi.W14b
p1035
aVtc_84_71_provide_subscriber_location_ef_paging_interrupted_by_rau_req.G14b
p1036
aVtc_103_024_modify_diameter_peer_switch_peer_numbers.L14b
p1037
aVtc_103_1102_fallback_to_imsins_success.L14b
p1038
aVtc_225_312_mt_call_active_mode_nas_non_delivery__s1_intra_system_handover_triggered_resend_2_times.L14b
p1039
aVtc_304_266_tau_from_gnsgsn_2g_control_mode_wf_delete_all_bearers_response_exception_case_reject_congestion_subscriber_cancelled.L14b
p1040
aVtc_44_850_mme_assoc_reestablish__board_restart_s1_mme.L14b
p1041
aVtc_275_011_tau_inter_new_active_flag_tau_complete_before_ics_response.L14b
p1042
aVtc_214_1141_la_selection_mf_oldmscpreferred_prau_during_ue_restoration.LW
p1043
aVtc_304_266_tau_from_gnsgsn_2g_control_mode_wf_delete_all_bearers_response_exception_case_reject_congestion_subscriber_cancelled.LW
p1044
aVtc_204_1210_mme_eps_handover_target__Create_Bearer_Request_while_wf_TAU_Accept.LW
p1045
aVtc_248_422_inter_l_to_w_one_pdn_default_rab_failed_dedicate_rab_ok_without_sgw_change.LW
p1046
aVtc_265_253_Detach_Flow_NW_init__Sgs_CS_Paging_while_wf_detach_accept.LW
p1047
aVtc_327_021_recovery_intra_TAU__uplink_Detach_Request_while_waiting_for_Update_Location_Response.LW
p1048
aVtc_206_023_ebm_server_connection_failed.LW
p1049
aVtc_298_663_pgw_init_modification_af_modify_pdp_req_timeout.W14b
p1050
aVtc_236_049_s4_3gdt_rnc_reset_during_waiting_for_modify_beaer_rsp_in_service_request_procedure.W14b
p1051
aVtc_12_100_rnc_reset_when_attach_starts_at_pmmundefined.LWG
p1052
aVtc_141_028_eth_v6_traffic_conf_deconf_vlan.LWG
p1053
aVtc_259_106_ef_tads_s4_interfere_inter_rau_old_w.LWG
p1054
aVtc_92_05_60_old_format_counters.LWG
p1055
aVtc_92_09_20_autoupdate.LWG
p1056
aVtc_166_350_GGSN_init_PDP_modify_ARP_when_iu_released_3gdt.LWG
p1057
aVtc_219_131_s3_handover_w_to_l_with_cl_two_pdns_one_failed_sgw_relocation.LWG
p1058
aVtc_56_21_sending_recognized_information_in_log.LWG
p1059
aVtc_73_41_gtpu_sgsn_dont_send_gpu_echo_request_w.LWG
p1060
aVtc_73_07_itc_encrypted_gtpu_s4_payload_w.LWG
p1061
aVtc_263_204_Attach_Flow_Pb__Attach_Request_Same_IEs_while_waiting_for_Attach_Complete.LWG
p1062
aVtc_263_412_Attach_Flow_in_ecm_idle__HSS_Init_QoS_Modification_wf_Initial_Context_Setup_Response.LWG
p1063
aVtc_361_510_rau_l_to_w_S4SGSN_check_old_qos_failed_node_function_deactivate_pdp_after_rau_on.LWG
p1064
aVtc_241_464_israu_new_with_dedicated_bearer_modify_bearer_response_default_bearer_failed.LWG
p1065
aVtc_24_110_msc_pool_off_comb_proc_on_create_new_msc_to_la_with_no_default_msc.LWG
p1066
aVtc_304_266_tau_from_gnsgsn_2g_control_mode_wf_delete_all_bearers_response_exception_case_reject_congestion_subscriber_cancelled.LWG
p1067
aVtc_73_07_itc_encrypted_gtpu_s4_payload_w.WG14a
p1068
aVtc_226_106_W_USC_PDP_Context_Activation__ControlMode_On_detach_action_different_ongoing_wf_ggsn_response.WG14a
p1069
aVtc_226_201_W_Initial_UE_USC_PTMSI_Attach_ControlMode_On_Reject_illegal_ue.WG14a
p1070
aVtc_327_008_recovery_intra_TAU__uplink_Attach_Request_while_waiting_for_Initial_Context_Setup_Response.L14b
p1071
aVtc_194_100_check_gauge_unstable_not_parked.L14b
p1072
aVtc_295_124_tau_after_ho_tz_change_emm_information_meanwhile_handover_required_HO_success.L14b
p1073
aVtc_326_226_Intra_TAU_Recovery_fail_Authentication_Reject_from_HSS.L14b
p1074
aVtc_326_682_tau_intra_SGW_unavailable_active_flag_off_after_MME_large_restart__two_pdn_one_fail.L14b
p1075
aVtc_263_321_Attach_Flow__Attach_Request_Different_IEs_IP_OK_while__waiting_for_combined_attach_response.L14b
p1076
aVtc_304_266_tau_from_gnsgsn_2g_control_mode_wf_delete_all_bearers_response_exception_case_reject_congestion_subscriber_cancelled.L14b
p1077
aVtc_306_1300_ef_seamless_move_target_receive_uplink_nas_transport_bf_lur.L14b
p1078
aVtc_289_042_Modify_bearer__Downlink_nas_transport_meanwhile_path_switch_request_SGW_change_no_UBR_from_new_SGW.L14b
p1079
aVtc_257_40_pws_etws_main_flow_small_restart.L14b
p1080
aVtc_288_101_pgw_init_bearer_mod_one_bad_one_good_one_unknown_one_not_responding_bearer.L14b
p1081
aVtc_238_304_mme_eps_irat_ho_target_HeNB_emergency_type_b_not_allowed_in_csg.L14b
p1082
aVtc_103_603_georedundant_modify_diameter_peer.L14b
p1083
aVtc_33_4_isc_attach_g_to_w_with_no_vectors_left.WG14a
p1084
aVtc_73_07_itc_encrypted_gtpu_s4_payload_w.WG14a
p1085
aVtc_196_181_nrspca_during_the_same_nsapi_ggsn_initiate_pdp_deactivation_rab_release.LWG
p1086
aVtc_209_40_inter_srns_new_sgsn.LWG
p1087
aVtc_204_1180_mme_eps_handover_target_recheck_fail_followed_by_ISD.LWG
p1088
aVtc_291_40_action_ue_trace.LWG
p1089
aVtc_214_066_combined_attach_combined_tau_interfering_combined_attach.LWG
p1090
aVtc_194_300_hss_error_resend_authentication_information_request.LWG
p1091
aVtc_166_133_israu_new_3gdt_apn_from_ms.LWG
p1092
aVtc_326_223_Intra_TAU_Recovery_fail_Identity_Response_timeout_then_Recover_successful.LWG
p1093
aVtc_77_5_attach_activate2_g_crash.LWG
p1094
aVtc_304_266_tau_from_gnsgsn_2g_control_mode_wf_delete_all_bearers_response_exception_case_reject_congestion_subscriber_cancelled.LWG
p1095
aVtc_32_36_intra_rau_ciphering_interrupted_by_rnc_reset_pmm_idle.LWG
p1096
aVtc_32_44_israu_new_authenticating_interrupted_by_rnc_reset_I.LWG
p1097
aVtc_241_066_israu_new_gn_to_s4_pdp_to_bearer_two_pdp_one_arp_higher_than_policy_map.LWG
p1098
aVtc_103_602_georedundant_realm_routing.LWG
p1099
aVtc_359_142_handover_from_3gpp_pgw_init_deletion_ef_ms_deact_Notify_ue_false.LWG
p1100
aVtc_219_131_s3_handover_w_to_l_with_cl_two_pdns_one_failed_sgw_relocation.LWG
p1101
aVtc_288_101_pgw_init_bearer_mod_one_bad_one_good_one_unknown_one_not_responding_bearer.LWG
p1102
aVtc_73_07_itc_encrypted_gtpu_s4_payload_w.LWG
p1103
aVtc_92_05_60_old_format_counters.LWG
p1104
aVtc_56_21_sending_recognized_information_in_log.LWG
p1105
aVtc_236_040_s4_3gdt_detach_during_waiting_for_modify_bearer_rsp_in_service_request_procedure.W14b
p1106
aVtc_357_106_wcdma_iterator_ipAddressReset_irrEnabled_modify_to_true_while_one_pdp_already_in_target_area.LW
p1107
aVtc_263_023_Attach_Flow__Attach_Request_Different_IEs_IP_OK_while_waiting_for_Modify_Bearer_Response.LW
p1108
aVtc_288_125_pgw_init_bearer_mod_from_ecm_idle_2_default_bearers_fail_to_setup.LW
p1109
aVtc_288_101_pgw_init_bearer_mod_one_bad_one_good_one_unknown_one_not_responding_bearer.LW
p1110
aVtc_44_004_small_restart__sctp_fe_restart.LW
p1111
aVtc_220_050_csfb_to_1xrtt_with_CSG_ID.LW
p1112
aVtc_220_403_csfb_to_1xrtt_in_ecm_connected_path_switch_request_HO_success.LW
p1113
aVtc_262_845_normal_attach_rejected__odb_free_apn_list_parameter_off__odb_bit0.LW
p1114
aVtc_304_266_tau_from_gnsgsn_2g_control_mode_wf_delete_all_bearers_response_exception_case_reject_congestion_subscriber_cancelled.LW
p1115
aVtc_009_015_cancel_location_after_restart.LW
p1116
aVtc_219_131_s3_handover_w_to_l_with_cl_two_pdns_one_failed_sgw_relocation.LW
p1117
aVtc_361_510_rau_l_to_w_S4SGSN_check_old_qos_failed_node_function_deactivate_pdp_after_rau_on.LW
p1118
aVtc_11_311_rab_setup_interrupted_by_service_request_iu_release_and_rnc_reset.LW
p1119
aVtc_369_061_handover_required_during_waiting_for_location_report__idr_flags_ef.LW
p1120
aVtc_193_062_attach_selective.L14b
p1121
aVtc_103_860_ue_trace_retransmit.L14b
p1122
aVtc_103_603_georedundant_modify_diameter_peer.L14b
p1123
aVtc_346_389_handover_intra_x2_2PDN_BCM_sx_only_and_no_armed_event_trigger_location_report.L14b
p1124
aVtc_288_101_pgw_init_bearer_mod_one_bad_one_good_one_unknown_one_not_responding_bearer.L14b
p1125
aVtc_284_020_pdn_connectivity_with_static_pdn_address_paa_type_ipv6_addr_ipv4v6.L14b
p1126
aVtc_304_266_tau_from_gnsgsn_2g_control_mode_wf_delete_all_bearers_response_exception_case_reject_congestion_subscriber_cancelled.L14b
p1127
aVtc_262_1055_imsi_attach_with_csg_id_is_rejected.L14b
p1128
aVtc_289_031_Modify_bearer__Downlink_nas_transport_meanwhile_path_switch_request_HO_success.L14b
p1129
aVtc_73_07_itc_encrypted_gtpu_s4_payload_w.WG14a
p1130
aVtc_209_211_s4_no_sm_events_activate_failed.LW
p1131
aVtc_298_826_NRSPCA_S4_nsapi_collision_receiving_detach_request_while_waiting_for_delete_bearer_request.LW
p1132
aVtc_12_512_pmm_undefined_attach_when_updating_location_interfered_by_rnc_reset.LW
p1133
aVtc_288_101_pgw_init_bearer_mod_one_bad_one_good_one_unknown_one_not_responding_bearer.LW
p1134
aVtc_11_091_activate_secondary_pdp_context_wrong_LinkedTI.LW
p1135
aVtc_304_266_tau_from_gnsgsn_2g_control_mode_wf_delete_all_bearers_response_exception_case_reject_congestion_subscriber_cancelled.LW
p1136
aVtc_306_1034_ef_seamless_move_target_handle_initial_tau_request_sr_ongoing_wf_mbr_move_going.LW
p1137
aVtc_56_21_sending_recognized_information_in_log.LWG
p1138
aVtc_12_154_detached_receives_reset.LWG
p1139
aVtc_288_101_pgw_init_bearer_mod_one_bad_one_good_one_unknown_one_not_responding_bearer.LWG
p1140
aVtc_39_921_ef_seamless_move_interrupted_by_normal_attach.LWG
p1141
aVtc_319_073_path_management_configured_timer_expired.LWG
p1142
aVtc_304_266_tau_from_gnsgsn_2g_control_mode_wf_delete_all_bearers_response_exception_case_reject_congestion_subscriber_cancelled.LWG
p1143
aVtc_232_403_bfd__ipv4ipv6_alarm.LWG
p1144
aVtc_92_05_60_old_format_counters.LWG
p1145
aVtc_363_021_gbip_feature_off_nses_bscconfirmed_trun_to_false.LWG
p1146
aVtc_219_131_s3_handover_w_to_l_with_cl_two_pdns_one_failed_sgw_relocation.LWG
p1147
aVtc_214_710_combined_tau_intra_eps_attach_interfering_mt_sms_paging_wf_tau_complete_then_ddn.LWG
p1148
aVtc_73_41_gtpu_sgsn_dont_send_gpu_echo_request_w.LWG
p1149
aVtc_73_07_itc_encrypted_gtpu_s4_payload_w.LWG
p1150
aVtc_226_313_W__USC_Service_Request_ControlMode_On_Ongoing_Detach_Congestion.LWG
p1151
aVtc_226_503_Intra_ISC_L2W_Gn_SGSN_ControlMode_On_reject_congestion.LWG
p1152
aVtc_342_910_six_x3_address.LWG
p1153
aVtc_210_046_mme_initiated_detach_with_reattach_required.LWG
p1154
aVtc_166_096_israu_new_two_tunnel_since_camel_subscriber.LWG
p1155
aVtc_141_032_eth_v4_v6_traffic_vlan.LWG
p1156
aVtc_324_152_af_rab_assignment_resp_downgrade_qos_dedicated_bearer_3gdt_rab_partially_setup.W14b
p1157
aVtc_231_249_PGW_init_modification_EF_ms_deactivation_and_detach.W14b
p1158
aVtc_263_320_Attach_Flow__Attach_Request_Different_IEs_IP_OK_while_waiting_for_Update_Location_Answer.LW
p1159
aVtc_578_52_check_uetracer_parser.LW
p1160
aVtc_335_40_wifi_to_mobility_in_ecm_idle_af__two_cell_infos_from_wic__one_eNB_not_support.LW
p1161
aVtc_288_101_pgw_init_bearer_mod_one_bad_one_good_one_unknown_one_not_responding_bearer.LW
p1162
aVtc_298_725_S4_3GDT_Service_request_wf_modify_bearer_response_ef_vplmn_not_allowed.LW
p1163
aVtc_214_705_msc_pool_intra_tau_with_associated_interfer_attach_request_reselect_msc.LW
p1164
aVtc_26_056_ms_initiated_pdp_context_modification_ms_wants_conversational_1.LW
p1165
aVtc_304_266_tau_from_gnsgsn_2g_control_mode_wf_delete_all_bearers_response_exception_case_reject_congestion_subscriber_cancelled.LW
p1166
aVtc_262_721_emergency_attach_license_lte_sau_limit_reached.LW
p1167
aVtc_348_331_inter_psho_mf__w_to_l_multiple_pdp_no_cl_with_sx.LW
p1168
aVtc_298_600_sgsn_init_bearer_deact_ef_ms_deact_req_for_dedicated_bearer_wf_delete_req.LWG
p1169
aVtc_337_003_validation_move_quantity_fulfilled_between_two_ms_trigger_moves.LWG
p1170
aVtc_193_400_auth_vectors_mf_4_vectors.LWG
p1171
aVtc_304_266_tau_from_gnsgsn_2g_control_mode_wf_delete_all_bearers_response_exception_case_reject_congestion_subscriber_cancelled.LWG
p1172
aVtc_179_318_Ccheck_TraceCollectionIpv6server.LWG
p1173
aVtc_219_131_s3_handover_w_to_l_with_cl_two_pdns_one_failed_sgw_relocation.LWG
p1174
aVtc_262_210_new_mme_identification_procedure_with_cause_imsi_not_known_gn.LWG
p1175
aVtc_56_21_sending_recognized_information_in_log.LWG
p1176
aVtc_288_101_pgw_init_bearer_mod_one_bad_one_good_one_unknown_one_not_responding_bearer.LWG
p1177
aVtc_259_93_ef_provide_subscriber_information_service_request_w.LWG
p1178
aVtc_73_07_itc_encrypted_gtpu_s4_payload_w.LWG
p1179
aVtc_209_18_target_info_query.LWG
p1180
aVtc_322_023_smooth_move_af_frr_with_request_rejected.LWG
p1181
aVtc_318_301_sgw_restart_relocation_triggered_by_sr_closed_csg.LWG
p1182
aVtc_92_05_60_old_format_counters.LWG
p1183
aVtc_320_062_sm_status_from_ms.LWG
p1184
aVtc_319_033_act_pdp_mf_table_matched_low_priority.LWG
p1185
aVtc_24_136_msc_pool_ngaf_gs_associated_ms_activity_indication.LWG
p1186
aVtc_157_4_snmp_consistent.LWG
p1187
aVtc_321_125_ptmsi_attach_identity_response.LWG
p1188
aVtc_73_07_itc_encrypted_gtpu_s4_payload_w.WG14a
p1189
aVtc_13_33_PTMSI_Attach_AuthCiphFailure_Wrong_SRES_IdentityProc_Different_IMSI.G14b
p1190
aVtc_11_091_activate_secondary_pdp_context_wrong_LinkedTI.W14b
p1191
aVtc_12_166_attach_direct_transfer_ptmsi_invalid_transfer_to_new.W14b
p1192
aVtc_304_266_tau_from_gnsgsn_2g_control_mode_wf_delete_all_bearers_response_exception_case_reject_congestion_subscriber_cancelled.L14b
p1193
aVtc_327_370_recovery_service_request__initial_extended_service_request_while_waiting_for_Sub_procedure_Initial_Context_Setup_Response.L14b
p1194
aVtc_195_520_mme_logging_initiated_deactivate_bearer_failure_indication_all_bearers_from_sgw.L14b
p1195
aVtc_278_182_Inter_TAU_Old_MME_Attach_Req_wf_Cxt_Ack.L14b
p1196
aVtc_260_218_receive_m3_reset_req_while_wf_m3_start_resp_with_resp.L14b
p1197
aVtc_288_101_pgw_init_bearer_mod_one_bad_one_good_one_unknown_one_not_responding_bearer.L14b
p1198
aVtc_92_05_60_old_format_counters.LWG
p1199
aVtc_241_303_intra_rau_create_session_failed_and_paging_timeout.LWG
p1200
aVtc_275_118_tau_inter_new_emergency_erroneous_ie_authenticated_no_imsi.LWG
p1201
aVtc_166_096_israu_new_two_tunnel_since_camel_subscriber.LWG
p1202
aVtc_665_11_dp_reboot_init_cm_restart_with_traffic.LWG
p1203
aVtc_267_554_Service_Request_MBR_timeout__Downlink_Unitdata_wf_UE_Context_Release_Complete.LWG
p1204
aVtc_304_266_tau_from_gnsgsn_2g_control_mode_wf_delete_all_bearers_response_exception_case_reject_congestion_subscriber_cancelled.LWG
p1205
aVtc_316_294_GUTI_Attach_UnKnown_IMSI_Broadcast_Force_Delete_Among_Pool.LWG
p1206
aVtc_263_085_Attach_Flow__Insert_Subscriber_Data_while_waiting_for_Create_Session_Response.LWG
p1207
aVtc_361_510_rau_l_to_w_S4SGSN_check_old_qos_failed_node_function_deactivate_pdp_after_rau_on.LWG
p1208
aVtc_288_101_pgw_init_bearer_mod_one_bad_one_good_one_unknown_one_not_responding_bearer.LWG
p1209
aVtc_219_131_s3_handover_w_to_l_with_cl_two_pdns_one_failed_sgw_relocation.LWG
p1210
aVtc_332_011_mf__paging_due_to_create_bearer_request.LWG
p1211
aVtc_250_74_s6d_EF_hss_reset_waiting_delete_session_response.LWG
p1212
aVtc_73_07_itc_encrypted_gtpu_s4_payload_w.LWG
p1213
aVtc_56_21_sending_recognized_information_in_log.LWG
p1214
aVtc_103_024_modify_diameter_peer_switch_peer_numbers.LWG
p1215
aVtc_291_40_action_ue_trace.LWG
p1216
aVtc_51_025_reloc_wf_reloc_req_ack_interrupted_by_cancel_loc_subscrip_withdrawn.W14b
p1217
aVtc_31_056_standalone_isd_segmented.W14b
p1218
aVtc_31_152_standalone_isd_odb_bit_15_syntax_error.W14b
p1219
aVtc_38_81_intra_rau_new_rnc_with_authentication_no_ptmsi_signature.W14b
p1220
aVtc_236_029_s4_3gdt_release_access_bearers_failed.W14b
p1221
aVtc_236_045_s4_3gdt_iu_release_during_waiting_for_modify_bearer_rsp_in_service_request_procedure.W14b
p1222
aVtc_39_433_mas_one_pdp_downlink_data_3gdt_upd_loc_ack_b4_upd_pdp_ctx_resp_target.W14b
p1223
aVtc_214_332_mt_sms_idle_mode_ef_downlink_unitdata_wf_modify_bearer_response_timeout_in_service_request.LW
p1224
aVtc_265_130_Detach_Flow_UE_init__Attach_Request_ignored_while_waiting_for_Delete_Session_Response.LW
p1225
aVtc_326_229_Intra_TAU_Recovery_fail_Authentication_timeout_from_UE.LW
p1226
aVtc_326_844_Geo_Service_Request_node_restart_Modify_Bearer_timeout_rollback_GUTI.LW
p1227
aVtc_103_602_georedundant_realm_routing.LW
p1228
aVtc_219_131_s3_handover_w_to_l_with_cl_two_pdns_one_failed_sgw_relocation.LW
p1229
aVtc_288_101_pgw_init_bearer_mod_one_bad_one_good_one_unknown_one_not_responding_bearer.LW
p1230
aVtc_304_266_tau_from_gnsgsn_2g_control_mode_wf_delete_all_bearers_response_exception_case_reject_congestion_subscriber_cancelled.LW
p1231
aVtc_263_203_Attach_Flow_Pb__Attach_Request_Same_IEs_while_waiting_for_Initial_Context_Setup_Response.LW
p1232
aVtc_329_050_attach_rs_restricted_emergency.LW
p1233
aVtc_282_150_deactivate_SGW_unavailable__create_session_dedicated_bearer_failed.LW
p1234
aVtc_334_190_sgw_restart_ef_one_pdn_relocation_wf_create_session_resp_interfere_by_detach.LW
p1235
aVtc_358_007_lte_iterator_irrEnabled_modify_to_true_with_ipAddressReset_nrrEnabled_false.LW
p1236
aVtc_289_011_Modify_bearer__ERAB_modify_response_s1_intra_system_handover_triggered.L14b
p1237
aVtc_43_101__removal_of_disconnected_eNodeBs__CLI_removal.L14b
p1238
aVtc_284_624_pdn_connectivity_closed_csg_feature_on_to_off_after_attach.L14b
p1239
aVtc_288_101_pgw_init_bearer_mod_one_bad_one_good_one_unknown_one_not_responding_bearer.L14b
p1240
aVtc_260_271_receive_sm_start_req_while_wf_setup_iteration.L14b
p1241
aVtc_304_266_tau_from_gnsgsn_2g_control_mode_wf_delete_all_bearers_response_exception_case_reject_congestion_subscriber_cancelled.L14b
p1242
aVtc_193_400_auth_vectors_mf_4_vectors.L14b
p1243
aVtc_44_810_mme_assoc_reestablish__abort_s1_mme.L14b
p1244
aVtc_220_614_csfb_to_1xrtt_in_ecm_idle_with_gbr_bearers_delete_bearer_command_fails.L14b
p1245
aVtc_17_160_inter_rau_old_sgsn_context_acknowledge_fail.G14b
p1246
aVtc_73_07_itc_encrypted_gtpu_s4_payload_w.WG14a
p1247
aVtc_74_039_oms_mmi.LWG
p1248
aVtc_324_239_ef_nas_ignore_update_loc_received_wf_modify_bearer_response.LWG
p1249
aVtc_24_79_comb_att_vlr_alert_ind_vlr_reset_comb_update_new_la_ra_new_tmsi_payload.LWG
p1250
aVtc_12_184_attach_ptmsi_interfer_service_request_interfer_reset.LWG
p1251
aVtc_241_495_israu_new_gn_to_s4_pdp_to_bearer_with_10_secondary_pdp.LWG
p1252
aVtc_361_510_rau_l_to_w_S4SGSN_check_old_qos_failed_node_function_deactivate_pdp_after_rau_on.LWG
p1253
aVtc_259_93_ef_provide_subscriber_information_service_request_w.LWG
p1254
aVtc_304_266_tau_from_gnsgsn_2g_control_mode_wf_delete_all_bearers_response_exception_case_reject_congestion_subscriber_cancelled.LWG
p1255
aVtc_236_311_HO_over_S3_3GDT_switchback_ef_delete_bearer_request_received_wf_rab_assignment_response.LWG
p1256
aVtc_264_080_MME_Initiated_Detach__UE_ECM_Idle__Paging_Failed_due_to_OLP.LWG
p1257
aVtc_92_05_60_old_format_counters.LWG
p1258
aVtc_73_41_gtpu_sgsn_dont_send_gpu_echo_request_w.LWG
p1259
aVtc_73_07_itc_encrypted_gtpu_s4_payload_w.LWG
p1260
aVtc_319_036_act_pdp_ef_table_not_matched_stop_by_detach.LWG
p1261
aVtc_219_131_s3_handover_w_to_l_with_cl_two_pdns_one_failed_sgw_relocation.LWG
p1262
aVtc_179_318_Ccheck_TraceCollectionIpv6server.LWG
p1263
aVtc_346_385_handover_intra_x2_2PDN_with_bearer_control_mode_sx_only.LWG
p1264
aVtc_288_101_pgw_init_bearer_mod_one_bad_one_good_one_unknown_one_not_responding_bearer.LWG
p1265
aVtc_267_553_DDN_MBR_timeout__Delete_Bearer_Request_wf_UE_Context_Release_Complete.LW
p1266
aVtc_304_266_tau_from_gnsgsn_2g_control_mode_wf_delete_all_bearers_response_exception_case_reject_congestion_subscriber_cancelled.LW
p1267
aVtc_326_684_tau_intra_SGW_unavailable_active_flag_off_after_MME_large_restart__create_session_partition_fail.LW
p1268
aVtc_219_131_s3_handover_w_to_l_with_cl_two_pdns_one_failed_sgw_relocation.LW
p1269
aVtc_206_021_ebm_server_crashes_and_recovers_while_attached.LW
p1270
aVtc_241_066_israu_new_gn_to_s4_pdp_to_bearer_two_pdp_one_arp_higher_than_policy_map.LW
p1271
aVtc_241_303_intra_rau_create_session_failed_and_paging_timeout.LW
p1272
aVtc_288_101_pgw_init_bearer_mod_one_bad_one_good_one_unknown_one_not_responding_bearer.LW
p1273
aVtc_358_013_lte_remove_ip_area_with_ipAddressReset_true_and_irrEnabled_nrrEnabled_false.LW
p1274
aVtc_313_281_inter_new_srns_reloc_s16_with_sgw_change_downlink_data_notification_with_cause_received_wf_rau_complete.LW
p1275
aVtc_236_311_HO_over_S3_3GDT_switchback_ef_delete_bearer_request_received_wf_rab_assignment_response.LW
p1276
aVtc_44_750_s1_with_two_sctp_endpoints.LW
p1277
aVtc_209_44_sgsn_init_pdp_modification.LW
p1278
aVtc_313_281_inter_new_srns_reloc_s16_with_sgw_change_downlink_data_notification_with_cause_received_wf_rau_complete.WG14a
p1279
aVtc_73_07_itc_encrypted_gtpu_s4_payload_w.WG14a
p1280
aVtc_24_16_attach_combined_detach_from_gprs_only.G14b
p1281
aVtc_324_012_mf_ser_req_data_instead_of_ack_gbr_fail_setup_3gdt.W14b
p1282
aVtc_81_032_israu_conversational_no_lic.W14b
p1283
aVtc_103_860_ue_trace_retransmit.L14b
p1284
aVtc_288_101_pgw_init_bearer_mod_one_bad_one_good_one_unknown_one_not_responding_bearer.L14b
p1285
aVtc_302_121_1xrtt_cs_registration_main_flow_imsi_min.L14b
p1286
aVtc_310_244_ef__S1_Reset_wf_FR_Complete_PS_to_CS_Complete_received.L14b
p1287
aVtc_304_266_tau_from_gnsgsn_2g_control_mode_wf_delete_all_bearers_response_exception_case_reject_congestion_subscriber_cancelled.L14b
p1288
aVtc_202_450_af_seamless_move_source_unsuccessful_no_forward_relocation_response.L14b
p1289
aVtc_260_242_receive_sm_start_req_while_wf_m3_stop_resp_two_mce.L14b
p1290
aVtc_265_002_Detach_Flow_UE_init__Attach_Request_while_waiting_for_Delete_Session_Response.L14b
p1291
aVtc_288_101_pgw_init_bearer_mod_one_bad_one_good_one_unknown_one_not_responding_bearer.L14b
p1292
aVtc_273_024_tau_intra_normal_idle_active_flag_false.L14b
p1293
aVtc_304_266_tau_from_gnsgsn_2g_control_mode_wf_delete_all_bearers_response_exception_case_reject_congestion_subscriber_cancelled.L14b
p1294
aVtc_304_502_Service_Request_UE_Initiated__control_mode_threshold_exceeded_dgn.L14b
p1295
aVtc_327_323_recovery_service_request__uplink_Attach_Request_while_waiting_for_Guti_Rollback_complete.L14b
p1296
aVtc_44_860_mme_assoc_reestablish__sctp_fe_restart_s1_mme.L14b
p1297
aVtc_44_871_mme_assoc_reestablish__board_block_sbc.L14b
p1298
aVtc_263_020_Attach_Flow__Attach_Request_Different_IEs_IP_OK_while_waiting_for_Delete_Session_Response.L14b
p1299
aVtc_263_016_Attach_Flow__Attach_Request_New_S1_Different_IEs_IP_OK_while_waiting_for_Delete_Session_Response.L14b
p1300
aVtc_345_200_af__mo_csfb_with_psho__ecm_connected_no_FR_complete_from_target_sgsn.L14b
p1301
aVtc_274_614_combined_TAU_MT_Call_while_waiting_for_AIA_MO_SMS_wf_initial_context_setup_resp_detach_wf_modify_beare_response.L14b
p1302
aVtc_56_5_restart_during_SR.LWG
p1303
aVtc_56_21_sending_recognized_information_in_log.LWG
p1304
aVtc_92_05_60_old_format_counters.LWG
p1305
aVtc_273_007_tau_intra_normal_idle_authentication_with_same_plmn_ok.LWG
p1306
aVtc_327_037_recovery_intra_TAU_active_off_sgw_unchanged__RAR_wf_CSR_due_to_S11_linkdown.LWG
p1307
aVtc_327_182_recovery_intra_TAU_UE_Ctxt_Rel_while_waiting_for_CSR_due_to_S11_linkdown.LWG
p1308
aVtc_334_286_path_failure_service_req_connected_3gdt_af_create_session_no_resp.LWG
p1309
aVtc_304_266_tau_from_gnsgsn_2g_control_mode_wf_delete_all_bearers_response_exception_case_reject_congestion_subscriber_cancelled.LWG
p1310
aVtc_288_101_pgw_init_bearer_mod_one_bad_one_good_one_unknown_one_not_responding_bearer.LWG
p1311
aVtc_236_311_HO_over_S3_3GDT_switchback_ef_delete_bearer_request_received_wf_rab_assignment_response.LWG
p1312
aVtc_298_231_SIBD_S4_RAB_Reestablishment_failed.LWG
p1313
aVtc_39_921_ef_seamless_move_interrupted_by_normal_attach.LWG
p1314
aVtc_39_924_ef_rnc_reset_wf_ptmsi_rel_comp_source_sgsn.LWG
p1315
aVtc_311_223_intra_srns_reloc_s4_sgw_change_wf_rau_complete_interrupted_by_downlink_data_notification_with_cause.LWG
p1316
aVtc_73_07_itc_encrypted_gtpu_s4_payload_w.LWG
p1317
aVtc_263_020_Attach_Flow__Attach_Request_Different_IEs_IP_OK_while_waiting_for_Delete_Session_Response.LWG
p1318
aVtc_263_016_Attach_Flow__Attach_Request_New_S1_Different_IEs_IP_OK_while_waiting_for_Delete_Session_Response.LWG
p1319
aVtc_259_53_isd_s4_umts_pmmidl_act_deact_service_req.LWG
p1320
aVtc_259_77_ef_isd_paging_s4_w.LWG
p1321
aVtc_259_116_ef_s6d_tads_interfere_inter_rau_old_w.LWG
p1322
aVtc_204_068_mme_eps_ho__intra_mme_handover_during_tau_complete.LWG
p1323
aVtc_26_058_activate_3_primary_contexts_different_policy_maps.LWG
p1324
aVtc_197_481_attach_sgw_selection_table_not_matched_snaptr_query_failed.LWG
p1325
aVtc_197_851_sgw_prioritized_gw_selection_path_failure_inter_tau.LWG
p1326
aVtc_346_388_handover_intra_2PDN_BCM_sx_only_and_sxgx_location_report.LWG
p1327
aVtc_262_1055_imsi_attach_with_csg_id_is_rejected.LWG
p1328
aVtc_324_327_ef_service_req_data_direct_transfer_ingore.LWG
p1329
aVtc_265_002_Detach_Flow_UE_init__Attach_Request_while_waiting_for_Delete_Session_Response.LWG
p1330
aVtc_73_07_itc_encrypted_gtpu_s4_payload_w.WG14a
p1331
aVtc_313_281_inter_new_srns_reloc_s16_with_sgw_change_downlink_data_notification_with_cause_received_wf_rau_complete.WG14a
p1332
aVtc_239_601_rau_from_mme_to_sgsn_s4_interfer_rau_wf_create_session_resp.WG14a
p1333
aVtc_326_275_Periodic_Intra_TAU_with_unknown_GUTI_with_normal_and_emergency_PDN.LW
p1334
aVtc_288_101_pgw_init_bearer_mod_one_bad_one_good_one_unknown_one_not_responding_bearer.LW
p1335
aVtc_26_058_activate_3_primary_contexts_different_policy_maps.LW
p1336
aVtc_38_119_intra_rau_completing_interrupted_by_rnc_reset.LW
p1337
aVtc_44_004_small_restart__sctp_fe_restart.LW
p1338
aVtc_263_020_Attach_Flow__Attach_Request_Different_IEs_IP_OK_while_waiting_for_Delete_Session_Response.LW
p1339
aVtc_263_016_Attach_Flow__Attach_Request_New_S1_Different_IEs_IP_OK_while_waiting_for_Delete_Session_Response.LW
p1340
aVtc_265_002_Detach_Flow_UE_init__Attach_Request_while_waiting_for_Delete_Session_Response.LW
p1341
aVtc_304_266_tau_from_gnsgsn_2g_control_mode_wf_delete_all_bearers_response_exception_case_reject_congestion_subscriber_cancelled.LW
p1342
aVtc_81_071_israu_conversational_no_resources.W14b
p1343
aVtc_256_002_mme_eps_srvcc_ho_source_cs_only_mf_after_inter_mme_tau_with_active_flag.LWG
p1344
aVtc_243_771_tau_from_sgsn_s3_active_flag_true_SGW_unchange_no_2nd_modify_bearer_response_two_pdn.LWG
p1345
aVtc_276_282_Inter_TAU_New_MME__Delete_Bearer_Request_change_to_non_3gpp_while_waiting_for_Modify_Bearer_Response.LWG
p1346
aVtc_263_020_Attach_Flow__Attach_Request_Different_IEs_IP_OK_while_waiting_for_Delete_Session_Response.LWG
p1347
aVtc_263_016_Attach_Flow__Attach_Request_New_S1_Different_IEs_IP_OK_while_waiting_for_Delete_Session_Response.LWG
p1348
aVtc_298_014_nrspca_s4_idle_no_security_3GDT.LWG
p1349
aVtc_194_110_cli_get_subscriber_combined_attach_when_turn_on_sms_over_sgs.LWG
p1350
aVtc_166_428_rnc_initiated_rab_release_interfered_by_rnc_initiated_iu_release_request.LWG
p1351
aVtc_166_214_inter_irat_w_to_g_old_relocation_cancel_recv.LWG
p1352
aVtc_92_05_60_old_format_counters.LWG
p1353
aVtc_103_1003_highest_prio_peer_unavailable_lower_prio_peer_chosen.LWG
p1354
aVtc_361_510_rau_l_to_w_S4SGSN_check_old_qos_failed_node_function_deactivate_pdp_after_rau_on.LWG
p1355
aVtc_28_017_mt_sms_paging_rnc_offline_rnc_online.LWG
p1356
aVtc_232_401_bfd__ipv4_alarm.LWG
p1357
aVtc_267_782_HSS_based_PCSCF_restoration__s3_forward_relocation_request_wf_modify_bearer_response.LWG
p1358
aVtc_304_266_tau_from_gnsgsn_2g_control_mode_wf_delete_all_bearers_response_exception_case_reject_congestion_subscriber_cancelled.LWG
p1359
aVtc_327_214_recovery_service_request__HSS_Reset_while_waiting_for_Ue_Backup_Response.LWG
p1360
aVtc_327_037_recovery_intra_TAU_active_off_sgw_unchanged__RAR_wf_CSR_due_to_S11_linkdown.LWG
p1361
aVtc_204_409_mme_eps_ho_target_type_b_roaming_restriction_same_profile_emc_sup_sim_only.LWG
p1362
aVtc_288_101_pgw_init_bearer_mod_one_bad_one_good_one_unknown_one_not_responding_bearer.LWG
p1363
aVtc_287_028_HSS_based_PCSCF_restoration__ecm_connected_create_bearer_request_wf_delete_session_response.LWG
p1364
aVtc_197_532_x2_handover_with_sgw_relocation_table_not_matched_type_a.LWG
p1365
aVtc_365_03_seq_num_overflow_update_pdp_context_req.LWG
p1366
aVtc_219_131_s3_handover_w_to_l_with_cl_two_pdns_one_failed_sgw_relocation.LWG
p1367
aVtc_265_002_Detach_Flow_UE_init__Attach_Request_while_waiting_for_Delete_Session_Response.LWG
p1368
aVtc_73_07_itc_encrypted_gtpu_s4_payload_w.LWG
p1369
aVtc_275_118_tau_inter_new_emergency_erroneous_ie_authenticated_no_imsi.LWG
p1370
aVtc_324_058_af_modify_bearer_response_context_not_existent_before_ulr.W14b
p1371
aVtc_324_114_af_all_gbr_dedicated_bearer_fail_3gdt.W14b
p1372
aVtc_314_062_hss_init_qos_mod_mbc_timeout.W14b
p1373
aVtc_32_44_israu_new_authenticating_interrupted_by_rnc_reset_I.W14b
p1374
aVtc_236_181_hard_ho_intra_rau_with_3gdt_wf_release_access_bearer_resp_si_cancel_location_update.W14b
p1375
aVtc_241_1681_inter_rau_new_gn_to_s4_deactivation_init_by_odb_bit0.W14b
p1376
aVtc_322_050_smooth_move_ebt_rau_after_move.W14b
p1377
aVtc_298_228_SIBD_S4_RNC_Reset.W14b
p1378
aVtc_250_140_s6d_attach_and_pdn_connection_using_operator_specific_qci128.W14b
p1379
aVtc_313_281_inter_new_srns_reloc_s16_with_sgw_change_downlink_data_notification_with_cause_received_wf_rau_complete.W14b
p1380
aVtc_103_024_modify_diameter_peer_switch_peer_numbers.LW
p1381
aVtc_327_764_recovery_service_request__path_switch_request_while_wf_ue_context_modification_response.LW
p1382
aVtc_263_020_Attach_Flow__Attach_Request_Different_IEs_IP_OK_while_waiting_for_Delete_Session_Response.LW
p1383
aVtc_263_016_Attach_Flow__Attach_Request_New_S1_Different_IEs_IP_OK_while_waiting_for_Delete_Session_Response.LW
p1384
aVtc_265_002_Detach_Flow_UE_init__Attach_Request_while_waiting_for_Delete_Session_Response.LW
p1385
aVtc_214_631_combined_attach_MSC_selection_in_pool_then_paging_delete_MSC_La.LW
p1386
aVtc_236_311_HO_over_S3_3GDT_switchback_ef_delete_bearer_request_received_wf_rab_assignment_response.LW
p1387
aVtc_304_266_tau_from_gnsgsn_2g_control_mode_wf_delete_all_bearers_response_exception_case_reject_congestion_subscriber_cancelled.LW
p1388
aVtc_241_201_s4_sgsn_pool_ms_move_target_sgsn_mf.LW
p1389
aVtc_288_101_pgw_init_bearer_mod_one_bad_one_good_one_unknown_one_not_responding_bearer.LW
p1390
aVtc_304_266_tau_from_gnsgsn_2g_control_mode_wf_delete_all_bearers_response_exception_case_reject_congestion_subscriber_cancelled.L14b
p1391
aVtc_266_026_DownlinkDataFailureInd_repeat_paging_timer_small_local_restart.L14b
p1392
aVtc_289_055_Modify_bearer__UE_context_modification_failure_s1_intra_system_handover_triggered_HO_cancel.L14b
p1393
aVtc_310_310_S3_new_SGW_emergency_attach_sv_pool_on_msc_one_offloading_one_available.L14b
p1394
aVtc_288_360_pgw_init_bearer_mod_qci_counters__qci1_and_10.L14b
p1395
aVtc_288_101_pgw_init_bearer_mod_one_bad_one_good_one_unknown_one_not_responding_bearer.L14b
p1396
aVtc_263_020_Attach_Flow__Attach_Request_Different_IEs_IP_OK_while_waiting_for_Delete_Session_Response.L14b
p1397
aVtc_263_016_Attach_Flow__Attach_Request_New_S1_Different_IEs_IP_OK_while_waiting_for_Delete_Session_Response.L14b
p1398
aVtc_265_002_Detach_Flow_UE_init__Attach_Request_while_waiting_for_Delete_Session_Response.L14b
p1399
aVtc_268_031_Timer_Based_GBR_Deact__Receive_DDN_Only_GBR_in_EBI_before_UE_Context_Release_Complete.L14b
p1400
aVtc_348_051_small_restart__terminate.WG14a
p1401
aVtc_313_281_inter_new_srns_reloc_s16_with_sgw_change_downlink_data_notification_with_cause_received_wf_rau_complete.WG14a
p1402
aVtc_73_07_itc_encrypted_gtpu_s4_payload_w.WG14a
p1403
a.