(lp0
Vtc_166_111_periodic_rau_no_follow_on_direct_transfer_active_pdp_ptmsi_reallocated.LWG
p1
aVtc_166_122_activate_primary_3gdt_apn_from_ms.LWG
p2
aVtc_263_020_Attach_Flow__Attach_Request_Different_IEs_IP_OK_while_waiting_for_Delete_Session_Response.LWG
p3
aVtc_263_016_Attach_Flow__Attach_Request_New_S1_Different_IEs_IP_OK_while_waiting_for_Delete_Session_Response.LWG
p4
aVtc_204_011_mme_eps_handover_target_inter_main_flow_with_sgw_relocation__dedicated_bearer.LWG
p5
aVtc_304_266_tau_from_gnsgsn_2g_control_mode_wf_delete_all_bearers_response_exception_case_reject_congestion_subscriber_cancelled.LWG
p6
aVtc_313_281_inter_new_srns_reloc_s16_with_sgw_change_downlink_data_notification_with_cause_received_wf_rau_complete.LWG
p7
aVtc_313_205_inter_new_srns_reloc_s16_with_sgw_change_attach_request_initial_ue_received_wf_modify_bearer_response.LWG
p8
aVtc_103_701_MME_restarts.LWG
p9
aVtc_103_702_CEA_timeout.LWG
p10
aVtc_199_92_manual_echo_recovery_counter_increased.LWG
p11
aVtc_232_401_bfd__ipv4_alarm.LWG
p12
aVtc_232_403_bfd__ipv4ipv6_alarm.LWG
p13
aVtc_73_07_itc_encrypted_gtpu_s4_payload_w.LWG
p14
aVtc_280_142_tz_change_create_bearer_intra_tau_active.LWG
p15
aVtc_179_318_Ccheck_TraceCollectionIpv6server.LWG
p16
aVtc_56_21_sending_recognized_information_in_log.LWG
p17
aVtc_288_101_pgw_init_bearer_mod_one_bad_one_good_one_unknown_one_not_responding_bearer.LWG
p18
aVtc_92_05_60_old_format_counters.LWG
p19
aVtc_209_201_s4_activate_failed.LWG
p20
aVtc_219_131_s3_handover_w_to_l_with_cl_two_pdns_one_failed_sgw_relocation.LWG
p21
aVtc_265_002_Detach_Flow_UE_init__Attach_Request_while_waiting_for_Delete_Session_Response.LWG
p22
aVtc_363_018_mmi_get_ra.LWG
p23
aVtc_259_106_ef_tads_s4_interfere_inter_rau_old_w.LWG
p24
aVtc_194_100_check_gauge_unstable_not_parked.LWG
p25
aVtc_73_07_itc_encrypted_gtpu_s4_payload_w.WG14a
p26
aVtc_236_040_s4_3gdt_detach_during_waiting_for_modify_bearer_rsp_in_service_request_procedure.W14b
p27
aVtc_225_601_exp_flow_path_swith_request_while_wf_modification_context_response.L14b
p28
aVtc_238_178_mme_eps_irat_Gn_ho_target__type_c_emc_cancel.L14b
p29
aVtc_346_631_pra_cn_predefined_macro_enb_list__attach_in_pra1_pdn_out_of_pra2.L14b
p30
aVtc_263_020_Attach_Flow__Attach_Request_Different_IEs_IP_OK_while_waiting_for_Delete_Session_Response.L14b
p31
aVtc_263_016_Attach_Flow__Attach_Request_New_S1_Different_IEs_IP_OK_while_waiting_for_Delete_Session_Response.L14b
p32
aVtc_304_266_tau_from_gnsgsn_2g_control_mode_wf_delete_all_bearers_response_exception_case_reject_congestion_subscriber_cancelled.L14b
p33
aVtc_265_002_Detach_Flow_UE_init__Attach_Request_while_waiting_for_Delete_Session_Response.L14b
p34
aVtc_288_101_pgw_init_bearer_mod_one_bad_one_good_one_unknown_one_not_responding_bearer.L14b
p35
aVtc_318_254_restoration_not_triggered_when_no_sfteid_in_create_session_response.L14b
p36
aVtc_263_020_Attach_Flow__Attach_Request_Different_IEs_IP_OK_while_waiting_for_Delete_Session_Response.LW
p37
aVtc_263_016_Attach_Flow__Attach_Request_New_S1_Different_IEs_IP_OK_while_waiting_for_Delete_Session_Response.LW
p38
aVtc_241_405_israu_new_with_16m_flag_allowed_in_context_response_and_epc_cap_in_rau_req_transfer_to_new_tcw.LW
p39
aVtc_288_101_pgw_init_bearer_mod_one_bad_one_good_one_unknown_one_not_responding_bearer.LW
p40
aVtc_278_454_Inter_TAU_Old_MME_Intra_TAU_while_waiting_for_context_ack__Sgs_Paging_Call_while_waiting_for_ue_context_release_complete.LW
p41
aVtc_327_172_recovery_intra_TAU_SGSN_Context_Request_while_waiting_for_Location_Update_Response.LW
p42
aVtc_78_085_intra_rau_intra_plmn_accept_home_ms_no_redirect_attempt_flag.LW
p43
aVtc_11_147_rab_reestablish_on_service_request_data_pmm_connected.LW
p44
aVtc_214_630_combined_attach_MSC_selection_in_pool_then_paging_MSC_pool_feature_off.LW
p45
aVtc_304_266_tau_from_gnsgsn_2g_control_mode_wf_delete_all_bearers_response_exception_case_reject_congestion_subscriber_cancelled.LW
p46
aVtc_53_43_inter_new_srns_reloc_ef_reset3.LW
p47
aVtc_44_057_sctp_s1ap_mdholpap_emergency.LW
p48
aVtc_219_131_s3_handover_w_to_l_with_cl_two_pdns_one_failed_sgw_relocation.LW
p49
aVtc_265_002_Detach_Flow_UE_init__Attach_Request_while_waiting_for_Delete_Session_Response.LW
p50
aVtc_73_07_itc_encrypted_gtpu_s4_payload_w.WG14a
p51
aVtc_166_334_activate_fail_interrupted_by_deactivate_req_when_updating_in_GGSN.WG14a
p52
aVtc_320_062_sm_status_from_ms.G14b
p53
aVtc_249_104_s6d_IDR_ARD_not_allowed.G14b
p54
aVtc_39_920_ef_seamless_move_interrupted_by_transferred_attach.LWG
p55
aVtc_263_020_Attach_Flow__Attach_Request_Different_IEs_IP_OK_while_waiting_for_Delete_Session_Response.LWG
p56
aVtc_263_016_Attach_Flow__Attach_Request_New_S1_Different_IEs_IP_OK_while_waiting_for_Delete_Session_Response.LWG
p57
aVtc_92_05_60_old_format_counters.LWG
p58
aVtc_327_723_recovery_service_request__initial_detach_req_with_switch_off_while_wf_ue_context_modification_response.LWG
p59
aVtc_665_1_dp_reboot_init_cm_restart_with_traffic.LWG
p60
aVtc_265_002_Detach_Flow_UE_init__Attach_Request_while_waiting_for_Delete_Session_Response.LWG
p61
aVtc_15_115_inter_old_sgsn_interupted_by_returning_ms.LWG
p62
aVtc_178_943_show_sccp_local_sap_stat.LWG
p63
aVtc_310_335_ef_dbr_non_voice_bearer_wf_forward_relocation_complete_and_forward_relocation_complete_ack.LWG
p64
aVtc_288_101_pgw_init_bearer_mod_one_bad_one_good_one_unknown_one_not_responding_bearer.LWG
p65
aVtc_298_230_SIBD_S4_Modify_Bearer_failed.LWG
p66
aVtc_179_318_Ccheck_TraceCollectionIpv6server.LWG
p67
aVtc_209_151_ul_payload_imsi.LWG
p68
aVtc_103_006_load_sharing_between_peers.LWG
p69
aVtc_267_777_HSS_based_PCSCF_restoration__delete_bearer_request_other_pdn_wf_service_request.LWG
p70
aVtc_73_07_itc_encrypted_gtpu_s4_payload_w.LWG
p71
aVtc_205_71_08_SCTP_OctetsChunksSent.LWG
p72
aVtc_319_106_attach_mf_gw_blacklisting_temporary_unavailable_event.LWG
p73
aVtc_38_80_intra_rau_new_rnc_with_authentication_wrong_ptmsi_signature.LWG
p74
aVtc_26_037_subscriber_data_changed_but_no_modification.LWG
p75
aVtc_259_106_ef_tads_s4_interfere_inter_rau_old_w.LWG
p76
aVtc_195_208_mme_logging_maximum_modify_eps_bearer_context.LWG
p77
aVtc_110_005_inbound_outbound_pf_rule_cli_ip.LWG
p78
aVtc_316_294_GUTI_Attach_UnKnown_IMSI_Broadcast_Force_Delete_Among_Pool.LWG
p79
aVtc_304_266_tau_from_gnsgsn_2g_control_mode_wf_delete_all_bearers_response_exception_case_reject_congestion_subscriber_cancelled.LWG
p80
aVtc_219_131_s3_handover_w_to_l_with_cl_two_pdns_one_failed_sgw_relocation.LWG
p81
aVtc_262_1055_imsi_attach_with_csg_id_is_rejected.LWG
p82
aVtc_56_21_sending_recognized_information_in_log.LWG
p83
aVtc_329_156_intra_tau_rr_restricted_plmn_change.L14b
p84
aVtc_214_028_combined_attach_interfering_s1_reset.L14b
p85
aVtc_288_101_pgw_init_bearer_mod_one_bad_one_good_one_unknown_one_not_responding_bearer.L14b
p86
aVtc_263_020_Attach_Flow__Attach_Request_Different_IEs_IP_OK_while_waiting_for_Delete_Session_Response.L14b
p87
aVtc_263_016_Attach_Flow__Attach_Request_New_S1_Different_IEs_IP_OK_while_waiting_for_Delete_Session_Response.L14b
p88
aVtc_265_002_Detach_Flow_UE_init__Attach_Request_while_waiting_for_Delete_Session_Response.L14b
p89
aVtc_304_266_tau_from_gnsgsn_2g_control_mode_wf_delete_all_bearers_response_exception_case_reject_congestion_subscriber_cancelled.L14b
p90
aVtc_243_334_tau_from_sgsn_s3_emergency_type_c_ptmsi_sign_mismatch.L14b
p91
aVtc_262_1055_imsi_attach_with_csg_id_is_rejected.L14b
p92
aVtc_273_245_tau_intra__sgw_relocation_mult_pdn_connections_all_ok_active.LW
p93
aVtc_236_041_s4_3gdt_detach_modify_bearer_response_reject_in_active_procedure.LW
p94
aVtc_304_266_tau_from_gnsgsn_2g_control_mode_wf_delete_all_bearers_response_exception_case_reject_congestion_subscriber_cancelled.LW
p95
aVtc_219_131_s3_handover_w_to_l_with_cl_two_pdns_one_failed_sgw_relocation.LW
p96
aVtc_324_042_af_gbr_higher_than_policymap.LW
p97
aVtc_358_124_national_roaming_user_reject_intra_handover_ip_area_to_another_nrr_ip_area.LW
p98
aVtc_358_155_inter_mme_handover_source_and_target_in_restricted_ip_area_s1_release_avoid_handover_retries_on.LW
p99
aVtc_288_101_pgw_init_bearer_mod_one_bad_one_good_one_unknown_one_not_responding_bearer.LW
p100
aVtc_265_002_Detach_Flow_UE_init__Attach_Request_while_waiting_for_Delete_Session_Response.LW
p101
aVtc_263_020_Attach_Flow__Attach_Request_Different_IEs_IP_OK_while_waiting_for_Delete_Session_Response.LW
p102
aVtc_263_016_Attach_Flow__Attach_Request_New_S1_Different_IEs_IP_OK_while_waiting_for_Delete_Session_Response.LW
p103
aVtc_11_071_deactivate_ms_initiated_interrupted_by_rnc_reset.W14b
p104
aVtc_73_07_itc_encrypted_gtpu_s4_payload_w.WG14a
p105
aVtc_263_020_Attach_Flow__Attach_Request_Different_IEs_IP_OK_while_waiting_for_Delete_Session_Response.L14b
p106
aVtc_263_016_Attach_Flow__Attach_Request_New_S1_Different_IEs_IP_OK_while_waiting_for_Delete_Session_Response.L14b
p107
aVtc_327_022_recovery_intra_TAU__initial_Detach_Request_while_waiting_for_Ue_Backup_Response.L14b
p108
aVtc_265_002_Detach_Flow_UE_init__Attach_Request_while_waiting_for_Delete_Session_Response.L14b
p109
aVtc_274_060_Intra_and_pTAU__S1_Handover_while_waiting_for_Modify_Bearer_Response.L14b
p110
aVtc_318_301_sgw_restart_relocation_triggered_by_sr_closed_csg.L14b
p111
aVtc_304_121_initial_ue_intra_tau_control_mode_threshold_exceeded_usc_detach_wf_release_request_response.L14b
p112
aVtc_304_236_isc_active_flag_on_control_mode_threshold_exceeded_ignore_replace_s1_wf_initial_context_setup_response.L14b
p113
aVtc_304_266_tau_from_gnsgsn_2g_control_mode_wf_delete_all_bearers_response_exception_case_reject_congestion_subscriber_cancelled.L14b
p114
aVtc_288_101_pgw_init_bearer_mod_one_bad_one_good_one_unknown_one_not_responding_bearer.L14b
p115
aVtc_236_167_intra_rau_dedicated_bearer_fail_partial_service_request.LWG
p116
aVtc_288_101_pgw_init_bearer_mod_one_bad_one_good_one_unknown_one_not_responding_bearer.LWG
p117
aVtc_208_44_attach_detach_imsi_ap_takeover.LWG
p118
aVtc_318_301_sgw_restart_relocation_triggered_by_sr_closed_csg.LWG
p119
aVtc_24_151_msc_pool_gs_associated_change_cap_combined_ra_la_update_keep_msc.LWG
p120
aVtc_241_452_israu_new_with_10_dedicated_bearer_sgw_change_mf_s4.LWG
p121
aVtc_363_011_cli_get_ra.LWG
p122
aVtc_73_41_gtpu_sgsn_dont_send_gpu_echo_request_w.LWG
p123
aVtc_73_07_itc_encrypted_gtpu_s4_payload_w.LWG
p124
aVtc_263_020_Attach_Flow__Attach_Request_Different_IEs_IP_OK_while_waiting_for_Delete_Session_Response.LWG
p125
aVtc_263_016_Attach_Flow__Attach_Request_New_S1_Different_IEs_IP_OK_while_waiting_for_Delete_Session_Response.LWG
p126
aVtc_92_05_60_old_format_counters.LWG
p127
aVtc_265_002_Detach_Flow_UE_init__Attach_Request_while_waiting_for_Delete_Session_Response.LWG
p128
aVtc_311_253_intra_srns_reloc_s4_sgw_change_with_sgw_restart_and_wf_rau_complete_interrupted_by_context_request.LWG
p129
aVtc_304_266_tau_from_gnsgsn_2g_control_mode_wf_delete_all_bearers_response_exception_case_reject_congestion_subscriber_cancelled.LWG
p130
aVtc_08_021_fragment_gn_gb_packet.LWG
p131
aVtc_179_318_Ccheck_TraceCollectionIpv6server.LWG
p132
aVtc_238_026_mme_eps_irat_ho_target__multi_pdn_sgw_relocation_setup_fails.LWG
p133
aVtc_202_43_type_d_emergency_pdn_ecm_idle.LWG
p134
aVtc_31_048_service_request_ul_fails_semantic_error.LWG
p135
aVtc_327_520_recovery_service_request__IMEI_check_failed_while_waiting_for_Sub_Procedure__Initial_Context_Setup_Response.LWG
p136
aVtc_56_21_sending_recognized_information_in_log.LWG
p137
aVtc_262_195_old_mme_identification_procedure_gtpv1.LWG
p138
aVtc_216_106_icmpv6_outNeighborSol.LWG
p139
aVtc_302_114_mme_connection_closed_implicit_detach_timer_expires.LWG
p140
aVtc_52_07_inter_old_relocation_cancel.W14b
p141
aVtc_236_091_service_request_si_iu_release_at_sgw_flow_si_cancel_location.W14b
p142
aVtc_348_050_large_restart.W14b
p143
aVtc_13_19_successful_re_authentication_inter_rau.G14b
p144
aVtc_288_101_pgw_init_bearer_mod_one_bad_one_good_one_unknown_one_not_responding_bearer.LW
p145
aVtc_263_020_Attach_Flow__Attach_Request_Different_IEs_IP_OK_while_waiting_for_Delete_Session_Response.LW
p146
aVtc_263_016_Attach_Flow__Attach_Request_New_S1_Different_IEs_IP_OK_while_waiting_for_Delete_Session_Response.LW
p147
aVtc_326_223_Intra_TAU_Recovery_fail_Identity_Response_timeout_then_Recover_successful.LW
p148
aVtc_326_463_Inter_TAU_Recovery_Unknown_GUTI__Emergency_Type_a_LTE_SAU_Limit_Reach.LW
p149
aVtc_195_208_mme_logging_maximum_modify_eps_bearer_context.LW
p150
aVtc_304_266_tau_from_gnsgsn_2g_control_mode_wf_delete_all_bearers_response_exception_case_reject_congestion_subscriber_cancelled.LW
p151
aVtc_204_1011_emergency_mme_eps_ho_target_attach_license_lte_sau_limit_reached.LW
p152
aVtc_342_150_pmm_idle_one_pdp_source.LW
p153
aVtc_47_004_mobile_reachble_timer_ap_loss.LW
p154
aVtc_250_11_s6d_hss_reset_service_request.LW
p155
aVtc_26_019_ms_initiated_pdp_context_modification_from_streaming_to_interactive.LW
p156
aVtc_274_611_combined_TAU_MT_SMS_while_waiting_for_AIA_MO_SMS_wf_initial_context_response.LW
p157
aVtc_202_431_mf_seamless_move_target_service_request_modifyBearerReq_onePdnMultiBearer_oneBearerFail.LW
p158
aVtc_347_290_activate_dedicated_bearer__RAR_while_waiting_erab_setup_response.LW
p159
aVtc_265_002_Detach_Flow_UE_init__Attach_Request_while_waiting_for_Delete_Session_Response.LW
p160
aVtc_197_821_sgw_prioritized_gw_selection_s4_handover_from_non3gpp.LW
p161
aVtc_288_101_pgw_init_bearer_mod_one_bad_one_good_one_unknown_one_not_responding_bearer.L14b
p162
aVtc_44_860_mme_assoc_reestablish__sctp_fe_restart_s1_mme.L14b
p163
aVtc_266_026_DownlinkDataFailureInd_repeat_paging_timer_small_local_restart.L14b
p164
aVtc_306_1201_ef_seamless_move_target_receive_hss_reset_with_ue_activity_indication.L14b
p165
aVtc_265_002_Detach_Flow_UE_init__Attach_Request_while_waiting_for_Delete_Session_Response.L14b
p166
aVtc_43_101__removal_of_disconnected_eNodeBs__CLI_removal.L14b
p167
aVtc_237_423_mme_af_eps_irat_ho_source__two_SMS_paging_sent_to_mme_wf_forward_relocation_response.L14b
p168
aVtc_263_020_Attach_Flow__Attach_Request_Different_IEs_IP_OK_while_waiting_for_Delete_Session_Response.L14b
p169
aVtc_263_016_Attach_Flow__Attach_Request_New_S1_Different_IEs_IP_OK_while_waiting_for_Delete_Session_Response.L14b
p170
aVtc_327_764_recovery_service_request__path_switch_request_while_wf_ue_context_modification_response.L14b
p171
aVtc_304_266_tau_from_gnsgsn_2g_control_mode_wf_delete_all_bearers_response_exception_case_reject_congestion_subscriber_cancelled.L14b
p172
aVtc_346_203_RFSP__CCA_Initial_with_RFSP__Two_PDNs_with_different_RFSP_RAR_in_ECM_Idle.L14b
p173
aVtc_73_07_itc_encrypted_gtpu_s4_payload_w.WG14a
p174
aVtc_214_061_combined_attach_combined_tau_interfering_non_combined_attach.LW
p175
aVtc_202_03_emm_deregistered_no_s1_release.LW
p176
aVtc_225_601_exp_flow_path_swith_request_while_wf_modification_context_response.LW
p177
aVtc_236_244_Smooth_Move_S4_target_DtSelMode_4_APN_not_in_APN_list_TAC_not_in_TAC_List.LW
p178
aVtc_241_625_israu_new_with_dedicated_bearer_fail_detach_after_rau_complete.LW
p179
aVtc_263_020_Attach_Flow__Attach_Request_Different_IEs_IP_OK_while_waiting_for_Delete_Session_Response.LW
p180
aVtc_263_016_Attach_Flow__Attach_Request_New_S1_Different_IEs_IP_OK_while_waiting_for_Delete_Session_Response.LW
p181
aVtc_288_101_pgw_init_bearer_mod_one_bad_one_good_one_unknown_one_not_responding_bearer.LW
p182
aVtc_264_016_MME_Initiated_Detach__Attach__Handover__No_Modify_Bearer_Response__MME_Detach__ReAttach_Required__Attach.LW
p183
aVtc_265_002_Detach_Flow_UE_init__Attach_Request_while_waiting_for_Delete_Session_Response.LW
p184
aVtc_38_81_intra_rau_new_rnc_with_authentication_no_ptmsi_signature.LW
p185
aVtc_347_266_PDN_Connectivity__Location_Report_while_waiting_activate_default_eps_bearer_context_accept.LW
p186
aVtc_44_340_sctp_counter_index_SGsAP.LW
p187
aVtc_304_266_tau_from_gnsgsn_2g_control_mode_wf_delete_all_bearers_response_exception_case_reject_congestion_subscriber_cancelled.LW
p188
aVtc_39_199_detach_trigger_iu_release_during_reattach.LW
p189
aVtc_265_002_Detach_Flow_UE_init__Attach_Request_while_waiting_for_Delete_Session_Response.LWG
p190
aVtc_73_41_gtpu_sgsn_dont_send_gpu_echo_request_w.LWG
p191
aVtc_73_07_itc_encrypted_gtpu_s4_payload_w.LWG
p192
aVtc_263_020_Attach_Flow__Attach_Request_Different_IEs_IP_OK_while_waiting_for_Delete_Session_Response.LWG
p193
aVtc_263_016_Attach_Flow__Attach_Request_New_S1_Different_IEs_IP_OK_while_waiting_for_Delete_Session_Response.LWG
p194
aVtc_665_11_dp_reboot_init_cm_restart_with_traffic.LWG
p195
aVtc_304_266_tau_from_gnsgsn_2g_control_mode_wf_delete_all_bearers_response_exception_case_reject_congestion_subscriber_cancelled.LWG
p196
aVtc_208_202_s4_start_of_interception_pdp_active.LWG
p197
aVtc_318_301_sgw_restart_relocation_triggered_by_sr_closed_csg.LWG
p198
aVtc_288_101_pgw_init_bearer_mod_one_bad_one_good_one_unknown_one_not_responding_bearer.LWG
p199
aVtc_56_21_sending_recognized_information_in_log.LWG
p200
aVtc_220_203_csfb_to_1xrtt_delete_bearer_wf_delete_gbr_bearer_response.LWG
p201
aVtc_179_318_Ccheck_TraceCollectionIpv6server.LWG
p202
aVtc_204_402_mme_eps_ho_target_type_c_no_restriction_same_profile_emc_sup_sim_only.LWG
p203
aVtc_197_821_sgw_prioritized_gw_selection_s4_handover_from_non3gpp.LWG
p204
aVtc_219_232_TAU_Dual_Access_WtoL_without_SGW_Change_SGW_unavailable.LWG
p205
aVtc_92_05_60_old_format_counters.LWG
p206
aVtc_284_351_pdn_connectivity_pb_activate_1_dedicated_bearer_interrupted_by_path_switch_request.LWG
p207
aVtc_25_08_activate_ms99_qos_streaming_lower_maximum_BR.LWG
p208
aVtc_277_011_tau_inter_old_context_request_in_emm_deregistered_state.LWG
p209
aVtc_295_090_Intra_S1_HO__Path_Switch_Request_with_old_TA_MSC_change_while_waiting_for_Location_Update_response.LWG
p210
aVtc_26_097_subscriber_data_changed_when_iu_released_ms_does_not_respond.W14b
p211
aVtc_73_07_itc_encrypted_gtpu_s4_payload_w.WG14a
p212
aVtc_288_101_pgw_init_bearer_mod_one_bad_one_good_one_unknown_one_not_responding_bearer.LW
p213
aVtc_262_1050_imsi_attach_with_csg_id.LW
p214
aVtc_302_210_1xrtt_srvcc_ho_failure_status_from_iws.LW
p215
aVtc_265_002_Detach_Flow_UE_init__Attach_Request_while_waiting_for_Delete_Session_Response.LW
p216
aVtc_197_821_sgw_prioritized_gw_selection_s4_handover_from_non3gpp.LW
p217
aVtc_103_903_primary_or_secondary_realm_routing_own_realm.LW
p218
aVtc_26_083_israu_streaming_stand_alone_no_rnc_support.LW
p219
aVtc_236_039_s4_3gdt_detach_during_waiting_for_modify_bearer_rsp_in_active_procedure.LW
p220
aVtc_335_48_wifi_to_mobility_in_ecm_idle_unknown_user_af__more_than_1_cell_infos_from_wic__one_timeout_from_eNB.LW
p221
aVtc_304_266_tau_from_gnsgsn_2g_control_mode_wf_delete_all_bearers_response_exception_case_reject_congestion_subscriber_cancelled.LW
p222
aVtc_263_020_Attach_Flow__Attach_Request_Different_IEs_IP_OK_while_waiting_for_Delete_Session_Response.LW
p223
aVtc_263_016_Attach_Flow__Attach_Request_New_S1_Different_IEs_IP_OK_while_waiting_for_Delete_Session_Response.LW
p224
aVtc_220_403_csfb_to_1xrtt_in_ecm_connected_path_switch_request_HO_success.LW
p225
aVtc_30_106_attach_ul_fails_access_restriction_diff_plmn_when_data_not_confirmed.LWG
p226
aVtc_288_101_pgw_init_bearer_mod_one_bad_one_good_one_unknown_one_not_responding_bearer.LWG
p227
aVtc_92_05_60_old_format_counters.LWG
p228
aVtc_92_06_10_pm_job_log_content.LWG
p229
aVtc_92_06_20_pm_job_log_content.LWG
p230
aVtc_194_813_isd_private_extension_of_lzone_from_lzone_to_nolzone_followed_by_pdn_connectivity_request.LWG
p231
aVtc_319_073_path_management_configured_timer_expired.LWG
p232
aVtc_110_005_inbound_outbound_pf_rule_cli_ip.LWG
p233
aVtc_243_755_tau_from_sgsn_s3_change_sgw_with_csg_id_reject.LWG
p234
aVtc_73_07_itc_encrypted_gtpu_s4_payload_w.LWG
p235
aVtc_284_350_pdn_connectivity_interrupted_by_path_switch_request.LWG
p236
aVtc_310_111_1_af__timeout_on_FR_Response_from_SGSN_but_FR_Complete_received.LWG
p237
aVtc_318_301_sgw_restart_relocation_triggered_by_sr_closed_csg.LWG
p238
aVtc_24_190_gs_if_on_combined_procedures_off_gs_null_message_unknown.LWG
p239
aVtc_56_21_sending_recognized_information_in_log.LWG
p240
aVtc_97_035_inter_sgsn_psho_mf_with_lawful_intercept.LWG
p241
aVtc_179_318_Ccheck_TraceCollectionIpv6server.LWG
p242
aVtc_103_1005_secondary_dpl_used_when_all_peers_in_dpl_unavailable_with_sls.LWG
p243
aVtc_263_020_Attach_Flow__Attach_Request_Different_IEs_IP_OK_while_waiting_for_Delete_Session_Response.LWG
p244
aVtc_263_016_Attach_Flow__Attach_Request_New_S1_Different_IEs_IP_OK_while_waiting_for_Delete_Session_Response.LWG
p245
aVtc_265_002_Detach_Flow_UE_init__Attach_Request_while_waiting_for_Delete_Session_Response.LWG
p246
aVtc_241_495_israu_new_gn_to_s4_pdp_to_bearer_with_10_secondary_pdp.LWG
p247
aVtc_241_1694_intra_rau_without_sgw_change_interferred_by_reset_resource_after_modify_bearer_request.LWG
p248
aVtc_291_40_action_ue_trace.LWG
p249
aVtc_304_266_tau_from_gnsgsn_2g_control_mode_wf_delete_all_bearers_response_exception_case_reject_congestion_subscriber_cancelled.LWG
p250
aVtc_326_201_Intra_TAU_with_unknown_GUTI_with_active_flag.LWG
p251
aVtc_298_425_ms_init_deact_ef_default_bearer_deact_interfered_by_rab_release_request.W14b
p252
aVtc_348_050_large_restart.W14b
p253
aVtc_327_012_recovery_intra_TAU__initial_Attach_Request_while_waiting_for_Ue_Backup_Response.L14b
p254
aVtc_304_266_tau_from_gnsgsn_2g_control_mode_wf_delete_all_bearers_response_exception_case_reject_congestion_subscriber_cancelled.L14b
p255
aVtc_288_101_pgw_init_bearer_mod_one_bad_one_good_one_unknown_one_not_responding_bearer.L14b
p256
aVtc_220_600_csfb_to_1xrtt_uplink_nas_transport_interfere_tau_intra.L14b
p257
aVtc_243_330_tau_from_sgsn_s3_emergency_type_a_no_restriction.L14b
p258
aVtc_265_002_Detach_Flow_UE_init__Attach_Request_while_waiting_for_Delete_Session_Response.L14b
p259
aVtc_263_020_Attach_Flow__Attach_Request_Different_IEs_IP_OK_while_waiting_for_Delete_Session_Response.L14b
p260
aVtc_263_016_Attach_Flow__Attach_Request_New_S1_Different_IEs_IP_OK_while_waiting_for_Delete_Session_Response.L14b
p261
aVtc_203_102_S1_Based_HO_Source_MME_S1_Reset_while_waiting_for_Forward_Relocation_Complete_Notification.L14b
p262
aVtc_214_1140_la_selection_mf_oldlapreferred_prau_during_ue_restoration.LW
p263
aVtc_103_1006_secondary_dpl_used_when_all_peers_in_dpl_unavailable_no_sls_peers_same_prio.LW
p264
aVtc_219_131_s3_handover_w_to_l_with_cl_two_pdns_one_failed_sgw_relocation.LW
p265
aVtc_263_020_Attach_Flow__Attach_Request_Different_IEs_IP_OK_while_waiting_for_Delete_Session_Response.LW
p266
aVtc_263_016_Attach_Flow__Attach_Request_New_S1_Different_IEs_IP_OK_while_waiting_for_Delete_Session_Response.LW
p267
aVtc_195_208_mme_logging_maximum_modify_eps_bearer_context.LW
p268
aVtc_265_002_Detach_Flow_UE_init__Attach_Request_while_waiting_for_Delete_Session_Response.LW
p269
aVtc_304_266_tau_from_gnsgsn_2g_control_mode_wf_delete_all_bearers_response_exception_case_reject_congestion_subscriber_cancelled.LW
p270
aVtc_288_101_pgw_init_bearer_mod_one_bad_one_good_one_unknown_one_not_responding_bearer.LW
p271
aVtc_578_52_check_uetracer_parser.LW
p272
aVtc_346_578_AF__HO_X2_2PDN_MBR_failure_for_1PDN_terminate_sx.L14b
p273
aVtc_327_012_recovery_intra_TAU__initial_Attach_Request_while_waiting_for_Ue_Backup_Response.L14b
p274
aVtc_263_020_Attach_Flow__Attach_Request_Different_IEs_IP_OK_while_waiting_for_Delete_Session_Response.L14b
p275
aVtc_263_016_Attach_Flow__Attach_Request_New_S1_Different_IEs_IP_OK_while_waiting_for_Delete_Session_Response.L14b
p276
aVtc_288_101_pgw_init_bearer_mod_one_bad_one_good_one_unknown_one_not_responding_bearer.L14b
p277
aVtc_304_266_tau_from_gnsgsn_2g_control_mode_wf_delete_all_bearers_response_exception_case_reject_congestion_subscriber_cancelled.L14b
p278
aVtc_273_604_tau_intra_periodic_SGW_unavailable__DNS_fail.L14b
p279
aVtc_214_631_combined_attach_MSC_selection_in_pool_then_paging_delete_MSC_La.L14b
p280
aVtc_265_002_Detach_Flow_UE_init__Attach_Request_while_waiting_for_Delete_Session_Response.L14b
p281
aVtc_265_160_Detach_Flow_NW_init__Ue_moved_to_non_3gpp_while_imsi_detach.L14b
p282
aVtc_316_244_Combined_Attach_TMSI_reallocation__Backup_UE.L14b
p283
aVtc_22_035_intra_rau_update_location_failed.W14b
p284
aVtc_26_149_inter_sgsn_back_before_20s_with_qos_upgradeAllowed.W14b
p285
aVtc_316_272_Inter_RAT_S3_HO_SUT_As_Source_With_Dedicated_Bearer_Subpool_ID_Change__Delete_UE_Backup.LWG
p286
aVtc_288_101_pgw_init_bearer_mod_one_bad_one_good_one_unknown_one_not_responding_bearer.LWG
p287
aVtc_265_002_Detach_Flow_UE_init__Attach_Request_while_waiting_for_Delete_Session_Response.LWG
p288
aVtc_103_1155_sx_retransmit__Small_restart_terminate_request.LWG
p289
aVtc_56_21_sending_recognized_information_in_log.LWG
p290
aVtc_263_020_Attach_Flow__Attach_Request_Different_IEs_IP_OK_while_waiting_for_Delete_Session_Response.LWG
p291
aVtc_263_016_Attach_Flow__Attach_Request_New_S1_Different_IEs_IP_OK_while_waiting_for_Delete_Session_Response.LWG
p292
aVtc_263_452_Attach_Flow__S1_Reset_while_waiting_for_Create_Session_Response.LWG
p293
aVtc_141_028_eth_v6_traffic_conf_deconf_vlan.LWG
p294
aVtc_179_318_Ccheck_TraceCollectionIpv6server.LWG
p295
aVtc_179_011_Ccheck_eth_port.LWG
p296
aVtc_47_005_implict_detach_timer_ap_loss.LWG
p297
aVtc_92_05_60_old_format_counters.LWG
p298
aVtc_202_386_mf_seamless_move_target_service_request_before_ula_with_ddn.LWG
p299
aVtc_202_431_mf_seamless_move_target_service_request_modifyBearerReq_onePdnMultiBearer_oneBearerFail.LWG
p300
aVtc_24_122_msc_pool_associated_combined_attach_la_not_supported_select_msc_algorithm.LWG
p301
aVtc_197_821_sgw_prioritized_gw_selection_s4_handover_from_non3gpp.LWG
p302
aVtc_59_12_sequence_on_demand_indexbased_replica_values_during_takeover.LWG
p303
aVtc_73_41_gtpu_sgsn_dont_send_gpu_echo_request_w.LWG
p304
aVtc_73_07_itc_encrypted_gtpu_s4_payload_w.LWG
p305
aVtc_12_512_pmm_undefined_attach_when_updating_location_interfered_by_rnc_reset.LWG
p306
aVtc_304_266_tau_from_gnsgsn_2g_control_mode_wf_delete_all_bearers_response_exception_case_reject_congestion_subscriber_cancelled.LWG
p307
aVtc_232_403_bfd__ipv4ipv6_alarm.LWG
p308
aVtc_313_217_inter_new_srns_reloc_s16_with_sgw_change_detach_request_direct_transfer_received_bf_forward_reloc_complete_ack.WG14a
p309
aVtc_73_07_itc_encrypted_gtpu_s4_payload_w.WG14a
p310
aVtc_23_10_transfer_to_primary_and_change_vip_addr_from_gn_to_gom.W14b
p311
aVtc_24_48_known_ms_attach_combined_alert_request_from_msc.G14b
p312
aVtc_263_020_Attach_Flow__Attach_Request_Different_IEs_IP_OK_while_waiting_for_Delete_Session_Response.LWG
p313
aVtc_263_016_Attach_Flow__Attach_Request_New_S1_Different_IEs_IP_OK_while_waiting_for_Delete_Session_Response.LWG
p314
aVtc_340_124_oms_consistence_check_for_action_pool_move_validation_start.LWG
p315
aVtc_73_07_itc_encrypted_gtpu_s4_payload_w.LWG
p316
aVtc_288_101_pgw_init_bearer_mod_one_bad_one_good_one_unknown_one_not_responding_bearer.LWG
p317
aVtc_197_821_sgw_prioritized_gw_selection_s4_handover_from_non3gpp.LWG
p318
aVtc_59_12_sequence_on_demand_indexbased_replica_values_during_takeover.LWG
p319
aVtc_326_838_Inter_TAU_Recovery_Old_MME_Unavailable_MBR_timeout_followed_by_Service_Request_SGW_unavailable_MBR_timeout.LWG
p320
aVtc_318_301_sgw_restart_relocation_triggered_by_sr_closed_csg.LWG
p321
aVtc_56_21_sending_recognized_information_in_log.LWG
p322
aVtc_316_270_RAU_To_Gn_SGSN_With_Dedicated_Bearers_Backup_Option_Change__Delete_UE_Backup.LWG
p323
aVtc_209_110_dual_stack_legacy_versions_ipv4_ipv4v6.LWG
p324
aVtc_12_512_pmm_undefined_attach_when_updating_location_interfered_by_rnc_reset.LWG
p325
aVtc_194_188_hss_reset_ef_wait_for_notify_response_with_full_imsi.LWG
p326
aVtc_202_311_mf_seamless_move_by_mme_ue_ecm_idle_service_req_int_not_ok.LWG
p327
aVtc_202_431_mf_seamless_move_target_service_request_modifyBearerReq_onePdnMultiBearer_oneBearerFail.LWG
p328
aVtc_304_266_tau_from_gnsgsn_2g_control_mode_wf_delete_all_bearers_response_exception_case_reject_congestion_subscriber_cancelled.LWG
p329
aVtc_92_05_60_old_format_counters.LWG
p330
aVtc_265_002_Detach_Flow_UE_init__Attach_Request_while_waiting_for_Delete_Session_Response.LWG
p331
aVtc_26_068_activate_streaming_gbr_higher_than_512kbps.LW
p332
aVtc_304_266_tau_from_gnsgsn_2g_control_mode_wf_delete_all_bearers_response_exception_case_reject_congestion_subscriber_cancelled.LW
p333
aVtc_318_301_sgw_restart_relocation_triggered_by_sr_closed_csg.LW
p334
aVtc_327_152_recovery_intra_TAU_Create_Bearer_Request_while_waiting_for_Update_Location_Answer.LW
p335
aVtc_335_45_wifi_to_mobility_in_ecm_idle_unknown_user_af__no_estimation_response_from_eNB_timeout.LW
p336
aVtc_44_004_small_restart__sctp_fe_restart.LW
p337
aVtc_265_002_Detach_Flow_UE_init__Attach_Request_while_waiting_for_Delete_Session_Response.LW
p338
aVtc_263_020_Attach_Flow__Attach_Request_Different_IEs_IP_OK_while_waiting_for_Delete_Session_Response.LW
p339
aVtc_263_016_Attach_Flow__Attach_Request_New_S1_Different_IEs_IP_OK_while_waiting_for_Delete_Session_Response.LW
p340
aVtc_248_303_inter_l_to_w_new_ms_connected_handover_from_mme.LW
p341
aVtc_326_263_Intra_TAU_with_unknown_GUTI_Restriction_2_pdn_roaming_restriction_emergency_pdn_recovered.LW
p342
aVtc_288_101_pgw_init_bearer_mod_one_bad_one_good_one_unknown_one_not_responding_bearer.LW
p343
aVtc_257_30_pws_sctp_device_failure.LW
p344
aVtc_197_821_sgw_prioritized_gw_selection_s4_handover_from_non3gpp.LW
p345
aVtc_73_07_itc_encrypted_gtpu_s4_payload_w.WG14a
p346
aVtc_288_101_pgw_init_bearer_mod_one_bad_one_good_one_unknown_one_not_responding_bearer.L14b
p347
aVtc_284_350_pdn_connectivity_interrupted_by_path_switch_request.L14b
p348
aVtc_244_042_mt_lr_path_switch_request_received_wf_location_report.L14b
p349
aVtc_263_020_Attach_Flow__Attach_Request_Different_IEs_IP_OK_while_waiting_for_Delete_Session_Response.L14b
p350
aVtc_263_016_Attach_Flow__Attach_Request_New_S1_Different_IEs_IP_OK_while_waiting_for_Delete_Session_Response.L14b
p351
aVtc_265_002_Detach_Flow_UE_init__Attach_Request_while_waiting_for_Delete_Session_Response.L14b
p352
aVtc_294_324_intra_mme_handover_with_ta_change_tau_request_while_release_reasources_in_source.L14b
p353
aVtc_44_251_sctp_assoc_config__modify_rt_Diameter.L14b
p354
aVtc_327_323_recovery_service_request__uplink_Attach_Request_while_waiting_for_Guti_Rollback_complete.L14b
p355
aVtc_304_266_tau_from_gnsgsn_2g_control_mode_wf_delete_all_bearers_response_exception_case_reject_congestion_subscriber_cancelled.L14b
p356
aVtc_262_600_combined_attach_cs_service_notification_when_emm_attach_state.L14b
p357
aVtc_304_266_tau_from_gnsgsn_2g_control_mode_wf_delete_all_bearers_response_exception_case_reject_congestion_subscriber_cancelled.LW
p358
aVtc_262_044_imsi_attach_emm_deregistered.LW
p359
aVtc_245_301_inter_rau_insert_entry_into_interface_cache.LW
p360
aVtc_194_901_CSG_membership_change__PCSCF_restoration_req_while_wf_ue_mobility_Handover_Required_received_deactivation_triggered.LW
p361
aVtc_263_020_Attach_Flow__Attach_Request_Different_IEs_IP_OK_while_waiting_for_Delete_Session_Response.LW
p362
aVtc_263_016_Attach_Flow__Attach_Request_New_S1_Different_IEs_IP_OK_while_waiting_for_Delete_Session_Response.LW
p363
aVtc_250_62_s6d_activation_with_APNAMBR_modification_initiated_by_PGW.LW
p364
aVtc_265_002_Detach_Flow_UE_init__Attach_Request_while_waiting_for_Delete_Session_Response.LW
p365
aVtc_265_160_Detach_Flow_NW_init__Ue_moved_to_non_3gpp_while_imsi_detach.LW
p366
aVtc_214_1140_la_selection_mf_oldlapreferred_prau_during_ue_restoration.LW
p367
aVtc_298_826_NRSPCA_S4_nsapi_collision_receiving_detach_request_while_waiting_for_delete_bearer_request.LW
p368
aVtc_288_101_pgw_init_bearer_mod_one_bad_one_good_one_unknown_one_not_responding_bearer.LW
p369
aVtc_578_32_check_ebm_para_statistics_ue_return_duration.LW
p370
aVtc_236_040_s4_3gdt_detach_during_waiting_for_modify_bearer_rsp_in_service_request_procedure.W14b
p371
aVtc_101_004_single_mbms_session_rnc_rab_and_iu_release.W14b
p372
aVtc_259_77_ef_isd_paging_s4_w.LWG
p373
aVtc_259_102_ef_tads_s4_interfere_inter_rau_old_g.LWG
p374
aVtc_43_008_large_restart_eNodeB_down.LWG
p375
aVtc_26_002_activate_primary_Qos_subscribed_higher_then_nodeprop.LWG
p376
aVtc_263_020_Attach_Flow__Attach_Request_Different_IEs_IP_OK_while_waiting_for_Delete_Session_Response.LWG
p377
aVtc_263_016_Attach_Flow__Attach_Request_New_S1_Different_IEs_IP_OK_while_waiting_for_Delete_Session_Response.LWG
p378
aVtc_304_109_initial_ue_intra_tau_control_mode_threshold_exceeded_usc_detach_then_reattach.LWG
p379
aVtc_304_266_tau_from_gnsgsn_2g_control_mode_wf_delete_all_bearers_response_exception_case_reject_congestion_subscriber_cancelled.LWG
p380
aVtc_178_661_action_ss7_sccp_local_sap_v2.LWG
p381
aVtc_92_05_60_old_format_counters.LWG
p382
aVtc_92_09_20_autoupdate.LWG
p383
aVtc_288_101_pgw_init_bearer_mod_one_bad_one_good_one_unknown_one_not_responding_bearer.LWG
p384
aVtc_232_403_bfd__ipv4ipv6_alarm.LWG
p385
aVtc_73_41_gtpu_sgsn_dont_send_gpu_echo_request_w.LWG
p386
aVtc_73_07_itc_encrypted_gtpu_s4_payload_w.LWG
p387
aVtc_326_241_Intra_TAU_Recovery_Initial_Context_Setup_fail.LWG
p388
aVtc_183_013_itc_captured_packet_check.LWG
p389
aVtc_56_21_sending_recognized_information_in_log.LWG
p390
aVtc_265_002_Detach_Flow_UE_init__Attach_Request_while_waiting_for_Delete_Session_Response.LWG
p391
aVtc_44_004_small_restart__sctp_fe_restart.LWG
p392
aVtc_267_782_HSS_based_PCSCF_restoration__s3_forward_relocation_request_wf_modify_bearer_response.LWG
p393
aVtc_241_068_israu_new_s4_to_s4_illegal_me_in_imei_check_after_israu_with_paging.LWG
p394
aVtc_179_318_Ccheck_TraceCollectionIpv6server.LWG
p395
aVtc_244_055_mt_lr_cancel_location_with_update_procedure_received_wf_location_report.LWG
p396
aVtc_73_07_itc_encrypted_gtpu_s4_payload_w.WG14a
p397
aVtc_199_120_s11_path_management_small_restarted.L14b
p398
aVtc_267_730_Service_Request__CS_paging_while_waiting_for_Modify_Bearer_Response.L14b
p399
aVtc_318_264_sgw_restart_af_relocation_triggered_by_DDN_initial_context_setup_failure.L14b
p400
aVtc_263_020_Attach_Flow__Attach_Request_Different_IEs_IP_OK_while_waiting_for_Delete_Session_Response.L14b
p401
aVtc_263_016_Attach_Flow__Attach_Request_New_S1_Different_IEs_IP_OK_while_waiting_for_Delete_Session_Response.L14b
p402
aVtc_237_423_mme_af_eps_irat_ho_source__two_SMS_paging_sent_to_mme_wf_forward_relocation_response.L14b
p403
aVtc_194_1601__HSS_initiated_ISD_in_Connected_mode_when_current_CSG_Id_removed_Intefered_by_MT_SMS_wf_ue_context_modify_response.L14b
p404
aVtc_304_266_tau_from_gnsgsn_2g_control_mode_wf_delete_all_bearers_response_exception_case_reject_congestion_subscriber_cancelled.L14b
p405
aVtc_204_067_mme_eps_ho__intra_mme_handover_during_ue_context_modification.L14b
p406
aVtc_214_028_combined_attach_interfering_s1_reset.L14b
p407
aVtc_265_002_Detach_Flow_UE_init__Attach_Request_while_waiting_for_Delete_Session_Response.L14b
p408
aVtc_288_101_pgw_init_bearer_mod_one_bad_one_good_one_unknown_one_not_responding_bearer.L14b
p409
aVtc_295_002_Intra_S1_HO__Handover_req_ack_while_wf_handover_notify.L14b
p410
aVtc_295_097_Intra_S1_HO__Handover_Required_while_waiting_for_TAU_Request.L14b
p411
aVtc_295_119_Intra_S1_HO__With_sgw_relocation_main_flow.L14b
p412
aVtc_295_201_Intra_S1_HO_SGW_Change_Delete_Bearer_Request_While_Waiting_for_Handover_Notify.L14b
p413
aVtc_295_124_tau_after_ho_tz_change_emm_information_meanwhile_handover_required_HO_success.L14b
p414
aVtc_264_041_emergency_type_d_imei_detach_in_emm_registered_state_after_ap_restart.L14b
p415
aVtc_284_351_pdn_connectivity_pb_activate_1_dedicated_bearer_interrupted_by_path_switch_request.L14b
p416
aVtc_284_350_pdn_connectivity_interrupted_by_path_switch_request.L14b
p417
aVtc_73_07_itc_encrypted_gtpu_s4_payload_w.WG14a
p418
aVtc_195_208_mme_logging_maximum_modify_eps_bearer_context.L14b
p419
aVtc_266_026_DownlinkDataFailureInd_repeat_paging_timer_small_local_restart.L14b
p420
aVtc_263_020_Attach_Flow__Attach_Request_Different_IEs_IP_OK_while_waiting_for_Delete_Session_Response.L14b
p421
aVtc_263_016_Attach_Flow__Attach_Request_New_S1_Different_IEs_IP_OK_while_waiting_for_Delete_Session_Response.L14b
p422
aVtc_327_760_recovery_service_request__handover_required_while_wf_ue_context_modification_response.L14b
p423
aVtc_265_002_Detach_Flow_UE_init__Attach_Request_while_waiting_for_Delete_Session_Response.L14b
p424
aVtc_261_102_tai_list_dns_attach_intra_tau_with_same_voip_restriction.L14b
p425
aVtc_44_201_sctp_endpoint_config__modify_rt_Diameter.L14b
p426
aVtc_295_136_mo_call_during_s1_ho_tau_request_when_wf_handover_notify.L14b
p427
aVtc_304_266_tau_from_gnsgsn_2g_control_mode_wf_delete_all_bearers_response_exception_case_reject_congestion_subscriber_cancelled.L14b
p428
aVtc_304_266_tau_from_gnsgsn_2g_control_mode_wf_delete_all_bearers_response_exception_case_reject_congestion_subscriber_cancelled.LW
p429
aVtc_194_609_DSD__PDN_subscription_contexts_Withdrawal_One_PDN_Disconnect_ECM_IDLE.LW
p430
aVtc_263_020_Attach_Flow__Attach_Request_Different_IEs_IP_OK_while_waiting_for_Delete_Session_Response.LW
p431
aVtc_263_016_Attach_Flow__Attach_Request_New_S1_Different_IEs_IP_OK_while_waiting_for_Delete_Session_Response.LW
p432
aVtc_44_004_small_restart__sctp_fe_restart.LW
p433
aVtc_197_821_sgw_prioritized_gw_selection_s4_handover_from_non3gpp.LW
p434
aVtc_231_175_sgsn_init_detach_interfered_by_context_request_wait_delete_session_res.LW
p435
aVtc_274_044_Intra_and_pTAU__Intra_TAU_other_ta_while_waiting_for_TAU_Complete.LW
p436
aVtc_327_031_recovery_intra_TAU__uplink_same_ie_intra_TAU_Request_while_waiting_for_Create_Session_Response.LW
p437
aVtc_265_002_Detach_Flow_UE_init__Attach_Request_while_waiting_for_Delete_Session_Response.LW
p438
aVtc_326_241_Intra_TAU_Recovery_Initial_Context_Setup_fail.LWG
p439
aVtc_326_283_Intra_TAU_with_unknown_GUTI_SGW_unavailable_Create_Session_failure.LWG
p440
aVtc_92_05_60_old_format_counters.LWG
p441
aVtc_39_601_mas_unsucc_fwd_reloc_resp_mandatory_ie_missing_stop_source.LWG
p442
aVtc_263_020_Attach_Flow__Attach_Request_Different_IEs_IP_OK_while_waiting_for_Delete_Session_Response.LWG
p443
aVtc_263_016_Attach_Flow__Attach_Request_New_S1_Different_IEs_IP_OK_while_waiting_for_Delete_Session_Response.LWG
p444
aVtc_265_002_Detach_Flow_UE_init__Attach_Request_while_waiting_for_Delete_Session_Response.LWG
p445
aVtc_73_41_gtpu_sgsn_dont_send_gpu_echo_request_w.LWG
p446
aVtc_73_07_itc_encrypted_gtpu_s4_payload_w.LWG
p447
aVtc_218_026_tau_from_sgsn_active_flag_true_no_initial_context_setup_response.LWG
p448
aVtc_304_266_tau_from_gnsgsn_2g_control_mode_wf_delete_all_bearers_response_exception_case_reject_congestion_subscriber_cancelled.LWG
p449
aVtc_284_623_pdn_connectivity_closed_csg_feature_off_to_on_after_attach.LWG
p450
aVtc_238_157_mme_eps_irat_Gn_ho_target__no_ho_request_ack.LWG
p451
aVtc_56_21_sending_recognized_information_in_log.LWG
p452
aVtc_179_318_Ccheck_TraceCollectionIpv6server.LWG
p453
aVtc_363_021_gbip_feature_off_nses_bscconfirmed_trun_to_false.LWG
p454
aVtc_103_602_georedundant_realm_routing.LWG
p455
aVtc_327_191_recovery_intra_TAU_MT_CALL_while_waiting_for_CSR_due_to_S11_linkdown.LWG
p456
aVtc_264_103_Detach_Request_With_CSG_ID_Power_Off.LWG
p457
aVtc_25_20_israu_gtp99_MBR_0.LWG
p458
aVtc_214_821_SGW_unavailable_Combined_Intra_TAU.LWG
p459
aVtc_197_821_sgw_prioritized_gw_selection_s4_handover_from_non3gpp.LWG
p460
aVtc_73_07_itc_encrypted_gtpu_s4_payload_w.LWG
p461
aVtc_103_602_georedundant_realm_routing.LWG
p462
aVtc_56_21_sending_recognized_information_in_log.LWG
p463
aVtc_92_05_60_old_format_counters.LWG
p464
aVtc_92_09_20_autoupdate.LWG
p465
aVtc_232_401_bfd__ipv4_alarm.LWG
p466
aVtc_39_601_mas_unsucc_fwd_reloc_resp_mandatory_ie_missing_stop_source.LWG
p467
aVtc_208_48_df2_alarm_buffer_off.LWG
p468
aVtc_208_108_dual_stack_legacy_versions_ipv4.LWG
p469
aVtc_214_1140_la_selection_mf_oldlapreferred_prau_during_ue_restoration.LW
p470
aVtc_267_304_Service_Request_CBR_wf_Initial_Context_Setup_Response_S1_Reset_wf_Modify_Bearer_Response.LW
p471
aVtc_32_66_israu_old_sgsn_connected_context_ack_failure_interrupted_by_rnc_reset.LW
p472
aVtc_265_002_Detach_Flow_UE_init__Attach_Request_while_waiting_for_Delete_Session_Response.LW
p473
aVtc_23_10_transfer_to_primary_and_change_vip_addr_from_gn_to_gom.LW
p474
aVtc_262_166_new_mme_identification_request_n3t3_timeout.LW
p475
aVtc_263_020_Attach_Flow__Attach_Request_Different_IEs_IP_OK_while_waiting_for_Delete_Session_Response.LW
p476
aVtc_263_016_Attach_Flow__Attach_Request_New_S1_Different_IEs_IP_OK_while_waiting_for_Delete_Session_Response.LW
p477
aVtc_73_07_itc_encrypted_gtpu_s4_payload_w.WG14a
p478
aVtc_52_44_inter_old_srns_reloc_main_flow_interfered_by_insert_subscr.W14b
p479
aVtc_11_189_ms_initiated_modification_iu_release_during_rnc_modify.W14b
p480
aVtc_298_713_pgw_init_modification_ef_rnc_reset_wf_ms_modify_and_rab_create.W14b
p481
aVtc_220_587_csfb_to_1xrtt_in_extended_service_request_during_attach_waiting_for_modify_bearer_response.L14b
p482
aVtc_263_020_Attach_Flow__Attach_Request_Different_IEs_IP_OK_while_waiting_for_Delete_Session_Response.L14b
p483
aVtc_263_016_Attach_Flow__Attach_Request_New_S1_Different_IEs_IP_OK_while_waiting_for_Delete_Session_Response.L14b
p484
aVtc_265_002_Detach_Flow_UE_init__Attach_Request_while_waiting_for_Delete_Session_Response.L14b
p485
aVtc_237_423_mme_af_eps_irat_ho_source__two_SMS_paging_sent_to_mme_wf_forward_relocation_response.L14b
p486
aVtc_304_236_isc_active_flag_on_control_mode_threshold_exceeded_ignore_replace_s1_wf_initial_context_setup_response.L14b
p487
aVtc_304_266_tau_from_gnsgsn_2g_control_mode_wf_delete_all_bearers_response_exception_case_reject_congestion_subscriber_cancelled.L14b
p488
aVtc_103_800_device_watchdog_request_to_SGSN_MME.L14b
p489
aVtc_263_020_Attach_Flow__Attach_Request_Different_IEs_IP_OK_while_waiting_for_Delete_Session_Response.LW
p490
aVtc_263_016_Attach_Flow__Attach_Request_New_S1_Different_IEs_IP_OK_while_waiting_for_Delete_Session_Response.LW
p491
aVtc_578_52_check_uetracer_parser.LW
p492
aVtc_219_131_s3_handover_w_to_l_with_cl_two_pdns_one_failed_sgw_relocation.LW
p493
aVtc_265_002_Detach_Flow_UE_init__Attach_Request_while_waiting_for_Delete_Session_Response.LW
p494
aVtc_304_266_tau_from_gnsgsn_2g_control_mode_wf_delete_all_bearers_response_exception_case_reject_congestion_subscriber_cancelled.LW
p495
aVtc_326_246_Intra_TAU_Recovery_fail_Modify_Bearer_fail_active_flag_SGW_Change.LW
p496
aVtc_346_021_PGW_Selection__PDN_Connectivity__PGW_FQDN_only.LW
p497
aVtc_32_71_rnc_reset_on_detached_ms.W14b
p498
aVtc_298_826_NRSPCA_S4_nsapi_collision_receiving_detach_request_while_waiting_for_delete_bearer_request.W14b
p499
aVtc_241_705_intra_rau_with_sgw_change_isd_with_odb_bit_15_EF_interfer_by_update_bearer_req.W14b
p500
aVtc_11_091_activate_secondary_pdp_context_wrong_LinkedTI.W14b
p501
aVtc_236_049_s4_3gdt_rnc_reset_during_waiting_for_modify_beaer_rsp_in_service_request_procedure.W14b
p502
aVtc_193_216_intruder_auth_rej_non_eps_auth_unaccept.L14b
p503
aVtc_263_020_Attach_Flow__Attach_Request_Different_IEs_IP_OK_while_waiting_for_Delete_Session_Response.L14b
p504
aVtc_263_016_Attach_Flow__Attach_Request_New_S1_Different_IEs_IP_OK_while_waiting_for_Delete_Session_Response.L14b
p505
aVtc_369_083_mme_initiated_detach_during_waiting_location_report__idr_flags_ef.L14b
p506
aVtc_265_002_Detach_Flow_UE_init__Attach_Request_while_waiting_for_Delete_Session_Response.L14b
p507
aVtc_44_251_sctp_assoc_config__modify_rt_Diameter.L14b
p508
aVtc_327_317_recovery_service_request__initial_Attach_Request_while_waiting_for_Sub_Procedure__Initial_Context_Setup_Response.L14b
p509
aVtc_262_600_combined_attach_cs_service_notification_when_emm_attach_state.L14b
p510
aVtc_214_301_mt_sms_idle_mode.L14b
p511
aVtc_194_1600__HSS_initiated_ISD_in_Connected_mode_when_current_CSG_Id_removed_Intefered_by_MT_Call_wf_ue_context_modify_response.L14b
p512
aVtc_304_236_isc_active_flag_on_control_mode_threshold_exceeded_ignore_replace_s1_wf_initial_context_setup_response.L14b
p513
aVtc_304_266_tau_from_gnsgsn_2g_control_mode_wf_delete_all_bearers_response_exception_case_reject_congestion_subscriber_cancelled.L14b
p514
aVtc_220_044_csfb_to_1xrtt_in_ecm_connected_s1_reset_release_access_beareres_response_with_request_rejected.L14b
p515
aVtc_220_587_csfb_to_1xrtt_in_extended_service_request_during_attach_waiting_for_modify_bearer_response.L14b
p516
aVtc_326_635_S6a_Throttling_Subscriber_Data_Flush_then_Restore_caused_Detach_Timer_Stopped_and_UE_not_Detached.L14b
p517
aVtc_273_340_tau_intra_idle_active_tz_change.L14b
p518
aVtc_263_020_Attach_Flow__Attach_Request_Different_IEs_IP_OK_while_waiting_for_Delete_Session_Response.LWG
p519
aVtc_263_016_Attach_Flow__Attach_Request_New_S1_Different_IEs_IP_OK_while_waiting_for_Delete_Session_Response.LWG
p520
aVtc_263_034_Attach_Flow__Detach_Request_while_waiting_for_Update_Location_Answer.LWG
p521
aVtc_56_21_sending_recognized_information_in_log.LWG
p522
aVtc_92_05_60_old_format_counters.LWG
p523
aVtc_265_002_Detach_Flow_UE_init__Attach_Request_while_waiting_for_Delete_Session_Response.LWG
p524
aVtc_342_150_pmm_idle_one_pdp_source.LWG
p525
aVtc_197_851_sgw_prioritized_gw_selection_path_failure_inter_tau.LWG
p526
aVtc_73_41_gtpu_sgsn_dont_send_gpu_echo_request_w.LWG
p527
aVtc_73_07_itc_encrypted_gtpu_s4_payload_w.LWG
p528
aVtc_665_23_lr_then_loss.LWG
p529
aVtc_665_56_repeated_cm_restart.LWG
p530
aVtc_335_81_From_Wifi_ECM_Connected_AF__No_Cell_Info_from_WIC.LWG
p531
aVtc_251_60_rau_l_to_w_with_cl_type_subscriptionWithdrawal.LWG
p532
aVtc_304_266_tau_from_gnsgsn_2g_control_mode_wf_delete_all_bearers_response_exception_case_reject_congestion_subscriber_cancelled.LWG
p533
aVtc_326_677_tau_intra_SGW_unavailable_active_flag_off_after_MME_large_restart__create_session_fail.LWG
p534
aVtc_202_431_mf_seamless_move_target_service_request_modifyBearerReq_onePdnMultiBearer_oneBearerFail.LWG
p535
aVtc_25_04_activate_interactive_check_guaranteed_bitrate_gauge.LWG
p536
aVtc_73_07_itc_encrypted_gtpu_s4_payload_w.WG14a
p537
aVtc_304_266_tau_from_gnsgsn_2g_control_mode_wf_delete_all_bearers_response_exception_case_reject_congestion_subscriber_cancelled.LW
p538
aVtc_304_500_intra_tau_success_control_mode_threshold_exceeded_dgn.LW
p539
aVtc_195_208_mme_logging_maximum_modify_eps_bearer_context.LW
p540
aVtc_346_577_AF__HO_X2_2PDN_CSR_failure_for_both_PDN_terminate_sx.LW
p541
aVtc_79_034_rab_reestablish_on_downlink_no_rnc_response.LW
p542
aVtc_197_821_sgw_prioritized_gw_selection_s4_handover_from_non3gpp.LW
p543
aVtc_313_128_inter_new_srns_reloc_s16_with_sgw_change_receives_relocation_failure.LW
p544
aVtc_313_246_inter_new_srns_reloc_s16_with_sgw_change_cancel_location_subscription_withdrawn_received_from_hss_wf_rau_complete.LW
p545
aVtc_262_1001_attach_apn_resolution_ext_imsins_based_with_lsd_larger_than_msisdn.LW
p546
aVtc_194_179_hss_reset_multiple_reset_request_from_hss.LW
p547
aVtc_194_201_isd_apn_change_not_all_apn_included.LW
p548
aVtc_194_301_hss_error_resend_update_location_request.LW
p549
aVtc_12_184_attach_ptmsi_interfer_service_request_interfer_reset.LW
p550
aVtc_349_108_RAU_new_sgsn__RAU_Req_on_new_iu_while_waiting_for_CCA_initial_transfer.LWG
p551
aVtc_166_428_rnc_initiated_rab_release_interfered_by_rnc_initiated_iu_release_request.LWG
p552
aVtc_73_07_itc_encrypted_gtpu_s4_payload_w.LWG
p553
aVtc_92_05_60_old_format_counters.LWG
p554
aVtc_262_802_guti_attach_initial_context_setup_failure_reattach.LWG
p555
aVtc_304_266_tau_from_gnsgsn_2g_control_mode_wf_delete_all_bearers_response_exception_case_reject_congestion_subscriber_cancelled.LWG
p556
aVtc_289_017_Modify_bearer__ERAB_modify_request_meanwhile_path_switch_request_HO_success.LWG
p557
aVtc_197_821_sgw_prioritized_gw_selection_s4_handover_from_non3gpp.LWG
p558
aVtc_326_414_Inter_TAU_Recovery_Unknown_GUTI__Emergency.LWG
p559
aVtc_259_94_ef_provide_subscriber_information_psho_intra_w_to_g.LWG
p560
aVtc_342_910_six_x3_address.W14b
p561
aVtc_32_68_detach_interrupted_by_rnc_reset_after_iu_release.W14b
p562
aVtc_236_039_s4_3gdt_detach_during_waiting_for_modify_bearer_rsp_in_active_procedure.W14b
p563
aVtc_247_49_inter_w_to_l_old_relocation_cancel_wf_fwd_reloc_compl_notify_3gdt.W14b
p564
aVtc_239_620_inter_rau_new_with_bearer_sgw_not_change_isd_odb_bit0_wf_rau_compl_deactivation.G14b
p565
aVtc_103_705_delete_peer_send_DPR_timeout_on_DPA.L14b
p566
aVtc_195_208_mme_logging_maximum_modify_eps_bearer_context.L14b
p567
aVtc_347_203_Attach__UE_Context_Release_Request_while_waiting_for_CCA_Initial.L14b
p568
aVtc_262_1055_imsi_attach_with_csg_id_is_rejected.L14b
p569
aVtc_304_121_initial_ue_intra_tau_control_mode_threshold_exceeded_usc_detach_wf_release_request_response.L14b
p570
aVtc_304_236_isc_active_flag_on_control_mode_threshold_exceeded_ignore_replace_s1_wf_initial_context_setup_response.L14b
p571
aVtc_304_266_tau_from_gnsgsn_2g_control_mode_wf_delete_all_bearers_response_exception_case_reject_congestion_subscriber_cancelled.L14b
p572
aVtc_266_026_DownlinkDataFailureInd_repeat_paging_timer_small_local_restart.L14b
p573
aVtc_237_423_mme_af_eps_irat_ho_source__two_SMS_paging_sent_to_mme_wf_forward_relocation_response.L14b
p574
aVtc_73_07_itc_encrypted_gtpu_s4_payload_w.WG14a
p575
aVtc_324_368_ef_cancel_location_with_updateProcedure_wf_modify_bearer_response_after_ula_hss.WG14a
p576
aVtc_327_022_recovery_intra_TAU__initial_Detach_Request_while_waiting_for_Ue_Backup_Response.L14b
p577
aVtc_266_026_DownlinkDataFailureInd_repeat_paging_timer_small_local_restart.L14b
p578
aVtc_306_1006_ef_seamless_move_target_handle_ddn_wf_new_s1_mbr.L14b
p579
aVtc_244_602_delete_eslmc.L14b
p580
aVtc_237_354_mme_eps_irat_ho_source__context_request_after_s1rh_timeout.L14b
p581
aVtc_304_266_tau_from_gnsgsn_2g_control_mode_wf_delete_all_bearers_response_exception_case_reject_congestion_subscriber_cancelled.L14b
p582
aVtc_275_733_inter_tau_target_detach_with_cause_of_reattach_required_with_not_allowed_apn_in_odb_free_apn_list_for_roamer_odb_bit0.L14b
p583
aVtc_73_07_itc_encrypted_gtpu_s4_payload_w.WG14a
p584
aVtc_231_175_sgsn_init_detach_interfered_by_context_request_wait_delete_session_res.LWG
p585
aVtc_92_05_60_old_format_counters.LWG
p586
aVtc_197_821_sgw_prioritized_gw_selection_s4_handover_from_non3gpp.LWG
p587
aVtc_38_65_israu_old_sgsn_interfering_after_acknowledge.LWG
p588
aVtc_369_107_HSS_based_PCSCF_restoration_ecm_connected_erab_release_command_no_response.LWG
p589
aVtc_56_21_sending_recognized_information_in_log.LWG
p590
aVtc_73_21_itc_gtpu_s4_sgsn_send_echo_request_w.LWG
p591
aVtc_73_07_itc_encrypted_gtpu_s4_payload_w.LWG
p592
aVtc_220_420_csfb_to_1xrtt_ue_return_with_service_request_SGW_unavailable.LWG
p593
aVtc_321_071_gn_logging_ggsn_initiate_pdp_ctx_modification_and_deactivation.LWG
p594
aVtc_321_076_gn_logging_inter_srns_relocation_cancel_source.LWG
p595
aVtc_194_100_check_gauge_unstable_not_parked.LWG
p596
aVtc_209_173_activate_deactivate_activate_payload.LWG
p597
aVtc_304_266_tau_from_gnsgsn_2g_control_mode_wf_delete_all_bearers_response_exception_case_reject_congestion_subscriber_cancelled.LWG
p598
aVtc_225_918_mt_call_active_mode__sgs_sms_paging_wf_extended_service_request.LWG
p599
aVtc_289_121_Modify_bearer__UE_context_release_during_cleanup_after_failed_UBR.LWG
p600
aVtc_251_010_rau_w_to_g_after_hss_reset_storm.LWG
p601
aVtc_236_154_s4_3gdt_ms_init_dedicated_bearer_deac_wf_modify_bearer_resp_in_service_req_procedure.W14b
p602
aVtc_241_734_service_request_wf_modify_bearer_response_interfered_by_deactivate_pdp_context.W14b
p603
aVtc_248_67_inter_l_to_w_new_timeout_waiting_for_delete_session_response_mf.W14b
p604
aVtc_346_160_Location_Based_Policies__User_Location_Change_Event_Trigger_only_in_2nd_PDN_Intra_TAU_ActiveFlag.LW
p605
aVtc_348_369_inter_srns_reloc_af__new_sgsn_update_location_ack_failed.LW
p606
aVtc_194_100_check_gauge_unstable_not_parked.LW
p607
aVtc_268_022_UE_Release__initial_ue_service_request_wf_release_access_bearer_resp.LW
p608
aVtc_304_266_tau_from_gnsgsn_2g_control_mode_wf_delete_all_bearers_response_exception_case_reject_congestion_subscriber_cancelled.LW
p609
aVtc_304_434_Service_Request_UE_Initiated__control_mode_threshold_exceeded_explicit_detach_int_prot_nok.LW
p610
aVtc_79_082_sgsn_init_modification_rnc_not_supporting_modify_cause19.LW
p611
aVtc_12_4_attach_ptmsi_signalling_connection_release.LW
p612
aVtc_283_019_GW_Deactivate_Bearer__Delete_Bearer_Request_Dedicated_Bearer_while_wf_deactivate_eps_bearer_context_accept.LW
p613
aVtc_258_112_location_report_zero_teid_multiple_pdns_one_pdn_IMSI_unknown_in_PGW.LW
p614
aVtc_245_127_inter_rau_old_wo_sgw_reloc_wf_Cancel_Location_interfere_by_attach_req.LW
p615
aVtc_26_126_paging_ARP.LW
p616
aVtc_304_266_tau_from_gnsgsn_2g_control_mode_wf_delete_all_bearers_response_exception_case_reject_congestion_subscriber_cancelled.LW
p617
aVtc_288_110_pgw_initiated_bearer_modification_accept_reject_unknown.LW
p618
aVtc_348_104_isc_rau_mf__l_to_w_multiple_pdp_with_sx.LW
p619
aVtc_276_284_Inter_TAU_New_MME__Delete_Bearer_Request_change_to_non_3gpp_while_waiting_for_failing_Modify_Bearer_Response.LW
p620
aVtc_262_042_imsi_attach_emm_registered_ecm_connected.LW
p621
aVtc_273_252_tau_intra__sgw_relocation_create_session_partially_accepted.LW
p622
aVtc_196_300_nrspca_iu_satellite_hpa_on_with_arp1_mf_paging_1st_try_success.LW
p623
aVtc_47_004_mobile_reachble_timer_ap_loss.LW
p624
aVtc_44_340_sctp_counter_index_SGsAP.LW
p625
aVtc_316_298_GUTI_Attach_Known_Large_Restart_Broadcast_Force_Delete_Among_Pool.LW
p626
aVtc_220_583_csfb_to_1xrtt_in_ecm_idle_extended_service_request_as_paging_response_create_bearer.L14b
p627
aVtc_214_062_combined_attach_combined_tau_interfering_non_combined_tau.L14b
p628
aVtc_103_500_olp.L14b
p629
aVtc_262_600_combined_attach_cs_service_notification_when_emm_attach_state.L14b
p630
aVtc_304_266_tau_from_gnsgsn_2g_control_mode_wf_delete_all_bearers_response_exception_case_reject_congestion_subscriber_cancelled.L14b
p631
aVtc_73_07_itc_encrypted_gtpu_s4_payload_w.WG14a
p632
aVtc_241_734_service_request_wf_modify_bearer_response_interfered_by_deactivate_pdp_context.W14b
p633
aVtc_311_24_intra_srns_reloc_s4_with_sgw_change_with_11_pdns.LWG
p634
aVtc_44_002_small_restart.LWG
p635
aVtc_73_07_itc_encrypted_gtpu_s4_payload_w.LWG
p636
aVtc_284_350_pdn_connectivity_interrupted_by_path_switch_request.LWG
p637
aVtc_56_21_sending_recognized_information_in_log.LWG
p638
aVtc_267_225_Service_Request__Create_Bearer_Request_while_waiting_for_Modify_Bearer_Response.LWG
p639
aVtc_316_206_TAU_From_S4_SGSN_Multiple_PDN_Connections_With_Max_Dedicated_Bearers__Backup_UE.LWG
p640
aVtc_38_502_israu_new_israu_old_israu_new_update_ggsn_failure.LWG
p641
aVtc_110_005_inbound_outbound_pf_rule_cli_ip.LWG
p642
aVtc_24_162_msc_pool_combined_ra_la_update_no_response_from_msc_select_second_msc.LWG
p643
aVtc_304_266_tau_from_gnsgsn_2g_control_mode_wf_delete_all_bearers_response_exception_case_reject_congestion_subscriber_cancelled.LWG
p644
aVtc_103_602_georedundant_realm_routing.LWG
p645
aVtc_327_037_recovery_intra_TAU_active_off_sgw_unchanged__RAR_wf_CSR_due_to_S11_linkdown.LWG
p646
aVtc_322_170_smooth_move_ef_gr_cli_delete_subscriber_data_wf_frr.LWG
p647
aVtc_96_064_intra_sgsn_intra_ra_psho_interfered_by_delete_pdp_then_received_error_indi_from_ggsn.G14b
p648
aVtc_73_07_itc_encrypted_gtpu_s4_payload_w.WG14a
p649
aVtc_260_218_receive_m3_reset_req_while_wf_m3_start_resp_with_resp.L14b
p650
aVtc_304_023_attach_detach_then_guti_attach_when_attaching__control_mode_threshold_exceeded_usc_reject_congestion.L14b
p651
aVtc_304_266_tau_from_gnsgsn_2g_control_mode_wf_delete_all_bearers_response_exception_case_reject_congestion_subscriber_cancelled.L14b
p652
aVtc_326_308_Service_Request_with_unknown_STMSI_then_activate_new_PDN_with_new_APN.L14b
p653
aVtc_304_266_tau_from_gnsgsn_2g_control_mode_wf_delete_all_bearers_response_exception_case_reject_congestion_subscriber_cancelled.LWG
p654
aVtc_324_422_ef_payload_buffered_wf_paging_reponse_payload.LWG
p655
aVtc_214_030_combined_tau_inter_new.LWG
p656
aVtc_237_312_mme_eps_irat_Gn_ho_source__type_c_emc_feu_on.LWG
p657
aVtc_263_455_Attach_Flow__Cancel_Location_Update_Procedure_while_waiting_for_Create_Session_Response.LWG
p658
aVtc_73_07_itc_encrypted_gtpu_s4_payload_w.LWG
p659
aVtc_271_006_sctp_paging_olp_stop_discarding_all_paging_under_pagingOlpDiscardAllCpuThreshold.LWG
p660
aVtc_245_127_inter_rau_old_wo_sgw_reloc_wf_Cancel_Location_interfere_by_attach_req.LWG
p661
aVtc_284_351_pdn_connectivity_pb_activate_1_dedicated_bearer_interrupted_by_path_switch_request.LWG
p662
aVtc_101_030_mbms.LWG
p663
aVtc_318_007_pgw_restart_notification_mf_one_of_pdns_reactivate_idle.LWG
p664
aVtc_92_06_10_pm_job_log_content.LWG
p665
aVtc_92_06_20_pm_job_log_content.LWG
p666
aVtc_194_100_check_gauge_unstable_not_parked.LWG
p667
aVtc_264_075_pur__emm_deregistered_cli_delete_subscriber.LW
p668
aVtc_326_275_Periodic_Intra_TAU_with_unknown_GUTI_with_normal_and_emergency_PDN.LW
p669
aVtc_26_126_paging_ARP.LW
p670
aVtc_11_195_ms_initiated_modification_nonexisting_context_sm_status.LW
p671
aVtc_11_279_act_pdp_req_in_attaching_state.LW
p672
aVtc_242_602_rau_sgsn_s3_interrupted_by_tranfer_attach_when_wf_context_ack.LW
p673
aVtc_202_03_emm_deregistered_no_s1_release.LW
p674
aVtc_304_266_tau_from_gnsgsn_2g_control_mode_wf_delete_all_bearers_response_exception_case_reject_congestion_subscriber_cancelled.LW
p675
aVtc_324_435_ef_payload_execute_wf_ulr.LW
p676
aVtc_38_169_irat_old_pdp_ggsn_not_responding.LW
p677
aVtc_214_160_hss_reset.L14b
p678
aVtc_214_407_combined_attach_vlr_reset_imsi_detach_interferred_by_combined_tau.L14b
p679
aVtc_214_900_imsi_paging_communication_lost_after_large_restart.L14b
p680
aVtc_214_1066_la_selection_af_oldlapreferred_combined_attach_access_restriction_for_gsm.L14b
p681
aVtc_238_300_mme_eps_irat_ho_target_HeNB_with_csg_id.L14b
p682
aVtc_262_520_attach_pb_activate_dedicated_bearer_fails_length_error_on_request.L14b
p683
aVtc_262_860_imsi_attach_create_session_failed_olp.L14b
p684
aVtc_262_1055_imsi_attach_with_csg_id_is_rejected.L14b
p685
aVtc_197_560_pgw_selection_removal_of_pgw_infomation1.L14b
p686
aVtc_221_038__Selection_Table_Higher_Prio_Default_Profile.L14b
p687
aVtc_263_028_Attach_Flow__Attach_Request_Different_IEs_IP_OK_while_waiting_for_Security_Mode_Command.L14b
p688
aVtc_263_049_Attach_Flow__Path_Switch_Request_while_waiting_for_Modify_Bearer_Response.L14b
p689
aVtc_237_423_mme_af_eps_irat_ho_source__two_SMS_paging_sent_to_mme_wf_forward_relocation_response.L14b
p690
aVtc_218_032_tau_from_sgsn_bearer_status_mismatch_no_common_subset.L14b
p691
aVtc_218_110_tau_from_sgsn_equivalent_plmns.L14b
p692
aVtc_218_350_tau_from_sgsn__mt_call_while_wf_initial_context_setup_response.L14b
p693
aVtc_204_1361_mme_eps_ho__sgs_cs_paging_wf_handover_request_acknowledge.L14b
p694
aVtc_267_788_HSS_based_PCSCF_restoration__vlr_paging_request_wf_service_request.L14b
p695
aVtc_268_020_UE_Release_Inter_RAT_Redirection_not_clear_ppf.L14b
p696
aVtc_268_052_Timer_Based_GBR_Deact__Service_Request_before_Timer_Expires_ERAB_Setup_Fails.L14b
p697
aVtc_304_266_tau_from_gnsgsn_2g_control_mode_wf_delete_all_bearers_response_exception_case_reject_congestion_subscriber_cancelled.L14b
p698
aVtc_220_010_csfb_to_1xrtt_message_decode_error.L14b
p699
aVtc_220_045_csfb_to_1xrtt_in_ecm_connected_s1_reset_failed_release_access_beareres_response.L14b
p700
aVtc_220_212_csfb_to_1xrtt_in_ecm_connected_tau_request_wf_delete_gbr_bearer_response.L14b
p701
aVtc_220_580_csfb_to_1xrtt_in_ecm_connected_detach_request_wf_release_access_bearers_response.L14b
p702
aVtc_266_103_service_request_initial_context_setup_failure.L14b
p703
aVtc_266_122_service_request_in_ecm_connected.L14b
p704
aVtc_266_308_Service_Request_SGW_unavailable__GUTI_Reallocation_failure.L14b
p705
aVtc_243_001_tau_from_sgsn_s3_keep_old_sgw.L14b
p706
aVtc_327_022_recovery_intra_TAU__initial_Detach_Request_while_waiting_for_Ue_Backup_Response.L14b
p707
aVtc_225_322_mt_call_active_mode_cs_service_notification_path_switch_request_HO_success_TAU.L14b
p708
aVtc_225_410_mt_call_idle_mode_tau_paging_response.L14b
p709
aVtc_225_694_ignored_mt_call_paging_req_lai_while_waiting_to_imsi_detach.L14b
p710
aVtc_256_197_mme_eps_srvcc_ho_source_cs_only_cancel_location_normal_srvcc_with_emergency_pdn.L14b
p711
aVtc_256_364_srvcc_ho_source_cs_only_msc_pool_off_default_msc_unavailable.L14b
p712
aVtc_256_420_mme_eps_srvcc_ho_source_cs_only_ue_release_request_and_then_detach_request_wf_srvcc_ps_to_cs_response.L14b
p713
aVtc_273_029_tau_intra_normal_idle_authentication_auts_missing.L14b
p714
aVtc_264_027_detach_switch_off_emm_registered_ecm_Idle.L14b
p715
aVtc_202_431_mf_seamless_move_target_service_request_modifyBearerReq_onePdnMultiBearer_oneBearerFail.L14b
p716
aVtc_217_063_rau_to_sgsn_delete_bearer_request_when_wf_sgsn_context_ack.L14b
p717
aVtc_342_150_pmm_idle_one_pdp_source.W14b
p718
aVtc_348_050_large_restart.W14b
p719
aVtc_326_274_Periodic_Intra_TAU_with_unknown_GUTI_old_SGW_unavailable.LW
p720
aVtc_304_266_tau_from_gnsgsn_2g_control_mode_wf_delete_all_bearers_response_exception_case_reject_congestion_subscriber_cancelled.LW
p721
aVtc_263_121_Emergency_Attach_Flow_Type_A__Cancel_Location_Subscription_Withdrawal_while_waiting_for_Attach_Complete.LW
p722
aVtc_219_131_s3_handover_w_to_l_with_cl_two_pdns_one_failed_sgw_relocation.LW
p723
aVtc_217_070_rau_to_sgsn_pdn_disconnect_when_wf_20s_timeout.LW
p724
aVtc_301_013_activate_ipv4v6_visitor_requested_ipv4v6_subscribed_ipv4v6_aifav_true_aifv_true_ipv6up_off.LW
p725
aVtc_73_07_itc_encrypted_gtpu_s4_payload_w.WG14a
p726
aVtc_73_07_itc_encrypted_gtpu_s4_payload_w.LWG
p727
aVtc_12_183_wcdma_repeat_paging_with_old_ptmsi_N3313_oldptmsi_0.LWG
p728
aVtc_327_030_recovery_intra_TAU__uplink_same_ie_intra_TAU_Request_while_waiting_for_Ue_Backup_Response.LWG
p729
aVtc_327_742_recovery_service_request__insert_subscriber_data_while_wf_ue_context_modification_response.LWG
p730
aVtc_244_050_mt_lr_imei_check_answer_received_wf_location_report.LWG
p731
aVtc_103_701_MME_restarts.LWG
p732
aVtc_357_414_wcdma_local_user_inter_rau_new_in_ip_area_reactivate_pdp.LWG
p733
aVtc_665_1_dp_reboot_init_cm_restart_with_traffic.LWG
p734
aVtc_291_40_action_ue_trace.LWG
p735
aVtc_319_073_path_management_configured_timer_expired.LWG
p736
aVtc_304_266_tau_from_gnsgsn_2g_control_mode_wf_delete_all_bearers_response_exception_case_reject_congestion_subscriber_cancelled.LWG
p737
aVtc_219_233_TAU_Dual_Access_WtoL_without_SGW_Change_SGW_unavailable_no_other_SGW.LWG
p738
aVtc_232_403_bfd__ipv4ipv6_alarm.LWG
p739
aVtc_263_046_Attach_Flow__Handover_Required_Inter_while_waiting_for_Modify_Bearer_Response.LWG
p740
aVtc_24_187_msc_pool_sgsn_pool_move_lu_reject_plmn_not_allowed.LWG
p741
aVtc_204_207_mme_eps_ho_target__multi_pdn_sgw_relocation__failed_modify_bearer_request.LWG
p742
aVtc_259_50_isd_tads_s4_w_pmmidle_attach_and_detached.LWG
p743
aVtc_103_1102_fallback_to_imsins_success.L14b
p744
aVtc_304_236_isc_active_flag_on_control_mode_threshold_exceeded_ignore_replace_s1_wf_initial_context_setup_response.L14b
p745
aVtc_304_266_tau_from_gnsgsn_2g_control_mode_wf_delete_all_bearers_response_exception_case_reject_congestion_subscriber_cancelled.L14b
p746
aVtc_326_267_Intra_TAU_with_unknown_GUTI_Restriction_2_pdn_SAU_license_limit_reached.L14b
p747
aVtc_326_652_tau_intra_periodic_SGW_unavailable_after_MME_large_restart__with_static_SGW.L14b
p748
aVtc_214_910_combined_tau_intra_insert_subscriber_data_interference.L14b
p749
aVtc_304_266_tau_from_gnsgsn_2g_control_mode_wf_delete_all_bearers_response_exception_case_reject_congestion_subscriber_cancelled.LWG
p750
aVtc_237_350_mme_eps_irat_ho_source__cancel_location_after_s1rh_timeout.LWG
p751
aVtc_58_4_stat_to_dyn_2.LWG
p752
aVtc_332_062_2_mf__paging_due_to_UBR_during_paging_due_to_CBR_latest_with_same_prio.LWG
p753
aVtc_56_21_sending_recognized_information_in_log.LWG
p754
aVtc_21_32_gsm_send_charging_information.LWG
p755
aVtc_39_096_attach_move_interfering_intra_rau.LWG
p756
aVtc_39_121_intra_rau_move_interfering_periodic_rau_after_complete.LWG
p757
aVtc_348_321_intra_psho_mf__l_to_w_multiple_pdp_with_sx.LWG
p758
aVtc_283_017_GW_Deactivate_Bearer__Update_Bearer_Request_Dedicated_Bearer_while_wf_deactivate_eps_bearer_context_accept.LWG
p759
aVtc_73_07_itc_encrypted_gtpu_s4_payload_w.LWG
p760
aVtc_241_1694_intra_rau_without_sgw_change_interferred_by_reset_resource_after_modify_bearer_request.W14b
p761
aVtc_12_182_wcdma_repeat_paging_with_old_ptmsi.W14b
p762
aVtc_334_157_sgw_restart_mf_dt_connected_trigger_by_service_req.W14b
p763
aVtc_214_210_mo_sms_idle_sgs_link_broken.LW
p764
aVtc_214_1045_la_selection_af_oldlapreferred_combined_tau_with_old_la_ue_capable.LW
p765
aVtc_298_301_EF_SIBD_S4_Activate_From_MS_TI_Flag.LW
p766
aVtc_327_209_recovery_service_request__Cancel_Location_subscription_withdrawal_while_waiting_for_Update_Location_Answer.LW
p767
aVtc_327_510_recovery_service_request__ue_context_release_request.LW
p768
aVtc_304_266_tau_from_gnsgsn_2g_control_mode_wf_delete_all_bearers_response_exception_case_reject_congestion_subscriber_cancelled.LW
p769
aVtc_311_204_intra_srns_reloc_s4_sgw_change_wf_reloc_req_ack_interrupted_by_cancel_loc_subscrip_withdrawn.LW
p770
aVtc_346_495_Small_Local_Restart__No_Terminate_when_UE1_Attach_waiting_for_CCA_Initial_UE2_Attach_waiting_for_MBR.LW
p771
aVtc_73_07_itc_encrypted_gtpu_s4_payload_w.WG14a
p772
aVtc_340_112_ef_g_s4_intra_rau_trigger_interfering_intra_rau_outside_wf_rau_complete.G14b
p773
aVtc_73_07_itc_encrypted_gtpu_s4_payload_w.WG14a
p774
aVgn_wcdma_payload_no_context_ensure_stored.WG14a
p775
aVtc_301_011_activate_reject_visitor_requested_ipv4v6_subscribed_ipv6_aifav_false_aifv_false.LW
p776
aVtc_266_421_DDN_service_request_modify_bearer_no_response_two_pdn.LW
p777
aVtc_324_327_ef_service_req_data_direct_transfer_ingore.LW
p778
aVtc_304_266_tau_from_gnsgsn_2g_control_mode_wf_delete_all_bearers_response_exception_case_reject_congestion_subscriber_cancelled.LW
p779
aVtc_196_305_nrspca_iu_satellite_hpa_on_with_arp2_normal_af_paging_timeout.W14b
p780
aVtc_241_485_intra_rau_ignored_when_session_busy_temp_solution_as_initial_ue.W14b
p781
aVtc_324_091_af_ue_initiate_service_request_with_inactive_pdp_context_status.W14b
p782
aVtc_327_022_recovery_intra_TAU__initial_Detach_Request_while_waiting_for_Ue_Backup_Response.L14b
p783
aVtc_194_1630_hss_reset_emergency_pdn_connectivity_hybrid_csg.L14b
p784
aVtc_304_121_initial_ue_intra_tau_control_mode_threshold_exceeded_usc_detach_wf_release_request_response.L14b
p785
aVtc_304_236_isc_active_flag_on_control_mode_threshold_exceeded_ignore_replace_s1_wf_initial_context_setup_response.L14b
p786
aVtc_304_266_tau_from_gnsgsn_2g_control_mode_wf_delete_all_bearers_response_exception_case_reject_congestion_subscriber_cancelled.L14b
p787
aVtc_251_66_w_to_l_to_w_with_cl_type_initialAttach_cl_after_sgsn_con_req.LWG
p788
aVtc_220_016_csfb_to_1xrtt_in_ecm_idle_initial_context_setup_response_with_failed_bearer.LWG
p789
aVtc_305_040_oms_mmi.LWG
p790
aVtc_291_40_action_ue_trace.LWG
p791
aVtc_214_303_mt_sms_initial_context_setup_fails.LWG
p792
aVtc_304_266_tau_from_gnsgsn_2g_control_mode_wf_delete_all_bearers_response_exception_case_reject_congestion_subscriber_cancelled.LWG
p793
aVtc_266_160_DownlinkDataNotification_with_CSG_Id_list_to_HeNB_GWs_with_two_PLMN.LWG
p794
aVtc_231_175_sgsn_init_detach_interfered_by_context_request_wait_delete_session_res.LWG
p795
aVtc_367_117_pgw_reselection_ho_2_ims_pdn_all_qci_1_sgw_send_dbr.LWG
p796
aVtc_238_026_mme_eps_irat_ho_target__multi_pdn_sgw_relocation_setup_fails.LWG
p797
aVtc_26_050_activate_ms99_requesting_subscribed_qos_streaming.LWG
p798
aVtc_56_21_sending_recognized_information_in_log.LWG
p799
aVtc_73_07_itc_encrypted_gtpu_s4_payload_w.LWG
p800
aVtc_39_608_mas_security_mode_rej_fail_source.W14b
p801
aVtc_236_302_HO_over_S3_3GDT_switchback_ef_iu_release_wf_modify_bearer_response.W14b
p802
aVtc_179_318_Ccheck_TraceCollectionIpv6server.LWG
p803
aVtc_73_07_itc_encrypted_gtpu_s4_payload_w.LWG
p804
aVtc_304_266_tau_from_gnsgsn_2g_control_mode_wf_delete_all_bearers_response_exception_case_reject_congestion_subscriber_cancelled.LWG
p805
aVtc_295_301_Intra_S1_HO_MT_CALL_while_wf_Handover_Notify.LWG
p806
aVtc_26_032_israu_old_new_is_gtpv0_mixed_contexts_V.LWG
p807
aVtc_347_262_PDN_Connectivity__Location_Report_while_waiting_CCA_initial.LWG
p808
aVtc_08_021_fragment_gn_gb_packet.LWG
p809
aVtc_202_431_mf_seamless_move_target_service_request_modifyBearerReq_onePdnMultiBearer_oneBearerFail.LWG
p810
aVtc_56_21_sending_recognized_information_in_log.LWG
p811
aVtc_236_173_s4_3gdt_release_access_bearer_timeout_triggered_paging_si_intra_rau.LW
p812
aVtc_262_1055_imsi_attach_with_csg_id_is_rejected.LW
p813
aVtc_237_423_mme_af_eps_irat_ho_source__two_SMS_paging_sent_to_mme_wf_forward_relocation_response.LW
p814
aVtc_304_266_tau_from_gnsgsn_2g_control_mode_wf_delete_all_bearers_response_exception_case_reject_congestion_subscriber_cancelled.LW
p815
aVtc_103_702_CEA_timeout.LW
p816
aVtc_73_07_itc_encrypted_gtpu_s4_payload_w.WG14a
p817
aVtc_44_501_s1ap_id_checks__path_sw_request_reuse_enb_id.L14b
p818
aVtc_281_028_Activate_bearer__ERAB_setup_response_x2_ho_triggered_HO_ongoing_when_hold_timeout.L14b
p819
aVtc_103_903_primary_or_secondary_realm_routing_own_realm.L14b
p820
aVtc_304_266_tau_from_gnsgsn_2g_control_mode_wf_delete_all_bearers_response_exception_case_reject_congestion_subscriber_cancelled.L14b
p821
aVtc_327_022_recovery_intra_TAU__initial_Detach_Request_while_waiting_for_Ue_Backup_Response.L14b
p822
aVtc_46_164_SxApnSapc_only_one_SAPC_can_be_configured_for_one_APN.L14b
p823
aVtc_310_123_af__SGSN_accepted_only_a_subset_of_PDN_Connections_in_FRResponse_same_SGW.L14b
p824
aVtc_267_711_DDN_with_Sgs_Paging_Req__Extended_Service_Req_csfb_license_off_while_wf_Service_Request.L14b
p825
aVtc_346_493_Small_Local_Restart__Terminate_when_UE_S1_release.L14b
p826
aVtc_304_236_isc_active_flag_on_control_mode_threshold_exceeded_ignore_replace_s1_wf_initial_context_setup_response.L14b
p827
aVtc_304_266_tau_from_gnsgsn_2g_control_mode_wf_delete_all_bearers_response_exception_case_reject_congestion_subscriber_cancelled.L14b
p828
aVtc_347_256_NW_initiated_detach__RAR_while_waiting_for_delete_session_response.L14b
p829
aVtc_284_350_pdn_connectivity_interrupted_by_path_switch_request.L14b
p830
aVtc_274_274_Intra_and_pTAU__Handover_Required_with_old_TA_MSC_change_while_waiting_for_Location_Update_response_TAU_IMSI_Detach.L14b
p831
aVtc_194_1601__HSS_initiated_ISD_in_Connected_mode_when_current_CSG_Id_removed_Intefered_by_MT_SMS_wf_ue_context_modify_response.L14b
p832
aVtc_289_031_Modify_bearer__Downlink_nas_transport_meanwhile_path_switch_request_HO_success.LWG
p833
aVtc_103_854_error_code_DIAMETER_INVALID_AVP_VALUE.LWG
p834
aVtc_103_903_primary_or_secondary_realm_routing_own_realm.LWG
p835
aVtc_103_1100_resending_AIR_dpl_changed.LWG
p836
aVtc_103_1110_attach_negative_AIA_resend_success_s6d.LWG
p837
aVtc_340_25_validation_move_g_af_modify_trigger_stop_ongoing_job.LWG
p838
aVtc_327_532_recovery_service_request__Imsi_Page_while_waiting_for_Location_Update_Answer.LWG
p839
aVtc_304_266_tau_from_gnsgsn_2g_control_mode_wf_delete_all_bearers_response_exception_case_reject_congestion_subscriber_cancelled.LWG
p840
aVtc_265_101_Detach_Flow_NW_init__Reattach_Required_Attach_Request_while_waiting_for_Detach_Accept.LWG
p841
aVtc_194_085_hss_reset_after_subdata_read_from_cache.LWG
p842
aVtc_262_1055_imsi_attach_with_csg_id_is_rejected.LWG
p843
aVtc_267_771_HSS_based_PCSCF_restoration__handover_required_wf_initial_context_setup_response.LWG
p844
aVtc_73_41_gtpu_sgsn_dont_send_gpu_echo_request_w.LWG
p845
aVtc_73_07_itc_encrypted_gtpu_s4_payload_w.LWG
p846
aVtc_202_521_seamless_move_source_ue_ecm_idle_SGW_unavailable.LWG
p847
aVtc_259_67_ef_provide_subscriber_information_attach_old_w.LWG
p848
aVtc_103_603_georedundant_modify_diameter_peer.LW
p849
aVtc_284_336_deactivate_1_default_bearer_of_last_active_pdn_while_1_pdn_is_creating_and_wf_create_session_response_and_finally_create_fail.LW
p850
aVtc_284_351_pdn_connectivity_pb_activate_1_dedicated_bearer_interrupted_by_path_switch_request.LW
p851
aVtc_31_095_standalone_dsd_after_large_restart.LW
p852
aVtc_310_335_ef_dbr_non_voice_bearer_wf_forward_relocation_complete_and_forward_relocation_complete_ack.LW
p853
aVtc_304_266_tau_from_gnsgsn_2g_control_mode_wf_delete_all_bearers_response_exception_case_reject_congestion_subscriber_cancelled.LW
p854
aVtc_262_170_new_mme_identification_procedure_no_integrity.LW
p855
aVtc_231_736_handle_outdated_triggered_delete_bearer_request_2_bearers_1_exist.LW
p856
aVtc_367_106_pgw_reselection_ho_with_qci_1_bearer_not_setup_reattach_required.LW
p857
aVtc_342_134_update_x3_address_multiple_pdp.LW
p858
aVtc_245_333_israu_new_l_to_w_with_sgw_change_1_pdn_buffer_ubr_before_cbr_no_rau_complete.W14b
p859
aVtc_12_4_attach_ptmsi_signalling_connection_release.W14b
p860
aVtc_73_07_itc_encrypted_gtpu_s4_payload_w.WG14a
p861
aVtc_346_493_Small_Local_Restart__Terminate_when_UE_S1_release.LWG
p862
aVtc_179_318_Ccheck_TraceCollectionIpv6server.LWG
p863
aVtc_310_268__ef__Initial_UE_Service_Request_wf_Delete_Session_Response_PDN_not_setup_in_target.LWG
p864
aVtc_327_037_recovery_intra_TAU_active_off_sgw_unchanged__RAR_wf_CSR_due_to_S11_linkdown.LWG
p865
aVtc_230_014_activate_reject_sgw_cause38_gre_key_not_found.LWG
p866
aVtc_43_026_eNodeB_reset_with_subscribers.LWG
p867
aVtc_197_327_visiting_non_ims_apn_in_allowed_apn_list_and_lbo_mode_restricted.LWG
p868
aVtc_73_21_itc_gtpu_s4_sgsn_send_echo_request_w.LWG
p869
aVtc_73_41_gtpu_sgsn_dont_send_gpu_echo_request_w.LWG
p870
aVtc_73_07_itc_encrypted_gtpu_s4_payload_w.LWG
p871
aVtc_259_50_isd_tads_s4_w_pmmidle_attach_and_detached.LWG
p872
aVtc_39_601_mas_unsucc_fwd_reloc_resp_mandatory_ie_missing_stop_source.LWG
p873
aVtc_208_48_df2_alarm_buffer_off.LWG
p874
aVtc_44_010_imsi_attach_then_crash.LWG
p875
aVtc_304_266_tau_from_gnsgsn_2g_control_mode_wf_delete_all_bearers_response_exception_case_reject_congestion_subscriber_cancelled.LWG
p876
aVtc_665_1_dp_reboot_init_cm_restart_with_traffic.LWG
p877
aVtc_178_938_sctp_setprofile.LWG
p878
aVtc_295_124_tau_after_ho_tz_change_emm_information_meanwhile_handover_required_HO_success.LW
p879
aVtc_326_484_Inter_TAU_Recovery_Unknown_GUTI__UE_Trace.LW
p880
aVtc_326_423_Inter_TAU_Recovery_Fail__No_Identity_Response_After_T3470.LW
p881
aVtc_262_044_2_imsi_attach_emm_deregistered.LW
p882
aVtc_217_703_rau_to_sgsn_type_a_emergency_not_allowed_interfered_by_ms_detach_when_20s_timeout.LW
p883
aVtc_277_103_tau_inter_old_plmn_change_unauthenticated_emergency_ongoing_implicit_detach.LW
p884
aVtc_304_205_inter_tau_control_mode_threshold_exceeded_reject_illegal_ue.LW
p885
aVtc_304_266_tau_from_gnsgsn_2g_control_mode_wf_delete_all_bearers_response_exception_case_reject_congestion_subscriber_cancelled.LW
p886
aVtc_318_301_sgw_restart_relocation_triggered_by_sr_closed_csg.LW
p887
aVtc_39_601_mas_unsucc_fwd_reloc_resp_mandatory_ie_missing_stop_source.LW
p888
aVtc_308_011_HSS_Init_QoS_Modification__IDR_during_intra_ISC_TAU.LW
p889
aVtc_73_07_itc_encrypted_gtpu_s4_payload_w.WG14a
p890
aVtc_103_003_destination_host_is_not_peer_and_not_in_same_realm.L14b
p891
aVtc_103_1134_sx_resend__CCR_I_resend_1_times_diameter_too_busy_timeout_failed_only_realm.L14b
p892
aVtc_194_1630_hss_reset_emergency_pdn_connectivity_hybrid_csg.L14b
p893
aVtc_304_266_tau_from_gnsgsn_2g_control_mode_wf_delete_all_bearers_response_exception_case_reject_congestion_subscriber_cancelled.L14b
p894
aVtc_44_850_mme_assoc_reestablish__board_restart_s1_mme.L14b
p895
aVtc_327_022_recovery_intra_TAU__initial_Detach_Request_while_waiting_for_Ue_Backup_Response.L14b
p896
aVtc_346_494_Small_Local_Restart__Terminate_when_UE1_PDN_Connectivity_waiting_for_CCAI_UE2_Location_Report_waiting_for_CCAU.L14b
p897
aVtc_298_301_EF_SIBD_S4_Activate_From_MS_TI_Flag.LW
p898
aVtc_43_026_eNodeB_reset_with_subscribers.LW
p899
aVtc_306_142_ef_seamless_move_source_receive_enodeb_configuation_update_wf_modify_bearer_response.LW
p900
aVtc_103_1007_secondary_dpl_set_and_then_emptied.LW
p901
aVtc_103_1101_resending_AIR_interfering_CLR.LW
p902
aVtc_103_1137_sx_resend__CCR_I_retransmit_then_diameter_too_busy_then_timeout_resend_no_more_peers_only_realm.LW
p903
aVtc_103_1140_sx_resend__resend_to_another_sapc.LW
p904
aVtc_327_202_recovery_service_request__Cancel_Location_update_procedure_while_waiting_for_Create_Session_Response.LW
p905
aVtc_327_371_recovery_service_request__initial_extended_service_request_while_waiting_for_Sub_procedure_Modify_Bearer_Response.LW
p906
aVtc_280_142_tz_change_create_bearer_intra_tau_active.LW
p907
aVtc_267_100_Service_Request__Service_Request_while_waiting_for_Initial_Ctx_Setup_Response.LW
p908
aVtc_44_074_s1ap_mdholpap_counters_service_request.LW
p909
aVtc_304_266_tau_from_gnsgsn_2g_control_mode_wf_delete_all_bearers_response_exception_case_reject_congestion_subscriber_cancelled.LW
p910
aVtc_318_301_sgw_restart_relocation_triggered_by_sr_closed_csg.LW
p911
aVtc_28_042_mo_sms_ok_for_home_when_blocked_for_visiting.LW
p912
aVtc_335_48_wifi_to_mobility_in_ecm_idle_unknown_user_af__more_than_1_cell_infos_from_wic__one_timeout_from_eNB.LW
p913
aVtc_73_07_itc_encrypted_gtpu_s4_payload_w.WG14a
p914
aVtc_311_204_intra_srns_reloc_s4_sgw_change_wf_reloc_req_ack_interrupted_by_cancel_loc_subscrip_withdrawn.W14b
p915
aVtc_236_111_s4_3gdt_based_on_sr_dt_with_dedicate_bearer_activation_deactivation.W14b
p916
aVtc_327_022_recovery_intra_TAU__initial_Detach_Request_while_waiting_for_Ue_Backup_Response.L14b
p917
aVtc_103_903_primary_or_secondary_realm_routing_own_realm.L14b
p918
aVtc_304_266_tau_from_gnsgsn_2g_control_mode_wf_delete_all_bearers_response_exception_case_reject_congestion_subscriber_cancelled.L14b
p919
aVtc_44_850_mme_assoc_reestablish__board_restart_s1_mme.L14b
p920
aVtc_243_334_tau_from_sgsn_s3_emergency_type_c_ptmsi_sign_mismatch.L14b
p921
aVtc_52_14_inter_old_treloccomplete_timeout.LWG
p922
aVtc_243_722_tau_from_sgsn_s3_active_flag_false_ddn_with_imsi_wf_ula.LWG
p923
aVtc_290_062_Timer_Based_GBR_Deact__cancel_location_with_subscription_withdrawn_ecm_idle_before_timer_expires_with_emc_pdn.LWG
p924
aVtc_284_103_2_pdn_connectivity_create_session_failure_from_sgw.LWG
p925
aVtc_304_266_tau_from_gnsgsn_2g_control_mode_wf_delete_all_bearers_response_exception_case_reject_congestion_subscriber_cancelled.LWG
p926
aVtc_26_156_israu_new_deactivate_before_ggsn_contacted_with_upgradeNotAllowed.LWG
p927
aVtc_44_004_small_restart__sctp_fe_restart.LWG
p928
aVtc_44_070_sctp_large_message.LWG
p929
aVtc_318_301_sgw_restart_relocation_triggered_by_sr_closed_csg.LWG
p930
aVtc_666_03_block_ss7_board.LWG
p931
aVtc_179_318_Ccheck_TraceCollectionIpv6server.LWG
p932
aVtc_273_290_tau_intra_imei_check_on_selective_auth_change_imei_no_imei_check.LWG
p933
aVtc_267_512_Service_Request_SGW_unavailable__S1_Reset_while_wf_Create_Session_Response.LWG
p934
aVtc_73_07_itc_encrypted_gtpu_s4_payload_w.LWG
p935
aVtc_262_063_attach_tai_not_supported.LWG
p936
aVtc_304_266_tau_from_gnsgsn_2g_control_mode_wf_delete_all_bearers_response_exception_case_reject_congestion_subscriber_cancelled.LW
p937
aVtc_327_037_recovery_intra_TAU_active_off_sgw_unchanged__RAR_wf_CSR_due_to_S11_linkdown.LW
p938
aVtc_265_160_Detach_Flow_NW_init__Ue_moved_to_non_3gpp_while_imsi_detach.LW
p939
aVtc_219_131_s3_handover_w_to_l_with_cl_two_pdns_one_failed_sgw_relocation.LW
p940
aVtc_268_071_Timer_Based_GBR_Deact__receive_DDN_with_non_GBR_bearer_before_Timer_Expires.LW
p941
aVtc_326_202_Intra_TAU_after_large_restart_after_combined_attach.LW
p942
aVtc_302_042_mo_csfb_to_1xrtt_timeout_wf_release_request.LW
p943
aVtc_22_036_restart.LW
p944
aVtc_12_512_pmm_undefined_attach_when_updating_location_interfered_by_rnc_reset.LW
p945
aVtc_289_90_GW_Init_Bearer_Modification_ecm_idle__X2_handover_while_wf_modify_eps_bearer_context_accept.LW
p946
aVtc_284_350_pdn_connectivity_interrupted_by_path_switch_request.L14b
p947
aVtc_304_266_tau_from_gnsgsn_2g_control_mode_wf_delete_all_bearers_response_exception_case_reject_congestion_subscriber_cancelled.L14b
p948
aVtc_243_330_tau_from_sgsn_s3_emergency_type_a_no_restriction.L14b
p949
aVtc_220_587_csfb_to_1xrtt_in_extended_service_request_during_attach_waiting_for_modify_bearer_response.L14b
p950
aVtc_313_238_inter_new_srns_reloc_s16_with_sgw_change_iu_release_request_none_user_inactivity_received_wf_forward_reloc_complete_ack.WG14a
p951
aVtc_73_07_itc_encrypted_gtpu_s4_payload_w.WG14a
p952
aVtc_304_266_tau_from_gnsgsn_2g_control_mode_wf_delete_all_bearers_response_exception_case_reject_congestion_subscriber_cancelled.LWG
p953
aVtc_103_1120_attach_ula_dia_unable_to_deliver.LWG
p954
aVtc_313_026_inter_new_srns_reloc_s16_with_sgw_change_two_pdns_with_dedicate_bearer_nrspca_feature_off.LWG
p955
aVtc_73_40_gtpu_sgsn_send_gpu_echo_request_w.LWG
p956
aVtc_73_07_itc_encrypted_gtpu_s4_payload_w.LWG
p957
aVtc_27_020_mt_sms_ms_is_not_sms_over_ps_capable.LWG
p958
aVtc_273_342_tau_intra_idle_tz_change_service_request.LWG
p959
aVtc_12_200_attach_imeisv_check_no_response.LWG
p960
aVtc_274_460_Intra_Tau_Provide_Location_Request_while_waiting_for_Create_Session_Response.LWG
p961
aVtc_274_361_Intra_and_pTAU__nas_non_delivery_indication_for_security_mode_command.LWG
p962
aVtc_280_142_tz_change_create_bearer_intra_tau_active.LWG
p963
aVtc_209_180_handover_w_to_l_source_s4_sgsn.LWG
p964
aVtc_219_131_s3_handover_w_to_l_with_cl_two_pdns_one_failed_sgw_relocation.LWG
p965
aVtc_11_433_ggsn_initiated_deactivation_interfered_by_rab_release_request.W14b
p966
aVtc_304_266_tau_from_gnsgsn_2g_control_mode_wf_delete_all_bearers_response_exception_case_reject_congestion_subscriber_cancelled.L14b
p967
aVtc_194_1600__HSS_initiated_ISD_in_Connected_mode_when_current_CSG_Id_removed_Intefered_by_MT_Call_wf_ue_context_modify_response.L14b
p968
aVtc_306_134_ef_seamless_move_source_receive_s1_setup_wf_modify_bearer_response.L14b
p969
aVtc_262_1031_emergency_imsi_attach_multiple_pgw_try_next_pgw_fqdn_error.L14b
p970
aVtc_267_004_Service_Request__Downlink_Data_Notification_while_waiting_for_Service_Request.L14b
p971
aVtc_193_061_attach_attach_S1_SelAuthFreq.L14b
p972
aVtc_327_532_recovery_service_request__Imsi_Page_while_waiting_for_Location_Update_Answer.L14b
p973
aVtc_103_705_delete_peer_send_DPR_timeout_on_DPA.L14b
p974
aVtc_214_910_combined_tau_intra_insert_subscriber_data_interference.L14b
p975
aVtc_313_129_inter_new_srns_reloc_s16_with_sgw_change_waiting_for_relocation_complete_timeout.WG14a
p976
aVtc_340_14_validation_move_w_filter_all_apn_with_two_pdns.WG14a
p977
aVtc_166_061_rab_release_reestablish_interactive.WG14a
p978
aVtc_73_07_itc_encrypted_gtpu_s4_payload_w.WG14a
p979
aVtc_214_1139_la_selection_mf_reselection_ptau_during_ue_restoration.LW
p980
aVtc_359_064_handover_from_non3gpp_ef_deact_request_wf_create_session_resp_secondly.LW
p981
aVtc_364_003_output_from_list_ue_trace_for_triggered_trace_session.LW
p982
aVtc_202_431_mf_seamless_move_target_service_request_modifyBearerReq_onePdnMultiBearer_oneBearerFail.LW
p983
aVtc_304_266_tau_from_gnsgsn_2g_control_mode_wf_delete_all_bearers_response_exception_case_reject_congestion_subscriber_cancelled.LW
p984
aVtc_578_52_check_uetracer_parser.LW
p985
aVtc_305_040_oms_mmi.LWG
p986
aVtc_141_032_eth_v4_v6_traffic_vlan.LWG
p987
aVtc_73_07_itc_encrypted_gtpu_s4_payload_w.LWG
p988
aVtc_219_200_gn_handover_w_to_l_with_cl_two_primary_pdp_contexts_all_successful.LWG
p989
aVtc_309_108_modify_event_job_notification.LWG
p990
aVtc_56_21_sending_recognized_information_in_log.LWG
p991
aVtc_202_362_mf_seamless_move_by_ue_5_subscribers_2_target_mmes.LWG
p992
aVtc_103_701_MME_restarts.LWG
p993
aVtc_193_214_intruder_auth_rej_expiry_of_t3460.LWG
p994
aVtc_304_266_tau_from_gnsgsn_2g_control_mode_wf_delete_all_bearers_response_exception_case_reject_congestion_subscriber_cancelled.LWG
p995
aVtc_08_021_fragment_gn_gb_packet.LWG
p996
aVtc_262_1022_apn_resolution_ext_feature_off.LWG
p997
aVtc_204_1112_mme_eps_handover_target_SGW_unavailable_create_session_failure.LWG
p998
aVtc_304_266_tau_from_gnsgsn_2g_control_mode_wf_delete_all_bearers_response_exception_case_reject_congestion_subscriber_cancelled.LW
p999
aVtc_231_281_activate_pdp_request_ignore_during_s4_pdp_deactivating.LW
p1000
aVtc_327_028_recovery_intra_TAU___Detach_Request_while_waiting_for_CSR_due_to_S11_linkdown.LW
p1001
aVtc_73_07_itc_encrypted_gtpu_s4_payload_w.WG14a
p1002
aVtc_324_216_ef_attach_request_abort_wf_update_location_hss_service_request_done.WG14a
p1003
aVtc_40_011_delete_sub_data_mo_sms_csi.W14b
p1004
aVtc_298_792_S4_3GDT_rab_reestablish_on_second_service_request_data.W14b
p1005
aVtc_324_328_ef_service_req_data_direct_transfer_ingore_wf_update_location.W14b
p1006
aVtc_295_124_tau_after_ho_tz_change_emm_information_meanwhile_handover_required_HO_success.L14b
p1007
aVtc_327_022_recovery_intra_TAU__initial_Detach_Request_while_waiting_for_Ue_Backup_Response.L14b
p1008
aVtc_327_760_recovery_service_request__handover_required_while_wf_ue_context_modification_response.L14b
p1009
aVtc_310_335_ef_dbr_non_voice_bearer_wf_forward_relocation_complete_and_forward_relocation_complete_ack.L14b
p1010
aVtc_310_311_S3_same_SGW_combine_attach_msc_unavailable_select_another_one.L14b
p1011
aVtc_318_301_sgw_restart_relocation_triggered_by_sr_closed_csg.L14b
p1012
aVtc_262_1031_emergency_imsi_attach_multiple_pgw_try_next_pgw_fqdn_error.L14b
p1013
aVtc_284_351_pdn_connectivity_pb_activate_1_dedicated_bearer_interrupted_by_path_switch_request.L14b
p1014
aVtc_243_330_tau_from_sgsn_s3_emergency_type_a_no_restriction.L14b
p1015
aVtc_346_523_AF__TAU_Inter_New_from_gn_higher_qos_pdn_only_has_default_bearer.L14b
p1016
aVtc_304_236_isc_active_flag_on_control_mode_threshold_exceeded_ignore_replace_s1_wf_initial_context_setup_response.L14b
p1017
aVtc_304_266_tau_from_gnsgsn_2g_control_mode_wf_delete_all_bearers_response_exception_case_reject_congestion_subscriber_cancelled.L14b
p1018
aVtc_263_079_Attach_Flow__Cancel_Location_Update_Procedure_while_waiting_for_Security_Mode_Complete.LWG
p1019
aVtc_337_005_validation_move_manually_stopped_between_two_pool_moves_smooth_move.LWG
p1020
aVtc_304_266_tau_from_gnsgsn_2g_control_mode_wf_delete_all_bearers_response_exception_case_reject_congestion_subscriber_cancelled.LWG
p1021
aVtc_56_21_sending_recognized_information_in_log.LWG
p1022
aVtc_316_406_Periodic_Backup_with_backup_MME_unavailable_No_backup.LWG
p1023
aVtc_214_806_mo_sms_active_donwlink_nas_transport_meanwhile_handover_required_HO_success.LWG
p1024
aVtc_73_41_gtpu_sgsn_dont_send_gpu_echo_request_w.LWG
p1025
aVtc_73_07_itc_encrypted_gtpu_s4_payload_w.LWG
p1026
aVtc_298_014_nrspca_s4_idle_no_security_3GDT.LWG
p1027
aVtc_103_701_MME_restarts.LWG
p1028
aVtc_103_702_CEA_timeout.LWG
p1029
aVtc_243_772_tau_from_sgsn_s3_active_flag_true_SGW_change_no_modify_bearer_response.LWG
p1030
a.