(lp0
Vtc_322_022_smooth_move_af_frr_with_service_not_supported_no_moveIndicator.WG14a
p1
aVtc_73_07_itc_encrypted_gtpu_s4_payload_w.WG14a
p2
aVtc_304_266_tau_from_gnsgsn_2g_control_mode_wf_delete_all_bearers_response_exception_case_reject_congestion_subscriber_cancelled.LW
p3
aVtc_237_423_mme_af_eps_irat_ho_source__two_SMS_paging_sent_to_mme_wf_forward_relocation_response.LW
p4
aVtc_103_702_CEA_timeout.LW
p5
aVtc_267_503_Service_Request_SGW_unavailable__Detach_Request_without_switch_off_while_wf_Create_Session_Response.LW
p6
aVtc_298_301_EF_SIBD_S4_Activate_From_MS_TI_Flag.LW
p7
aVtc_292_155_x2_handover_emc_combined.LW
p8
aVtc_231_281_activate_pdp_request_ignore_during_s4_pdp_deactivating.LW
p9
aVtc_329_1001_test_cli_cmd.LWG
p10
aVtc_179_318_Ccheck_TraceCollectionIpv6server.LWG
p11
aVtc_56_21_sending_recognized_information_in_log.LWG
p12
aVtc_260_272_receive_sm_stop_req_while_wf_setup_iteration.LWG
p13
aVtc_326_280_Intra_TAU_with_unknown_GUTI_SGW_not_change_SGW_unavailable.LWG
p14
aVtc_214_210_mo_sms_idle_sgs_link_broken.LWG
p15
aVtc_214_802_mo_sms_active_nas_non_delivery_s1_inter_system_handover_triggered_HO_undetected_retry_counter_exceed.LWG
p16
aVtc_304_266_tau_from_gnsgsn_2g_control_mode_wf_delete_all_bearers_response_exception_case_reject_congestion_subscriber_cancelled.LWG
p17
aVtc_357_420_wcdma_international_roaming_user_reject_intra_relocation_ip_area_to_another_irr_ip_area.LWG
p18
aVtc_302_113_mme_connection_closed_network_initiated_detach.LWG
p19
aVtc_103_1102_fallback_to_imsins_success.LWG
p20
aVtc_251_66_w_to_l_to_w_with_cl_type_initialAttach_cl_after_sgsn_con_req.LWG
p21
aVtc_141_032_eth_v4_v6_traffic_vlan.LWG
p22
aVtc_262_1085_attach_tac_based_roaming_restriction_table_not_matched_blacklist.LWG
p23
aVtc_316_273_Inter_MME_HO_SUT_As_Source_No_MME_Available_in_Backup_Option_Range__Delete_UE_Backup.LWG
p24
aVtc_291_40_action_ue_trace.LWG
p25
aVtc_73_41_gtpu_sgsn_dont_send_gpu_echo_request_w.LWG
p26
aVtc_73_07_itc_encrypted_gtpu_s4_payload_w.LWG
p27
aVtc_203_100_S1_Based_HO_Source_MME_Attach_Request_while_waiting_for_Forward_Relocation_Response.LWG
p28
aVtc_239_506_intra_rau_detach_poweroff_waiting_creat_session_response_from_sgw_s4.LWG
p29
aVtc_248_122_inter_l_to_w_new_detach_request_direct_transfer_received_wf_forward_relocation_complete_ack.W14b
p30
aVtc_38_80_intra_rau_new_rnc_with_authentication_wrong_ptmsi_signature.W14b
p31
aVtc_12_4_attach_ptmsi_signalling_connection_release.W14b
p32
aVtc_327_532_recovery_service_request__Imsi_Page_while_waiting_for_Location_Update_Answer.L14b
p33
aVtc_262_600_combined_attach_cs_service_notification_when_emm_attach_state.L14b
p34
aVtc_304_236_isc_active_flag_on_control_mode_threshold_exceeded_ignore_replace_s1_wf_initial_context_setup_response.L14b
p35
aVtc_304_266_tau_from_gnsgsn_2g_control_mode_wf_delete_all_bearers_response_exception_case_reject_congestion_subscriber_cancelled.L14b
p36
aVtc_278_453_Inter_TAU_Old_MME__Ecm_Connected_Sgs_CS_Paging_SMS_while_wait_for_context_ack.L14b
p37
aVtc_44_860_mme_assoc_reestablish__sctp_fe_restart_s1_mme.L14b
p38
aVtc_28_002_mo_sms_service_request.W14b
p39
aVtc_196_181_nrspca_during_the_same_nsapi_ggsn_initiate_pdp_deactivation_rab_release.W14b
p40
aVtc_39_433_mas_one_pdp_downlink_data_3gdt_upd_loc_ack_b4_upd_pdp_ctx_resp_target.W14b
p41
aVtc_73_21_itc_gtpu_s4_sgsn_send_echo_request_w.LWG
p42
aVtc_73_07_itc_encrypted_gtpu_s4_payload_w.LWG
p43
aVtc_244_051_mt_lr_delete_bearer_request_received_wf_location_report.LWG
p44
aVtc_304_266_tau_from_gnsgsn_2g_control_mode_wf_delete_all_bearers_response_exception_case_reject_congestion_subscriber_cancelled.LWG
p45
aVtc_665_32_sr_then_gain.LWG
p46
aVtc_236_048_s4_3gdt_deactivation_during_waiting_for_modify_bearer_rsp_in_activation_procedure_no_context.LWG
p47
aVtc_38_303_israu_new_sgsn_no_imsi_in_sgsn_context_response.LWG
p48
aVtc_56_21_sending_recognized_information_in_log.LWG
p49
aVtc_103_1005_secondary_dpl_used_when_all_peers_in_dpl_unavailable_with_sls.LWG
p50
aVtc_259_53_isd_s4_umts_pmmidl_act_deact_service_req.LWG
p51
aVtc_340_34_validation_move_g_s4_filter_all_apn.LWG
p52
aVtc_166_502_3gdt_based_on_sr_dt_to_non_dt_to_non_dt.WG14a
p53
aVtc_239_610_inter_rau_new_with_bearer_sgw_changed_odb_bit_15_s4.WG14a
p54
aVtc_73_07_itc_encrypted_gtpu_s4_payload_w.WG14a
p55
aVtc_194_1600__HSS_initiated_ISD_in_Connected_mode_when_current_CSG_Id_removed_Intefered_by_MT_Call_wf_ue_context_modify_response.L14b
p56
aVtc_275_730_inter_tau_target_detach_with_cause_of_reattach_not_required_with_not_allowed_apn_in_odb_free_apn_list__odb_bit0.L14b
p57
aVtc_103_1109_attach_resend_of_AIR_no_more_peers.L14b
p58
aVtc_304_266_tau_from_gnsgsn_2g_control_mode_wf_delete_all_bearers_response_exception_case_reject_congestion_subscriber_cancelled.L14b
p59
aVtc_202_335_mf_seamless_move_by_qtt_1outof2_successful.L14b
p60
aVtc_239_620_inter_rau_new_with_bearer_sgw_not_change_isd_odb_bit0_wf_rau_compl_deactivation.G14b
p61
aVtc_324_372_ef_cancel_location_intialAttach_wf_rab_assignment_response_hss.LW
p62
aVtc_304_266_tau_from_gnsgsn_2g_control_mode_wf_delete_all_bearers_response_exception_case_reject_congestion_subscriber_cancelled.LW
p63
aVtc_289_017_Modify_bearer__ERAB_modify_request_meanwhile_path_switch_request_HO_success.LW
p64
aVtc_321_071_gn_logging_ggsn_initiate_pdp_ctx_modification_and_deactivation.LW
p65
aVtc_263_420_Attach_Flow__Attach_Request_while_waiting_for_Authentication_Response.LW
p66
aVtc_218_117_tau_from_sgsn_two_pdn_connections.LW
p67
aVtc_284_340_mutiple_pdn_two_default_bearers_failed_to_update.LW
p68
aVtc_47_002_imsi_attach_ap_gain.LW
p69
aVtc_274_274_Intra_and_pTAU__Handover_Required_with_old_TA_MSC_change_while_waiting_for_Location_Update_response_TAU_IMSI_Detach.LW
p70
aVtc_304_266_tau_from_gnsgsn_2g_control_mode_wf_delete_all_bearers_response_exception_case_reject_congestion_subscriber_cancelled.LW
p71
aVtc_282_003_deactivate_bearer_2_of_2.LW
p72
aVtc_312_246_inter_old_srns_reloc_wf_session_to_complete_interrupted_by_gtpv2_context_request.LW
p73
aVtc_298_541_sgsn_init_pdn_deact_ef_cancellocation_subscriptionWithdraw_wf_delete_session_resp.LW
p74
aVtc_273_609_tau_intra_periodic_SGW_unavailable__create_session_fail_reselect_SGW_and_all_fail.LW
p75
aVtc_358_119_lte_local_user_reject_intra_handover_unrestricted_ip_area_to_ip_area.LWG
p76
aVtc_665_32_sr_then_gain.LWG
p77
aVtc_304_266_tau_from_gnsgsn_2g_control_mode_wf_delete_all_bearers_response_exception_case_reject_congestion_subscriber_cancelled.LWG
p78
aVtc_205_71_01_ss7_SCCP_CR_DT1_RLSD.LWG
p79
aVtc_262_189_old_mme_identification_procedure_no_ptmsi_s3.LWG
p80
aVtc_262_600_combined_attach_cs_service_notification_when_emm_attach_state.LWG
p81
aVtc_77_5_attach_activate2_g_crash.LWG
p82
aVtc_103_830_preserve_proxy_info_order.LWG
p83
aVtc_327_470_recovery_service_request__ERAB_release_indication_dedicated_bearer_while_waiting_for_ULA_from_msc.LWG
p84
aVtc_236_307_Activation_DtSelMode_5_APN_requested_wrong_SGSN_default_APN_in_APN_list_TAC_in_TAC_list.LWG
p85
aVtc_141_032_eth_v4_v6_traffic_vlan.LWG
p86
aVtc_73_07_itc_encrypted_gtpu_s4_payload_w.LWG
p87
aVtc_24_170_msc_pool_israu_msc_from_old_sgsn_supported_keep_msc.LWG
p88
aVtc_73_07_itc_encrypted_gtpu_s4_payload_w.WG14a
p89
aVtc_318_301_sgw_restart_relocation_triggered_by_sr_closed_csg.L14b
p90
aVtc_295_124_tau_after_ho_tz_change_emm_information_meanwhile_handover_required_HO_success.L14b
p91
aVtc_327_760_recovery_service_request__handover_required_while_wf_ue_context_modification_response.L14b
p92
aVtc_327_764_recovery_service_request__path_switch_request_while_wf_ue_context_modification_response.L14b
p93
aVtc_262_1030_emergency_imsi_attach_multiple_pgw.L14b
p94
aVtc_103_860_ue_trace_retransmit.L14b
p95
aVtc_346_494_Small_Local_Restart__Terminate_when_UE1_PDN_Connectivity_waiting_for_CCAI_UE2_Location_Report_waiting_for_CCAU.L14b
p96
aVtc_304_266_tau_from_gnsgsn_2g_control_mode_wf_delete_all_bearers_response_exception_case_reject_congestion_subscriber_cancelled.L14b
p97
aVtc_236_049_s4_3gdt_rnc_reset_during_waiting_for_modify_beaer_rsp_in_service_request_procedure.W14b
p98
aVtc_31_116_hlr_reset_many_subscribers.W14b
p99
aVtc_241_531_israu_new_with_failed_dedicated_sgw_error_ind_default_ef_detach_wf_deact_pdp_ctx_acc.W14b
p100
aVtc_73_07_itc_encrypted_gtpu_s4_payload_w.WG14a
p101
aVtc_219_131_s3_handover_w_to_l_with_cl_two_pdns_one_failed_sgw_relocation.LW
p102
aVtc_346_578_AF__HO_X2_2PDN_MBR_failure_for_1PDN_terminate_sx.LW
p103
aVtc_197_123_gtp_fallback_multiple_pdn_connections.LW
p104
aVtc_304_020_intruder_imsi_attach_when_correct_ue_attaching__control_mode_threshold_exceeded_usc_reject_congestion.LW
p105
aVtc_304_266_tau_from_gnsgsn_2g_control_mode_wf_delete_all_bearers_response_exception_case_reject_congestion_subscriber_cancelled.LW
p106
aVtc_318_301_sgw_restart_relocation_triggered_by_sr_closed_csg.LW
p107
aVtc_39_601_mas_unsucc_fwd_reloc_resp_mandatory_ie_missing_stop_source.LW
p108
aVtc_250_74_s6d_EF_hss_reset_waiting_delete_session_response.W14b
p109
aVtc_304_266_tau_from_gnsgsn_2g_control_mode_wf_delete_all_bearers_response_exception_case_reject_congestion_subscriber_cancelled.LWG
p110
aVtc_183_008_itc_sctp_encrypted.LWG
p111
aVtc_318_204_idle_deactivate_first_pdn_but_not_last_pdn_with_reactivate_req.LWG
p112
aVtc_262_036_esm_information_no_pco_in_attach_request_pco_in_esm_information_no_apn_in_esm_information.LWG
p113
aVtc_262_210_new_mme_identification_procedure_with_cause_imsi_not_known_gn.LWG
p114
aVtc_103_701_MME_restarts.LWG
p115
aVtc_103_702_CEA_timeout.LWG
p116
aVtc_103_603_georedundant_modify_diameter_peer.LWG
p117
aVtc_204_1222_mme_eps_ho_target_tau_ula_dia_resources_exceeded_severe_nw_failure.LWG
p118
aVtc_288_255_pgw_init_bearer_mod_qci_arp_should_be_used_in_paging_profile.LWG
p119
aVtc_327_553_Recovery_for_DDN__Normal_TAU_Request_while_waiting_for_Ue_Backup_Response.LWG
p120
aVtc_327_726_recovery_service_request__initial_new_Service_Req_while_wf_ue_context_modification_response.LWG
p121
aVtc_346_690_pra_cn_predefined_intra_tau_cca_u_timeout__service_request__in2out.LWG
p122
aVtc_211_015_streamed_cell_trace_mapping_alarm_cease.LWG
p123
aVtc_199_87_W_attach_S4_echo_N3_times_response_no_alarm.LWG
p124
aVtc_225_309_mt_call_interfered_by_S1HO_including_TAU.LWG
p125
aVtc_56_21_sending_recognized_information_in_log.LWG
p126
aVtc_73_07_itc_encrypted_gtpu_s4_payload_w.LWG
p127
aVtc_214_028_combined_attach_interfering_s1_reset.L14b
p128
aVtc_304_266_tau_from_gnsgsn_2g_control_mode_wf_delete_all_bearers_response_exception_case_reject_congestion_subscriber_cancelled.L14b
p129
aVtc_238_405_mme_eps_irat_ho_target__ho_required_intra_same_sgw_wf_forward_relocation_complete_ack.L14b
p130
aVtc_346_495_Small_Local_Restart__No_Terminate_when_UE1_Attach_waiting_for_CCA_Initial_UE2_Attach_waiting_for_MBR.L14b
p131
aVtc_327_373_recovery_service_request__initial_extended_service_request_while_waiting_for_Location_Update_Response.L14b
p132
aVtc_327_760_recovery_service_request__handover_required_while_wf_ue_context_modification_response.L14b
p133
aVtc_288_201_pgw_init_bearer_mod_QoS_missing_eNodeB_response.L14b
p134
aVtc_304_266_tau_from_gnsgsn_2g_control_mode_wf_delete_all_bearers_response_exception_case_reject_congestion_subscriber_cancelled.L14b
p135
aVtc_369_083_mme_initiated_detach_during_waiting_location_report__idr_flags_ef.L14b
p136
aVtc_327_317_recovery_service_request__initial_Attach_Request_while_waiting_for_Sub_Procedure__Initial_Context_Setup_Response.L14b
p137
aVtc_327_764_recovery_service_request__path_switch_request_while_wf_ue_context_modification_response.L14b
p138
aVtc_44_850_mme_assoc_reestablish__board_restart_s1_mme.L14b
p139
aVtc_103_602_georedundant_realm_routing.L14b
p140
aVtc_346_383_handover_inter_target_from_gn_establish_sx_session_with_bearer_control_mode_sx_only.L14b
p141
aVtc_306_233_ef_seamless_move_source_receive_delete_bearer_request.L14b
p142
aVtc_248_128_inter_l_to_w_new_rau_request_intial_ue_received_wf_update_location_resp.W14b
p143
aVtc_304_266_tau_from_gnsgsn_2g_control_mode_wf_delete_all_bearers_response_exception_case_reject_congestion_subscriber_cancelled.LW
p144
aVtc_231_080_activate_during_waiting_for_create_session_resp_interrupted_by_rnc_reset.LW
p145
aVtc_231_281_activate_pdp_request_ignore_during_s4_pdp_deactivating.LW
p146
aVtc_56_21_sending_recognized_information_in_log.LWG
p147
aVtc_361_510_rau_l_to_w_S4SGSN_check_old_qos_failed_node_function_deactivate_pdp_after_rau_on.LWG
p148
aVtc_26_100_activate_primary_rnc_upgrades_bitrates_traffic_class_streaming.LWG
p149
aVtc_73_40_gtpu_sgsn_send_gpu_echo_request_w.LWG
p150
aVtc_73_07_itc_encrypted_gtpu_s4_payload_w.LWG
p151
aVtc_304_266_tau_from_gnsgsn_2g_control_mode_wf_delete_all_bearers_response_exception_case_reject_congestion_subscriber_cancelled.LWG
p152
aVtc_110_005_inbound_outbound_pf_rule_cli_ip.LWG
p153
aVtc_263_321_Attach_Flow__Attach_Request_Different_IEs_IP_OK_while__waiting_for_combined_attach_response.LWG
p154
aVtc_263_245_Attach_Flow__S1_Reset_while_waiting_for_identification_response_gn.LWG
p155
aVtc_284_350_pdn_connectivity_interrupted_by_path_switch_request.LWG
p156
aVtc_73_07_itc_encrypted_gtpu_s4_payload_w.WG14a
p157
aVtc_194_1601__HSS_initiated_ISD_in_Connected_mode_when_current_CSG_Id_removed_Intefered_by_MT_SMS_wf_ue_context_modify_response.L14b
p158
aVtc_290_014_Timer_Based_GBR_Deact__service_request_wf_release_access_bearer_response_before_timer_expire.L14b
p159
aVtc_204_068_mme_eps_ho__intra_mme_handover_during_tau_complete.L14b
p160
aVtc_327_760_recovery_service_request__handover_required_while_wf_ue_context_modification_response.L14b
p161
aVtc_327_764_recovery_service_request__path_switch_request_while_wf_ue_context_modification_response.L14b
p162
aVtc_304_266_tau_from_gnsgsn_2g_control_mode_wf_delete_all_bearers_response_exception_case_reject_congestion_subscriber_cancelled.L14b
p163
aVtc_346_493_Small_Local_Restart__Terminate_when_UE_S1_release.L14b
p164
aVtc_578_52_check_uetracer_parser.L14b
p165
aVtc_73_07_itc_encrypted_gtpu_s4_payload_w.WG14a
p166
aVtc_357_102_wcdma_iterator_ipAddressReset_modify_to_true_while_all_pdp_already_in_target_area.WG14a
p167
aVtc_276_200_Inter_TAU_New_MME__Path_Switch_Request_while_waiting_for_Initial_Context_Setup_Response.LW
p168
aVtc_103_702_CEA_timeout.LW
p169
aVtc_304_266_tau_from_gnsgsn_2g_control_mode_wf_delete_all_bearers_response_exception_case_reject_congestion_subscriber_cancelled.LW
p170
aVtc_11_750_dualstack_activate_ipv6_requested_ipv4v6_subscribed_ipv4_and_ipv6_spt_ipv6_daf_off.LW
p171
aVtc_101_004_single_mbms_session_rnc_rab_and_iu_release.LW
p172
aVtc_219_131_s3_handover_w_to_l_with_cl_two_pdns_one_failed_sgw_relocation.LW
p173
aVtc_39_601_mas_unsucc_fwd_reloc_resp_mandatory_ie_missing_stop_source.LW
p174
aVtc_79_036_israu_new_streaming_context_MBR_not_zero_service_request.W14b
p175
aVtc_304_266_tau_from_gnsgsn_2g_control_mode_wf_delete_all_bearers_response_exception_case_reject_congestion_subscriber_cancelled.LWG
p176
aVtc_209_26_attach_reject_imsi.LWG
p177
aVtc_92_05_30_pm_job.LWG
p178
aVtc_73_21_itc_gtpu_s4_sgsn_send_echo_request_w.LWG
p179
aVtc_73_40_gtpu_sgsn_send_gpu_echo_request_w.LWG
p180
aVtc_73_41_gtpu_sgsn_dont_send_gpu_echo_request_w.LWG
p181
aVtc_73_07_itc_encrypted_gtpu_s4_payload_w.LWG
p182
aVtc_08_021_fragment_gn_gb_packet.LWG
p183
aVtc_220_017_csfb_to_1xrtt_ue_suspended_downlink_data_notification.LWG
p184
aVtc_244_049_mt_lr_cancel_location_with_subscription_withdraw_received_wf_location_report.LWG
p185
aVtc_56_21_sending_recognized_information_in_log.LWG
p186
aVtc_236_307_Activation_DtSelMode_5_APN_requested_wrong_SGSN_default_APN_in_APN_list_TAC_in_TAC_list.LWG
p187
aVtc_226_114_W_S4_USC_PDP_Context_Activation__ControlMode_On_detach_action_same_ongoing_wf_sgw_response.WG14a
p188
aVgn_wcdma_payload_no_context_ensure_stored.WG14a
p189
aVtc_73_07_itc_encrypted_gtpu_s4_payload_w.WG14a
p190
aVtc_347_041_Inter_HO_Target_from_gn__RAR_while_waiting_for_Create_Session_Response_and_Modify_Bearer_Response.LW
p191
aVtc_304_266_tau_from_gnsgsn_2g_control_mode_wf_delete_all_bearers_response_exception_case_reject_congestion_subscriber_cancelled.LW
p192
aVtc_266_530_update_bearer_init_service_request_SGW_unavailable.LW
p193
aVtc_292_178_X2_Based_HO_interfered_by_MT_Call_then_interfered_by_Newly_TAU_Req.LW
p194
aVtc_103_024_modify_diameter_peer_switch_peer_numbers.LW
p195
aVtc_44_004_small_restart__sctp_fe_restart.LW
p196
aVtc_335_21_wifi_to_mobility_in_ecm_idle_mf__one_cell_info_from_wic__all_cells_succeed_from_eNB.LW
p197
aVtc_15_115_inter_old_sgsn_interupted_by_returning_ms.LWG
p198
aVtc_311_204_intra_srns_reloc_s4_sgw_change_wf_reloc_req_ack_interrupted_by_cancel_loc_subscrip_withdrawn.LWG
p199
aVtc_310_310_S3_new_SGW_emergency_attach_sv_pool_on_msc_one_offloading_one_available.LWG
p200
aVtc_304_266_tau_from_gnsgsn_2g_control_mode_wf_delete_all_bearers_response_exception_case_reject_congestion_subscriber_cancelled.LWG
p201
aVtc_56_4_abort.LWG
p202
aVtc_273_012_tau_intra_normal_idle_active_icsr_failure.LWG
p203
aVtc_73_07_itc_encrypted_gtpu_s4_payload_w.LWG
p204
aVtc_24_192_gs_if_on_combined_procedures_off_la_upd_req_message_unknown.LWG
p205
aVtc_39_632_mas_dl_no_rab_assign_resp_target.LWG
p206
aVtc_92_05_30_pm_job.LWG
p207
aVtc_306_262_ef_seamless_move_source_receive_forward_relocation_request_wf_modify_bearer_response.LWG
p208
aVtc_44_004_small_restart__sctp_fe_restart.LWG
p209
aVtc_101_004_single_mbms_session_rnc_rab_and_iu_release.W14b
p210
aVtc_327_764_recovery_service_request__path_switch_request_while_wf_ue_context_modification_response.L14b
p211
aVtc_202_428_af_seamless_move_target_service_request_modifyBearerReq_no_response.L14b
p212
aVtc_304_266_tau_from_gnsgsn_2g_control_mode_wf_delete_all_bearers_response_exception_case_reject_congestion_subscriber_cancelled.L14b
p213
aVtc_204_232_mme_eps_ho__multi_pdn_sgw_relocation__one_pdn_fails_in_eNB.L14b
p214
aVtc_262_600_combined_attach_cs_service_notification_when_emm_attach_state.L14b
p215
aVtc_310_310_S3_new_SGW_emergency_attach_sv_pool_on_msc_one_offloading_one_available.L14b
p216
aVtc_316_405_Periodic_Backup_IMEI_Attach_Emergency__No_UE_Backup.L14b
p217
aVtc_260_218_receive_m3_reset_req_while_wf_m3_start_resp_with_resp.L14b
p218
aVtc_276_140_Inter_TAU_New_MME__PDN_Connectivity_Request_while_waiting_for_Modify_Bearer_Response.L14b
p219
aVtc_103_024_modify_diameter_peer_switch_peer_numbers.L14b
p220
aVtc_304_266_tau_from_gnsgsn_2g_control_mode_wf_delete_all_bearers_response_exception_case_reject_congestion_subscriber_cancelled.L14b
p221
aVtc_306_135_ef_seamless_move_source_receive_s1_setup_wf_frcn.L14b
p222
aVtc_306_130_ef_seamless_move_source_receive_s1_setup_wf_frr_ecm_idle.L14b
p223
aVtc_306_133_ef_seamless_move_source_receive_s1_setup_wf_source_guti_reallocation_complete.L14b
p224
aVtc_306_1214_ef_seamless_move_target_receive_s1_setup_wf_icsr_and_lur.L14b
p225
aVtc_306_1215_ef_seamless_move_target_receive_s1_setup_wf_modify_bearer_response.L14b
p226
aVtc_284_504_mme_pdn_connection_dns_fail_apn_redirection_license_off_wild_card.L14b
p227
aVtc_260_065_mbms_session_start_af_one_mce_response_after_timeout.L14b
p228
aVtc_195_558_mme_logging_attach_detach_identification_req_resp_gtpv1.L14b
p229
aVtc_295_017_Intra_S1_HO__S1_Setup_from_source_and_target_eNB_while_wf_handover_notify.L14b
p230
aVtc_318_131_sgw_restart_mf_restoration_triggered_by_intra_tau_procedure.L14b
p231
aVtc_280_136_activate_bearer_from_idle_paging_fail.L14b
p232
aVtc_304_102_emergency_intra_tau_success__control_mode_threshold_exceeded.LWG
p233
aVtc_304_266_tau_from_gnsgsn_2g_control_mode_wf_delete_all_bearers_response_exception_case_reject_congestion_subscriber_cancelled.LWG
p234
aVtc_56_2_restart.LWG
p235
aVtc_56_10_cm_restart_during_SR.LWG
p236
aVtc_24_80_comb_att_vlr_reset_periodic_rau_same_la_ra_imsi_reattach.LWG
p237
aVtc_324_239_ef_nas_ignore_update_loc_received_wf_modify_bearer_response.LWG
p238
aVtc_73_21_itc_gtpu_s4_sgsn_send_echo_request_w.LWG
p239
aVtc_73_41_gtpu_sgsn_dont_send_gpu_echo_request_w.LWG
p240
aVtc_73_07_itc_encrypted_gtpu_s4_payload_w.LWG
p241
aVtc_92_05_30_pm_job.LWG
p242
aVtc_103_1155_sx_retransmit__Small_restart_terminate_request.LWG
p243
aVtc_295_017_Intra_S1_HO__S1_Setup_from_source_and_target_eNB_while_wf_handover_notify.LWG
p244
aVtc_306_135_ef_seamless_move_source_receive_s1_setup_wf_frcn.LWG
p245
aVtc_306_130_ef_seamless_move_source_receive_s1_setup_wf_frr_ecm_idle.LWG
p246
aVtc_306_1215_ef_seamless_move_target_receive_s1_setup_wf_modify_bearer_response.LWG
p247
aVtc_666_06_block_rt_board.LWG
p248
aVtc_141_016_eth_conf_vlan_novlan.LWG
p249
aVtc_26_077_israu_invalid_qos_neg.LW
p250
aVtc_214_631_combined_attach_MSC_selection_in_pool_then_paging_delete_MSC_La.LW
p251
aVtc_39_601_mas_unsucc_fwd_reloc_resp_mandatory_ie_missing_stop_source.LW
p252
aVtc_225_918_mt_call_active_mode__sgs_sms_paging_wf_extended_service_request.LW
p253
aVtc_295_017_Intra_S1_HO__S1_Setup_from_source_and_target_eNB_while_wf_handover_notify.LW
p254
aVtc_250_114_act_ipv4v6_pdp_ctx_idr_pdp_type_dual_to_single_eps.LW
p255
aVtc_260_273_receive_m3_reset_while_wf_setup_iteration_two_session.LW
p256
aVtc_304_266_tau_from_gnsgsn_2g_control_mode_wf_delete_all_bearers_response_exception_case_reject_congestion_subscriber_cancelled.LW
p257
aVtc_306_135_ef_seamless_move_source_receive_s1_setup_wf_frcn.LW
p258
aVtc_306_1215_ef_seamless_move_target_receive_s1_setup_wf_modify_bearer_response.LW
p259
aVtc_306_1213_ef_seamless_move_target_receive_s1_setup_wf_icsr_and_ulr.LW
p260
aVtc_306_1311_ef_seamless_move_target_ignore_delete_bearer_request_wf_second_mbr_timeout.LW
p261
aVtc_73_07_itc_encrypted_gtpu_s4_payload_w.WG14a
p262
aVtc_260_100_one_mbms_session_started_two_mce_response_timeout_one_mce_add.LWG
p263
aVtc_260_272_receive_sm_stop_req_while_wf_setup_iteration.LWG
p264
aVtc_665_11_dp_reboot_init_cm_restart_with_traffic.LWG
p265
aVtc_295_017_Intra_S1_HO__S1_Setup_from_source_and_target_eNB_while_wf_handover_notify.LWG
p266
aVtc_306_132_ef_seamless_move_source_receive_s1_setup_wf_target_guti_reallocation_complete.LWG
p267
aVtc_306_135_ef_seamless_move_source_receive_s1_setup_wf_frcn.LWG
p268
aVtc_306_130_ef_seamless_move_source_receive_s1_setup_wf_frr_ecm_idle.LWG
p269
aVtc_306_1215_ef_seamless_move_target_receive_s1_setup_wf_modify_bearer_response.LWG
p270
aVtc_357_019_gsm_iterator_no_action.LWG
p271
aVtc_178_938_sctp_setprofile.LWG
p272
aVtc_369_063_ue_release_request_other_than_user_inactivity_during_waiting_for_location_report__idr_flags_ef.LWG
p273
aVtc_238_211_mme_eps_irat_ho_target__SGW_unavailable.LWG
p274
aVtc_363_011_cli_get_ra.LWG
p275
aVtc_92_05_30_pm_job.LWG
p276
aVtc_304_266_tau_from_gnsgsn_2g_control_mode_wf_delete_all_bearers_response_exception_case_reject_congestion_subscriber_cancelled.LWG
p277
aVtc_259_93_ef_provide_subscriber_information_service_request_w.LWG
p278
aVtc_219_200_gn_handover_w_to_l_with_cl_two_primary_pdp_contexts_all_successful.LWG
p279
aVtc_141_016_eth_conf_vlan_novlan.LWG
p280
aVtc_316_206_TAU_From_S4_SGSN_Multiple_PDN_Connections_With_Max_Dedicated_Bearers__Backup_UE.LWG
p281
aVtc_73_41_gtpu_sgsn_dont_send_gpu_echo_request_w.LWG
p282
aVtc_73_07_itc_encrypted_gtpu_s4_payload_w.LWG
p283
aVtc_77_5_attach_activate2_g_crash.LWG
p284
aVtc_103_850_error_code_DIAMETER_REALM_NOT_SERVED.LWG
p285
aVtc_204_071_mme_eps_ho__ue_context_modification_failure.LWG
p286
aVtc_262_515_emergency_attach_pb_activate_dedicated_bearers_partially_successful_with_timeout.LWG
p287
aVtc_311_24_intra_srns_reloc_s4_with_sgw_change_with_11_pdns.LWG
p288
aVtc_365_07_seq_num_overflow_forward_relocation_complete.LWG
p289
aVtc_334_182_sgw_restart_af_one_pdn_deactivate_iu_release_no_response.LW
p290
aVtc_342_064_x2_secondary_pdp_from_ms.LW
p291
aVtc_285_005_PDN_Connectivity_Pb__Delete_dedicated_bearer_request_while_wf_modify_bearer_response.LW
p292
aVtc_304_266_tau_from_gnsgsn_2g_control_mode_wf_delete_all_bearers_response_exception_case_reject_congestion_subscriber_cancelled.LW
p293
aVtc_326_503_Recovery_for_DDN__Retrieval_and_Paging_and_Service_Request_after_paging_timer_expires.LW
p294
aVtc_219_131_s3_handover_w_to_l_with_cl_two_pdns_one_failed_sgw_relocation.LW
p295
aVtc_290_049_Timer_Based_GBR_Deact__delete_bearer_request_ho_to_non_3gpp_wf_ue_context_release_complete_before_timer_expires.LW
p296
aVtc_290_069_Timer_Based_GBR_Deact__delete_bearer_request_ho_to_non_3gpp_ecm_idle_before_timer_expires.LW
p297
aVtc_290_097_Timer_Based_GBR_Deact__context_request_wf_delete_bearer_request_after_timer_expires.LW
p298
aVtc_282_117_mme_initiated_deactivate_some_fails_in_sgw_bearer_pco.LW
p299
aVtc_12_182_wcdma_repeat_paging_with_old_ptmsi.LW
p300
aVtc_103_602_georedundant_realm_routing.LW
p301
aVtc_295_017_Intra_S1_HO__S1_Setup_from_source_and_target_eNB_while_wf_handover_notify.LW
p302
aVtc_306_132_ef_seamless_move_source_receive_s1_setup_wf_target_guti_reallocation_complete.LW
p303
aVtc_306_1215_ef_seamless_move_target_receive_s1_setup_wf_modify_bearer_response.LW
p304
aVtc_44_340_sctp_counter_index_SGsAP.LW
p305
aVtc_306_135_ef_seamless_move_source_receive_s1_setup_wf_frcn.L14b
p306
aVtc_306_130_ef_seamless_move_source_receive_s1_setup_wf_frr_ecm_idle.L14b
p307
aVtc_306_1215_ef_seamless_move_target_receive_s1_setup_wf_modify_bearer_response.L14b
p308
aVtc_304_236_isc_active_flag_on_control_mode_threshold_exceeded_ignore_replace_s1_wf_initial_context_setup_response.L14b
p309
aVtc_304_266_tau_from_gnsgsn_2g_control_mode_wf_delete_all_bearers_response_exception_case_reject_congestion_subscriber_cancelled.L14b
p310
aVtc_327_760_recovery_service_request__handover_required_while_wf_ue_context_modification_response.L14b
p311
aVtc_310_242_ef__S1_Reset_wf_FR_Response.L14b
p312
aVtc_44_750_s1_with_two_sctp_endpoints.L14b
p313
aVtc_44_850_mme_assoc_reestablish__board_restart_s1_mme.L14b
p314
aVtc_308_050_HSS_Init_QoS_Modification__Authentication_failed_when_service_request.L14b
p315
aVtc_346_493_Small_Local_Restart__Terminate_when_UE_S1_release.L14b
p316
aVtc_265_160_Detach_Flow_NW_init__Ue_moved_to_non_3gpp_while_imsi_detach.L14b
p317
aVtc_103_702_CEA_timeout.L14b
p318
aVtc_194_501_Notification_SV_change_during_Attach_Procedure_no_Response.L14b
p319
aVtc_12_125_attach_ptmsi_imei_check_black_listed_during_activate.W14b
p320
aVtc_313_001_inter_new_srns_reloc_s16_without_sgw_change.W14b
p321
aVtc_31_064_activate_loc_not_confirmed_ul_fails_network_failure.W14b
p322
aVtc_31_095_standalone_dsd_after_large_restart.W14b
p323
aVtc_166_102_israu_new_interactive_two_tunnel_since_ggsn_answers_with_gtpv0.WG14a
p324
aVtc_73_07_itc_encrypted_gtpu_s4_payload_w.WG14a
p325
aVtc_324_083_af_sec_modify_bearer_response_dedicated_bearer_fail.WG14a
p326
aVtc_318_301_sgw_restart_relocation_triggered_by_sr_closed_csg.L14b
p327
aVtc_214_028_combined_attach_interfering_s1_reset.L14b
p328
aVtc_304_121_initial_ue_intra_tau_control_mode_threshold_exceeded_usc_detach_wf_release_request_response.L14b
p329
aVtc_304_266_tau_from_gnsgsn_2g_control_mode_wf_delete_all_bearers_response_exception_case_reject_congestion_subscriber_cancelled.L14b
p330
aVtc_306_135_ef_seamless_move_source_receive_s1_setup_wf_frcn.L14b
p331
aVtc_306_133_ef_seamless_move_source_receive_s1_setup_wf_source_guti_reallocation_complete.L14b
p332
aVtc_306_1213_ef_seamless_move_target_receive_s1_setup_wf_icsr_and_ulr.L14b
p333
aVtc_267_753_Update_Bearer_Request__PCSCF_restoration_req_while_wf_Modify_Bearer_Response.L14b
p334
aVtc_44_750_s1_with_two_sctp_endpoints.L14b
p335
aVtc_369_055_tau_request_during_waiting_for_location_report__idr_flags_ef.L14b
p336
aVtc_298_826_NRSPCA_S4_nsapi_collision_receiving_detach_request_while_waiting_for_delete_bearer_request.W14b
p337
aVtc_325_106_inter_old_srns_reloc_s4_to_gn_with_gbr_bearer_waiting_for_forward_relocation_complete_timeout.W14b
p338
aVtc_324_083_af_sec_modify_bearer_response_dedicated_bearer_fail.W14b
p339
aVtc_287_004_PDN_Disconnect__Handover_Required_while_wf_ERAB_release_command.LWG
p340
aVtc_219_131_s3_handover_w_to_l_with_cl_two_pdns_one_failed_sgw_relocation.LWG
p341
aVtc_346_491_Small_Restart__Terminate_when_UE1_PDN_Connectivity_waiting_for_CCAI_UE2_Location_Report_waiting_for_CCAU.LWG
p342
aVtc_304_266_tau_from_gnsgsn_2g_control_mode_wf_delete_all_bearers_response_exception_case_reject_congestion_subscriber_cancelled.LWG
p343
aVtc_260_273_receive_m3_reset_while_wf_setup_iteration_two_session.LWG
p344
aVtc_22_036_restart.LWG
p345
aVtc_73_07_itc_encrypted_gtpu_s4_payload_w.LWG
p346
aVtc_327_010_recovery_intra_TAU__uplink_Attach_Request_while_waiting_for_TAU_Complete.LWG
p347
aVtc_327_037_recovery_intra_TAU_active_off_sgw_unchanged__RAR_wf_CSR_due_to_S11_linkdown.LWG
p348
aVtc_92_05_30_pm_job.LWG
p349
aVtc_342_880_x2_message_decode_error.LWG
p350
aVtc_295_017_Intra_S1_HO__S1_Setup_from_source_and_target_eNB_while_wf_handover_notify.LWG
p351
aVtc_220_420_csfb_to_1xrtt_ue_return_with_service_request_SGW_unavailable.LWG
p352
aVtc_306_133_ef_seamless_move_source_receive_s1_setup_wf_source_guti_reallocation_complete.LWG
p353
aVtc_306_1215_ef_seamless_move_target_receive_s1_setup_wf_modify_bearer_response.LWG
p354
aVtc_306_1214_ef_seamless_move_target_receive_s1_setup_wf_icsr_and_lur.LWG
p355
aVtc_306_1213_ef_seamless_move_target_receive_s1_setup_wf_icsr_and_ulr.LWG
p356
aVtc_357_023_gsm_iterator_move_ra_from_one_area_to_another.LWG
p357
aVtc_357_019_gsm_iterator_no_action.LWG
p358
aVtc_194_1633_hss_reset_pgw_initiated_bearer_mod_ecm_connected_hybrid_csg_feature_on_to_off.LWG
p359
aVtc_39_120_attach_move_interfering_periodic_rau_after_complete.LWG
p360
aVtc_73_07_itc_encrypted_gtpu_s4_payload_w.WG14a
p361
aVtc_324_388_ef_mo_sms_wf_ula.WG14a
p362
aVtc_294_374_s1_intra_handover_type_b_no_tau_received.LW
p363
aVtc_273_080_tau_intra_normal_connected_active.LW
p364
aVtc_327_037_recovery_intra_TAU_active_off_sgw_unchanged__RAR_wf_CSR_due_to_S11_linkdown.LW
p365
aVtc_327_460_recovery_service_request__ERAB_release_indication_dedicated_bearer_while_waiting_for_Initial_Context_Setup_Response.LW
p366
aVtc_327_725_recovery_service_request__initial_TAU_Req_while_wf_ue_context_modification_response.LW
p367
aVtc_327_752_recovery_service_request__delete_bearer_request_while_wf_ue_context_modification_response.LW
p368
aVtc_304_266_tau_from_gnsgsn_2g_control_mode_wf_delete_all_bearers_response_exception_case_reject_congestion_subscriber_cancelled.LW
p369
aVtc_335_144_Geo_Recovery_upon_Intra_TAU_with_pcscf_restoration.LW
p370
aVtc_260_272_receive_sm_stop_req_while_wf_setup_iteration.LW
p371
aVtc_306_133_ef_seamless_move_source_receive_s1_setup_wf_source_guti_reallocation_complete.LW
p372
aVtc_306_1213_ef_seamless_move_target_receive_s1_setup_wf_icsr_and_ulr.LW
p373
aVtc_349_108_RAU_new_sgsn__RAU_Req_on_new_iu_while_waiting_for_CCA_initial_transfer.LW
p374
aVtc_266_421_DDN_service_request_modify_bearer_no_response_two_pdn.LW
p375
aVtc_324_239_ef_nas_ignore_update_loc_received_wf_modify_bearer_response.LW
p376
aVtc_273_263_tau_intra__sgw_relocation_active_enb_fails_dedicated.LWG
p377
aVtc_92_05_30_pm_job.LWG
p378
aVtc_367_101_pgw_reselection_ho_without_qci_1_reattach_required.LWG
p379
aVtc_304_266_tau_from_gnsgsn_2g_control_mode_wf_delete_all_bearers_response_exception_case_reject_congestion_subscriber_cancelled.LWG
p380
aVtc_73_07_itc_encrypted_gtpu_s4_payload_w.LWG
p381
aVtc_306_135_ef_seamless_move_source_receive_s1_setup_wf_frcn.LWG
p382
aVtc_306_1111_ef_seamless_move_target_receive_detach_request_without_switchoff_ignore.LWG
p383
aVtc_306_1215_ef_seamless_move_target_receive_s1_setup_wf_modify_bearer_response.LWG
p384
aVtc_306_1214_ef_seamless_move_target_receive_s1_setup_wf_icsr_and_lur.LWG
p385
aVtc_31_090_concurrent_msd_cl.LWG
p386
aVtc_262_600_combined_attach_cs_service_notification_when_emm_attach_state.LWG
p387
aVtc_357_023_gsm_iterator_move_ra_from_one_area_to_another.LWG
p388
aVtc_357_019_gsm_iterator_no_action.LWG
p389
aVtc_295_017_Intra_S1_HO__S1_Setup_from_source_and_target_eNB_while_wf_handover_notify.LWG
p390
aVtc_263_022_Attach_Flow__Attach_Request_Different_IEs_IP_OK_while_waiting_for_Attach_Complete.LWG
p391
aVtc_202_521_seamless_move_source_ue_ecm_idle_SGW_unavailable.LWG
p392
aVtc_26_023_modification_interrupted_by_insert_subscriber_data_I.LWG
p393
aVtc_260_273_receive_m3_reset_while_wf_setup_iteration_two_session.LWG
p394
aVtc_219_131_s3_handover_w_to_l_with_cl_two_pdns_one_failed_sgw_relocation.LWG
p395
aVtc_326_206_Intra_TAU_Recovery_with_old_GUTI.LWG
p396
aVtc_225_915_mo_call_active_mode__sgs_cs_paging_wf_suspend_acknowledge.LW
p397
aVtc_361_240_IRAT_PSHO_LtoW_Combined_Node__Delete_UE_Backup.LW
p398
aVtc_295_017_Intra_S1_HO__S1_Setup_from_source_and_target_eNB_while_wf_handover_notify.LW
p399
aVtc_250_154_attach_eps_sub_no_odb_activation_insert_gprs_sub_with_odb_deact.LW
p400
aVtc_304_266_tau_from_gnsgsn_2g_control_mode_wf_delete_all_bearers_response_exception_case_reject_congestion_subscriber_cancelled.LW
p401
aVtc_103_701_MME_restarts.LW
p402
aVtc_103_602_georedundant_realm_routing.LW
p403
aVtc_306_132_ef_seamless_move_source_receive_s1_setup_wf_target_guti_reallocation_complete.LW
p404
aVtc_306_135_ef_seamless_move_source_receive_s1_setup_wf_frcn.LW
p405
aVtc_306_133_ef_seamless_move_source_receive_s1_setup_wf_source_guti_reallocation_complete.LW
p406
aVtc_306_1213_ef_seamless_move_target_receive_s1_setup_wf_icsr_and_ulr.LW
p407
aVtc_318_301_sgw_restart_relocation_triggered_by_sr_closed_csg.LW
p408
aVtc_260_273_receive_m3_reset_while_wf_setup_iteration_two_session.LW
p409
aVtc_73_07_itc_encrypted_gtpu_s4_payload_w.WG14a
p410
aVtc_12_512_pmm_undefined_attach_when_updating_location_interfered_by_rnc_reset.W14b
p411
aVtc_23_10_transfer_to_primary_and_change_vip_addr_from_gn_to_gom.W14b
p412
aVtc_359_142_handover_from_3gpp_pgw_init_deletion_ef_ms_deact_Notify_ue_false.W14b
p413
aVtc_262_1031_emergency_imsi_attach_multiple_pgw_try_next_pgw_fqdn_error.L14b
p414
aVtc_203_342_mme_eps_ho_source_type_a__Service_Request_while_wf_Cancel_Location.L14b
p415
aVtc_288_008_pgw_initiated_bearer_modification_ecm_idle_tau_as_paging_answer.L14b
p416
aVtc_288_108_pgw_init_bearer_mod_default_bearer_not_existent_in_ue.L14b
p417
aVtc_284_590_pdn_connectivity_second_same_apn_overlapping_pdn_type_no_pgw_init_add_or_fqdn.L14b
p418
aVtc_284_560_emergency_pdn_connectivity_multiple_pgw.L14b
p419
aVtc_304_266_tau_from_gnsgsn_2g_control_mode_wf_delete_all_bearers_response_exception_case_reject_congestion_subscriber_cancelled.L14b
p420
aVtc_304_419_Geored_Service_Request_UE_Initiated__control_mode_threshold_exceeded_reject.L14b
p421
aVtc_327_760_recovery_service_request__handover_required_while_wf_ue_context_modification_response.L14b
p422
aVtc_103_602_georedundant_realm_routing.L14b
p423
aVtc_287_003_PDN_Disconnect__Delete_dedicated_bearer_while_wf_delete_session_response.L14b
p424
aVtc_287_012_HSS_based_PCSCF_restoration__ecm_connected_attach_request_wf_delete_session_response.L14b
p425
aVtc_44_750_s1_with_two_sctp_endpoints.L14b
p426
aVtc_211_022_streamed_cell_trace_mapping_stream_only_ipv6.L14b
p427
aVtc_295_136_mo_call_during_s1_ho_tau_request_when_wf_handover_notify.L14b
p428
aVtc_267_750_Update_Bearer_Request__PCSCF_restoration_req_while_wf_Service_Request.L14b
p429
aVtc_306_135_ef_seamless_move_source_receive_s1_setup_wf_frcn.L14b
p430
aVtc_306_133_ef_seamless_move_source_receive_s1_setup_wf_source_guti_reallocation_complete.L14b
p431
aVtc_306_1214_ef_seamless_move_target_receive_s1_setup_wf_icsr_and_lur.L14b
p432
aVtc_306_1213_ef_seamless_move_target_receive_s1_setup_wf_icsr_and_ulr.L14b
p433
aVtc_197_201_wildcard_apn_dynamic_pgw_multiple_pdns.L14b
p434
aVtc_239_620_inter_rau_new_with_bearer_sgw_not_change_isd_odb_bit0_wf_rau_compl_deactivation.G14b
p435
aVtc_236_018_s4_3gdt_service_request_tz_changed.W14b
p436
aVtc_38_80_intra_rau_new_rnc_with_authentication_wrong_ptmsi_signature.W14b
p437
aVtc_38_81_intra_rau_new_rnc_with_authentication_no_ptmsi_signature.W14b
p438
aVtc_39_422_mas_one_pdp_srv_req_b4_fwd_ack_upd_loc_ack_after_rab_assign_rsp_target.W14b
p439
aVtc_73_07_itc_encrypted_gtpu_s4_payload_w.WG14a
p440
aVtc_73_21_itc_gtpu_s4_sgsn_send_echo_request_w.LWG
p441
aVtc_73_07_itc_encrypted_gtpu_s4_payload_w.LWG
p442
aVtc_267_214_Service_Request__Detach_Request_while_waiting_for_ERAB_Release_Response.LWG
p443
aVtc_194_084_hss_reset_after_large_restart.LWG
p444
aVtc_347_281_PDN_Disconnect__RAR_while_waiting_Delete_Session_Response.LWG
p445
aVtc_304_216_combined_node_inter_tau_from_s4_control_mode_threshold_exceeded_reject_wf_tau_complete.LWG
p446
aVtc_304_266_tau_from_gnsgsn_2g_control_mode_wf_delete_all_bearers_response_exception_case_reject_congestion_subscriber_cancelled.LWG
p447
aVtc_166_423_sgsn_initiated_deactivation_si_ms_deactivate_flow.LWG
p448
aVtc_284_350_pdn_connectivity_interrupted_by_path_switch_request.LWG
p449
aVtc_357_019_gsm_iterator_no_action.LWG
p450
aVtc_141_015_eth_traffic_vlan_novlan.LWG
p451
aVtc_279_024_tai_list_attach_2_intra_tau_conf_change_epl_no_impact.LWG
p452
aVtc_225_638_exp_flow_handover_required_inter_while_wf_release_access_bearer_response.LWG
p453
aVtc_295_017_Intra_S1_HO__S1_Setup_from_source_and_target_eNB_while_wf_handover_notify.LWG
p454
aVtc_306_132_ef_seamless_move_source_receive_s1_setup_wf_target_guti_reallocation_complete.LWG
p455
aVtc_306_130_ef_seamless_move_source_receive_s1_setup_wf_frr_ecm_idle.LWG
p456
aVtc_103_701_MME_restarts.LWG
p457
aVtc_11_241_rab_release_request_interrupted_by_iu_release.LWG
p458
aVtc_358_004_lte_iterator_ipAddressReset_modify_to_true_while_one_pdn_already_in_target_area.L14b
p459
aVtc_327_760_recovery_service_request__handover_required_while_wf_ue_context_modification_response.L14b
p460
aVtc_260_273_receive_m3_reset_while_wf_setup_iteration_two_session.L14b
p461
aVtc_268_059_Timer_Based_GBR_Deact__Attach_Request_before_Timer_Expires.L14b
p462
aVtc_262_084_emergency_imsi_attach_unauthentication_fails_in_hss.L14b
p463
aVtc_304_236_isc_active_flag_on_control_mode_threshold_exceeded_ignore_replace_s1_wf_initial_context_setup_response.L14b
p464
aVtc_304_266_tau_from_gnsgsn_2g_control_mode_wf_delete_all_bearers_response_exception_case_reject_congestion_subscriber_cancelled.L14b
p465
aVtc_306_130_ef_seamless_move_source_receive_s1_setup_wf_frr_ecm_idle.L14b
p466
aVtc_306_1213_ef_seamless_move_target_receive_s1_setup_wf_icsr_and_ulr.L14b
p467
aVtc_103_860_ue_trace_retransmit.L14b
p468
aVtc_103_905_proxy_node_s6a_s13.LW
p469
aVtc_276_282_Inter_TAU_New_MME__Delete_Bearer_Request_change_to_non_3gpp_while_waiting_for_Modify_Bearer_Response.LW
p470
aVtc_333_008_mf__OLP_Priority_at_S1_handover.LW
p471
aVtc_304_266_tau_from_gnsgsn_2g_control_mode_wf_delete_all_bearers_response_exception_case_reject_congestion_subscriber_cancelled.LW
p472
aVtc_209_180_handover_w_to_l_source_s4_sgsn.LW
p473
aVtc_349_108_RAU_new_sgsn__RAU_Req_on_new_iu_while_waiting_for_CCA_initial_transfer.LW
p474
aVtc_326_480_Inter_TAU_Recovery_Unknown_GUTI__No_TAU_Complete.LW
p475
aVtc_321_098_provide_subscriber_location_report_control_mf.LW
p476
aVtc_306_130_ef_seamless_move_source_receive_s1_setup_wf_frr_ecm_idle.LW
p477
aVtc_306_133_ef_seamless_move_source_receive_s1_setup_wf_source_guti_reallocation_complete.LW
p478
aVtc_334_141_sgw_restart_mf_one_pdn_3gdt_to_be_deactivated_idle.LW
p479
aVtc_295_017_Intra_S1_HO__S1_Setup_from_source_and_target_eNB_while_wf_handover_notify.LW
p480
aVtc_44_340_sctp_counter_index_SGsAP.LW
p481
aVtc_266_026_DownlinkDataFailureInd_repeat_paging_timer_small_local_restart.L14b
p482
aVtc_327_760_recovery_service_request__handover_required_while_wf_ue_context_modification_response.L14b
p483
aVtc_346_493_Small_Local_Restart__Terminate_when_UE_S1_release.L14b
p484
aVtc_44_750_s1_with_two_sctp_endpoints.L14b
p485
aVtc_44_850_mme_assoc_reestablish__board_restart_s1_mme.L14b
p486
aVtc_304_266_tau_from_gnsgsn_2g_control_mode_wf_delete_all_bearers_response_exception_case_reject_congestion_subscriber_cancelled.L14b
p487
aVtc_306_132_ef_seamless_move_source_receive_s1_setup_wf_target_guti_reallocation_complete.L14b
p488
aVtc_11_630_rau_new_sgsn_init_deactivation_ggsn_restarted_create_response.W14b
p489
aVtc_29_002_attach_w_attach_g_when_data_not_confirmed.WG14a
p490
aVtc_324_317_ef_gr_cli_delete_subscriber_data_wf_modify_bearer_response_wf_ula.WG14a
p491
aVtc_324_455_ef_detach_request_poweroff_abort_wf_rab_assignment_response_wf_update_location_hss_service_req_data.WG14a
p492
aVtc_73_07_itc_encrypted_gtpu_s4_payload_w.WG14a
p493
aVtc_304_266_tau_from_gnsgsn_2g_control_mode_wf_delete_all_bearers_response_exception_case_reject_congestion_subscriber_cancelled.LW
p494
aVtc_295_017_Intra_S1_HO__S1_Setup_from_source_and_target_eNB_while_wf_handover_notify.LW
p495
aVtc_273_595_TAU_intra__active_flag_on_no_modify_bearer_response_sgw_change_followed_by_intra_tau_MBR_timeout.LW
p496
aVtc_82_022_rab_modify_interrupted_by_israu_II.LW
p497
aVtc_262_084_emergency_imsi_attach_unauthentication_fails_in_hss.LW
p498
aVtc_306_130_ef_seamless_move_source_receive_s1_setup_wf_frr_ecm_idle.LW
p499
aVtc_306_1213_ef_seamless_move_target_receive_s1_setup_wf_icsr_and_ulr.LW
p500
aVtc_44_004_small_restart__sctp_fe_restart.LW
p501
aVtc_319_073_path_management_configured_timer_expired.LWG
p502
aVtc_326_842_Geo_Service_Request_Modify_Bearer_timeout_rollback_GUTI_release_s1_no_response.LWG
p503
aVtc_284_351_pdn_connectivity_pb_activate_1_dedicated_bearer_interrupted_by_path_switch_request.LWG
p504
aVtc_73_41_gtpu_sgsn_dont_send_gpu_echo_request_w.LWG
p505
aVtc_73_07_itc_encrypted_gtpu_s4_payload_w.LWG
p506
aVtc_179_318_Ccheck_TraceCollectionIpv6server.LWG
p507
aVtc_178_938_sctp_setprofile.LWG
p508
aVtc_357_023_gsm_iterator_move_ra_from_one_area_to_another.LWG
p509
aVtc_357_019_gsm_iterator_no_action.LWG
p510
aVtc_306_130_ef_seamless_move_source_receive_s1_setup_wf_frr_ecm_idle.LWG
p511
aVtc_306_1215_ef_seamless_move_target_receive_s1_setup_wf_modify_bearer_response.LWG
p512
aVtc_141_016_eth_conf_vlan_novlan.LWG
p513
aVtc_304_266_tau_from_gnsgsn_2g_control_mode_wf_delete_all_bearers_response_exception_case_reject_congestion_subscriber_cancelled.LWG
p514
aVtc_241_452_israu_new_with_10_dedicated_bearer_sgw_change_mf_s4.LWG
p515
aVtc_202_311_mf_seamless_move_by_mme_ue_ecm_idle_service_req_int_not_ok.L14b
p516
aVtc_266_026_DownlinkDataFailureInd_repeat_paging_timer_small_local_restart.L14b
p517
aVtc_103_603_georedundant_modify_diameter_peer.L14b
p518
aVtc_327_317_recovery_service_request__initial_Attach_Request_while_waiting_for_Sub_Procedure__Initial_Context_Setup_Response.L14b
p519
aVtc_295_017_Intra_S1_HO__S1_Setup_from_source_and_target_eNB_while_wf_handover_notify.L14b
p520
aVtc_295_136_mo_call_during_s1_ho_tau_request_when_wf_handover_notify.L14b
p521
aVtc_345_150_af__mo_csfb_with_psho__ecm_idle_no_release_from_eNodeB_when_ho_failed.L14b
p522
aVtc_304_266_tau_from_gnsgsn_2g_control_mode_wf_delete_all_bearers_response_exception_case_reject_congestion_subscriber_cancelled.L14b
p523
aVtc_306_1213_ef_seamless_move_target_receive_s1_setup_wf_icsr_and_ulr.L14b
p524
aVtc_306_1215_ef_seamless_move_target_receive_s1_setup_wf_modify_bearer_response.L14b
p525
aVtc_302_050_mt_csfb_to_1xrtt_main_flow_connected.L14b
p526
aVtc_302_073_mt_sms_main_flow_idle_tau_as_ue_response.L14b
p527
aVtc_47_005_implict_detach_timer_ap_loss.LW
p528
aVtc_304_266_tau_from_gnsgsn_2g_control_mode_wf_delete_all_bearers_response_exception_case_reject_congestion_subscriber_cancelled.LW
p529
aVtc_322_023_smooth_move_af_frr_with_request_rejected.LW
p530
aVtc_210_046_mme_initiated_detach_with_reattach_required.LW
p531
aVtc_327_727_recovery_service_request__uplink_Extended_Service_Req_while_wf_ue_context_modification_response.LW
p532
aVtc_260_273_receive_m3_reset_while_wf_setup_iteration_two_session.LW
p533
aVtc_306_130_ef_seamless_move_source_receive_s1_setup_wf_frr_ecm_idle.LW
p534
aVtc_306_1215_ef_seamless_move_target_receive_s1_setup_wf_modify_bearer_response.LW
p535
aVtc_306_1214_ef_seamless_move_target_receive_s1_setup_wf_icsr_and_lur.LW
p536
aVtc_290_070_Timer_Based_GBR_Deact__update_bearer_request_ecm_idle_before_timer_expires.LW
p537
aVtc_73_07_itc_encrypted_gtpu_s4_payload_w.WG14a
p538
aVtc_214_1140_la_selection_mf_oldlapreferred_prau_during_ue_restoration.LWG
p539
aVtc_214_1093_la_selection_mf_reselection_combined_intra_tau_with_imsi_attach_after_cs_fallback.LWG
p540
aVtc_92_09_20_autoupdate.LWG
p541
aVtc_267_777_HSS_based_PCSCF_restoration__delete_bearer_request_other_pdn_wf_service_request.LWG
p542
aVtc_225_415_emergency_attach_while_waiting_extended_service_request.LWG
p543
aVtc_334_252_path_failure_service_req_connected_3gdt_mf.LWG
p544
aVtc_304_266_tau_from_gnsgsn_2g_control_mode_wf_delete_all_bearers_response_exception_case_reject_congestion_subscriber_cancelled.LWG
p545
aVtc_179_318_Ccheck_TraceCollectionIpv6server.LWG
p546
aVtc_307_004_HSS_Init_QoS_Modification__RFSP_changed_Roaming_UE_CONNECTED.LWG
p547
aVtc_665_7_dp_block_deblock_within_4_min.LWG
p548
aVtc_26_056_ms_initiated_pdp_context_modification_ms_wants_conversational_1.LWG
p549
aVtc_217_500_rau_to_sgsn_guti_attach_when_wf_timeout_fail_authentication.LWG
p550
aVtc_263_044_Attach_Flow__Handover_Required_while_waiting_for_Notify_Answer.LWG
p551
aVtc_306_132_ef_seamless_move_source_receive_s1_setup_wf_target_guti_reallocation_complete.LWG
p552
aVtc_306_135_ef_seamless_move_source_receive_s1_setup_wf_frcn.LWG
p553
aVtc_306_1215_ef_seamless_move_target_receive_s1_setup_wf_modify_bearer_response.LWG
p554
aVtc_306_1200_ef_seamless_move_target_receive_hss_reset.LWG
p555
aVtc_306_1214_ef_seamless_move_target_receive_s1_setup_wf_icsr_and_lur.LWG
p556
aVtc_219_131_s3_handover_w_to_l_with_cl_two_pdns_one_failed_sgw_relocation.LWG
p557
aVtc_260_273_receive_m3_reset_while_wf_setup_iteration_two_session.LWG
p558
aVtc_73_41_gtpu_sgsn_dont_send_gpu_echo_request_w.LWG
p559
aVtc_73_07_itc_encrypted_gtpu_s4_payload_w.LWG
p560
aVtc_322_170_smooth_move_ef_gr_cli_delete_subscriber_data_wf_frr.LWG
p561
aVtc_578_52_check_uetracer_parser.LWG
p562
aVtc_295_017_Intra_S1_HO__S1_Setup_from_source_and_target_eNB_while_wf_handover_notify.LWG
p563
aVtc_327_022_recovery_intra_TAU__initial_Detach_Request_while_waiting_for_Ue_Backup_Response.L14b
p564
aVtc_44_750_s1_with_two_sctp_endpoints.L14b
p565
aVtc_44_850_mme_assoc_reestablish__board_restart_s1_mme.L14b
p566
aVtc_318_301_sgw_restart_relocation_triggered_by_sr_closed_csg.L14b
p567
aVtc_275_711_tau_inter_without_SGW_Change_receive_TZCR_flag_set_in_context_response_SN_change.L14b
p568
aVtc_304_266_tau_from_gnsgsn_2g_control_mode_wf_delete_all_bearers_response_exception_case_reject_congestion_subscriber_cancelled.L14b
p569
aVtc_217_500_rau_to_sgsn_guti_attach_when_wf_timeout_fail_authentication.L14b
p570
aVtc_276_282_Inter_TAU_New_MME__Delete_Bearer_Request_change_to_non_3gpp_while_waiting_for_Modify_Bearer_Response.L14b
p571
aVtc_39_120_attach_move_interfering_periodic_rau_after_complete.LW
p572
aVtc_292_068_x2_handover_type_a_new_plmn_same_emc_sup_same_profile.LW
p573
aVtc_85_31_provide_subscriber_location_report_control_af_no_response.LW
p574
aVtc_306_132_ef_seamless_move_source_receive_s1_setup_wf_target_guti_reallocation_complete.LW
p575
aVtc_306_135_ef_seamless_move_source_receive_s1_setup_wf_frcn.LW
p576
aVtc_306_1215_ef_seamless_move_target_receive_s1_setup_wf_modify_bearer_response.LW
p577
aVtc_306_1213_ef_seamless_move_target_receive_s1_setup_wf_icsr_and_ulr.LW
p578
aVtc_578_52_check_uetracer_parser.LW
p579
aVtc_326_223_Intra_TAU_Recovery_fail_Identity_Response_timeout_then_Recover_successful.LW
p580
aVtc_217_500_rau_to_sgsn_guti_attach_when_wf_timeout_fail_authentication.LW
p581
aVtc_311_204_intra_srns_reloc_s4_sgw_change_wf_reloc_req_ack_interrupted_by_cancel_loc_subscrip_withdrawn.LW
p582
aVtc_304_266_tau_from_gnsgsn_2g_control_mode_wf_delete_all_bearers_response_exception_case_reject_congestion_subscriber_cancelled.LW
p583
aVtc_238_177_mme_eps_irat_Gn_ho_target__type_d_emc_cancel_using_IMEISV.LW
p584
aVtc_238_201_mme_eps_irat_Gn_ho_target__three_pdn_one_MBR_with_lbi.LW
p585
aVtc_44_004_small_restart__sctp_fe_restart.LW
p586
aVtc_284_350_pdn_connectivity_interrupted_by_path_switch_request.LW
p587
aVtc_219_131_s3_handover_w_to_l_with_cl_two_pdns_one_failed_sgw_relocation.LW
p588
aVtc_298_418_ms_init_deact_af_delete_bearer_request_with_lbi_in_ebi_list.LWG
p589
aVtc_24_163_msc_pool_location_update_reject_cause_22_select_second_msc.LWG
p590
aVtc_306_132_ef_seamless_move_source_receive_s1_setup_wf_target_guti_reallocation_complete.LWG
p591
aVtc_306_130_ef_seamless_move_source_receive_s1_setup_wf_frr_ecm_idle.LWG
p592
aVtc_306_1213_ef_seamless_move_target_receive_s1_setup_wf_icsr_and_ulr.LWG
p593
aVtc_306_1214_ef_seamless_move_target_receive_s1_setup_wf_icsr_and_lur.LWG
p594
aVtc_291_40_action_ue_trace.LWG
p595
aVtc_334_292_service_req_relocation_rab_release_request_3gdt_when_wf_create_session_resp.LWG
p596
aVtc_141_031_eth_v4_v6_traffic_over_sctp.LWG
p597
aVtc_103_1155_sx_retransmit__Small_restart_terminate_request.LWG
p598
aVtc_73_21_itc_gtpu_s4_sgsn_send_echo_request_w.LWG
p599
aVtc_73_07_itc_encrypted_gtpu_s4_payload_w.LWG
p600
aVtc_357_019_gsm_iterator_no_action.LWG
p601
aVtc_304_128_initial_ue_intra_tau_ecm_idle_two_pdn_change_plmn_control_mode_threshold_exceeded_usc_detach.LWG
p602
aVtc_304_266_tau_from_gnsgsn_2g_control_mode_wf_delete_all_bearers_response_exception_case_reject_congestion_subscriber_cancelled.LWG
p603
aVtc_363_011_cli_get_ra.LWG
p604
aVtc_358_118_lte_local_user_reject_intra_handover_ip_area_to_another_ip_area.LWG
p605
aVtc_73_07_itc_encrypted_gtpu_s4_payload_w.WG14a
p606
aVtc_348_203_smooth_move_mf__old_sgsn_multiple_pdp_no_cl_with_sx.W14b
p607
aVtc_238_201_mme_eps_irat_Gn_ho_target__three_pdn_one_MBR_with_lbi.L14b
p608
aVtc_274_263_Intra_and_pTAU__Path_Switch_Request_with_old_TA_while_waiting_for_TAU_Complete.L14b
p609
aVtc_304_266_tau_from_gnsgsn_2g_control_mode_wf_delete_all_bearers_response_exception_case_reject_congestion_subscriber_cancelled.L14b
p610
aVtc_304_473_initial_ue_csfb_to_wg_control_mode_threshold_exceeded_usc_ignore_wf_icsr.L14b
p611
aVtc_256_410_mme_eps_srvcc_ho_source_cs_only__mt_sms_wf_srvcc_ps_to_cs_response_ignore_downlink_unit_data.L14b
p612
aVtc_217_500_rau_to_sgsn_guti_attach_when_wf_timeout_fail_authentication.L14b
p613
aVtc_225_103_csfb_stand_alone_ue_context_release_active_mode.L14b
p614
aVtc_225_305_mt_call_active_mode_all_bearers_deleted.L14b
p615
aVtc_225_409_mt_call_idle_mode_not_affected_by_SCTP_paging_olp.L14b
p616
aVtc_225_620_mt_call_idle_delete_bearer_request_wf_extended_service_request.L14b
p617
aVtc_225_702_csfb_to_g_without_dtm_in_ecm_idle_with_gbr_bearers.L14b
p618
aVtc_225_922_mt_sms_idle_mode__sgs_cs_paging_wf_service_request_timeout.L14b
p619
aVtc_218_355_tau_from_sgsn__mt_sms_while_wf_ue_contexte_release_complete.L14b
p620
aVtc_327_015_recovery_intra_TAU__initial_Attach_Request_while_waiting_for_Update_Location_Response.L14b
p621
aVtc_327_252_recovery_service_request_MBR_timeout__TAU_Request_wf_Guti_Reallocation_Complete.L14b
p622
aVtc_292_180_X2_Based_HO_interfered_by_MT_Call_then_interfered_by_Attach_Req.L14b
p623
aVtc_346_493_Small_Local_Restart__Terminate_when_UE_S1_release.L14b
p624
aVtc_306_070_ef_seamless_move_source_receive_extended_service_request_wf_frr_ecm_idle.L14b
p625
aVtc_306_135_ef_seamless_move_source_receive_s1_setup_wf_frcn.L14b
p626
aVtc_306_721_ef_seamless_move_by_mme_ue_ecm_idle_wf_forward_relocation_response_interfered_by_sms_paging.L14b
p627
aVtc_306_1131_ef_seamless_move_target_receive_detach_request_with_switchoff_wf_icsr_with_move_finished.L14b
p628
aVtc_306_1312_ef_seamless_move_target_multiple_pdns_ignore_delete_bearer_request_of_one_pdn_sgw_reject_mbr.L14b
p629
aVtc_306_1400_ef_seamless_move_target_sgs_release_request.L14b
p630
aVtc_295_017_Intra_S1_HO__S1_Setup_from_source_and_target_eNB_while_wf_handover_notify.L14b
p631
aVtc_295_092_Intra_S1_HO__Path_Switch_Request_with_new_TA_while_waiting_for_TAU_Complete.L14b
p632
aVtc_326_314_Service_Request_with_unknown_STMSI_location_update_timeout.L14b
p633
aVtc_266_026_DownlinkDataFailureInd_repeat_paging_timer_small_local_restart.L14b
p634
aVtc_214_210_mo_sms_idle_sgs_link_broken.L14b
p635
aVtc_214_602_combined_attach_MSC_selection_default_MSC_pool_feature_off.L14b
p636
aVtc_214_804_mo_sms_active_nas_non_delivery_s1_intra_system_handover_triggered_HO_cancel.L14b
p637
aVtc_214_1019_la_selection_mf_one_la_with_node_level_la_selection_profile.L14b
p638
aVtc_214_1080_la_selection_af_oldmscpreferred_combined_intra_tau_la_with_old_msc_not_available.L14b
p639
aVtc_237_420_mme_af_eps_irat_ho_source__cs_paging_wf_forward_relocation_response.L14b
p640
aVtc_263_522_ReAttach_Flow_mt_cs_call_while_waiting_for_attach_complete.L14b
p641
aVtc_326_246_Intra_TAU_Recovery_fail_Modify_Bearer_fail_active_flag_SGW_Change.LW
p642
aVtc_51_045_reloc_wf_update_location_resp_interrupted_by_service_request_old_rai.LW
p643
aVtc_295_017_Intra_S1_HO__S1_Setup_from_source_and_target_eNB_while_wf_handover_notify.LW
p644
aVtc_306_135_ef_seamless_move_source_receive_s1_setup_wf_frcn.LW
p645
aVtc_306_130_ef_seamless_move_source_receive_s1_setup_wf_frr_ecm_idle.LW
p646
aVtc_306_1214_ef_seamless_move_target_receive_s1_setup_wf_icsr_and_lur.LW
p647
aVtc_238_201_mme_eps_irat_Gn_ho_target__three_pdn_one_MBR_with_lbi.LW
p648
aVtc_38_65_israu_old_sgsn_interfering_after_acknowledge.LW
p649
aVtc_318_301_sgw_restart_relocation_triggered_by_sr_closed_csg.LW
p650
aVtc_217_500_rau_to_sgsn_guti_attach_when_wf_timeout_fail_authentication.LW
p651
aVtc_302_010_cdma_tunneling_uplink_message_a21_ack_delayed.LW
p652
aVtc_304_266_tau_from_gnsgsn_2g_control_mode_wf_delete_all_bearers_response_exception_case_reject_congestion_subscriber_cancelled.LW
p653
aVtc_304_215_inter_tau_same_ie_control_mode_threshold_exceeded_reject_wf_icsr.LW
p654
aVtc_346_493_Small_Local_Restart__Terminate_when_UE_S1_release.LW
p655
aVtc_346_576_AF__HO_X2_2PDN_CSR_failure_for_1PDN_terminate_sx.LW
p656
aVtc_327_493_recovery_service_request__enb_configuration_update_while_waiting_for_Update_Location_Answer.LW
p657
aVtc_260_273_receive_m3_reset_while_wf_setup_iteration_two_session.LW
p658
aVtc_31_057_standalone_isd_when_active.W14b
p659
aVtc_73_07_itc_encrypted_gtpu_s4_payload_w.WG14a
p660
aVtc_357_019_gsm_iterator_no_action.LWG
p661
aVtc_179_318_Ccheck_TraceCollectionIpv6server.LWG
p662
aVtc_327_015_recovery_intra_TAU__initial_Attach_Request_while_waiting_for_Update_Location_Response.LWG
p663
aVtc_327_723_recovery_service_request__initial_detach_req_with_switch_off_while_wf_ue_context_modification_response.LWG
p664
aVtc_304_266_tau_from_gnsgsn_2g_control_mode_wf_delete_all_bearers_response_exception_case_reject_congestion_subscriber_cancelled.LWG
p665
aVtc_197_851_sgw_prioritized_gw_selection_path_failure_inter_tau.LWG
p666
aVtc_178_938_sctp_setprofile.LWG
p667
aVtc_363_011_cli_get_ra.LWG
p668
aVtc_103_1155_sx_retransmit__Small_restart_terminate_request.LWG
p669
aVtc_284_351_pdn_connectivity_pb_activate_1_dedicated_bearer_interrupted_by_path_switch_request.LWG
p670
aVtc_73_07_itc_encrypted_gtpu_s4_payload_w.LWG
p671
aVtc_295_017_Intra_S1_HO__S1_Setup_from_source_and_target_eNB_while_wf_handover_notify.LWG
p672
aVtc_306_132_ef_seamless_move_source_receive_s1_setup_wf_target_guti_reallocation_complete.LWG
p673
aVtc_306_133_ef_seamless_move_source_receive_s1_setup_wf_source_guti_reallocation_complete.LWG
p674
aVtc_306_1213_ef_seamless_move_target_receive_s1_setup_wf_icsr_and_ulr.LWG
p675
aVtc_273_727_tau_intra_bearer_status_mismatch_hybrid_csg.LW
p676
aVtc_275_768_tau_inter_new_active_flag_icsr_failure_hybrid_csg.LW
p677
aVtc_260_219_receive_2_m3_reset_req_while_wf_m3_start_resp.LW
p678
aVtc_260_273_receive_m3_reset_while_wf_setup_iteration_two_session.LW
p679
aVtc_194_1672_hss_reset_service_request_emergency_type_a_closed_csg.LW
p680
aVtc_44_004_small_restart__sctp_fe_restart.LW
p681
aVtc_306_130_ef_seamless_move_source_receive_s1_setup_wf_frr_ecm_idle.LW
p682
aVtc_306_1213_ef_seamless_move_target_receive_s1_setup_wf_icsr_and_ulr.LW
p683
aVtc_306_1214_ef_seamless_move_target_receive_s1_setup_wf_icsr_and_lur.LW
p684
aVtc_295_017_Intra_S1_HO__S1_Setup_from_source_and_target_eNB_while_wf_handover_notify.LW
p685
aVtc_295_123_tau_after_ho_tz_change_emm_information_meanwhile_handover_required_HO_failure.LW
p686
aVtc_203_220_TR_SGSN00022533.LW
p687
aVtc_304_266_tau_from_gnsgsn_2g_control_mode_wf_delete_all_bearers_response_exception_case_reject_congestion_subscriber_cancelled.LW
p688
aVtc_238_201_mme_eps_irat_Gn_ho_target__three_pdn_one_MBR_with_lbi.L14b
p689
aVtc_273_727_tau_intra_bearer_status_mismatch_hybrid_csg.L14b
p690
aVtc_274_274_Intra_and_pTAU__Handover_Required_with_old_TA_MSC_change_while_waiting_for_Location_Update_response_TAU_IMSI_Detach.L14b
p691
aVtc_217_500_rau_to_sgsn_guti_attach_when_wf_timeout_fail_authentication.L14b
p692
aVtc_304_121_initial_ue_intra_tau_control_mode_threshold_exceeded_usc_detach_wf_release_request_response.L14b
p693
aVtc_304_266_tau_from_gnsgsn_2g_control_mode_wf_delete_all_bearers_response_exception_case_reject_congestion_subscriber_cancelled.L14b
p694
aVtc_346_576_AF__HO_X2_2PDN_CSR_failure_for_1PDN_terminate_sx.L14b
p695
aVtc_306_132_ef_seamless_move_source_receive_s1_setup_wf_target_guti_reallocation_complete.L14b
p696
aVtc_306_1214_ef_seamless_move_target_receive_s1_setup_wf_icsr_and_lur.L14b
p697
aVtc_275_768_tau_inter_new_active_flag_icsr_failure_hybrid_csg.L14b
p698
aVtc_194_1672_hss_reset_service_request_emergency_type_a_closed_csg.L14b
p699
aVtc_73_07_itc_encrypted_gtpu_s4_payload_w.WG14a
p700
aVtc_324_388_ef_mo_sms_wf_ula.W14b
p701
aVtc_348_050_large_restart.W14b
p702
aVtc_275_768_tau_inter_new_active_flag_icsr_failure_hybrid_csg.LWG
p703
aVtc_304_004_attach_success__only_measurement_mode_threshold_reached.LWG
p704
aVtc_304_266_tau_from_gnsgsn_2g_control_mode_wf_delete_all_bearers_response_exception_case_reject_congestion_subscriber_cancelled.LWG
p705
aVtc_217_076_rau_to_sgsn_downlink_data_notification_when_wf_20s_timeout.LWG
p706
aVtc_217_500_rau_to_sgsn_guti_attach_when_wf_timeout_fail_authentication.LWG
p707
aVtc_103_602_georedundant_realm_routing.LWG
p708
aVtc_310_335_ef_dbr_non_voice_bearer_wf_forward_relocation_complete_and_forward_relocation_complete_ack.LWG
p709
aVtc_179_318_Ccheck_TraceCollectionIpv6server.LWG
p710
aVtc_238_201_mme_eps_irat_Gn_ho_target__three_pdn_one_MBR_with_lbi.LWG
p711
aVtc_273_727_tau_intra_bearer_status_mismatch_hybrid_csg.LWG
p712
aVtc_73_41_gtpu_sgsn_dont_send_gpu_echo_request_w.LWG
p713
aVtc_73_07_itc_encrypted_gtpu_s4_payload_w.LWG
p714
aVtc_202_522_seamless_move_target_sgw_unavailable_service_request_partially_failure.LWG
p715
aVtc_202_626_mf_seamless_move_by_mme_ue_ecm_idle_closed_csg.LWG
p716
aVtc_260_036_mbms_session_start_mf_second_session_with_same_tmgi_no_flow_id.LWG
p717
aVtc_260_273_receive_m3_reset_while_wf_setup_iteration_two_session.LWG
p718
aVtc_194_1672_hss_reset_service_request_emergency_type_a_closed_csg.LWG
p719
aVtc_178_690_action_sctp_sys_assoc_move_command.LWG
p720
aVtc_288_208_pgw_init_bearer_mod_concurrent_request_different_pdn_connection.LWG
p721
aVtc_357_023_gsm_iterator_move_ra_from_one_area_to_another.LWG
p722
aVtc_306_135_ef_seamless_move_source_receive_s1_setup_wf_frcn.LWG
p723
aVtc_306_130_ef_seamless_move_source_receive_s1_setup_wf_frr_ecm_idle.LWG
p724
aVtc_306_1213_ef_seamless_move_target_receive_s1_setup_wf_icsr_and_ulr.LWG
p725
aVtc_306_1300_ef_seamless_move_target_receive_uplink_nas_transport_bf_lur.LWG
p726
aVtc_273_727_tau_intra_bearer_status_mismatch_hybrid_csg.L15acp01
p727
aVtc_194_810_isd_private_extension_of_lzone_from_nolzone_to_invalid_followed_by_pdn_connectivity_request.L15acp01
p728
aVtc_194_1672_hss_reset_service_request_emergency_type_a_closed_csg.L15acp01
p729
aVtc_295_017_Intra_S1_HO__S1_Setup_from_source_and_target_eNB_while_wf_handover_notify.L15acp01
p730
aVtc_295_124_tau_after_ho_tz_change_emm_information_meanwhile_handover_required_HO_success.L15acp01
p731
aVtc_103_903_primary_or_secondary_realm_routing_own_realm.L15acp01
p732
aVtc_289_108_Modify_Bearer__Delete_Bearer_Request_wf_icsr_aborted_by_handover_required.L15acp01
p733
aVtc_275_768_tau_inter_new_active_flag_icsr_failure_hybrid_csg.L15acp01
p734
aVtc_306_132_ef_seamless_move_source_receive_s1_setup_wf_target_guti_reallocation_complete.L15acp01
p735
aVtc_306_135_ef_seamless_move_source_receive_s1_setup_wf_frcn.L15acp01
p736
aVtc_306_1213_ef_seamless_move_target_receive_s1_setup_wf_icsr_and_ulr.L15acp01
p737
aVtc_306_1215_ef_seamless_move_target_receive_s1_setup_wf_modify_bearer_response.L15acp01
p738
aVtc_260_273_receive_m3_reset_while_wf_setup_iteration_two_session.L15acp01
p739
aVtc_304_266_tau_from_gnsgsn_2g_control_mode_wf_delete_all_bearers_response_exception_case_reject_congestion_subscriber_cancelled.L15acp01
p740
aVtc_327_317_recovery_service_request__initial_Attach_Request_while_waiting_for_Sub_Procedure__Initial_Context_Setup_Response.L15acp01
p741
aVtc_327_308_recovery_service_request__uplink_Attach_Request_while_waiting_for_Sub_Procedure__Guti_Reallocation_Complete.L15acp01
p742
aVtc_273_727_tau_intra_bearer_status_mismatch_hybrid_csg.LWG
p743
aVtc_209_45_sgsn_init_pdp_modification_rab_released_state.LWG
p744
aVtc_304_266_tau_from_gnsgsn_2g_control_mode_wf_delete_all_bearers_response_exception_case_reject_congestion_subscriber_cancelled.LWG
p745
aVtc_208_107_dual_stack_not_supported_ipv6_ipv4v6.LWG
p746
aVtc_219_200_gn_handover_w_to_l_with_cl_two_primary_pdp_contexts_all_successful.LWG
p747
aVtc_260_273_receive_m3_reset_while_wf_setup_iteration_two_session.LWG
p748
aVtc_327_037_recovery_intra_TAU_active_off_sgw_unchanged__RAR_wf_CSR_due_to_S11_linkdown.LWG
p749
aVtc_39_601_mas_unsucc_fwd_reloc_resp_mandatory_ie_missing_stop_source.LWG
p750
aVtc_141_028_eth_v6_traffic_conf_deconf_vlan.LWG
p751
aVtc_73_21_itc_gtpu_s4_sgsn_send_echo_request_w.LWG
p752
aVtc_73_41_gtpu_sgsn_dont_send_gpu_echo_request_w.LWG
p753
aVtc_73_07_itc_encrypted_gtpu_s4_payload_w.LWG
p754
aVtc_25_22_isd_ms99_MBR_0.LWG
p755
aVtc_275_768_tau_inter_new_active_flag_icsr_failure_hybrid_csg.LWG
p756
aVtc_665_56_repeated_cm_restart.LWG
p757
aVtc_665_55_repeated_cm_restart.LWG
p758
aVtc_217_500_rau_to_sgsn_guti_attach_when_wf_timeout_fail_authentication.LWG
p759
aVtc_306_135_ef_seamless_move_source_receive_s1_setup_wf_frcn.LWG
p760
aVtc_306_130_ef_seamless_move_source_receive_s1_setup_wf_frr_ecm_idle.LWG
p761
aVtc_306_133_ef_seamless_move_source_receive_s1_setup_wf_source_guti_reallocation_complete.LWG
p762
aVtc_306_1214_ef_seamless_move_target_receive_s1_setup_wf_icsr_and_lur.LWG
p763
aVtc_306_1213_ef_seamless_move_target_receive_s1_setup_wf_icsr_and_ulr.LWG
p764
aVtc_259_102_ef_tads_s4_interfere_inter_rau_old_g.LWG
p765
aVtc_179_318_Ccheck_TraceCollectionIpv6server.LWG
p766
aVtc_284_350_pdn_connectivity_interrupted_by_path_switch_request.LWG
p767
aVtc_194_1672_hss_reset_service_request_emergency_type_a_closed_csg.LWG
p768
aVtc_241_429_intra_rau_new_g_to_w_sgw_unchange_abored_buffer_ubr_ignored.LWG
p769
aVtc_334_286_path_failure_service_req_connected_3gdt_af_create_session_no_resp.W15acp01
p770
aVtc_348_050_large_restart.W15acp01
p771
aVtc_260_273_receive_m3_reset_while_wf_setup_iteration_two_session.LW14b
p772
aVtc_295_136_mo_call_during_s1_ho_tau_request_when_wf_handover_notify.LW14b
p773
aVtc_243_330_tau_from_sgsn_s3_emergency_type_a_no_restriction.LW14b
p774
aVtc_44_004_small_restart__sctp_fe_restart.LW14b
p775
aVtc_194_1672_hss_reset_service_request_emergency_type_a_closed_csg.LW14b
p776
aVtc_275_768_tau_inter_new_active_flag_icsr_failure_hybrid_csg.LW14b
p777
aVtc_298_542_sgsn_init_pdn_deact_ef_cancellocation_subscriptionWithdraw_wf_deact_accept.LW14b
p778
aVtc_289_010_Modify_Bearer__Delete_Bearer_Req_HO_non_3gpp_while_wf_UE_cxt_modification_resp.LW14b
p779
aVtc_304_236_isc_active_flag_on_control_mode_threshold_exceeded_ignore_replace_s1_wf_initial_context_setup_response.LW14b
p780
aVtc_304_266_tau_from_gnsgsn_2g_control_mode_wf_delete_all_bearers_response_exception_case_reject_congestion_subscriber_cancelled.LW14b
p781
aVtc_306_135_ef_seamless_move_source_receive_s1_setup_wf_frcn.LW14b
p782
aVtc_306_130_ef_seamless_move_source_receive_s1_setup_wf_frr_ecm_idle.LW14b
p783
aVtc_306_133_ef_seamless_move_source_receive_s1_setup_wf_source_guti_reallocation_complete.LW14b
p784
aVtc_306_1214_ef_seamless_move_target_receive_s1_setup_wf_icsr_and_lur.LW14b
p785
aVtc_26_104_activate_pri_2nd_QosDowngrade_ARP_GGSN_not_support.LW14b
p786
aVtc_273_244_tau_intra__sgw_relocation_mult_pdn_connections_all_ok.LW14b
p787
aVtc_273_727_tau_intra_bearer_status_mismatch_hybrid_csg.LW14b
p788
aVtc_313_238_inter_new_srns_reloc_s16_with_sgw_change_iu_release_request_none_user_inactivity_received_wf_forward_reloc_complete_ack.LW14b
p789
aVtc_346_578_AF__HO_X2_2PDN_MBR_failure_for_1PDN_terminate_sx.LW14b
p790
aVtc_73_07_itc_encrypted_gtpu_s4_payload_w.WG14b
p791
aVtc_208_54_validate_imsi_and_msisdn_in_deactivation_event_generated_by_cancel_location.LWG
p792
aVtc_05_006_normal_gprs_imsi_attach_detach_imsi_attach_detach.LWG
p793
aVtc_25_47_activate_ggsn_change_to_faulty_arp.LWG
p794
aVtc_260_073_two_mbms_session_started_mce_setup_increase_sa_without_overlapping.LWG
p795
aVtc_260_273_receive_m3_reset_while_wf_setup_iteration_two_session.LWG
p796
aVtc_306_133_ef_seamless_move_source_receive_s1_setup_wf_source_guti_reallocation_complete.LWG
p797
aVtc_73_07_itc_encrypted_gtpu_s4_payload_w.LWG
p798
aVtc_319_048_rau_ef_table_not_matched_from_s4_sgsn_to_s4_sgsn_stop_by_detach.LWG
p799
aVtc_326_213_Intra_TAU_Recovery_multiple_retrieval_responses_with_different_revision_number.LWG
p800
aVtc_304_016_attach_reject__remove_config_during_control_period.LWG
p801
aVtc_304_266_tau_from_gnsgsn_2g_control_mode_wf_delete_all_bearers_response_exception_case_reject_congestion_subscriber_cancelled.LWG
p802
aVtc_284_351_pdn_connectivity_pb_activate_1_dedicated_bearer_interrupted_by_path_switch_request.LWG
p803
aVtc_275_106_Inter_TAU_New_MME_Emergency__Imei_Check_Answer_Blacklisted_before_TAU_Accept_ire_true.LWG
p804
aVtc_141_031_eth_v4_v6_traffic_over_sctp.LWG
p805
aVtc_218_531_tau_from_sgsn_gn_active_flag_true_gw_failure_restoration_lte_on_no_modify_bearer_response_two_pdn.LWG
p806
aVtc_177_500_test_list_config_nondefault.LWG
p807
aVtc_110_005_inbound_outbound_pf_rule_cli_ip.LWG
p808
aVtc_217_500_rau_to_sgsn_guti_attach_when_wf_timeout_fail_authentication.LWG
p809
aVtc_178_690_action_sctp_sys_assoc_move_command.LWG
p810
aVtc_318_201_idle_deactivate_dedicated_bearers_one_by_one_reactivate_req.LWG
p811
aVtc_318_264_sgw_restart_af_relocation_triggered_by_DDN_initial_context_setup_failure.LWG
p812
aVtc_357_019_gsm_iterator_no_action.LWG
p813
aVtc_238_201_mme_eps_irat_Gn_ho_target__three_pdn_one_MBR_with_lbi.LWG
p814
aVtc_578_52_check_uetracer_parser.LWG
p815
aVtc_340_52_validation_move_w_s4_af_forward_relocation_response_service_not_supported.LWG
p816
aVtc_50_084_israu_new_sgsn_one_interactive_pdp_context_84mbit.LWG
p817
aVtc_666_02_reboot_ss7_board.LWG
p818
aVtc_364_202_af_trigger_hits_when_max_ue_trace_sessions_reached.LWG
p819
aVtc_342_910_six_x3_address.W15acp01
p820
aVtc_12_157_service_request_identity_check_no_response.W15acp01
p821
aVtc_11_150_rab_reestablish_on_service_request_data_multiple_contexts.W15acp01
p822
aVtc_39_626_mas_no_paging_resp_resend_once_target.W15acp01
p823
aVtc_327_022_recovery_intra_TAU__initial_Detach_Request_while_waiting_for_Ue_Backup_Response.L15acp01
p824
aVtc_327_532_recovery_service_request__Imsi_Page_while_waiting_for_Location_Update_Answer.L15acp01
p825
aVtc_238_201_mme_eps_irat_Gn_ho_target__three_pdn_one_MBR_with_lbi.L15acp01
p826
aVtc_304_266_tau_from_gnsgsn_2g_control_mode_wf_delete_all_bearers_response_exception_case_reject_congestion_subscriber_cancelled.L15acp01
p827
aVtc_43_010_s1ap_reset_resource.L15acp01
p828
aVtc_44_750_s1_with_two_sctp_endpoints.L15acp01
p829
aVtc_220_587_csfb_to_1xrtt_in_extended_service_request_during_attach_waiting_for_modify_bearer_response.L15acp01
p830
aVtc_318_201_idle_deactivate_dedicated_bearers_one_by_one_reactivate_req.L15acp01
p831
aVtc_103_840_error_code_UNRECOGNIZED_CLASS_in_answer_Result_Code.L15acp01
p832
aVtc_316_241_HSS_Init_QoS_Modification_APNAMBR_RFSP_and_ARP_Changed__Backup_UE.L15acp01
p833
aVtc_347_040_Inter_HO_Target_from_gn__Location_Report_while_waiting_for_Forward_Relocation_Complete_Notification.L15acp01
p834
aVtc_202_620_mf_seamless_move_by_mme_ue_ecm_idle_hybrid_csg.LW14b
p835
aVtc_217_500_rau_to_sgsn_guti_attach_when_wf_timeout_fail_authentication.LW14b
p836
aVtc_209_57_move_non_intercepted_sim_to_intercepted_ms.LW14b
p837
aVtc_26_081_israu_qos_neg_0kbps.LW14b
p838
aVtc_256_069_mme_eps_srvcc_ho_source_to_geran_cs_only_mf_without_DTM_after_combined_attach_then_combined_tau.LW14b
p839
aVtc_318_201_idle_deactivate_dedicated_bearers_one_by_one_reactivate_req.LW14b
p840
aVtc_304_123_uplink_nas_intra_tau_control_mode_threshold_exceeded_usc_detach_wf_icsr.LW14b
p841
aVtc_304_266_tau_from_gnsgsn_2g_control_mode_wf_delete_all_bearers_response_exception_case_reject_congestion_subscriber_cancelled.LW14b
p842
aVtc_306_130_ef_seamless_move_source_receive_s1_setup_wf_frr_ecm_idle.LW14b
p843
aVtc_306_133_ef_seamless_move_source_receive_s1_setup_wf_source_guti_reallocation_complete.LW14b
p844
aVtc_306_1051_ef_seamless_move_target_receive_cancel_location_withdraw_wf_lur_and_service_request_with_emergency_pdn.LW14b
p845
aVtc_306_1214_ef_seamless_move_target_receive_s1_setup_wf_icsr_and_lur.LW14b
p846
aVtc_306_1215_ef_seamless_move_target_receive_s1_setup_wf_modify_bearer_response.LW14b
p847
aVtc_327_019_recovery_intra_TAU__uplink_Detach_Request_while_waiting_for_Create_Session_Response.LW14b
p848
aVtc_327_317_recovery_service_request__initial_Attach_Request_while_waiting_for_Sub_Procedure__Initial_Context_Setup_Response.LW14b
p849
aVtc_275_006_tau_inter_new_integrity_algorithm_mismatch.LW14b
p850
aVtc_295_017_Intra_S1_HO__S1_Setup_from_source_and_target_eNB_while_wf_handover_notify.LW14b
p851
aVtc_166_280_israu_new_vplmn_3gdt_prefixed_apn.WG14b
p852
aVtc_73_07_itc_encrypted_gtpu_s4_payload_w.WG14b
p853
aVtc_73_07_itc_encrypted_gtpu_s4_payload_w.WG14b
p854
aVtc_202_21_ecm_idle_no_release_access_bearers_response.L15acp01
p855
aVtc_306_132_ef_seamless_move_source_receive_s1_setup_wf_target_guti_reallocation_complete.L15acp01
p856
aVtc_306_135_ef_seamless_move_source_receive_s1_setup_wf_frcn.L15acp01
p857
aVtc_306_130_ef_seamless_move_source_receive_s1_setup_wf_frr_ecm_idle.L15acp01
p858
aVtc_44_750_s1_with_two_sctp_endpoints.L15acp01
p859
aVtc_217_500_rau_to_sgsn_guti_attach_when_wf_timeout_fail_authentication.L15acp01
p860
aVtc_204_005_mme_eps_handover_target_inter__followed_by_intra.L15acp01
p861
aVtc_43_053_eNB_configuration_update__attach_finish_recv_eNB_conf_update_then_paging_successed.L15acp01
p862
aVtc_310_310_S3_new_SGW_emergency_attach_sv_pool_on_msc_one_offloading_one_available.L15acp01
p863
aVtc_295_017_Intra_S1_HO__S1_Setup_from_source_and_target_eNB_while_wf_handover_notify.L15acp01
p864
aVtc_318_201_idle_deactivate_dedicated_bearers_one_by_one_reactivate_req.L15acp01
p865
aVtc_318_312_sgw_restart_relocation_triggered_by_intra_tau_emergency_type_b_hybrid_csg.L15acp01
p866
aVtc_304_236_isc_active_flag_on_control_mode_threshold_exceeded_ignore_replace_s1_wf_initial_context_setup_response.L15acp01
p867
aVtc_304_266_tau_from_gnsgsn_2g_control_mode_wf_delete_all_bearers_response_exception_case_reject_congestion_subscriber_cancelled.L15acp01
p868
aVtc_316_270_RAU_To_Gn_SGSN_With_Dedicated_Bearers_Backup_Option_Change__Delete_UE_Backup.L15acp01
p869
aVtc_236_049_s4_3gdt_rnc_reset_during_waiting_for_modify_beaer_rsp_in_service_request_procedure.W15acp01
p870
aVtc_322_176_smooth_move_ef_cli_gr_delete_subscriber_data_wf_iu_releasing.W15acp01
p871
aVtc_342_033_x2_connection_heartbeat.W15acp01
p872
aVtc_298_301_EF_SIBD_S4_Activate_From_MS_TI_Flag.W15acp01
p873
aVtc_369_107_HSS_based_PCSCF_restoration_ecm_connected_erab_release_command_no_response.LW14b
p874
aVtc_295_017_Intra_S1_HO__S1_Setup_from_source_and_target_eNB_while_wf_handover_notify.LW14b
p875
aVtc_268_004_release_request_no_gbr_bearers_not_user_inactivity.LW14b
p876
aVtc_266_025_DownlinkDataFailureInd_repeat_paging_timer_cbr_from_sgw.LW14b
p877
aVtc_217_500_rau_to_sgsn_guti_attach_when_wf_timeout_fail_authentication.LW14b
p878
aVtc_26_170_activate_primary_pdp_with_higher_pec_pev_than_policymap_s4.LW14b
p879
aVtc_326_835_Intra_TAU_Recovery_after_Node_Restart_SGW_Unchange_active_flag_on_no_modify_bearer_response_two_pdn.LW14b
p880
aVtc_262_600_combined_attach_cs_service_notification_when_emm_attach_state.LW14b
p881
aVtc_304_266_tau_from_gnsgsn_2g_control_mode_wf_delete_all_bearers_response_exception_case_reject_congestion_subscriber_cancelled.LW14b
p882
aVtc_85_24_cancel_location_during_location_service_paging.LW14b
p883
aVtc_306_132_ef_seamless_move_source_receive_s1_setup_wf_target_guti_reallocation_complete.LW14b
p884
aVtc_306_130_ef_seamless_move_source_receive_s1_setup_wf_frr_ecm_idle.LW14b
p885
aVtc_306_133_ef_seamless_move_source_receive_s1_setup_wf_source_guti_reallocation_complete.LW14b
p886
aVtc_306_1214_ef_seamless_move_target_receive_s1_setup_wf_icsr_and_lur.LW14b
p887
aVtc_306_1213_ef_seamless_move_target_receive_s1_setup_wf_icsr_and_ulr.LW14b
p888
aVtc_256_252_srvcc_ho_source_cs_only_emergency_mf_after_emergency_attach_unauthenticated_imsi_slr_handover.LW14b
p889
aVtc_318_201_idle_deactivate_dedicated_bearers_one_by_one_reactivate_req.LW14b
p890
aVtc_103_850_error_code_DIAMETER_REALM_NOT_SERVED.LWG
p891
aVtc_103_1100_resending_AIR_dpl_changed.LWG
p892
aVtc_295_017_Intra_S1_HO__S1_Setup_from_source_and_target_eNB_while_wf_handover_notify.LWG
p893
aVtc_217_500_rau_to_sgsn_guti_attach_when_wf_timeout_fail_authentication.LWG
p894
aVtc_305_040_oms_mmi.LWG
p895
aVtc_260_273_receive_m3_reset_while_wf_setup_iteration_two_session.LWG
p896
aVtc_238_201_mme_eps_irat_Gn_ho_target__three_pdn_one_MBR_with_lbi.LWG
p897
aVtc_369_108_HSS_based_PCSCF_restoration_ecm_connected_isc_tau_from_w_to_l.LWG
p898
aVtc_177_500_test_list_config_nondefault.LWG
p899
aVtc_357_019_gsm_iterator_no_action.LWG
p900
aVtc_304_266_tau_from_gnsgsn_2g_control_mode_wf_delete_all_bearers_response_exception_case_reject_congestion_subscriber_cancelled.LWG
p901
aVtc_44_070_sctp_large_message.LWG
p902
aVtc_306_135_ef_seamless_move_source_receive_s1_setup_wf_frcn.LWG
p903
aVtc_306_132_ef_seamless_move_source_receive_s1_setup_wf_target_guti_reallocation_complete.LWG
p904
aVtc_306_130_ef_seamless_move_source_receive_s1_setup_wf_frr_ecm_idle.LWG
p905
aVtc_306_133_ef_seamless_move_source_receive_s1_setup_wf_source_guti_reallocation_complete.LWG
p906
aVtc_306_1213_ef_seamless_move_target_receive_s1_setup_wf_icsr_and_ulr.LWG
p907
aVtc_306_1215_ef_seamless_move_target_receive_s1_setup_wf_modify_bearer_response.LWG
p908
aVtc_665_1_dp_reboot_init_cm_restart_with_traffic.LWG
p909
aVtc_318_201_idle_deactivate_dedicated_bearers_one_by_one_reactivate_req.LWG
p910
aVtc_141_022_eth_v6_modify_interface.LWG
p911
aVtc_73_07_itc_encrypted_gtpu_s4_payload_w.LWG
p912
aVtc_222_103_cis_mit_icmp_v6_error_service_ipv6addr_gtpv2.LWG
p913
aVtc_44_750_s1_with_two_sctp_endpoints.L15acp01
p914
aVtc_44_860_mme_assoc_reestablish__sctp_fe_restart_s1_mme.L15acp01
p915
aVtc_295_017_Intra_S1_HO__S1_Setup_from_source_and_target_eNB_while_wf_handover_notify.L15acp01
p916
aVtc_346_494_Small_Local_Restart__Terminate_when_UE1_PDN_Connectivity_waiting_for_CCAI_UE2_Location_Report_waiting_for_CCAU.L15acp01
p917
aVtc_327_532_recovery_service_request__Imsi_Page_while_waiting_for_Location_Update_Answer.L15acp01
p918
aVtc_210_026_target_info_query_id_format_error.L15acp01
p919
aVtc_306_135_ef_seamless_move_source_receive_s1_setup_wf_frcn.L15acp01
p920
aVtc_306_132_ef_seamless_move_source_receive_s1_setup_wf_target_guti_reallocation_complete.L15acp01
p921
aVtc_306_1054_ef_seamless_move_target_receive_cancel_location_withdraw_wf_ulr_and_mbr_with_emergency_pdn.L15acp01
p922
aVtc_306_1213_ef_seamless_move_target_receive_s1_setup_wf_icsr_and_ulr.L15acp01
p923
aVtc_306_1215_ef_seamless_move_target_receive_s1_setup_wf_modify_bearer_response.L15acp01
p924
aVtc_304_266_tau_from_gnsgsn_2g_control_mode_wf_delete_all_bearers_response_exception_case_reject_congestion_subscriber_cancelled.L15acp01
p925
aVtc_318_201_idle_deactivate_dedicated_bearers_one_by_one_reactivate_req.L15acp01
p926
aVtc_73_07_itc_encrypted_gtpu_s4_payload_w.WG14b
p927
aVtc_29_006_activate_w_rau_g_when_data_not_confirmed.WG14b
p928
aVtc_81_052_israu_ggsn_downgrades_to_streaming_no_lic.W15acp01
p929
aVtc_241_1572_intra_rau_with_bearer_sgw_unchange_modify_transaction_failed.W15acp01
p930
aVtc_313_224_inter_new_srns_reloc_s16_with_sgw_change_rau_request_initial_ue_received_wf_forward_reloc_complete_ack.LW14b
p931
aVtc_304_236_isc_active_flag_on_control_mode_threshold_exceeded_ignore_replace_s1_wf_initial_context_setup_response.LW14b
p932
aVtc_304_266_tau_from_gnsgsn_2g_control_mode_wf_delete_all_bearers_response_exception_case_reject_congestion_subscriber_cancelled.LW14b
p933
aVtc_318_201_idle_deactivate_dedicated_bearers_one_by_one_reactivate_req.LW14b
p934
aVtc_326_664_tau_intra_periodic_SGW_unavailable_after_MME_large_restart__create_session_partition_fail.LW14b
p935
aVtc_326_681_tau_intra_SGW_unavailable_active_flag_off_after_MME_large_restart__two_pdn_one_timeout.LW14b
p936
aVtc_306_132_ef_seamless_move_source_receive_s1_setup_wf_target_guti_reallocation_complete.LW14b
p937
aVtc_306_130_ef_seamless_move_source_receive_s1_setup_wf_frr_ecm_idle.LW14b
p938
aVtc_306_133_ef_seamless_move_source_receive_s1_setup_wf_source_guti_reallocation_complete.LW14b
p939
aVtc_306_1214_ef_seamless_move_target_receive_s1_setup_wf_icsr_and_lur.LW14b
p940
aVtc_306_1215_ef_seamless_move_target_receive_s1_setup_wf_modify_bearer_response.LW14b
p941
aVtc_306_1213_ef_seamless_move_target_receive_s1_setup_wf_icsr_and_ulr.LW14b
p942
aVtc_225_300_mt_call_active_mode.LW14b
p943
aVtc_73_07_itc_encrypted_gtpu_s4_payload_w.LWG
p944
aVtc_238_201_mme_eps_irat_Gn_ho_target__three_pdn_one_MBR_with_lbi.LWG
p945
aVtc_107_101_eth_vlan_cli.LWG
p946
aVtc_295_017_Intra_S1_HO__S1_Setup_from_source_and_target_eNB_while_wf_handover_notify.LWG
p947
aVtc_208_150_dl_payload_imsi.LWG
p948
aVtc_318_201_idle_deactivate_dedicated_bearers_one_by_one_reactivate_req.LWG
p949
aVtc_141_025_eth_v4_v6_conf_vlan.LWG
p950
aVtc_241_149_intra_rau_wait_for_delete_session_resp_interfer_by_normal_detach.LWG
p951
aVtc_304_266_tau_from_gnsgsn_2g_control_mode_wf_delete_all_bearers_response_exception_case_reject_congestion_subscriber_cancelled.LWG
p952
aVtc_306_132_ef_seamless_move_source_receive_s1_setup_wf_target_guti_reallocation_complete.LWG
p953
aVtc_306_133_ef_seamless_move_source_receive_s1_setup_wf_source_guti_reallocation_complete.LWG
p954
aVtc_306_1214_ef_seamless_move_target_receive_s1_setup_wf_icsr_and_lur.LWG
p955
aVtc_177_500_test_list_config_nondefault.LWG
p956
aVtc_217_500_rau_to_sgsn_guti_attach_when_wf_timeout_fail_authentication.LWG
p957
aVtc_289_060_Modify_bearer__UE_context_modification_request_meanwhile_handover_required_HO_all_bearers_fail.LWG
p958
aVtc_209_170_df3_alarm_udp.LWG
p959
aVtc_26_157_israu_new_deactivate_before_ggsn_contacted_with_upgradeAllowed.LWG
p960
aVtc_357_023_gsm_iterator_move_ra_from_one_area_to_another.LWG
p961
aVtc_357_019_gsm_iterator_no_action.LWG
p962
aVtc_202_311_mf_seamless_move_by_mme_ue_ecm_idle_service_req_int_not_ok.LWG
p963
aVtc_103_701_MME_restarts.LWG
p964
aVtc_313_204_inter_new_srns_reloc_s16_with_sgw_change_attach_request_initial_ue_received_wf_forward_reloc_complete_ack.LWG
p965
aVtc_210_046_mme_initiated_detach_with_reattach_required.LWG
p966
aVtc_73_07_itc_encrypted_gtpu_s4_payload_w.WG14b
p967
aVtc_318_201_idle_deactivate_dedicated_bearers_one_by_one_reactivate_req.LW14b
p968
aVtc_209_211_s4_no_sm_events_activate_failed.LW14b
p969
aVtc_326_245_Intra_TAU_Recovery_TAU_Complete_timeout.LW14b
p970
aVtc_304_266_tau_from_gnsgsn_2g_control_mode_wf_delete_all_bearers_response_exception_case_reject_congestion_subscriber_cancelled.LW14b
p971
aVtc_327_022_recovery_intra_TAU__initial_Detach_Request_while_waiting_for_Ue_Backup_Response.LW14b
p972
aVtc_28_039_mo_sms_fallback_v1_ok_previous_higher.LW14b
p973
aVtc_298_829_NRSPCA_S4_nsapi_collision_iu_release_request_while_waiting_for_delete_bearer_request.LW14b
p974
aVtc_280_145_activate_dedicated_bearer_too_high_pvi_pci_emergency_call.LW14b
p975
aVtc_295_017_Intra_S1_HO__S1_Setup_from_source_and_target_eNB_while_wf_handover_notify.LW14b
p976
aVtc_295_136_mo_call_during_s1_ho_tau_request_when_wf_handover_notify.LW14b
p977
aVtc_26_229_iu_release_when_waiting_for_rab_assignment_response_gn.LW14b
p978
aVtc_322_175_smooth_move_ef_cli_s6d_delete_subscriber_data_wf_cancel_location.LW14b
p979
aVtc_306_132_ef_seamless_move_source_receive_s1_setup_wf_target_guti_reallocation_complete.LW14b
p980
aVtc_306_133_ef_seamless_move_source_receive_s1_setup_wf_source_guti_reallocation_complete.LW14b
p981
aVtc_306_1214_ef_seamless_move_target_receive_s1_setup_wf_icsr_and_lur.LW14b
p982
aVtc_51_049_reloc_wf_rau_comp_interrupted_by_service_request_new_rai.LW14b
p983
aVtc_306_135_ef_seamless_move_source_receive_s1_setup_wf_frcn.L15acp01
p984
aVtc_306_130_ef_seamless_move_source_receive_s1_setup_wf_frr_ecm_idle.L15acp01
p985
aVtc_306_133_ef_seamless_move_source_receive_s1_setup_wf_source_guti_reallocation_complete.L15acp01
p986
aVtc_306_1215_ef_seamless_move_target_receive_s1_setup_wf_modify_bearer_response.L15acp01
p987
aVtc_306_1213_ef_seamless_move_target_receive_s1_setup_wf_icsr_and_ulr.L15acp01
p988
aVtc_257_30_pws_sctp_device_failure.L15acp01
p989
aVtc_318_201_idle_deactivate_dedicated_bearers_one_by_one_reactivate_req.L15acp01
p990
aVtc_194_109_tau_ul_fails_all_3gpp_access_restricted.L15acp01
p991
aVtc_194_1010_normal_attach_insert_odb_with_both_allowed_apn_and_not_allowed_apn_in_odb_free_apn_list__odb_bit0.L15acp01
p992
aVtc_217_500_rau_to_sgsn_guti_attach_when_wf_timeout_fail_authentication.L15acp01
p993
aVtc_44_750_s1_with_two_sctp_endpoints.L15acp01
p994
aVtc_44_860_mme_assoc_reestablish__sctp_fe_restart_s1_mme.L15acp01
p995
aVtc_103_860_ue_trace_retransmit.L15acp01
p996
aVtc_103_1107_fallback_to_imsins_resend_fail_due_to_result_code.L15acp01
p997
aVtc_304_266_tau_from_gnsgsn_2g_control_mode_wf_delete_all_bearers_response_exception_case_reject_congestion_subscriber_cancelled.L15acp01
p998
aVtc_318_201_idle_deactivate_dedicated_bearers_one_by_one_reactivate_req.LWG
p999
aVtc_73_07_itc_encrypted_gtpu_s4_payload_w.LWG
p1000
aVtc_295_017_Intra_S1_HO__S1_Setup_from_source_and_target_eNB_while_wf_handover_notify.LWG
p1001
aVtc_177_500_test_list_config_nondefault.LWG
p1002
aVtc_327_037_recovery_intra_TAU_active_off_sgw_unchanged__RAR_wf_CSR_due_to_S11_linkdown.LWG
p1003
aVtc_304_266_tau_from_gnsgsn_2g_control_mode_wf_delete_all_bearers_response_exception_case_reject_congestion_subscriber_cancelled.LWG
p1004
aVtc_119_202_ospf_interface_opt_vals.LWG
p1005
aVtc_06_672_dualstack_israu_one_existing_pdp_with_fqdn_then_activate_pdp_under_nevertrypgw_with_sogt_true.LWG
p1006
aVtc_241_752_W2W_GnSGSN_to_S4SGSN_one_pdp_arp_higher_than_policymap_sysprop_deactivate_pdp_after_tau_on.LWG
p1007
aVtc_258_009_activate_cell_change_reporting_at_handover_new_MME.LWG
p1008
aVtc_275_310_tau_inter_new_active_flag_keep_two_pdns_one_default_bearer_fail_in_eNB.LWG
p1009
aVtc_277_006_tau_inter_old_with_dedicated_bearers_sgw_changed.LWG
p1010
aVtc_260_273_receive_m3_reset_while_wf_setup_iteration_two_session.LWG
p1011
aVtc_234_012_activate_update_deactivate_all.LWG
p1012
aVtc_306_135_ef_seamless_move_source_receive_s1_setup_wf_frcn.LWG
p1013
aVtc_306_132_ef_seamless_move_source_receive_s1_setup_wf_target_guti_reallocation_complete.LWG
p1014
aVtc_306_130_ef_seamless_move_source_receive_s1_setup_wf_frr_ecm_idle.LWG
p1015
aVtc_306_133_ef_seamless_move_source_receive_s1_setup_wf_source_guti_reallocation_complete.LWG
p1016
aVtc_306_1214_ef_seamless_move_target_receive_s1_setup_wf_icsr_and_lur.LWG
p1017
aVtc_306_1215_ef_seamless_move_target_receive_s1_setup_wf_modify_bearer_response.LWG
p1018
aVtc_306_1213_ef_seamless_move_target_receive_s1_setup_wf_icsr_and_ulr.LWG
p1019
aVtc_28_050_mo_sms_homer_no_block_redirection.W15acp01
p1020
aVtc_340_14_validation_move_w_filter_all_apn_with_two_pdns.W15acp01
p1021
aVtc_73_07_itc_encrypted_gtpu_s4_payload_w.WG14b
p1022
aVtc_327_022_recovery_intra_TAU__initial_Detach_Request_while_waiting_for_Ue_Backup_Response.LW14b
p1023
aVtc_194_100_check_gauge_unstable_not_parked.LW14b
p1024
aVtc_318_201_idle_deactivate_dedicated_bearers_one_by_one_reactivate_req.LW14b
p1025
aVtc_262_1031_emergency_imsi_attach_multiple_pgw_try_next_pgw_fqdn_error.LW14b
p1026
aVtc_245_022_israu_new_l_to_w_without_qos_change_nuqm_false.LW14b
p1027
aVtc_274_441_Intra_TAU_Detach_Request_while_waiting_for_Create_Session_Response_2PDNs_partially_failure_sgw_unavailable.LW14b
p1028
aVtc_280_109_activate_over_max_dedicated_bearers.LW14b
p1029
aVtc_280_128_activate_dedicated_paging_authentication_failure.LW14b
p1030
aVtc_28_016_mt_sms_paging_request_no_response_mo_sms_inform_hlr.LW14b
p1031
aVtc_217_500_rau_to_sgsn_guti_attach_when_wf_timeout_fail_authentication.LW14b
p1032
aVtc_209_156_dl_payload_msisdn_imsi_imei_udp.LW14b
p1033
aVtc_306_135_ef_seamless_move_source_receive_s1_setup_wf_frcn.LW14b
p1034
aVtc_306_1214_ef_seamless_move_target_receive_s1_setup_wf_icsr_and_lur.LW14b
p1035
aVtc_306_133_ef_seamless_move_source_receive_s1_setup_wf_source_guti_reallocation_complete.LW14b
p1036
aVtc_306_1213_ef_seamless_move_target_receive_s1_setup_wf_icsr_and_ulr.LW14b
p1037
aVtc_306_1215_ef_seamless_move_target_receive_s1_setup_wf_modify_bearer_response.LW14b
p1038
aVtc_304_266_tau_from_gnsgsn_2g_control_mode_wf_delete_all_bearers_response_exception_case_reject_congestion_subscriber_cancelled.LW14b
p1039
aVtc_260_273_receive_m3_reset_while_wf_setup_iteration_two_session.LW14b
p1040
aVtc_340_54_validation_move_g_s4_af_intra_rau_move_timeout.G15acp01
p1041
aVtc_346_529_AF__TAU_Inter_New_keep_old_sgw_2PDN_one_receive_diameter_cause_5003.LWG
p1042
aVtc_361_192_s3_intra_rau_l_to_w_reach_activate_license_limit.LWG
p1043
aVtc_262_084_emergency_imsi_attach_unauthentication_fails_in_hss.LWG
p1044
aVtc_141_021_eth_v6_conf_novlan.LWG
p1045
aVtc_325_245_inter_old_srns_reloc_s4_to_gn_wf_cancel_location_interrupted_by_gtpv2_context_request.LWG
p1046
aVtc_244_050_mt_lr_imei_check_answer_received_wf_location_report.LWG
p1047
aVtc_304_266_tau_from_gnsgsn_2g_control_mode_wf_delete_all_bearers_response_exception_case_reject_congestion_subscriber_cancelled.LWG
p1048
aVtc_287_018_HSS_based_PCSCF_restoration__ecm_idle_pdn_disconnect_request_wf_delete_session_response.LWG
p1049
aVtc_251_39_rau_l_to_g_interfering_by_rau_request_with_new_rai.LWG
p1050
aVtc_217_500_rau_to_sgsn_guti_attach_when_wf_timeout_fail_authentication.LWG
p1051
aVtc_209_39_inter_srns_old_sgsn.LWG
p1052
aVtc_238_201_mme_eps_irat_Gn_ho_target__three_pdn_one_MBR_with_lbi.LWG
p1053
aVtc_326_381_Service_Request_with_unknown_STMSI_multiple_retrieve_responses_after_timer_expires.LWG
p1054
aVtc_73_21_itc_gtpu_s4_sgsn_send_echo_request_w.LWG
p1055
aVtc_73_07_itc_encrypted_gtpu_s4_payload_w.LWG
p1056
aVtc_194_508_Notification_during_Intra_TAU_without_SGW_Relocation_HSS_Reset_after_SMC.LWG
p1057
aVtc_248_131_inter_l_to_w_new_rau_request_initial_ue_received_wf_rau_complete.LWG
p1058
aVtc_234_008_activate_deactivate_imsi.LWG
p1059
aVtc_199_115_seq_no_overflow_modify_bearer_command.LWG
p1060
aVtc_241_707_israu_new_with_bearer_sgw_change_mf_s4_ubr_in_rnc_activate.LWG
p1061
aVtc_177_500_test_list_config_nondefault.LWG
p1062
aVtc_263_012_Attach_Flow__Attach_Request_New_S1_Same_IEs_IP_OK_while_waiting_for_Security_Mode_Complete.LWG
p1063
aVtc_183_008_itc_sctp_encrypted.LWG
p1064
aVtc_267_234_Service_Request__Provider_Location_Request_while_wf_security_mode_complete_timeout.LWG
p1065
aVtc_327_511_recovery_service_request__ue_context_release_request_wf_Guti_Rollback_complete.LWG
p1066
aVtc_327_606_Inter_TAU_Recovery__EnodeB_reset_while_waiting_for_Identity_Response.LWG
p1067
aVtc_236_213_W_to_W_Inter_RAU_S4_over_Gn_target_DtSelMode_3_APN_not_in_APN_list.LWG
p1068
aVtc_318_201_idle_deactivate_dedicated_bearers_one_by_one_reactivate_req.LWG
p1069
aVtc_259_77_ef_isd_paging_s4_w.LWG
p1070
aVtc_316_215_Service_Request_With_Dedicated_Bearers_Partial_Success__Backup_UE.LWG
p1071
aVtc_297_406_attach_start_move_intra_rau_roaming_cs_ps_cor.LWG
p1072
aVtc_204_1111_mme_eps_handover_target_SGW_unavailable_DNS_query_failure.LWG
p1073
aVtc_357_019_gsm_iterator_no_action.LWG
p1074
aVtc_107_003_eth_port_cli_opt_vals.LWG
p1075
aVtc_107_005_eth_port_cli_autonegotiation.LWG
p1076
aVtc_306_132_ef_seamless_move_source_receive_s1_setup_wf_target_guti_reallocation_complete.LWG
p1077
aVtc_306_135_ef_seamless_move_source_receive_s1_setup_wf_frcn.LWG
p1078
aVtc_306_130_ef_seamless_move_source_receive_s1_setup_wf_frr_ecm_idle.LWG
p1079
aVtc_306_1051_ef_seamless_move_target_receive_cancel_location_withdraw_wf_lur_and_service_request_with_emergency_pdn.LWG
p1080
aVtc_306_1213_ef_seamless_move_target_receive_s1_setup_wf_icsr_and_ulr.LWG
p1081
aVtc_306_133_ef_seamless_move_source_receive_s1_setup_wf_source_guti_reallocation_complete.LWG
p1082
aVtc_306_1215_ef_seamless_move_target_receive_s1_setup_wf_modify_bearer_response.LWG
p1083
aVtc_256_135_mme_eps_srvcc_ho_source_cs_only_initial_ue_detach_request_wf_srvcc_ps_to_cs_complete_notification.LWG
p1084
aVtc_256_367_srvcc_ho_source_cs_only_gsm_2_msc_available.LWG
p1085
aVtc_304_266_tau_from_gnsgsn_2g_control_mode_wf_delete_all_bearers_response_exception_case_reject_congestion_subscriber_cancelled.L15acp01
p1086
aVtc_318_201_idle_deactivate_dedicated_bearers_one_by_one_reactivate_req.L15acp01
p1087
aVtc_306_132_ef_seamless_move_source_receive_s1_setup_wf_target_guti_reallocation_complete.L15acp01
p1088
aVtc_306_135_ef_seamless_move_source_receive_s1_setup_wf_frcn.L15acp01
p1089
aVtc_306_130_ef_seamless_move_source_receive_s1_setup_wf_frr_ecm_idle.L15acp01
p1090
aVtc_306_1213_ef_seamless_move_target_receive_s1_setup_wf_icsr_and_ulr.L15acp01
p1091
aVtc_306_1215_ef_seamless_move_target_receive_s1_setup_wf_modify_bearer_response.L15acp01
p1092
aVtc_210_028_target_info_query_multiple.L15acp01
p1093
aVtc_238_201_mme_eps_irat_Gn_ho_target__three_pdn_one_MBR_with_lbi.L15acp01
p1094
aVtc_103_1146_sx_resend__CCR_T_retransmit_but_no_resending.L15acp01
p1095
aVtc_295_017_Intra_S1_HO__S1_Setup_from_source_and_target_eNB_while_wf_handover_notify.L15acp01
p1096
aVtc_346_890_3gpp_move_source_ecm_connected_terminate_sx.L15acp01
p1097
aVtc_260_273_receive_m3_reset_while_wf_setup_iteration_two_session.L15acp01
p1098
aVtc_274_610_combined_TAU_MT_Call_while_waiting_for_AIA_MO_SMS_wf_initial_context_response.L15acp01
p1099
aVtc_262_600_combined_attach_cs_service_notification_when_emm_attach_state.L15acp01
p1100
aVtc_197_110_failure_at_dns_naptr_service_not_found.L15acp01
p1101
aVtc_256_300_mme_eps_srvcc_ho_source_cs_only_cs_service_notification_when_emm_handover_srvcc_source.L15acp01
p1102
aVtc_103_860_ue_trace_retransmit.L15acp01
p1103
aVtc_304_236_isc_active_flag_on_control_mode_threshold_exceeded_ignore_replace_s1_wf_initial_context_setup_response.L15acp01
p1104
aVtc_304_266_tau_from_gnsgsn_2g_control_mode_wf_delete_all_bearers_response_exception_case_reject_congestion_subscriber_cancelled.L15acp01
p1105
aVtc_295_108_Intra_S1_HO__S1_Reset_from_source_while_waiting_for_Handover_Request_Acknowledge.L15acp01
p1106
aVtc_346_578_AF__HO_X2_2PDN_MBR_failure_for_1PDN_terminate_sx.L15acp01
p1107
aVtc_346_494_Small_Local_Restart__Terminate_when_UE1_PDN_Connectivity_waiting_for_CCAI_UE2_Location_Report_waiting_for_CCAU.L15acp01
p1108
aVtc_306_135_ef_seamless_move_source_receive_s1_setup_wf_frcn.L15acp01
p1109
aVtc_306_132_ef_seamless_move_source_receive_s1_setup_wf_target_guti_reallocation_complete.L15acp01
p1110
aVtc_306_1213_ef_seamless_move_target_receive_s1_setup_wf_icsr_and_ulr.L15acp01
p1111
aVtc_306_1215_ef_seamless_move_target_receive_s1_setup_wf_modify_bearer_response.L15acp01
p1112
aVtc_265_252_Detach_Flow_NW_init__Sgs_CS_Paging_while_wf_delete_session_response.L15acp01
p1113
aVtc_318_219_deactivate_non_last_pdn__Downlink_Data_Notification_while_waiting_for_Paging_Response.L15acp01
p1114
aVtc_318_201_idle_deactivate_dedicated_bearers_one_by_one_reactivate_req.L15acp01
p1115
aVtc_318_281_SGsAP_Paging_Request_init_service_request_sgw_restart.L15acp01
p1116
aVtc_217_500_rau_to_sgsn_guti_attach_when_wf_timeout_fail_authentication.L15acp01
p1117
aVtc_73_07_itc_encrypted_gtpu_s4_payload_w.WG14b
p1118
aVtc_324_328_ef_service_req_data_direct_transfer_ingore_wf_update_location.WG14b
p1119
aVtc_310_116_1_af__HO_Cancel_before_Response_from_MSC_after_error_Response_from_SGSN.LW14b
p1120
aVtc_310_335_ef_dbr_non_voice_bearer_wf_forward_relocation_complete_and_forward_relocation_complete_ack.LW14b
p1121
aVtc_260_273_receive_m3_reset_while_wf_setup_iteration_two_session.LW14b
p1122
aVtc_369_112_HSS_based_PCSCF_restoration_ecm_idle_three_pdns_two_ims_deactivation.LW14b
p1123
aVtc_313_238_inter_new_srns_reloc_s16_with_sgw_change_iu_release_request_none_user_inactivity_received_wf_forward_reloc_complete_ack.LW14b
p1124
aVtc_327_017_recovery_intra_TAU__uplink_Detach_Request_while_waiting_for_Ue_Backup_Response.LW14b
p1125
aVtc_103_1137_sx_resend__CCR_I_retransmit_then_diameter_too_busy_then_timeout_resend_no_more_peers_only_realm.LW14b
p1126
aVtc_103_904_relay_node_S6a_S13.LW14b
p1127
aVtc_236_041_s4_3gdt_detach_modify_bearer_response_reject_in_active_procedure.LW14b
p1128
aVtc_236_288_Relocation_3gdt_switchback_iu_release_request_none_user_inactivity_received_wf_modify_bearer_response.LW14b
p1129
aVtc_304_266_tau_from_gnsgsn_2g_control_mode_wf_delete_all_bearers_response_exception_case_reject_congestion_subscriber_cancelled.LW14b
p1130
aVtc_231_119_rnc_resetresource_when_sgsn_deactivate_all_with_pgn.LW14b
p1131
aVtc_318_201_idle_deactivate_dedicated_bearers_one_by_one_reactivate_req.LW14b
p1132
aVtc_306_132_ef_seamless_move_source_receive_s1_setup_wf_target_guti_reallocation_complete.LW14b
p1133
aVtc_306_135_ef_seamless_move_source_receive_s1_setup_wf_frcn.LW14b
p1134
aVtc_306_1213_ef_seamless_move_target_receive_s1_setup_wf_icsr_and_ulr.LW14b
p1135
aVtc_295_017_Intra_S1_HO__S1_Setup_from_source_and_target_eNB_while_wf_handover_notify.LW14b
p1136
aVtc_295_124_tau_after_ho_tz_change_emm_information_meanwhile_handover_required_HO_success.LW14b
p1137
aVtc_177_500_test_list_config_nondefault.LWG
p1138
aVtc_357_023_gsm_iterator_move_ra_from_one_area_to_another.LWG
p1139
aVtc_257_33_pws_delete_cbc.LWG
p1140
aVtc_260_273_receive_m3_reset_while_wf_setup_iteration_two_session.LWG
p1141
aVtc_327_021_recovery_intra_TAU__uplink_Detach_Request_while_waiting_for_Update_Location_Response.LWG
p1142
aVtc_327_037_recovery_intra_TAU_active_off_sgw_unchanged__RAR_wf_CSR_due_to_S11_linkdown.LWG
p1143
aVtc_107_005_eth_port_cli_autonegotiation.LWG
p1144
aVtc_324_368_ef_cancel_location_with_updateProcedure_wf_modify_bearer_response_after_ula_hss.LWG
p1145
aVtc_295_017_Intra_S1_HO__S1_Setup_from_source_and_target_eNB_while_wf_handover_notify.LWG
p1146
aVtc_244_051_mt_lr_delete_bearer_request_received_wf_location_report.LWG
p1147
aVtc_165_6_check_ncs_oms_interface.LWG
p1148
aVtc_318_201_idle_deactivate_dedicated_bearers_one_by_one_reactivate_req.LWG
p1149
aVtc_326_410_Inter_TAU_Recovery_Backup_Option_ownSubpool__Multiple_MME_In_otherSubpool.LWG
p1150
aVtc_238_201_mme_eps_irat_Gn_ho_target__three_pdn_one_MBR_with_lbi.LWG
p1151
aVtc_665_1_dp_reboot_init_cm_restart_with_traffic.LWG
p1152
aVtc_304_266_tau_from_gnsgsn_2g_control_mode_wf_delete_all_bearers_response_exception_case_reject_congestion_subscriber_cancelled.LWG
p1153
aVtc_294_353_intra_handover_sgw_relocation_2_pdns_dedicated_fails_notify_timeout.LWG
p1154
aVtc_217_500_rau_to_sgsn_guti_attach_when_wf_timeout_fail_authentication.LWG
p1155
aVtc_313_014_inter_new_srns_reloc_s16_with_sgw_change_with_preserved_default_bearer.LWG
p1156
aVtc_306_132_ef_seamless_move_source_receive_s1_setup_wf_target_guti_reallocation_complete.LWG
p1157
aVtc_306_135_ef_seamless_move_source_receive_s1_setup_wf_frcn.LWG
p1158
aVtc_306_130_ef_seamless_move_source_receive_s1_setup_wf_frr_ecm_idle.LWG
p1159
aVtc_306_133_ef_seamless_move_source_receive_s1_setup_wf_source_guti_reallocation_complete.LWG
p1160
aVtc_306_1214_ef_seamless_move_target_receive_s1_setup_wf_icsr_and_lur.LWG
p1161
aVtc_241_452_israu_new_with_10_dedicated_bearer_sgw_change_mf_s4.LWG
p1162
aVtc_166_306_apn_resolve_selmode_1_apn_resolve_no_hlr_redirection_3gdt.LWG
p1163
aVtc_305_040_oms_mmi.LWG
p1164
aVtc_73_07_itc_encrypted_gtpu_s4_payload_w.LWG
p1165
aVtc_12_4_attach_ptmsi_signalling_connection_release.W15acp01
p1166
aVtc_241_1694_intra_rau_without_sgw_change_interferred_by_reset_resource_after_modify_bearer_request.W15acp01
p1167
aVtc_349_107_RAU_new_sgsn__Detach_Req_with_power_off_while_waiting_for_CCA_initial.W15acp01
p1168
aVtc_298_301_EF_SIBD_S4_Activate_From_MS_TI_Flag.W15acp01
p1169
aVtc_253_001_no_sccp_ssn_during_small_restart.G15acp01
p1170
aVtc_324_084_af_sec_modify_bearer_response_with_s4_interface_3gdt.W15acp01
p1171
aVtc_311_204_intra_srns_reloc_s4_sgw_change_wf_reloc_req_ack_interrupted_by_cancel_loc_subscrip_withdrawn.WG14b
p1172
aVtc_73_07_itc_encrypted_gtpu_s4_payload_w.WG14b
p1173
aVtc_327_011_recovery_intra_TAU__initial_Attach_Request_while_waiting_for_Identity_Response.LW14b
p1174
aVtc_304_266_tau_from_gnsgsn_2g_control_mode_wf_delete_all_bearers_response_exception_case_reject_congestion_subscriber_cancelled.LW14b
p1175
aVtc_103_701_MME_restarts.LW14b
p1176
aVtc_263_027_Attach_Flow__Attach_Request_Different_IEs_IP_OK_while_waiting_for_Identity_Response.LW14b
p1177
aVtc_263_414_Attach_Flow_in_ecm_connected__HSS_Init_QoS_Modification_wf_Initial_Context_Setup_Response.LW14b
p1178
aVtc_218_332_tau_from_sgsn_active_flag_on_tau_complete_come_first_detach_odb_bit0.LW14b
p1179
aVtc_234_009_activate_deactivate_msisdn.LW14b
p1180
aVtc_262_1031_emergency_imsi_attach_multiple_pgw_try_next_pgw_fqdn_error.LW14b
p1181
aVtc_318_201_idle_deactivate_dedicated_bearers_one_by_one_reactivate_req.LW14b
p1182
aVtc_209_103_dual_stack_supported_ipv6_ipv4v6.LW14b
p1183
aVtc_220_587_csfb_to_1xrtt_in_extended_service_request_during_attach_waiting_for_modify_bearer_response.LW14b
p1184
aVtc_103_905_proxy_node_s6a_s13.L15acp01
p1185
aVtc_304_266_tau_from_gnsgsn_2g_control_mode_wf_delete_all_bearers_response_exception_case_reject_congestion_subscriber_cancelled.L15acp01
p1186
aVtc_260_273_receive_m3_reset_while_wf_setup_iteration_two_session.L15acp01
p1187
aVtc_345_221_af__mt_csfb_with_psho__ecm_idle_sgw_relocation_no_cancel_location_from_hss.L15acp01
p1188
aVtc_288_105_pgw_init_bearer_mod_ue_not_responding_all_bearers.L15acp01
p1189
aVtc_44_750_s1_with_two_sctp_endpoints.L15acp01
p1190
aVtc_318_201_idle_deactivate_dedicated_bearers_one_by_one_reactivate_req.L15acp01
p1191
aVtc_304_266_tau_from_gnsgsn_2g_control_mode_wf_delete_all_bearers_response_exception_case_reject_congestion_subscriber_cancelled.LWG
p1192
aVtc_92_09_20_autoupdate.LWG
p1193
aVtc_177_500_test_list_config_nondefault.LWG
p1194
aVtc_73_41_gtpu_sgsn_dont_send_gpu_echo_request_w.LWG
p1195
aVtc_73_07_itc_encrypted_gtpu_s4_payload_w.LWG
p1196
aVtc_257_30_pws_sctp_device_failure.LWG
p1197
aVtc_326_217_Intra_TAU_Recovery_with_active_flag_two_PDN_partial_fail.LWG
p1198
aVtc_275_103_Inter_TAU_New_MME__Imei_Check_answer_Blacklisted_before_TAU_Accept.LWG
p1199
aVtc_24_91_msc_pool_off_comb_proc_on_no_def_msc_in_la_with_2_mscs.LWG
p1200
aVtc_208_157_ul_payload_msisdn_imsi_imei_udp.LWG
p1201
aVtc_318_201_idle_deactivate_dedicated_bearers_one_by_one_reactivate_req.LWG
p1202
aVtc_311_204_intra_srns_reloc_s4_sgw_change_wf_reloc_req_ack_interrupted_by_cancel_loc_subscrip_withdrawn.LWG
p1203
aVtc_295_017_Intra_S1_HO__S1_Setup_from_source_and_target_eNB_while_wf_handover_notify.LWG
p1204
aVtc_363_018_mmi_get_ra.LWG
p1205
aVtc_260_273_receive_m3_reset_while_wf_setup_iteration_two_session.LWG
p1206
aVtc_175_007_activate_interrupted_by_suspend_before_create_ack.G15acp01
p1207
aVtc_256_135_mme_eps_srvcc_ho_source_cs_only_initial_ue_detach_request_wf_srvcc_ps_to_cs_complete_notification.L15acp01
p1208
aVtc_44_750_s1_with_two_sctp_endpoints.L15acp01
p1209
aVtc_44_860_mme_assoc_reestablish__sctp_fe_restart_s1_mme.L15acp01
p1210
aVtc_304_266_tau_from_gnsgsn_2g_control_mode_wf_delete_all_bearers_response_exception_case_reject_congestion_subscriber_cancelled.L15acp01
p1211
aVtc_304_109_initial_ue_intra_tau_control_mode_threshold_exceeded_usc_detach_then_reattach.L15acp01
p1212
aVtc_318_201_idle_deactivate_dedicated_bearers_one_by_one_reactivate_req.L15acp01
p1213
aVtc_220_587_csfb_to_1xrtt_in_extended_service_request_during_attach_waiting_for_modify_bearer_response.L15acp01
p1214
aVtc_304_266_tau_from_gnsgsn_2g_control_mode_wf_delete_all_bearers_response_exception_case_reject_congestion_subscriber_cancelled.LW14b
p1215
aVtc_260_273_receive_m3_reset_while_wf_setup_iteration_two_session.LW14b
p1216
aVtc_295_017_Intra_S1_HO__S1_Setup_from_source_and_target_eNB_while_wf_handover_notify.LW14b
p1217
aVtc_342_940_change_li_c_address.LW14b
p1218
aVtc_324_121_af_service_request_with_data_only_ulr_timeout_3gdt.LW14b
p1219
aVtc_238_201_mme_eps_irat_Gn_ho_target__three_pdn_one_MBR_with_lbi.LW14b
p1220
aVtc_11_091_activate_secondary_pdp_context_wrong_LinkedTI.LW14b
p1221
aVtc_318_201_idle_deactivate_dedicated_bearers_one_by_one_reactivate_req.LW14b
p1222
aVtc_256_367_srvcc_ho_source_cs_only_gsm_2_msc_available.LW14b
p1223
aVtc_107_001_eth_port_cli_mand_vals.LWG
p1224
aVtc_107_003_eth_port_cli_opt_vals.LWG
p1225
aVtc_260_273_receive_m3_reset_while_wf_setup_iteration_two_session.LWG
p1226
aVtc_295_017_Intra_S1_HO__S1_Setup_from_source_and_target_eNB_while_wf_handover_notify.LWG
p1227
aVtc_141_021_eth_v6_conf_novlan.LWG
p1228
aVtc_318_201_idle_deactivate_dedicated_bearers_one_by_one_reactivate_req.LWG
p1229
aVtc_73_41_gtpu_sgsn_dont_send_gpu_echo_request_w.LWG
p1230
aVtc_73_07_itc_encrypted_gtpu_s4_payload_w.LWG
p1231
aVtc_327_511_recovery_service_request__ue_context_release_request_wf_Guti_Rollback_complete.LWG
p1232
aVtc_39_601_mas_unsucc_fwd_reloc_resp_mandatory_ie_missing_stop_source.LWG
p1233
aVtc_177_500_test_list_config_nondefault.LWG
p1234
aVtc_119_202_ospf_interface_opt_vals.LWG
p1235
aVtc_246_061_israu_new_l_to_g_sgw_change_one_pdn_ubr_before_rau_complete_interfered_by_inter_rau_request.LWG
p1236
aVtc_199_91_echo_ping_auto_echo_independence.LWG
p1237
aVtc_178_690_action_sctp_sys_assoc_move_command.LWG
p1238
aVtc_244_051_mt_lr_delete_bearer_request_received_wf_location_report.LWG
p1239
aVtc_194_100_check_gauge_unstable_not_parked.LWG
p1240
aVtc_194_084_hss_reset_after_large_restart.LWG
p1241
aVtc_103_1100_resending_AIR_dpl_changed.LWG
p1242
aVtc_82_021_rab_modify_interrupted_by_israu.LWG
p1243
aVtc_214_910_combined_tau_intra_insert_subscriber_data_interference.LWG
p1244
aVtc_304_266_tau_from_gnsgsn_2g_control_mode_wf_delete_all_bearers_response_exception_case_reject_congestion_subscriber_cancelled.LWG
p1245
aVtc_73_07_itc_encrypted_gtpu_s4_payload_w.WG14b
p1246
aVtc_357_023_gsm_iterator_move_ra_from_one_area_to_another.WG14b
p1247
aVtc_324_121_af_service_request_with_data_only_ulr_timeout_3gdt.WG14b
p1248
aVtc_39_066_attach_move_resend_attach_request.W15acp01
p1249
aVtc_298_689_S4_3GDT_Service_request_wait_MBR_ef_delete_bearer_request.W15acp01
p1250
aVtc_231_281_activate_pdp_request_ignore_during_s4_pdp_deactivating.W15acp01
p1251
aVtc_119_202_ospf_interface_opt_vals.LWG
p1252
aVtc_304_029_guti_attach_reject__control_mode_threshold_exceeded_then_action_stop.LWG
p1253
aVtc_304_266_tau_from_gnsgsn_2g_control_mode_wf_delete_all_bearers_response_exception_case_reject_congestion_subscriber_cancelled.LWG
p1254
aVtc_197_702_apn_oi_replacement_attach_apn_level_only_local_breakout.LWG
p1255
aVtc_318_201_idle_deactivate_dedicated_bearers_one_by_one_reactivate_req.LWG
p1256
aVtc_177_500_test_list_config_nondefault.LWG
p1257
aVtc_357_019_gsm_iterator_no_action.LWG
p1258
aVtc_73_07_itc_encrypted_gtpu_s4_payload_w.LWG
p1259
aVtc_141_022_eth_v6_modify_interface.LWG
p1260
aVtc_107_002_eth_port_cli_ls_an_comb.LWG
p1261
aVtc_306_1200_ef_seamless_move_target_receive_hss_reset.LWG
p1262
aVtc_97_035_inter_sgsn_psho_mf_with_lawful_intercept.LWG
p1263
aVtc_327_015_recovery_intra_TAU__initial_Attach_Request_while_waiting_for_Update_Location_Response.LWG
p1264
aVtc_327_351_recovery_service_request__initial_intra_TAU_while_waiting_for_Location_Update_Response.LWG
p1265
aVtc_208_106_dual_stack_not_supported_ipv4_ipv4v6.LWG
p1266
aVtc_256_135_mme_eps_srvcc_ho_source_cs_only_initial_ue_detach_request_wf_srvcc_ps_to_cs_complete_notification.LWG
p1267
aVtc_237_422_mme_af_eps_irat_ho_source__two_CS_paging_sent_to_mme_wf_forward_relocation_response.LWG
p1268
aVtc_165_12_check_resource_alarms_dp.LWG
p1269
aVtc_103_1102_fallback_to_imsins_success.LWG
p1270
aVtc_204_205_mme_eps_ho_target__multi_pdn_sgw_relocation__no_ho_notify.LWG
p1271
aVtc_273_556_tau_intra__sgw_relocation_emergency_type_b_not_allowed_in_csg.LWG
p1272
aVtc_39_004_attach_intra_periodic_triggers_attach_intra_periodic_rau_target.W15acp01
p1273
aVtc_324_043_af_mbr_higher_than_policymap.W15acp01
p1274
aVtc_38_80_intra_rau_new_rnc_with_authentication_wrong_ptmsi_signature.W15acp01
p1275
aVtc_298_826_NRSPCA_S4_nsapi_collision_receiving_detach_request_while_waiting_for_delete_bearer_request.W15acp01
p1276
aVtc_327_037_recovery_intra_TAU_active_off_sgw_unchanged__RAR_wf_CSR_due_to_S11_linkdown.L15acp01
p1277
aVtc_220_509_csfb_to_1xrtt_in_ecm_idle_extended_service_request_wf_initial_context_setup_response.L15acp01
p1278
aVtc_194_172_hss_reset_ue_activity_pdn_connectivity_request.L15acp01
p1279
aVtc_194_184_hss_reset_ue_activity_s1_ho.L15acp01
p1280
aVtc_194_201_isd_apn_change_not_all_apn_included.L15acp01
p1281
aVtc_194_206_isd_apn_change_when_idle_with_all_apn_included.L15acp01
p1282
aVtc_304_236_isc_active_flag_on_control_mode_threshold_exceeded_ignore_replace_s1_wf_initial_context_setup_response.L15acp01
p1283
aVtc_304_266_tau_from_gnsgsn_2g_control_mode_wf_delete_all_bearers_response_exception_case_reject_congestion_subscriber_cancelled.L15acp01
p1284
aVtc_260_273_receive_m3_reset_while_wf_setup_iteration_two_session.L15acp01
p1285
aVtc_318_201_idle_deactivate_dedicated_bearers_one_by_one_reactivate_req.L15acp01
p1286
aVtc_238_201_mme_eps_irat_Gn_ho_target__three_pdn_one_MBR_with_lbi.L15acp01
p1287
aVtc_256_107_mme_eps_srvcc_ho_source_cs_only_context_request_wf_srvcc_ps_to_cs_complete_notification.L15acp01
p1288
aVtc_304_266_tau_from_gnsgsn_2g_control_mode_wf_delete_all_bearers_response_exception_case_reject_congestion_subscriber_cancelled.LW14b
p1289
aVtc_318_201_idle_deactivate_dedicated_bearers_one_by_one_reactivate_req.LW14b
p1290
aVtc_327_037_recovery_intra_TAU_active_off_sgw_unchanged__RAR_wf_CSR_due_to_S11_linkdown.LW14b
p1291
aVtc_194_1017_normal_attach_insert_odb_detach_with_cause_of_reattach_required_with_not_allowed_apn_in_odb_free_apn_list_for_roamer__odb_bit0.LW14b
p1292
aVtc_103_701_MME_restarts.LW14b
p1293
aVtc_103_1102_fallback_to_imsins_success.LW14b
p1294
aVtc_346_683_pra_cn_predefined_x2_ho_after_isc_tau_2pdns_out2in_and_out_out.LW14b
p1295
aVtc_274_274_Intra_and_pTAU__Handover_Required_with_old_TA_MSC_change_while_waiting_for_Location_Update_response_TAU_IMSI_Detach.LW14b
p1296
aVtc_234_010_activate_deactivate_imei.LW14b
p1297
aVtc_73_07_itc_encrypted_gtpu_s4_payload_w.WG14b
p1298
a.