(lp0
Vtc_304_236_isc_active_flag_on_control_mode_threshold_exceeded_ignore_replace_s1_wf_initial_context_setup_response.LW14b
p1
aVtc_304_266_tau_from_gnsgsn_2g_control_mode_wf_delete_all_bearers_response_exception_case_reject_congestion_subscriber_cancelled.LW14b
p2
aVtc_304_109_initial_ue_intra_tau_control_mode_threshold_exceeded_usc_detach_then_reattach.LW14b
p3
aVtc_318_201_idle_deactivate_dedicated_bearers_one_by_one_reactivate_req.LW14b
p4
aVtc_327_532_recovery_service_request__Imsi_Page_while_waiting_for_Location_Update_Answer.LW14b
p5
aVtc_369_101_HSS_based_PCSCF_restoration_ecm_connected_roaming_ue_two_pdns_one_ims_deactivation.LW14b
p6
aVtc_279_010_tai_list_dns_use_secondary.LW14b
p7
aVtc_44_004_small_restart__sctp_fe_restart.LW14b
p8
aVtc_326_241_Intra_TAU_Recovery_Initial_Context_Setup_fail.LW14b
p9
aVtc_324_239_ef_nas_ignore_update_loc_received_wf_modify_bearer_response.LW14b
p10
aVtc_12_4_attach_ptmsi_signalling_connection_release.LW14b
p11
aVtc_103_1105_attach_no_diameter_peer_available.LW14b
p12
aVtc_357_023_gsm_iterator_move_ra_from_one_area_to_another.WG14b
p13
aVtc_226_106_W_USC_PDP_Context_Activation__ControlMode_On_detach_action_different_ongoing_wf_ggsn_response.WG14b
p14
aVtc_73_07_itc_encrypted_gtpu_s4_payload_w.WG14b
p15
aVtc_295_017_Intra_S1_HO__S1_Setup_from_source_and_target_eNB_while_wf_handover_notify.L15acp01
p16
aVtc_367_021_pgw_reselection_tau_from_sgsn_without_qci_1_combined_sgsn_mme_reattach_required.L15acp01
p17
aVtc_367_128_pgw_reselection_ho_from_sgsn_without_qci_1_combined_sgsn_mme_reattach_required.L15acp01
p18
aVtc_268_033_Timer_Based_GBR_Deact__No_Release_Access_Bearer_Response_when_Timer_Expires.L15acp01
p19
aVtc_326_380_Service_Request_with_unknown_STMSI_multiple_retrieve_responses.L15acp01
p20
aVtc_44_002_small_restart.L15acp01
p21
aVtc_262_600_combined_attach_cs_service_notification_when_emm_attach_state.L15acp01
p22
aVtc_262_1031_emergency_imsi_attach_multiple_pgw_try_next_pgw_fqdn_error.L15acp01
p23
aVtc_260_273_receive_m3_reset_while_wf_setup_iteration_two_session.L15acp01
p24
aVtc_304_266_tau_from_gnsgsn_2g_control_mode_wf_delete_all_bearers_response_exception_case_reject_congestion_subscriber_cancelled.L15acp01
p25
aVtc_266_026_DownlinkDataFailureInd_repeat_paging_timer_small_local_restart.L15acp01
p26
aVtc_210_042_attach_detach_imei.L15acp01
p27
aVtc_318_201_idle_deactivate_dedicated_bearers_one_by_one_reactivate_req.L15acp01
p28
aVtc_302_024_cdma_tunneling_two_downlink_messages.L15acp01
p29
aVtc_39_433_mas_one_pdp_downlink_data_3gdt_upd_loc_ack_b4_upd_pdp_ctx_resp_target.W15acp01
p30
aVtc_295_017_Intra_S1_HO__S1_Setup_from_source_and_target_eNB_while_wf_handover_notify.LWG
p31
aVtc_119_202_ospf_interface_opt_vals.LWG
p32
aVtc_119_203_ospf_interface_cli_alg_vals.LWG
p33
aVtc_205_71_01_ss7_SCCP_CR_DT1_RLSD.LWG
p34
aVtc_267_767_HSS_based_PCSCF_restoration__service_request_wf_service_request.LWG
p35
aVtc_304_266_tau_from_gnsgsn_2g_control_mode_wf_delete_all_bearers_response_exception_case_reject_congestion_subscriber_cancelled.LWG
p36
aVtc_73_07_itc_encrypted_gtpu_s4_payload_w.LWG
p37
aVtc_318_201_idle_deactivate_dedicated_bearers_one_by_one_reactivate_req.LWG
p38
aVtc_103_701_MME_restarts.LWG
p39
aVtc_103_1132_sx_resend__CCR_I_diameter_out_of_space_another_pdn_timeout_diameter_too_busy_host_and_realm.LWG
p40
aVtc_265_001_Detach_Flow_UE_init__Attach_Request_while_waiting_for_Context_Release_Complete.LWG
p41
aVtc_327_725_recovery_service_request__initial_TAU_Req_while_wf_ue_context_modification_response.LWG
p42
aVtc_257_30_pws_sctp_device_failure.LWG
p43
aVtc_177_500_test_list_config_nondefault.LWG
p44
aVtc_326_392_Service_Request_with_unknown_STMSI_SGW_unavailable_DNS_Query_failure.LWG
p45
aVtc_326_650_tau_intra_periodic_SGW_unavailable_after_MME_large_restart_main_flow.LWG
p46
aVtc_019_001_feIfShow_rt.LWG
p47
aVtc_208_59_extra_pdp_activate_signal_ignore.LWG
p48
aVtc_259_112_ef_s6d_tads_interfere_inter_rau_old_g.LWG
p49
aVtc_248_128_inter_l_to_w_new_rau_request_intial_ue_received_wf_update_location_resp.LW14b
p50
aVtc_327_532_recovery_service_request__Imsi_Page_while_waiting_for_Location_Update_Answer.LW14b
p51
aVtc_260_188_mce_reset_one_session_two_mce_send_reset_simultaneously.LW14b
p52
aVtc_260_219_receive_2_m3_reset_req_while_wf_m3_start_resp.LW14b
p53
aVtc_295_017_Intra_S1_HO__S1_Setup_from_source_and_target_eNB_while_wf_handover_notify.LW14b
p54
aVtc_304_266_tau_from_gnsgsn_2g_control_mode_wf_delete_all_bearers_response_exception_case_reject_congestion_subscriber_cancelled.LW14b
p55
aVtc_194_084_hss_reset_after_large_restart.LW14b
p56
aVtc_318_201_idle_deactivate_dedicated_bearers_one_by_one_reactivate_req.LW14b
p57
aVtc_313_238_inter_new_srns_reloc_s16_with_sgw_change_iu_release_request_none_user_inactivity_received_wf_forward_reloc_complete_ack.LW14b
p58
aVtc_73_07_itc_encrypted_gtpu_s4_payload_w.WG14b
p59
aVtc_357_023_gsm_iterator_move_ra_from_one_area_to_another.WG14b
p60
aVtc_166_134_israu_new_3gdt_incompatible_ggsn.WG14b
p61
aVtc_369_086_ERAB_release_indication_during_waiting_location_report__idr_flags_ef.L15acp01
p62
aVtc_280_042_create_dedicated_bearers_qci_counters__qci_10_64_67_68_71_127.L15acp01
p63
aVtc_367_021_pgw_reselection_tau_from_sgsn_without_qci_1_combined_sgsn_mme_reattach_required.L15acp01
p64
aVtc_367_128_pgw_reselection_ho_from_sgsn_without_qci_1_combined_sgsn_mme_reattach_required.L15acp01
p65
aVtc_318_201_idle_deactivate_dedicated_bearers_one_by_one_reactivate_req.L15acp01
p66
aVtc_283_070_1_MME_Deactivate_Bearer__Delete_Bearer_Request_for_PDN1_while_wf_Delete_Bearer_Request_for_PDN2.L15acp01
p67
aVtc_304_266_tau_from_gnsgsn_2g_control_mode_wf_delete_all_bearers_response_exception_case_reject_congestion_subscriber_cancelled.L15acp01
p68
aVtc_346_618_EF_pdn_connectivity_during_service_request_check_EBM.L15acp01
p69
aVtc_310_335_ef_dbr_non_voice_bearer_wf_forward_relocation_complete_and_forward_relocation_complete_ack.L15acp01
p70
aVtc_295_136_mo_call_during_s1_ho_tau_request_when_wf_handover_notify.L15acp01
p71
aVtc_326_680_tau_intra_SGW_unavailable_active_flag_off_after_MME_large_restart__two_pdn.L15acp01
p72
aVtc_44_850_mme_assoc_reestablish__board_restart_s1_mme.L15acp01
p73
aVtc_44_860_mme_assoc_reestablish__sctp_fe_restart_s1_mme.L15acp01
p74
aVtc_256_135_mme_eps_srvcc_ho_source_cs_only_initial_ue_detach_request_wf_srvcc_ps_to_cs_complete_notification.LWG
p75
aVtc_283_024_GW_Deactivate_Bearer__Update_Bearer_Request_Dedicated_Bearer_one_bearer_already_deleted.LWG
p76
aVtc_209_22_attach_detach_attach_imsi.LWG
p77
aVtc_318_201_idle_deactivate_dedicated_bearers_one_by_one_reactivate_req.LWG
p78
aVtc_319_073_path_management_configured_timer_expired.LWG
p79
aVtc_107_003_eth_port_cli_opt_vals.LWG
p80
aVtc_177_500_test_list_config_nondefault.LWG
p81
aVtc_357_023_gsm_iterator_move_ra_from_one_area_to_another.LWG
p82
aVtc_357_019_gsm_iterator_no_action.LWG
p83
aVtc_266_402_service_request_modify_bearer_no_response_mult_PDN_with_feature_on.LWG
p84
aVtc_665_1_dp_reboot_init_cm_restart_with_traffic.LWG
p85
aVtc_665_11_dp_reboot_init_cm_restart_with_traffic.LWG
p86
aVtc_73_40_gtpu_sgsn_send_gpu_echo_request_w.LWG
p87
aVtc_73_41_gtpu_sgsn_dont_send_gpu_echo_request_w.LWG
p88
aVtc_73_07_itc_encrypted_gtpu_s4_payload_w.LWG
p89
aVtc_304_266_tau_from_gnsgsn_2g_control_mode_wf_delete_all_bearers_response_exception_case_reject_congestion_subscriber_cancelled.LWG
p90
aVtc_309_300_node_credential_notification.LWG
p91
aVtc_39_601_mas_unsucc_fwd_reloc_resp_mandatory_ie_missing_stop_source.LWG
p92
aVtc_248_144_inter_l_to_w_new_reset_received_received_wf_fwd_reloc_comp_ack.W15acp01
p93
aVtc_81_083_israu_ggsn_upgrades_to_stream_no_resources.W15acp01
p94
aVtc_141_031_eth_v4_v6_traffic_over_sctp.LWG
p95
aVtc_208_34_start_of_interception_two_contexts.LWG
p96
aVtc_73_40_gtpu_sgsn_send_gpu_echo_request_w.LWG
p97
aVtc_73_07_itc_encrypted_gtpu_s4_payload_w.LWG
p98
aVtc_357_019_gsm_iterator_no_action.LWG
p99
aVtc_263_502_Attach_Flow__mt_cs_call_while_waiting_for_ics_response.LWG
p100
aVtc_225_601_exp_flow_path_swith_request_while_wf_modification_context_response.LWG
p101
aVtc_77_5_attach_activate2_g_crash.LWG
p102
aVtc_322_096_smooth_move_ef_reset_wf_frr_idle.LWG
p103
aVtc_305_057_oms_mmi_hwm.LWG
p104
aVtc_166_350_GGSN_init_PDP_modify_ARP_when_iu_released_3gdt.LWG
p105
aVtc_244_049_mt_lr_cancel_location_with_subscription_withdraw_received_wf_location_report.LWG
p106
aVtc_214_1139_la_selection_mf_reselection_ptau_during_ue_restoration.LWG
p107
aVtc_284_300_pdn_connectivity_and_create_bearer_req_buffered.LWG
p108
aVtc_238_201_mme_eps_irat_Gn_ho_target__three_pdn_one_MBR_with_lbi.LWG
p109
aVtc_250_67_s6d_activation_with_EPS_data_s4_license_off.LWG
p110
aVtc_250_150_isd_with_odb_init_deactivation.LWG
p111
aVtc_295_017_Intra_S1_HO__S1_Setup_from_source_and_target_eNB_while_wf_handover_notify.LWG
p112
aVtc_232_506_static_routes__routes_unchanged_after_reboot.LWG
p113
aVtc_13_29_gprs_ptmsi_attach_mac_failure_same_imsi.G15acp01
p114
aVtc_30_139_hlr_reset_dp_unavailable.G15acp01
p115
aVtc_367_021_pgw_reselection_tau_from_sgsn_without_qci_1_combined_sgsn_mme_reattach_required.L15acp01
p116
aVtc_367_128_pgw_reselection_ho_from_sgsn_without_qci_1_combined_sgsn_mme_reattach_required.L15acp01
p117
aVtc_346_493_Small_Local_Restart__Terminate_when_UE_S1_release.L15acp01
p118
aVtc_304_236_isc_active_flag_on_control_mode_threshold_exceeded_ignore_replace_s1_wf_initial_context_setup_response.L15acp01
p119
aVtc_44_750_s1_with_two_sctp_endpoints.L15acp01
p120
aVtc_103_701_MME_restarts.L15acp01
p121
aVtc_103_1007_secondary_dpl_set_and_then_emptied.L15acp01
p122
aVtc_103_704_delete_peer_send_DPR.L15acp01
p123
aVtc_103_905_proxy_node_s6a_s13.L15acp01
p124
aVtc_103_705_delete_peer_send_DPR_timeout_on_DPA.L15acp01
p125
aVtc_220_587_csfb_to_1xrtt_in_extended_service_request_during_attach_waiting_for_modify_bearer_response.L15acp01
p126
aVtc_295_017_Intra_S1_HO__S1_Setup_from_source_and_target_eNB_while_wf_handover_notify.L15acp01
p127
aVtc_73_07_itc_encrypted_gtpu_s4_payload_w.WG14b
p128
aVtc_44_004_small_restart__sctp_fe_restart.LW14b
p129
aVtc_313_238_inter_new_srns_reloc_s16_with_sgw_change_iu_release_request_none_user_inactivity_received_wf_forward_reloc_complete_ack.LW14b
p130
aVtc_367_116_pgw_reselection_ho_2_ims_pdn_diff_qci_sgw_send_dbr_both_reactivate_requested.LW14b
p131
aVtc_367_212_pgw_reselection_service_request_recovery_with_qci_1_reactivate_requested.LW14b
p132
aVtc_367_211_pgw_reselection_intra_tau_recovery_with_qci_1_reattach_required.LW14b
p133
aVtc_260_273_receive_m3_reset_while_wf_setup_iteration_two_session.LW14b
p134
aVtc_26_210_inter_S4_SGSN_RAU_WtoW_new_VPLMN_ARP.LW14b
p135
aVtc_279_552_la_selection_reselection_eps_attach_dyn_tailist_update_sms_over_sgs_off.LW14b
p136
aVtc_304_236_isc_active_flag_on_control_mode_threshold_exceeded_ignore_replace_s1_wf_initial_context_setup_response.LW14b
p137
aVtc_195_537_mme_logging_tau_inter_old_s10_s3_the_same_address.LW14b
p138
aVtc_265_121_Detach_Flow_NW_init__Update_Bearer_Request_while_waiting_for_Delete_Session_Response.LW14b
p139
aVtc_326_655_tau_intra_periodic_SGW_unavailable_after_MME_large_restart__DNS_only_response_unavailable_SGW.LW14b
p140
aVtc_327_316_recovery_service_request__initial_Attach_Request_while_waiting_for_Sub_Procedure__Create_Session_Response_Old_Sgw_Unavailable.LW14b
p141
aVtc_295_017_Intra_S1_HO__S1_Setup_from_source_and_target_eNB_while_wf_handover_notify.LW14b
p142
aVtc_248_128_inter_l_to_w_new_rau_request_intial_ue_received_wf_update_location_resp.LW14b
p143
aVtc_346_425_AF__PDN_Connectivity__CCA_I_timeout.LW14b
p144
aVtc_346_683_pra_cn_predefined_x2_ho_after_isc_tau_2pdns_out2in_and_out_out.LW14b
p145
aVtc_237_001_mme_eps_irat_ho_source__main_flow.LW14b
p146
aVtc_348_050_large_restart.W15acp01
p147
aVtc_236_045_s4_3gdt_iu_release_during_waiting_for_modify_bearer_rsp_in_service_request_procedure.W15acp01
p148
aVtc_322_021_smooth_move_af_frr_with_service_not_supported.W15acp01
p149
aVtc_256_382_Sv_Path_Mgt__available_MSC_disable_Sv.LWG
p150
aVtc_73_07_itc_encrypted_gtpu_s4_payload_w.LWG
p151
aVtc_367_220_pgw_reselection_tau_without_qci_1_candidates_sx_fqdn_reactivate_requested.LWG
p152
aVtc_107_003_eth_port_cli_opt_vals.LWG
p153
aVtc_348_460_pra_intra_relocation__ccr_u_lrc_lr.LWG
p154
aVtc_318_267_sgw_restart_af_relocation_triggered_by_DDN_emergency_PDN.LWG
p155
aVtc_220_403_csfb_to_1xrtt_in_ecm_connected_path_switch_request_HO_success.LWG
p156
aVtc_238_201_mme_eps_irat_Gn_ho_target__three_pdn_one_MBR_with_lbi.LWG
p157
aVtc_357_023_gsm_iterator_move_ra_from_one_area_to_another.LWG
p158
aVtc_357_019_gsm_iterator_no_action.LWG
p159
aVtc_295_017_Intra_S1_HO__S1_Setup_from_source_and_target_eNB_while_wf_handover_notify.LWG
p160
aVtc_39_100_intra_rau_move_interfering_periodic_rau.LWG
p161
aVtc_260_273_receive_m3_reset_while_wf_setup_iteration_two_session.LWG
p162
aVtc_287_029_HSS_based_PCSCF_restoration__ecm_connected_create_bearer_request_other_pdn_wf_delete_session_response.LWG
p163
aVtc_28_048_mo_sms_old_cdr_format_r6.LWG
p164
aVtc_245_127_inter_rau_old_wo_sgw_reloc_wf_Cancel_Location_interfere_by_attach_req.W15acp01
p165
aVtc_342_902_cli_test_cchecks.W15acp01
p166
aVtc_348_160_israu_af__new_sgsn_CCA_I_partially_with_failure_cause_5011.W15acp01
p167
aVtc_73_07_itc_encrypted_gtpu_s4_payload_w.WG14b
p168
aVtc_322_098_smooth_move_ef_reset_wf_service_request.WG14b
p169
aVtc_357_023_gsm_iterator_move_ra_from_one_area_to_another.WG14b
p170
aVtc_238_201_mme_eps_irat_Gn_ho_target__three_pdn_one_MBR_with_lbi.L15acp01
p171
aVtc_367_021_pgw_reselection_tau_from_sgsn_without_qci_1_combined_sgsn_mme_reattach_required.L15acp01
p172
aVtc_367_128_pgw_reselection_ho_from_sgsn_without_qci_1_combined_sgsn_mme_reattach_required.L15acp01
p173
aVtc_367_116_pgw_reselection_ho_2_ims_pdn_diff_qci_sgw_send_dbr_both_reactivate_requested.L15acp01
p174
aVtc_260_273_receive_m3_reset_while_wf_setup_iteration_two_session.L15acp01
p175
aVtc_203_451_mme_eps_handover_source__sms_paging_wf_forward_relocation_complete_notification.L15acp01
p176
aVtc_44_750_s1_with_two_sctp_endpoints.L15acp01
p177
aVtc_44_860_mme_assoc_reestablish__sctp_fe_restart_s1_mme.L15acp01
p178
aVtc_295_017_Intra_S1_HO__S1_Setup_from_source_and_target_eNB_while_wf_handover_notify.L15acp01
p179
aVtc_306_1000_ef_seamless_move_target_handle_ddn_wf_release_old_s1_mbr.LW14b
p180
aVtc_306_1051_ef_seamless_move_target_receive_cancel_location_withdraw_wf_lur_and_service_request_with_emergency_pdn.LW14b
p181
aVtc_367_220_pgw_reselection_tau_without_qci_1_candidates_sx_fqdn_reactivate_requested.LW14b
p182
aVtc_367_116_pgw_reselection_ho_2_ims_pdn_diff_qci_sgw_send_dbr_both_reactivate_requested.LW14b
p183
aVtc_245_301_inter_rau_insert_entry_into_interface_cache.LW14b
p184
aVtc_238_201_mme_eps_irat_Gn_ho_target__three_pdn_one_MBR_with_lbi.LW14b
p185
aVtc_44_056_s1ap_mdholpap_attach_request_exceeds_allowed_rate.LW14b
p186
aVtc_348_461_pra_intra_relocation__no_ccr_u_lrc_lr_ccr_u.LW14b
p187
aVtc_298_829_NRSPCA_S4_nsapi_collision_iu_release_request_while_waiting_for_delete_bearer_request.LW14b
p188
aVtc_335_144_Geo_Recovery_upon_Intra_TAU_with_pcscf_restoration.LW14b
p189
aVtc_315_021_inter_tau_new_mme_s4_sgsn_selection_in_pool_table_matched.LW14b
p190
aVtc_347_202_Attach__Detach_Request_with_Switch_Off_while_waiting_for_CCA_Initial.LW14b
p191
aVtc_289_073_Modify_Bearer__pdn_connectivity_while_wf_ue_context_modification_resp_idle.LW14b
p192
aVtc_73_07_itc_encrypted_gtpu_s4_payload_w.WG14b
p193
aVtc_103_850_error_code_DIAMETER_REALM_NOT_SERVED.L15acp01
p194
aVtc_335_03_mobility_to_wifi_in_ecm_Connected_mf__decision_not_granted__cell_info_from_WIC_empty.L15acp01
p195
aVtc_44_860_mme_assoc_reestablish__sctp_fe_restart_s1_mme.L15acp01
p196
aVtc_332_002_mf__changed_mps_subscription_data.L15acp01
p197
aVtc_306_1051_ef_seamless_move_target_receive_cancel_location_withdraw_wf_lur_and_service_request_with_emergency_pdn.L15acp01
p198
aVtc_346_493_Small_Local_Restart__Terminate_when_UE_S1_release.L15acp01
p199
aVtc_31_116_hlr_reset_many_subscribers.W15acp01
p200
aVtc_298_826_NRSPCA_S4_nsapi_collision_receiving_detach_request_while_waiting_for_delete_bearer_request.W15acp01
p201
aVtc_295_017_Intra_S1_HO__S1_Setup_from_source_and_target_eNB_while_wf_handover_notify.LWG
p202
aVtc_119_203_ospf_interface_cli_alg_vals.LWG
p203
aVtc_234_011_activate_deactivate_all.LWG
p204
aVtc_103_1139_sx_resend__CCR_I_resend_interfering_RAR_another_resend_only_relam.LWG
p205
aVtc_103_602_georedundant_realm_routing.LWG
p206
aVtc_208_30_pdp_context_reject_imsi.LWG
p207
aVtc_208_108_dual_stack_legacy_versions_ipv4.LWG
p208
aVtc_357_023_gsm_iterator_move_ra_from_one_area_to_another.LWG
p209
aVtc_256_103_mme_eps_srvcc_ho_source_cs_only_context_request_wf_release_access_bearers_response.LWG
p210
aVtc_256_135_mme_eps_srvcc_ho_source_cs_only_initial_ue_detach_request_wf_srvcc_ps_to_cs_complete_notification.LWG
p211
aVtc_310_132_af__Forward_Relocation_Complete_arrives_in_Delete_Bearer_procedure.LWG
p212
aVtc_73_07_itc_encrypted_gtpu_s4_payload_w.LWG
p213
aVtc_340_124_oms_consistence_check_for_action_pool_move_validation_start.LWG
p214
aVtc_212_008_Ccheck_qos_policymap_w.LWG
p215
aVtc_241_1636_israu_new_modify_bearer_response_timeout_followed_by_ms_init_deac.LWG
p216
aVtc_284_351_pdn_connectivity_pb_activate_1_dedicated_bearer_interrupted_by_path_switch_request.LWG
p217
aVtc_285_006_PDN_Connectivity_Pb__Delete_default_bearer_request_while_wf_modify_bearer_response.LWG
p218
aVtc_327_037_recovery_intra_TAU_active_off_sgw_unchanged__RAR_wf_CSR_due_to_S11_linkdown.LW14b
p219
aVtc_322_051_smooth_move_ef_attach_request_wf_frr_idle.LW14b
p220
aVtc_316_401_Periodic_Backup_first_backup_triggered_by_PTAU.LW14b
p221
aVtc_279_012_tai_list_dyn_growth_at_attach_after_detach.LW14b
p222
aVtc_295_017_Intra_S1_HO__S1_Setup_from_source_and_target_eNB_while_wf_handover_notify.LW14b
p223
aVtc_326_272_Periodic_Intra_TAU_with_unknown_GUTI_after_combined_attach_then_MO_SMS.LW14b
p224
aVtc_238_201_mme_eps_irat_Gn_ho_target__three_pdn_one_MBR_with_lbi.LW14b
p225
aVtc_197_414_attach_table_matched_standalone_vplmn_allowed_gtp.L15acp01
p226
aVtc_346_576_AF__HO_X2_2PDN_CSR_failure_for_1PDN_terminate_sx.L15acp01
p227
aVtc_335_104_Inter_MME_HO__new_MME__from_W_Gn.L15acp01
p228
aVtc_326_425_Inter_TAU_Recovery_Fail__Authentication_Failure_Received.L15acp01
p229
aVtc_306_1313_ef_seamless_move_target_delete_bearer_request_ho_to_non_3gpp.L15acp01
p230
aVtc_327_532_recovery_service_request__Imsi_Page_while_waiting_for_Location_Update_Answer.L15acp01
p231
aVtc_341_601_x2_activity_event_tau_event_intra_sgw_unchanged_connected.L15acp01
p232
aVtc_73_07_itc_encrypted_gtpu_s4_payload_w.WG14b
p233
aVtc_166_271_israu_new_dt_apn_list_empty_mode_2_no_3gdt_in_hlr.WG14b
p234
aVtc_53_43_inter_new_srns_reloc_ef_reset3.LW14b
p235
aVtc_327_022_recovery_intra_TAU__initial_Detach_Request_while_waiting_for_Ue_Backup_Response.LW14b
p236
aVtc_103_701_MME_restarts.LW14b
p237
aVtc_231_736_handle_outdated_triggered_delete_bearer_request_2_bearers_1_exist.LW14b
p238
aVtc_209_103_dual_stack_supported_ipv6_ipv4v6.LW14b
p239
aVtc_316_257_Intra_MME_TAU_Active_flag_Without_SRVCC_Capability__Backup_UE.LW14b
p240
aVtc_324_373_ef_cancel_location_with_subscriptionWithdraw_wf_modify_bearer_response_wf_ula.LW14b
p241
aVtc_241_452_israu_new_with_10_dedicated_bearer_sgw_change_mf_s4.LWG
p242
aVtc_241_1690_intra_rau_with_sgw_change_interferred_by_reset_before_create_rsp_failed_create_rsp_paging_succeeds.LWG
p243
aVtc_665_16_dp_block_deblock_with_traffic.LWG
p244
aVtc_665_11_dp_reboot_init_cm_restart_with_traffic.LWG
p245
aVtc_305_040_oms_mmi.LWG
p246
aVtc_25_30_israu_invalid_qos_neg.LWG
p247
aVtc_367_116_pgw_reselection_ho_2_ims_pdn_diff_qci_sgw_send_dbr_both_reactivate_requested.LWG
p248
aVtc_361_510_rau_l_to_w_S4SGSN_check_old_qos_failed_node_function_deactivate_pdp_after_rau_on.LWG
p249
aVtc_295_017_Intra_S1_HO__S1_Setup_from_source_and_target_eNB_while_wf_handover_notify.LWG
p250
aVtc_311_24_intra_srns_reloc_s4_with_sgw_change_with_11_pdns.LWG
p251
aVtc_103_1102_fallback_to_imsins_success.LWG
p252
aVtc_73_41_gtpu_sgsn_dont_send_gpu_echo_request_w.LWG
p253
aVtc_73_07_itc_encrypted_gtpu_s4_payload_w.LWG
p254
aVtc_357_019_gsm_iterator_no_action.LWG
p255
aVtc_334_251_path_failure_service_req_connected_mf.LWG
p256
aVtc_304_236_isc_active_flag_on_control_mode_threshold_exceeded_ignore_replace_s1_wf_initial_context_setup_response.L15acp01
p257
aVtc_295_017_Intra_S1_HO__S1_Setup_from_source_and_target_eNB_while_wf_handover_notify.L15acp01
p258
aVtc_295_124_tau_after_ho_tz_change_emm_information_meanwhile_handover_required_HO_success.L15acp01
p259
aVtc_295_136_mo_call_during_s1_ho_tau_request_when_wf_handover_notify.L15acp01
p260
aVtc_103_860_ue_trace_retransmit.L15acp01
p261
aVtc_103_1008_create_peer__system_set_prio__same_prio_loadsharing.L15acp01
p262
aVtc_284_351_pdn_connectivity_pb_activate_1_dedicated_bearer_interrupted_by_path_switch_request.L15acp01
p263
aVtc_199_120_s11_path_management_small_restarted.L15acp01
p264
aVtc_326_251_Intra_TAU_with_unknown_GUTI_with_active_flag_then_s1_Intra_HO.LW14b
p265
aVtc_335_26_wifi_to_mobility_estimate_request_in_ecm_idle_emm_deregistered_state.LW14b
p266
aVtc_335_73_From_Wifi_ECM_Connected_MF__Decision_Not_Granted.LW14b
p267
aVtc_103_024_modify_diameter_peer_switch_peer_numbers.LW14b
p268
aVtc_103_1146_sx_resend__CCR_T_retransmit_but_no_resending.LW14b
p269
aVtc_348_451_pra_service_request_signaling_sms_cca_u_after_iu_release.LW14b
p270
aVtc_194_100_check_gauge_unstable_not_parked.LW14b
p271
aVtc_346_683_pra_cn_predefined_x2_ho_after_isc_tau_2pdns_out2in_and_out_out.LW14b
p272
aVtc_28_001_mo_sms.LW14b
p273
aVtc_234_019_ne_time_query.LW14b
p274
aVtc_195_537_mme_logging_tau_inter_old_s10_s3_the_same_address.LW14b
p275
aVtc_367_116_pgw_reselection_ho_2_ims_pdn_diff_qci_sgw_send_dbr_both_reactivate_requested.LW14b
p276
aVtc_236_302_HO_over_S3_3GDT_switchback_ef_iu_release_wf_modify_bearer_response.LW14b
p277
aVtc_327_012_recovery_intra_TAU__initial_Attach_Request_while_waiting_for_Ue_Backup_Response.LW14b
p278
aVtc_327_305_recovery_service_request__uplink_Attach_Request_while_waiting_for_Sub_Procedure__Security_Mode_Comlete.LW14b
p279
aVtc_290_091_Timer_Based_GBR_Deact__create_bearer_request_wf_delete_bearer_request_after_timer_expires.LW14b
p280
aVtc_04_04_normal_gprs_imsi_attach_detach_imsi_attach_detach.G15acp01
p281
aVtc_260_273_receive_m3_reset_while_wf_setup_iteration_two_session.LWG
p282
aVtc_357_019_gsm_iterator_no_action.LWG
p283
aVtc_324_318_ef_s6d_cli_delete_subscriber_wf_security_hss.LWG
p284
aVtc_73_07_itc_encrypted_gtpu_s4_payload_w.LWG
p285
aVtc_335_56_mobility_to_wifi_ecm_idle_af_partial_cell_from_eNB_diff_with_that_from_WIC.LWG
p286
aVtc_256_135_mme_eps_srvcc_ho_source_cs_only_initial_ue_detach_request_wf_srvcc_ps_to_cs_complete_notification.LWG
p287
aVtc_311_24_intra_srns_reloc_s4_with_sgw_change_with_11_pdns.LWG
p288
aVtc_73_07_itc_encrypted_gtpu_s4_payload_w.WG14b
p289
aVgn_wcdma_payload_no_context_ensure_stored.WG14b
p290
aVtc_324_272_ef_reset_wf_modify_bearer_response_wf_isd.WG14b
p291
aVtc_348_160_israu_af__new_sgsn_CCA_I_partially_with_failure_cause_5011.WG14b
p292
aVtc_304_410_Service_Request_UE_Initiated__control_mode_threshold_exceeded_request_reject_idle_mode.LWG
p293
aVtc_306_142_ef_seamless_move_source_receive_enodeb_configuation_update_wf_modify_bearer_response.LWG
p294
aVtc_306_1081_ef_seamless_move_target_ignore_extended_service_request_wf_frcn_or_mbr.LWG
p295
aVtc_306_1243_ef_seamless_move_target_receive_attach_request__page_to_new_enodeb.LWG
p296
aVtc_306_1425_ef_seamless_move_target_receive_cancel_location_initial_wf_icsr.LWG
p297
aVtc_256_106_mme_eps_srvcc_ho_source_cs_only_sgsn_context_request_wf_srvcc_ps_to_cs_complete_notification_timeout.LWG
p298
aVtc_256_041_mme_eps_srvcc_ho_source_cs_only_srvcc_ps_to_cs_complete_notification_timeout.LWG
p299
aVtc_273_022_tau_intra_normal_idle_tai_unknown.LWG
p300
aVtc_273_727_tau_intra_bearer_status_mismatch_hybrid_csg.LWG
p301
aVtc_295_017_Intra_S1_HO__S1_Setup_from_source_and_target_eNB_while_wf_handover_notify.LWG
p302
aVtc_369_103_HSS_based_PCSCF_restoration_ecm_connected_feature_off.LWG
p303
aVtc_79_036_israu_new_streaming_context_MBR_not_zero_service_request.LWG
p304
aVtc_218_034_tau_from_sgsn_ue_auth_failure.LWG
p305
aVtc_218_411_TAU_from_SGSN__downlink_data_notification_while_waiting_for_update_location_answer_check_subscribed_apn_fail_sgw_fail.LWG
p306
aVtc_202_433_af_seamless_move_target_service_request_wrong_ta.LWG
p307
aVtc_202_568_seamless_move_target_Connected_mode__DDN_after_ULA.LWG
p308
aVtc_202_454_af_seamless_move_source_unsuccessful_forward_relocation_response_other_cause.LWG
p309
aVts_336_001_access_request__access_request_while_waiting_for_eab_wifi_decision_response.LWG
p310
aVtc_361_004_rau_l_to_w_with_cl_not_released.LWG
p311
aVtc_276_350_Inter_New_MME__Active_Flag_False_Downlink_Data_Notification_while_waiting_for_ULA_no_Modify_Bearer_Response.LWG
p312
aVtc_302_024_cdma_tunneling_two_downlink_messages.LWG
p313
aVtc_297_097_isc_s4_l_to_g_home_user_without_imsi.LWG
p314
aVtc_335_104_Inter_MME_HO__new_MME__from_W_Gn.LWG
p315
aVtc_349_126_RAU_back_in_20s__Iu_Release_Req_while_waiting_for_CCA_initial.LWG
p316
aVtc_287_036_HSS_based_PCSCF_restoration__ecm_connected_gn_forward_relocation_request_wf_delete_session_response.LWG
p317
aVtc_263_244_Attach_Flow__S1_Reset_while_waiting_for_identification_response_s3.LWG
p318
aVtc_261_11_isd_tads_intra_tau_home_voip_restricted_by_ga_cc91_imsins_cc90.LWG
p319
aVtc_103_001_destination_host_is_peer.LWG
p320
aVtc_103_1104_attach_resend_of_ULR_no_more_peers.LWG
p321
aVtc_103_1144_sx_resend__timeout_timeout_duplicate_CCA_I_Auth_fail.LWG
p322
aVtc_103_1155_sx_retransmit__Small_restart_terminate_request.LWG
p323
aVtc_251_008_rau_w_to_g_with_one_default_wf_auth_cipher_resp_interrupted_by_attach.LWG
p324
aVtc_73_07_itc_encrypted_gtpu_s4_payload_w.LWG
p325
aVtc_283_009_GW_Deactivate_Bearer__Detach_request_while_wf_deactivate_eps_bearer_context_accept.LWG
p326
aVtc_275_766_tau_inter_new_active_flag_with_sgw_change_hybrid_csg_feature_off.LWG
p327
aVtc_324_327_ef_service_req_data_direct_transfer_ingore.LWG
p328
aVtc_324_520_ef_create_bearer_request_ignore.LWG
p329
aVtc_264_019_MME_Initiated_Detach__Attach__S1_Release__GTP_Cause_Other_Than_64_After_UE_Context_Release__ReAttach_Required__Attach.LWG
p330
aVtc_346_361_rau_to_gn_sgsn_terminate_sx_session.LWG
p331
aVtc_346_562_AF__HO_Inter_Target_from_gn_2PDN_higher_qos_for_1PDN.LWG
p332
aVtc_346_650_pra_cn_predefined_tai_list__inter_ho__2pdns_with_emergency__out.LWG
p333
aVtc_346_890_3gpp_move_source_ecm_connected_terminate_sx.LWG
p334
aVtc_241_063_israu_new_s4_to_s4_for_keep_eps_bearer_eps_data_received.LWG
p335
aVtc_314_080_hss_init_qos_mod_wf_ubr_ef_ms_init_activation.LWG
p336
aVtc_308_050_HSS_Init_QoS_Modification__Authentication_failed_when_service_request.LWG
p337
aVtc_340_82_validation_move_filter_GA_with_TARA_lwg_move_l_g_user.LWG
p338
aVtc_250_102_s6d_attach_reject_due_to_no_auth_response.LWG
p339
aVtc_327_165_recovery_intra_TAU_Context_Request_while_waiting_for_Initial_Context_Setup_Response.LWG
p340
aVtc_327_352_recovery_service_request__initial_intra_TAU_while_waiting_for_Ue_Backup_Response.LWG
p341
aVtc_321_091_mt_sms_mf.LWG
p342
aVtc_277_105_tau_inter_old_emergency_ongoing_tau_req_integrity_failure.LWG
p343
aVtc_319_005_attach_mf_static_selection_on_table_not_matched_type_a.LWG
p344
aVtc_319_107_attach_af_gw_blacklisting_sgw_blocked_no_csr_response.LWG
p345
aVtc_284_152_pdn_connectivity_pb_activate_dedicated_bearers_all_failed.LWG
p346
aVtc_225_115_mo_call_emergency_active_mode_ho_not_supported_with_msc_change.LWG
p347
aVtc_262_701_attach_no_support_t3412_extended.LWG
p348
aVtc_262_1015_apn_resolution_ext_without_arl_and_arc_no_infix.LWG
p349
aVtc_239_621_inter_rau_new_Gn_to_s4_odb_bit0_deactivation.LWG
p350
aVtc_357_019_gsm_iterator_no_action.LWG
p351
aVtc_348_311_inter_srns_reloc_mf__old_sgsn_with_sx.LWG
p352
aVtc_348_435_pra_inter_relocation_update_pdp_failure.LWG
p353
aVtc_237_031_mme_eps_irat_ho_source__service_request_before_cancel_location.LWG
p354
aVtc_181_04_multiple_ip_deconf_iugtp_w.LWG
p355
aVtc_326_272_Periodic_Intra_TAU_with_unknown_GUTI_after_combined_attach_then_MO_SMS.LWG
p356
aVtc_326_235_Intra_TAU_Recovery_fail_Modify_Bearer_timeout_with_active_flag.LWG
p357
aVtc_326_372_Service_Request_with_unknown_STMSI_Restriction_2_pdn_roaming_restriction_emergency_pdn_recovered.LWG
p358
aVtc_326_657_tau_intra_periodic_SGW_unavailable_after_MME_large_restart__create_session_fail.LWG
p359
aVtc_326_841_Geo_Service_Request_Modify_Bearer_timeout_rollback_GUTI_reallocation_no_response.LWG
p360
aVtc_15_123_sgsn_pool_relay_of_sgsn_context_request_5_bit_nri.LWG
p361
aVtc_368_003_pgw_reselection_cbr_ubr_dbr_current_pdn_wf_service_request.LWG
p362
aVtc_329_056_attach_rs_restricted_known_guti_plmn_change.LWG
p363
aVtc_329_410_x2_ho_rs_restricted_rr_restricted_forbidden_tas_plmn_change.LWG
p364
aVtc_292_041_x2_ho_without_time_zone_change.LWG
p365
aVtc_257_22_pws_etws_stop_warning_request_with_unknown_tai.LWG
p366
aVtc_214_009_combined_attach_ue_initiated_initial_ue_imsi_detach.LWG
p367
aVtc_214_1009_la_selection_mf_with_ue_profile_not_match.LWG
p368
aVtc_332_080_mf__ps_paging_during_cs_paging_cs_is_not_mps_and_ps_is_mps.LWG
p369
aVtc_367_116_pgw_reselection_ho_2_ims_pdn_diff_qci_sgw_send_dbr_both_reactivate_requested.LWG
p370
aVtc_204_1200_mme_eps_ho_target_detach_with_cause_of_reattach_required_with_not_allowed_apn_in_odb_free_apn_list__odb_bit0.LWG
p371
aVtc_203_105_mme_eps_handover_source_inter__attach_wf_cancel_location.LWG
p372
aVtc_249_241_CLR_initial_attach_combined_node_one_conn_clr_flag_s6d.LWG
p373
aVtc_260_092_one_mbms_session_started_one_mce_add_one_session_not_send_to_new_mce.LWG
p374
aVtc_260_273_receive_m3_reset_while_wf_setup_iteration_two_session.LWG
p375
aVtc_316_222_MME_Initiated_Dedicated_Bearers_Deactivation__Backup_UE.LWG
p376
aVtc_358_002_lte_iterator_ipAddressReset_modify_to_true_while_all_pdns_already_in_target_area.LWG
p377
aVtc_267_203_Service_Request__UE_Context_Release_Request_while_Waiting_for_Modify_Bearer_Response.LWG
p378
aVtc_11_354_dns_one_ggsn_blocked_gives_even_distribution_over_remaining_ggsns_wcdma.LWG
p379
aVtc_220_037_csfb_to_1xrtt_in_ecm_connected_release_access_bearers_response_with_request_rejected.LWG
p380
aVtc_345_332_ef__mo_csfb_with_psho__context_request_while_wf_forward_relocation_complete.LWG
p381
aVtc_294_353_intra_handover_sgw_relocation_2_pdns_dedicated_fails_notify_timeout.LWG
p382
aVtc_24_50_intra_combined_alert_request_from_msc.LWG
p383
aVtc_219_113_s3_tau_w_to_l_without_cl_several_pdp_contexts.LWG
p384
aVtc_242_604_rau_sgsn_s3_interrupted_by_tranfer_attach_when_wf_session_response_buffer_signal.LWG
p385
aVtc_242_601_rau_sgsn_s3_interrupted_by_tranfer_attach_when_wf_timeout.LWG
p386
aVtc_43_004_s1ap_reset_with_subscribers.LWG
p387
aVtc_107_002_eth_port_cli_ls_an_comb.LWG
p388
aVtc_107_003_eth_port_cli_opt_vals.LWG
p389
aVtc_107_005_eth_port_cli_autonegotiation.LWG
p390
aVtc_73_07_itc_encrypted_gtpu_s4_payload_w.WG14b
p391
aVtc_295_310_Intra_S1_HO__PCSCF_restoration_while_wf_Modify_Bearer_Response.LW14b
p392
aVtc_327_317_recovery_service_request__initial_Attach_Request_while_waiting_for_Sub_Procedure__Initial_Context_Setup_Response.LW14b
p393
aVtc_262_824_attach_then_cancel_location_subscription_withdrawal_CLR_flag_s6d.LW14b
p394
aVtc_306_1343_ef_seamless_move_target_receive_Insert_Subscription_Data_TADS_ecm_idle.LW14b
p395
aVtc_367_116_pgw_reselection_ho_2_ims_pdn_diff_qci_sgw_send_dbr_both_reactivate_requested.LW14b
p396
aVtc_11_187_subscriber_modified_during_activation_qos_changed.LW14b
p397
aVtc_225_601_exp_flow_path_swith_request_while_wf_modification_context_response.L15acp01
p398
aVtc_268_081_Timer_Based_GBR_Deact__receive_DDN_contain_default_bearer_receive_interfering_DBR_UBR.L15acp01
p399
aVtc_295_136_mo_call_during_s1_ho_tau_request_when_wf_handover_notify.L15acp01
p400
aVtc_260_273_receive_m3_reset_while_wf_setup_iteration_two_session.L15acp01
p401
aVtc_257_30_pws_sctp_device_failure.L15acp01
p402
aVtc_44_750_s1_with_two_sctp_endpoints.L15acp01
p403
aVtc_44_850_mme_assoc_reestablish__board_restart_s1_mme.L15acp01
p404
aVtc_103_903_primary_or_secondary_realm_routing_own_realm.L15acp01
p405
aVtc_367_116_pgw_reselection_ho_2_ims_pdn_diff_qci_sgw_send_dbr_both_reactivate_requested.L15acp01
p406
aVtc_295_017_Intra_S1_HO__S1_Setup_from_source_and_target_eNB_while_wf_handover_notify.L15acp01
p407
aVtc_225_801_csfb_to_g_without_dtm_delete_bearer_wf_delete_gbr_bearer_response.L15acp01
p408
aVtc_327_317_recovery_service_request__initial_Attach_Request_while_waiting_for_Sub_Procedure__Initial_Context_Setup_Response.L15acp01
p409
aVtc_44_750_s1_with_two_sctp_endpoints.L15acp01
p410
aVtc_318_272_sgw_restart_af_relocation_triggered_by_DDN_create_session_two_PDN_one_failed.L15acp01
p411
aVtc_326_243_Intra_TAU_Recovery_fail_default_bearer_fail_to_setup_SGW_Change.LW14b
p412
aVtc_304_459_initial_ue_csfb_to_1xrtt_control_mode_threshold_exceeded_usc_reject_illegal_ue_in_ecm_idle_wf_ue_release_complete.LW14b
p413
aVtc_194_501_Notification_SV_change_during_Attach_Procedure_no_Response.LW14b
p414
aVtc_367_116_pgw_reselection_ho_2_ims_pdn_diff_qci_sgw_send_dbr_both_reactivate_requested.LW14b
p415
aVtc_315_018_handover_source_mme_s4_sgsn_selection_capa0_selected_dns_query_success.LW14b
p416
aVtc_28_030_israu_new_sgsn_one_pdp_context_mo_sms.LW14b
p417
aVtc_324_327_ef_service_req_data_direct_transfer_ingore.WG14b
p418
aVtc_324_388_ef_mo_sms_wf_ula.WG14b
p419
aVtc_73_07_itc_encrypted_gtpu_s4_payload_w.WG14b
p420
aVtc_665_11_dp_reboot_init_cm_restart_with_traffic.LWG
p421
aVtc_73_21_itc_gtpu_s4_sgsn_send_echo_request_w.LWG
p422
aVtc_73_07_itc_encrypted_gtpu_s4_payload_w.LWG
p423
aVtc_231_281_activate_pdp_request_ignore_during_s4_pdp_deactivating.LWG
p424
aVtc_326_211_Intra_TAU_with_unknown_GUTI_backup_no_vector_change_Replication_Option.LWG
p425
aVtc_295_017_Intra_S1_HO__S1_Setup_from_source_and_target_eNB_while_wf_handover_notify.LWG
p426
aVtc_262_1086_attach_tac_based_roaming_restriction_table_not_matched_whitelist.LWG
p427
aVtc_219_131_s3_handover_w_to_l_with_cl_two_pdns_one_failed_sgw_relocation.LWG
p428
aVtc_260_273_receive_m3_reset_while_wf_setup_iteration_two_session.LWG
p429
aVtc_347_332_Intra_TAU_With_Active_Flag__RAR_while_waiting_MBR.LWG
p430
aVtc_287_016_HSS_based_PCSCF_restoration__ecm_connected_service_request_wf_deactivate_eps_bearer_context_accept.LWG
p431
aVtc_335_51_mobility_to_wifi_in_ecm_connected_af__eNB_send_configure_update_with_feature_off.LWG
p432
aVtc_322_170_smooth_move_ef_gr_cli_delete_subscriber_data_wf_frr.LWG
p433
aVtc_103_602_georedundant_realm_routing.LWG
p434
aVtc_367_025_pgw_reselection_tau_11_pdns_without_qci_1_detach.LWG
p435
aVtc_183_015_itc_sctp_trace_packets.LWG
p436
aVtc_225_415_emergency_attach_while_waiting_extended_service_request.LWG
p437
aVtc_324_145_af_rab_assignment_resp_downgrade_qos_default_bearer_3gdt.W15acp01
p438
aVtc_39_433_mas_one_pdp_downlink_data_3gdt_upd_loc_ack_b4_upd_pdp_ctx_resp_target.W15acp01
p439
aVtc_44_750_s1_with_two_sctp_endpoints.L15acp01
p440
aVtc_282_105_deactivate_bearer_no_response_from_ue.L15acp01
p441
aVtc_304_503_intra_tau_success_control_mode_threshold_exceeded_dgn_imeisv.L15acp01
p442
aVtc_327_012_recovery_intra_TAU__initial_Attach_Request_while_waiting_for_Ue_Backup_Response.L15acp01
p443
aVtc_103_705_delete_peer_send_DPR_timeout_on_DPA.L15acp01
p444
aVtc_295_017_Intra_S1_HO__S1_Setup_from_source_and_target_eNB_while_wf_handover_notify.L15acp01
p445
aVtc_276_282_Inter_TAU_New_MME__Delete_Bearer_Request_change_to_non_3gpp_while_waiting_for_Modify_Bearer_Response.L15acp01
p446
aVtc_28_050_mo_sms_homer_no_block_redirection.W15acp01
p447
aVtc_334_114_sgw_restart_mf_restoration_trigger_by_CreateSessionResponse.W15acp01
p448
aVtc_64_1_transaction_timeout.LWG
p449
aVtc_209_180_handover_w_to_l_source_s4_sgsn.LWG
p450
aVtc_141_021_eth_v6_conf_novlan.LWG
p451
aVtc_141_031_eth_v4_v6_traffic_over_sctp.LWG
p452
aVtc_24_151_msc_pool_gs_associated_change_cap_combined_ra_la_update_keep_msc.LWG
p453
aVtc_73_07_itc_encrypted_gtpu_s4_payload_w.LWG
p454
aVtc_367_116_pgw_reselection_ho_2_ims_pdn_diff_qci_sgw_send_dbr_both_reactivate_requested.LWG
p455
aVtc_335_130_Periodic_TAU__GA_Locator_mapping_change.LWG
p456
aVtc_665_1_dp_reboot_init_cm_restart_with_traffic.LWG
p457
aVtc_284_363_pdn_connectivity_handover_indication_override_2_pdn_parallel_one_ok_one_cc64.LWG
p458
aVtc_73_07_itc_encrypted_gtpu_s4_payload_w.WG14b
p459
aVtc_283_073_GW_Deactivate_Bearer__hss_based_pcscf_restoration_while_wf_deactivate_eps_bearer_context_accept.LW14b
p460
aVtc_236_018_s4_3gdt_service_request_tz_changed.LW14b
p461
aVtc_211_015_streamed_cell_trace_mapping_alarm_cease.LW14b
p462
aVtc_295_017_Intra_S1_HO__S1_Setup_from_source_and_target_eNB_while_wf_handover_notify.LW14b
p463
aVtc_326_358_Service_Request_with_unknown_STMSI_multiple_retrieval_responses_with_different_revision_number.LW14b
p464
aVtc_326_670_tau_intra_SGW_unavailable_active_flag_off_after_MME_large_restart_main_flow.LW14b
p465
aVtc_327_003_recovery_intra_TAU__uplink_Attach_Request_while_waiting_for_Authentication_Information_Answer.LW14b
p466
aVtc_327_256_recovery_service_request_MBR_timeout__PDN_Disconnectivity_Request_wf_Guti_Reallocation_Complete.LW14b
p467
aVtc_263_007_Attach_Flow__Attach_Request_Same_IEs_IP_NOK_while_waiting_for_Attach_Complete.LW14b
p468
aVtc_262_600_combined_attach_cs_service_notification_when_emm_attach_state.LW14b
p469
aVtc_346_592_sx_feature_off_after_receive_buffered_RAR.LW14b
p470
aVtc_248_128_inter_l_to_w_new_rau_request_intial_ue_received_wf_update_location_resp.LW14b
p471
aVtc_335_144_Geo_Recovery_upon_Intra_TAU_with_pcscf_restoration.LW14b
p472
aVtc_197_723_apn_oi_replacement_pdn_connectivity_succ_first_local_breakout_fail_then_try_apn_oi_replacement.LW14b
p473
aVtc_73_07_itc_encrypted_gtpu_s4_payload_w.WG14b
p474
aVtc_260_273_receive_m3_reset_while_wf_setup_iteration_two_session.LW14b
p475
aVtc_103_206_sticky_hss_host_name.LW14b
p476
aVtc_103_1137_sx_resend__CCR_I_retransmit_then_diameter_too_busy_then_timeout_resend_no_more_peers_only_realm.LW14b
p477
aVtc_327_022_recovery_intra_TAU__initial_Detach_Request_while_waiting_for_Ue_Backup_Response.LW14b
p478
aVtc_298_829_NRSPCA_S4_nsapi_collision_iu_release_request_while_waiting_for_delete_bearer_request.LW14b
p479
aVtc_196_011_activate_primary_context_modification_nrspca_on.LW14b
p480
aVtc_295_017_Intra_S1_HO__S1_Setup_from_source_and_target_eNB_while_wf_handover_notify.LW14b
p481
aVtc_248_128_inter_l_to_w_new_rau_request_intial_ue_received_wf_update_location_resp.LW14b
p482
aVtc_367_116_pgw_reselection_ho_2_ims_pdn_diff_qci_sgw_send_dbr_both_reactivate_requested.LW14b
p483
aVtc_293_027_X2_Based_HO__Sgw_reloc__Delete_Bearer_Request_while_waiting_for_Create_Session_Response.LW14b
p484
aVtc_262_600_combined_attach_cs_service_notification_when_emm_attach_state.LW14b
p485
aVtc_107_101_eth_vlan_cli.LWG
p486
aVtc_119_202_ospf_interface_opt_vals.LWG
p487
aVtc_231_186_rnc_reset_interfere_ms_init_deactivation.LWG
p488
aVtc_298_826_NRSPCA_S4_nsapi_collision_receiving_detach_request_while_waiting_for_delete_bearer_request.LWG
p489
aVtc_166_334_activate_fail_interrupted_by_deactivate_req_when_updating_in_GGSN.LWG
p490
aVtc_284_351_pdn_connectivity_pb_activate_1_dedicated_bearer_interrupted_by_path_switch_request.LWG
p491
aVtc_162_3100_Ccheck_imItcFilterGb_Check_Exclusitivity.LWG
p492
aVtc_326_263_Intra_TAU_with_unknown_GUTI_Restriction_2_pdn_roaming_restriction_emergency_pdn_recovered.LWG
p493
aVtc_259_99_ef_s6d_s4_attach_old_w.LWG
p494
aVtc_103_602_georedundant_realm_routing.LWG
p495
aVtc_92_09_20_autoupdate.LWG
p496
aVtc_73_07_itc_encrypted_gtpu_s4_payload_w.LWG
p497
aVtc_25_57_ggsn_modify_qos_after_rau_ipv6.LWG
p498
aVtc_304_124_uplink_nas_intra_tau_control_mode_threshold_exceeded_usc_reject_lead_to_implicit_detach_wf_icsr.LWG
p499
aVtc_273_502_TAU_intra_SGW_unavailable__no_create_session_response.LWG
p500
aVtc_357_019_gsm_iterator_no_action.LWG
p501
aVtc_318_260_sgw_restart_mf_relocation_triggered_by_DDN_initiated_service_request.LWG
p502
aVtc_319_073_path_management_configured_timer_expired.LWG
p503
aVtc_267_740_Service_Request__SMS_Paging_wf_ics_response_then_CS_paging_while_waiting_for_Modify_Bearer_Response.L15acp01
p504
aVtc_44_750_s1_with_two_sctp_endpoints.L15acp01
p505
aVtc_295_017_Intra_S1_HO__S1_Setup_from_source_and_target_eNB_while_wf_handover_notify.L15acp01
p506
aVtc_306_1051_ef_seamless_move_target_receive_cancel_location_withdraw_wf_lur_and_service_request_with_emergency_pdn.L15acp01
p507
aVtc_276_305_Inter_TAU_New_MME__Downlink_Data_Notification_while_waiting_for_failing_Modify_Bearer_Response.L15acp01
p508
aVtc_220_403_csfb_to_1xrtt_in_ecm_connected_path_switch_request_HO_success.L15acp01
p509
aVtc_194_100_check_gauge_unstable_not_parked.L15acp01
p510
aVtc_103_603_georedundant_modify_diameter_peer.L15acp01
p511
aVtc_194_804_isd_private_extension_of_wi_denied_from_denied_to_none_followed_by_intra_mme_x2ho_without_sgw_change.L15acp01
p512
aVtc_367_116_pgw_reselection_ho_2_ims_pdn_diff_qci_sgw_send_dbr_both_reactivate_requested.L15acp01
p513
aVtc_295_017_Intra_S1_HO__S1_Setup_from_source_and_target_eNB_while_wf_handover_notify.L15acp01
p514
aVtc_225_114_mo_call_active_mode_ongoing_ims_call_csfb_during_voice_call_not_allowed.L15acp01
p515
aVtc_262_1031_emergency_imsi_attach_multiple_pgw_try_next_pgw_fqdn_error.L15acp01
p516
aVtc_578_63_uetrace2pcap_deactivate_eps_bearer_check_warning.L15acp01
p517
aVtc_306_1051_ef_seamless_move_target_receive_cancel_location_withdraw_wf_lur_and_service_request_with_emergency_pdn.L15acp01
p518
aVtc_103_405_diameterConnectionDown_alarm_raised_due_to_no_CEA_from_peer.L15acp01
p519
aVtc_326_206_Intra_TAU_Recovery_with_old_GUTI.LW14b
p520
aVtc_295_017_Intra_S1_HO__S1_Setup_from_source_and_target_eNB_while_wf_handover_notify.LW14b
p521
aVtc_250_150_isd_with_odb_init_deactivation.LW14b
p522
aVtc_193_214_intruder_auth_rej_expiry_of_t3460.LW14b
p523
aVtc_267_733_Service_Request__SMS_paging_while_waiting_for_ics_wf_downlink_unitdata_timeout.LW14b
p524
aVtc_294_010_intra_handover_with_sgw_relocation_2_pdns_main_flow.LW14b
p525
aVtc_243_334_tau_from_sgsn_s3_emergency_type_c_ptmsi_sign_mismatch.LW14b
p526
aVtc_304_236_isc_active_flag_on_control_mode_threshold_exceeded_ignore_replace_s1_wf_initial_context_setup_response.LW14b
p527
aVtc_73_07_itc_encrypted_gtpu_s4_payload_w.WG14b
p528
aVtc_357_019_gsm_iterator_no_action.LWG
p529
aVtc_141_016_eth_conf_vlan_novlan.LWG
p530
aVtc_141_015_eth_traffic_vlan_novlan.LWG
p531
aVtc_287_003_PDN_Disconnect__Delete_dedicated_bearer_while_wf_delete_session_response.LWG
p532
aVtc_305_057_oms_mmi_hwm.LWG
p533
aVtc_107_101_eth_vlan_cli.LWG
p534
aVtc_103_853_error_code_DIAMETER_INVALID_HDR_BITS.LWG
p535
aVtc_324_327_ef_service_req_data_direct_transfer_ingore.LWG
p536
aVtc_242_005_rau_to_sgsn_s3_keep_sgw_ppf_flag_cleared.LWG
p537
aVtc_310_335_ef_dbr_non_voice_bearer_wf_forward_relocation_complete_and_forward_relocation_complete_ack.LWG
p538
aVtc_309_300_node_credential_notification.LWG
p539
aVtc_73_21_itc_gtpu_s4_sgsn_send_echo_request_w.LWG
p540
aVtc_73_07_itc_encrypted_gtpu_s4_payload_w.LWG
p541
aVtc_260_219_receive_2_m3_reset_req_while_wf_m3_start_resp.LWG
p542
aVtc_665_1_dp_reboot_init_cm_restart_with_traffic.LWG
p543
aVtc_208_38_cell_and_ra_update_new_sgsn.LWG
p544
aVtc_208_109_dual_stack_legacy_versions_ipv6.LWG
p545
aVtc_316_234_MME_Pool_Link_to_BMME_Fail_Select_New_BMME_Delete_Old_Backup.LWG
p546
aVtc_319_073_path_management_configured_timer_expired.LWG
p547
aVtc_367_212_pgw_reselection_service_request_recovery_with_qci_1_reactivate_requested.LWG
p548
aVtc_219_131_s3_handover_w_to_l_with_cl_two_pdns_one_failed_sgw_relocation.LWG
p549
aVtc_292_067_x2_handover_type_b_new_plmn_same_emc_sup_same_profile.LW14b
p550
aVtc_202_635_seamless_move_target_connected_mode_service_request_before_ULA_no_csg_info_in_FRCN_UCMFailure_hybrid_csg.LW14b
p551
aVtc_262_511_attach_pb_activate_dedicated_bearer_initial_context_setup_response_timeout.LW14b
p552
aVtc_243_330_tau_from_sgsn_s3_emergency_type_a_no_restriction.LW14b
p553
aVtc_295_017_Intra_S1_HO__S1_Setup_from_source_and_target_eNB_while_wf_handover_notify.LW14b
p554
aVtc_295_136_mo_call_during_s1_ho_tau_request_when_wf_handover_notify.LW14b
p555
aVtc_197_841_sgw_prioritized_gw_selection_x2_handover_with_sgw_change.LW14b
p556
aVtc_260_188_mce_reset_one_session_two_mce_send_reset_simultaneously.LW14b
p557
aVtc_326_210_Intra_TAU_combined_after_large_restart_after_EPS_attach.LW14b
p558
aVtc_276_305_Inter_TAU_New_MME__Downlink_Data_Notification_while_waiting_for_failing_Modify_Bearer_Response.LW14b
p559
aVtc_268_073_Timer_Based_GBR_Deact__receive_DDN_with_default_bearer_before_UE_context_release_complete.LW14b
p560
aVtc_258_108_location_report_but_same_location.LW14b
p561
aVtc_26_048_activate_QoS_downgraded_by_ggsn.LW14b
p562
aVtc_367_116_pgw_reselection_ho_2_ims_pdn_diff_qci_sgw_send_dbr_both_reactivate_requested.LW14b
p563
aVtc_206_021_ebm_server_crashes_and_recovers_while_attached.LW14b
p564
aVtc_267_430_Cancel_Location_while_wf_UE_Release_Complete_in_paging.LWG
p565
aVtc_62_7_call_warning_timeout.LWG
p566
aVtc_342_105_set_target_with_same_connection.LWG
p567
aVtc_319_036_act_pdp_ef_table_not_matched_stop_by_detach.LWG
p568
aVtc_295_017_Intra_S1_HO__S1_Setup_from_source_and_target_eNB_while_wf_handover_notify.LWG
p569
aVtc_08_112_ipv6_fragmented_sctp_traffic.LWG
p570
aVtc_666_06_block_rt_board.LWG
p571
aVtc_103_701_MME_restarts.LWG
p572
aVtc_103_853_error_code_DIAMETER_INVALID_HDR_BITS.LWG
p573
aVtc_103_1106_fallback_to_imsins_resend_success.LWG
p574
aVtc_103_1141_sx_resend__resend_during_inter_mme_handover_2_pdns.LWG
p575
aVtc_256_391_mme_eps_srvcc_ho_source_to_geran_cs_only_not_send_voice_bearer_in_handover_command.LWG
p576
aVtc_232_508_static_routes__bfd_supervision_of_static_route_v4_v6.LWG
p577
aVtc_73_40_gtpu_sgsn_send_gpu_echo_request_w.LWG
p578
aVtc_73_41_gtpu_sgsn_dont_send_gpu_echo_request_w.LWG
p579
aVtc_73_07_itc_encrypted_gtpu_s4_payload_w.LWG
p580
aVtc_107_003_eth_port_cli_opt_vals.LWG
p581
aVtc_262_610_attach_when_already_attached_second_attach_rejected_due_to_congestion.LWG
p582
aVtc_357_019_gsm_iterator_no_action.LWG
p583
aVtc_358_016_lte_remove_ra_from_ip_area_with_ipAddressReset_irrEnabled_nrrEnabled_false_while_one_pdn_in_unrestricted_ip_area.LWG
p584
aVtc_101_009_multiple_mbms_session_cli_test.LWG
p585
aVtc_101_008_multiple_mbms_session_payload.LWG
p586
aVtc_208_110_dual_stack_legacy_versions_ipv4_ipv4v6.LWG
p587
aVtc_141_032_eth_v4_v6_traffic_vlan.LWG
p588
aVtc_52_12_inter_old_relocation_cancel_no_response.W15acp01
p589
aVtc_324_365_ef_cancel_location_with_subscriptionWithdraw_wf_rab_assignment_response_wf_isd_hlr.W15acp01
p590
aVtc_241_180_intra_rau_wf_delete_session_resp_interfere_by_cancel_location_update_procedure.W15acp01
p591
aVtc_294_064_s1_intra_handover_type_d_with_emergency_pdn_new_plmn_same_emc_sup_same_profile.L15acp01
p592
aVtc_307_050_IRAT_Mobility__TAU_from_W_GnSGSN_Active_flag_off.L15acp01
p593
aVtc_306_1051_ef_seamless_move_target_receive_cancel_location_withdraw_wf_lur_and_service_request_with_emergency_pdn.L15acp01
p594
aVtc_262_1031_emergency_imsi_attach_multiple_pgw_try_next_pgw_fqdn_error.L15acp01
p595
aVtc_44_750_s1_with_two_sctp_endpoints.L15acp01
p596
aVtc_103_1142_sx_resend__resend_during_inter_mme_tau_2_pdns.L15acp01
p597
aVtc_335_21_wifi_to_mobility_in_ecm_idle_mf__one_cell_info_from_wic__all_cells_succeed_from_eNB.L15acp01
p598
aVtc_304_481_uplink_nas_service_request_then_csfb_to_wg_control_mode_threshold_exceeded_usc_detach_eps_service_not_allowed.L15acp01
p599
aVtc_275_400_tau_inter_new_low_subscribed_rau_tau_timer.L15acp01
p600
aVtc_73_07_itc_encrypted_gtpu_s4_payload_w.WG14b
p601
a.