(lp0
Vtc_78_089_ptmsi_attach_accept_home_ms_li_active.LW14b
p1
aVtc_273_307_tau_intra_indicating_emergency_emergency_ongoing_update_location_fails.LW14b
p2
aVtc_304_213_isc_control_mode_threshold_exceeded_wf_session_response_reject.LW14b
p3
aVtc_218_217_2_TAU_from_SGSN__create_bearer_request_while_waiting_for_Initial_Context_Setup_Response.LW14b
p4
aVtc_367_116_pgw_reselection_ho_2_ims_pdn_diff_qci_sgw_send_dbr_both_reactivate_requested.LW14b
p5
aVtc_243_331_tau_from_sgsn_s3_emergency_type_d_no_restriction.LW14b
p6
aVtc_298_829_NRSPCA_S4_nsapi_collision_iu_release_request_while_waiting_for_delete_bearer_request.LW14b
p7
aVtc_262_040_imsi_attach_NOK_emm_registered_ecm_Idle.LW14b
p8
aVtc_332_080_mf__ps_paging_during_cs_paging_cs_is_not_mps_and_ps_is_mps.LW14b
p9
aVtc_326_903_Intra_TAU_Recovery_large_restart_active_flag_on_emergency_type_a_hybrid_csg.LW14b
p10
aVtc_241_1636_israu_new_modify_bearer_response_timeout_followed_by_ms_init_deac.LW14b
p11
aVtc_295_017_Intra_S1_HO__S1_Setup_from_source_and_target_eNB_while_wf_handover_notify.LW14b
p12
aVtc_295_124_tau_after_ho_tz_change_emm_information_meanwhile_handover_required_HO_success.LW14b
p13
aVtc_103_850_error_code_DIAMETER_REALM_NOT_SERVED.LW14b
p14
aVtc_103_1008_create_peer__system_set_prio__same_prio_loadsharing.LW14b
p15
aVtc_103_905_proxy_node_s6a_s13.LW14b
p16
aVtc_260_273_receive_m3_reset_while_wf_setup_iteration_two_session.LW14b
p17
aVtc_73_07_itc_encrypted_gtpu_s4_payload_w.WG14b
p18
aVtc_99_155_intra_g_to_w_mf_with_lawful_intercept.WG14b
p19
aVtc_194_196_hss_reset_visited_network_id_missed_in_apn_configuration_when_dyn_pgw_assignment.L15acp01
p20
aVtc_266_026_DownlinkDataFailureInd_repeat_paging_timer_small_local_restart.L15acp01
p21
aVtc_217_066_rau_to_sgsn_pdn_connectivity_request_when_wf_sgsn_context_ack.L15acp01
p22
aVtc_260_273_receive_m3_reset_while_wf_setup_iteration_two_session.L15acp01
p23
aVtc_44_750_s1_with_two_sctp_endpoints.L15acp01
p24
aVtc_43_005_s1ap_setup.L15acp01
p25
aVtc_295_017_Intra_S1_HO__S1_Setup_from_source_and_target_eNB_while_wf_handover_notify.L15acp01
p26
aVtc_367_116_pgw_reselection_ho_2_ims_pdn_diff_qci_sgw_send_dbr_both_reactivate_requested.L15acp01
p27
aVtc_318_265_sgw_restart_af_relocation_triggered_by_DDN_modify_bearer_request_timeout.LWG
p28
aVtc_243_722_tau_from_sgsn_s3_active_flag_false_ddn_with_imsi_wf_ula.LWG
p29
aVtc_327_227_recovery_service_request__Delete_Subscriber_Data_while_waiting_for_Update_Location_Response.LWG
p30
aVtc_327_037_recovery_intra_TAU_active_off_sgw_unchanged__RAR_wf_CSR_due_to_S11_linkdown.LWG
p31
aVtc_290_041_Timer_Based_GBR_Deact__erab_release_indication_wf_ue_context_release_complete_before_timer_expires.LWG
p32
aVtc_141_021_eth_v6_conf_novlan.LWG
p33
aVtc_208_21_target_info_query_id_format_error.LWG
p34
aVtc_260_273_receive_m3_reset_while_wf_setup_iteration_two_session.LWG
p35
aVtc_107_001_eth_port_cli_mand_vals.LWG
p36
aVtc_157_6_1_snmp_v2_com_consistent_filter.LWG
p37
aVtc_665_1_dp_reboot_init_cm_restart_with_traffic.LWG
p38
aVtc_357_019_gsm_iterator_no_action.LWG
p39
aVtc_219_131_s3_handover_w_to_l_with_cl_two_pdns_one_failed_sgw_relocation.LWG
p40
aVtc_666_02_reboot_ss7_board.LWG
p41
aVtc_295_017_Intra_S1_HO__S1_Setup_from_source_and_target_eNB_while_wf_handover_notify.LWG
p42
aVtc_119_202_ospf_interface_opt_vals.LWG
p43
aVtc_274_102_Intra_and_pTAU__Modify_Bearer_fails_UE_Context_Release_Request_while_waiting_for_delete_session_response.LWG
p44
aVtc_103_1107_fallback_to_imsins_resend_fail_due_to_result_code.LWG
p45
aVtc_73_07_itc_encrypted_gtpu_s4_payload_w.LWG
p46
aVtc_357_023_gsm_iterator_move_ra_from_one_area_to_another.G15acp01
p47
aVtc_23_09_transfer_to_primary_and_change_vip_addr.W15acp01
p48
aVtc_39_433_mas_one_pdp_downlink_data_3gdt_upd_loc_ack_b4_upd_pdp_ctx_resp_target.W15acp01
p49
aVtc_324_216_ef_attach_request_abort_wf_update_location_hss_service_request_done.WG14b
p50
aVtc_357_019_gsm_iterator_no_action.WG14b
p51
aVgn_wcdma_payload_no_context_ensure_stored.WG14b
p52
aVtc_06_421_activate_ipv4v6_visitor_requested_ipv4v6_subscribed_ipv4v6_aifav_true_aifv_true.G15acp01
p53
aVtc_103_860_ue_trace_retransmit.L15acp01
p54
aVtc_262_206_emergency_imsi_attach_activate_deactivate_dedicated_bearers.L15acp01
p55
aVtc_260_273_receive_m3_reset_while_wf_setup_iteration_two_session.L15acp01
p56
aVtc_295_017_Intra_S1_HO__S1_Setup_from_source_and_target_eNB_while_wf_handover_notify.L15acp01
p57
aVtc_203_120_S1_Based_HO_Source_MME_HSS_Reset_while_waiting_for_Forward_Relocation_Complete_Notification.L15acp01
p58
aVtc_289_031_Modify_bearer__Downlink_nas_transport_meanwhile_path_switch_request_HO_success.L15acp01
p59
aVtc_327_317_recovery_service_request__initial_Attach_Request_while_waiting_for_Sub_Procedure__Initial_Context_Setup_Response.L15acp01
p60
aVtc_327_753_recovery_service_request__delete_bearer_request_ho_to_non_3gpp_while_wf_ue_context_modification_response.L15acp01
p61
aVtc_367_116_pgw_reselection_ho_2_ims_pdn_diff_qci_sgw_send_dbr_both_reactivate_requested.L15acp01
p62
aVtc_358_041_lte_iterator_EF_Erab_Release_Indication_wf_delete_session_response.L15acp01
p63
aVtc_210_044_attach_reject_imsi_cc_96.L15acp01
p64
aVtc_304_300_PDN_connectivity__control_mode_threshold_exceeded.L15acp01
p65
aVtc_329_400_x2_ho_rs_restrict.L15acp01
p66
aVtc_194_1640_hss_reset_csfb_to_wg_extended_service_request_as_sgsap_paging_response_in_ecm_idle_hybrid_csg.L15acp01
p67
aVtc_322_021_smooth_move_af_frr_with_service_not_supported.LWG
p68
aVtc_24_176_msc_pool_psho_msc_from_old_sgsn_not_supported_select_msc.LWG
p69
aVtc_367_116_pgw_reselection_ho_2_ims_pdn_diff_qci_sgw_send_dbr_both_reactivate_requested.LWG
p70
aVtc_209_180_handover_w_to_l_source_s4_sgsn.LWG
p71
aVtc_665_34_sr_then_loss.LWG
p72
aVtc_305_030_oms_mmi.LWG
p73
aVtc_157_6_1_snmp_v2_com_consistent_filter.LWG
p74
aVtc_259_112_ef_s6d_tads_interfere_inter_rau_old_g.LWG
p75
aVtc_153_001_if_eth_iu_activate_deactivate.LWG
p76
aVtc_304_503_intra_tau_success_control_mode_threshold_exceeded_dgn_imeisv.LWG
p77
aVtc_107_002_eth_port_cli_ls_an_comb.LWG
p78
aVtc_214_062_combined_attach_combined_tau_interfering_non_combined_tau.LWG
p79
aVtc_306_1333_ef_seamless_move_target_receive_cli_delete_subscriber_wf_ula.LWG
p80
aVtc_666_02_reboot_ss7_board.LWG
p81
aVtc_295_017_Intra_S1_HO__S1_Setup_from_source_and_target_eNB_while_wf_handover_notify.LWG
p82
aVtc_95_13_atm277_emergency.LWG
p83
aVtc_314_049_sgsn_init_qos_modification_handover_l_to_w_interrupt_by_reset_paging_succ.LW14b
p84
aVtc_265_102_Detach_Flow_NW_init__Reattach_Required_Attach_Request_while_waiting_for_Context_Release_Complete.LW14b
p85
aVtc_342_150_pmm_idle_one_pdp_source.LW14b
p86
aVtc_264_029_detach_NOK_emm_registered_ecm_connected.LW14b
p87
aVtc_47_002_imsi_attach_ap_gain.LW14b
p88
aVtc_298_049_nrspca_s4_idle_no_paging_response_timeout_GBR.LW14b
p89
aVtc_361_403_rau_l_to_w_check_pdp_subscription_failure.LW14b
p90
aVtc_295_017_Intra_S1_HO__S1_Setup_from_source_and_target_eNB_while_wf_handover_notify.LW14b
p91
aVtc_260_273_receive_m3_reset_while_wf_setup_iteration_two_session.LW14b
p92
aVtc_82_017_rab_release_request_update_ggsn_fails_system_failure.LW14b
p93
aVtc_326_658_tau_intra_periodic_SGW_unavailable_after_MME_large_restart__create_session_fail_reselect_SGW.LW14b
p94
aVtc_103_852_error_code_DIAMETER_COMMAND_UNSUPPORTED.LW14b
p95
aVtc_103_1000_modify_diameter_peer_prio.LW14b
p96
aVtc_103_1006_secondary_dpl_used_when_all_peers_in_dpl_unavailable_no_sls_peers_same_prio.LW14b
p97
aVtc_248_128_inter_l_to_w_new_rau_request_intial_ue_received_wf_update_location_resp.LW14b
p98
aVtc_284_351_pdn_connectivity_pb_activate_1_dedicated_bearer_interrupted_by_path_switch_request.LW14b
p99
aVtc_214_1086_la_selection_af_oldmscpreferred_combined_tau_dyn_tailist_updated.LW14b
p100
aVtc_367_116_pgw_reselection_ho_2_ims_pdn_diff_qci_sgw_send_dbr_both_reactivate_requested.LW14b
p101
aVtc_194_082_consecutive_hss_resets.LW14b
p102
aVtc_39_433_mas_one_pdp_downlink_data_3gdt_upd_loc_ack_b4_upd_pdp_ctx_resp_target.W15acp01
p103
aVtc_326_280_Intra_TAU_with_unknown_GUTI_SGW_not_change_SGW_unavailable.LWG
p104
aVtc_326_344_Service_Request_with_unknown_STMSI_Update_Location_Answer_timeout.LWG
p105
aVtc_287_015_HSS_based_PCSCF_restoration__ecm_connected_intra_tau_wf_delete_serssion_response.LWG
p106
aVtc_260_219_receive_2_m3_reset_req_while_wf_m3_start_resp.LWG
p107
aVtc_295_017_Intra_S1_HO__S1_Setup_from_source_and_target_eNB_while_wf_handover_notify.LWG
p108
aVtc_367_116_pgw_reselection_ho_2_ims_pdn_diff_qci_sgw_send_dbr_both_reactivate_requested.LWG
p109
aVtc_208_47_df2_alarm_buffer_on.LWG
p110
aVtc_262_903_attach_apnredirectformultipleapn_sgsndefaultorlowest_no_default_apn_no_apn.LWG
p111
aVtc_335_31_wifi_to_mobility_in_ecm_idle_af__cells_from_eNB_more_than_from_WIC.LWG
p112
aVtc_335_87_From_Wifi_ECM_Connected_AF__MME_Feature_Off.LWG
p113
aVtc_357_023_gsm_iterator_move_ra_from_one_area_to_another.LWG
p114
aVtc_357_019_gsm_iterator_no_action.LWG
p115
aVtc_59_12_sequence_on_demand_indexbased_replica_values_during_takeover.LWG
p116
aVtc_327_037_recovery_intra_TAU_active_off_sgw_unchanged__RAR_wf_CSR_due_to_S11_linkdown.LWG
p117
aVtc_327_511_recovery_service_request__ue_context_release_request_wf_Guti_Rollback_complete.LWG
p118
aVtc_103_854_error_code_DIAMETER_INVALID_AVP_VALUE.LWG
p119
aVtc_103_701_MME_restarts.LWG
p120
aVtc_220_400_csfb_to_1xrtt_in_ecm_connected_ue_context_modification_failure_x2_ho_triggered.LWG
p121
aVtc_220_403_csfb_to_1xrtt_in_ecm_connected_path_switch_request_HO_success.LWG
p122
aVtc_665_1_dp_reboot_init_cm_restart_with_traffic.LWG
p123
aVtc_281_027_Activate_bearer__ERAB_setup_response_s1_intra_system_handover_triggered_two_pdn_uninvolved_default_bearer_fail.L15acp01
p124
aVtc_206_023_ebm_server_connection_failed.L15acp01
p125
aVtc_103_024_modify_diameter_peer_switch_peer_numbers.L15acp01
p126
aVtc_367_116_pgw_reselection_ho_2_ims_pdn_diff_qci_sgw_send_dbr_both_reactivate_requested.L15acp01
p127
aVtc_44_750_s1_with_two_sctp_endpoints.L15acp01
p128
aVgn_wcdma_payload_no_context_ensure_stored.WG14b
p129
aVtc_262_513_attach_pb_activate_dedicated_bearer_modify_bearer_no_response.LW14b
p130
aVtc_326_301_Service_Request_with_unknown_STMSI.LW14b
p131
aVtc_260_033_mbms_session_start_mf_two_mce_without_overlapping_sa.LW14b
p132
aVtc_313_238_inter_new_srns_reloc_s16_with_sgw_change_iu_release_request_none_user_inactivity_received_wf_forward_reloc_complete_ack.LW14b
p133
aVtc_51_096_reloc_wf_update_location_response_interfered_by_attach_on_new_iu.LW14b
p134
aVtc_295_017_Intra_S1_HO__S1_Setup_from_source_and_target_eNB_while_wf_handover_notify.LW14b
p135
aVtc_103_203_send_to_peer.LW14b
p136
aVtc_318_302_sgw_restart_relocation_triggered_by_periodic_intra_tau_closed_csg.LW14b
p137
aVtc_103_851_error_code_DIAMETER_APPLICATION_UNSUPPORTED.L15acp01
p138
aVtc_103_901_load_sharing_realm_routing_remote_realm.L15acp01
p139
aVtc_260_099_one_mbms_session_starting_to_two_mce_one_mce_add.L15acp01
p140
aVtc_194_609_DSD__PDN_subscription_contexts_Withdrawal_One_PDN_Disconnect_ECM_IDLE.L15acp01
p141
aVtc_295_017_Intra_S1_HO__S1_Setup_from_source_and_target_eNB_while_wf_handover_notify.L15acp01
p142
aVtc_295_017_Intra_S1_HO__S1_Setup_from_source_and_target_eNB_while_wf_handover_notify.LW14b
p143
aVtc_304_236_isc_active_flag_on_control_mode_threshold_exceeded_ignore_replace_s1_wf_initial_context_setup_response.LW14b
p144
aVtc_260_273_receive_m3_reset_while_wf_setup_iteration_two_session.LW14b
p145
aVtc_210_062_tau_from_sgsn_no_pdp_context_from_old_sgsn.LW14b
p146
aVtc_241_1636_israu_new_modify_bearer_response_timeout_followed_by_ms_init_deac.LW14b
p147
aVtc_275_733_inter_tau_target_detach_with_cause_of_reattach_required_with_not_allowed_apn_in_odb_free_apn_list_for_roamer_odb_bit0.LW14b
p148
aVtc_310_221_ef__Ue_Release_Request_wf_PS_to_CS_Response.LW14b
p149
aVtc_262_600_combined_attach_cs_service_notification_when_emm_attach_state.LW14b
p150
aVtc_107_003_eth_port_cli_opt_vals.LWG
p151
aVtc_119_203_ospf_interface_cli_alg_vals.LWG
p152
aVtc_260_273_receive_m3_reset_while_wf_setup_iteration_two_session.LWG
p153
aVtc_103_850_error_code_DIAMETER_REALM_NOT_SERVED.LWG
p154
aVtc_103_1142_sx_resend__resend_during_inter_mme_tau_2_pdns.LWG
p155
aVtc_251_010_rau_w_to_g_after_hss_reset_storm.LWG
p156
aVtc_202_362_mf_seamless_move_by_ue_5_subscribers_2_target_mmes.LWG
p157
aVtc_194_627_EBT_DSD_in_guti_attach.LWG
p158
aVtc_276_305_Inter_TAU_New_MME__Downlink_Data_Notification_while_waiting_for_failing_Modify_Bearer_Response.LWG
p159
aVtc_208_106_dual_stack_not_supported_ipv4_ipv4v6.LWG
p160
aVtc_357_019_gsm_iterator_no_action.LWG
p161
aVtc_019_001_feIfShow_rt.LWG
p162
aVtc_141_021_eth_v6_conf_novlan.LWG
p163
aVtc_295_017_Intra_S1_HO__S1_Setup_from_source_and_target_eNB_while_wf_handover_notify.LWG
p164
aVtc_243_753_tau_from_sgsn_s3_change_sgw_emergency_type_a_not_allowed_in_csg.LWG
p165
aVtc_12_512_pmm_undefined_attach_when_updating_location_interfered_by_rnc_reset.W15acp01
p166
aVtc_247_171_inter_w_to_l_old_ho_again_after_forward_relocation_complete_timeout.W15acp01
p167
aVtc_361_190_s3_intra_rau_l_to_w_with_dedicate_bearers_3gdt_ipv4v6.LW14b
p168
aVtc_276_448_Inter_TAU_New_MME__Sgs_Paging_CS_Call_while_wait_for_modify_bearer_response.LW14b
p169
aVtc_218_069_tau_from_sgsn_two_pdns_one_apn_not_subscribed_ubr_on_non_live_pdn_wf_tau_compete.LW14b
p170
aVtc_295_017_Intra_S1_HO__S1_Setup_from_source_and_target_eNB_while_wf_handover_notify.LW14b
p171
aVtc_260_273_receive_m3_reset_while_wf_setup_iteration_two_session.LW14b
p172
aVtc_367_116_pgw_reselection_ho_2_ims_pdn_diff_qci_sgw_send_dbr_both_reactivate_requested.LW14b
p173
aVtc_210_054_tau_inter_new_reject.LW14b
p174
aVtc_295_017_Intra_S1_HO__S1_Setup_from_source_and_target_eNB_while_wf_handover_notify.LWG
p175
aVtc_214_703_combined_attach_MSC_selection_in_pool_with_inbound_filter_and_timeout.LWG
p176
aVtc_340_52_validation_move_w_s4_af_forward_relocation_response_service_not_supported.LWG
p177
aVtc_204_450_mme_eps_ho_target_type_d_same_profile_emc_sup_all.LWG
p178
aVtc_12_166_attach_direct_transfer_ptmsi_invalid_transfer_to_new.LWG
p179
aVtc_260_273_receive_m3_reset_while_wf_setup_iteration_two_session.LWG
p180
aVtc_363_021_gbip_feature_off_nses_bscconfirmed_trun_to_false.LWG
p181
aVtc_284_362_pdn_connectivity_handover_indication_no_override_other_apn.LWG
p182
aVtc_103_1138_sx_resend__CCR_I_dpl_changed_host_and_realm.LWG
p183
aVtc_259_83_isd_tads_s4_gsm_act_deact_pdp_context.LWG
p184
aVtc_259_112_ef_s6d_tads_interfere_inter_rau_old_g.LWG
p185
aVtc_357_023_gsm_iterator_move_ra_from_one_area_to_another.WG14b
p186
aVtc_44_750_s1_with_two_sctp_endpoints.L15acp01
p187
aVtc_262_600_combined_attach_cs_service_notification_when_emm_attach_state.L15acp01
p188
aVtc_367_116_pgw_reselection_ho_2_ims_pdn_diff_qci_sgw_send_dbr_both_reactivate_requested.L15acp01
p189
aVtc_295_017_Intra_S1_HO__S1_Setup_from_source_and_target_eNB_while_wf_handover_notify.L15acp01
p190
aVtc_310_310_S3_new_SGW_emergency_attach_sv_pool_on_msc_one_offloading_one_available.L15acp01
p191
aVtc_103_1102_fallback_to_imsins_success.L15acp01
p192
aVtc_206_021_ebm_server_crashes_and_recovers_while_attached.L15acp01
p193
aVtc_327_022_recovery_intra_TAU__initial_Detach_Request_while_waiting_for_Ue_Backup_Response.L15acp01
p194
aVtc_266_026_DownlinkDataFailureInd_repeat_paging_timer_small_local_restart.L15acp01
p195
aVtc_260_273_receive_m3_reset_while_wf_setup_iteration_two_session.L15acp01
p196
aVtc_11_368_activate_ipv4v6_pdp_context_isd_pdp_type_single_to_dual.W15acp01
p197
aVtc_248_144_inter_l_to_w_new_reset_received_received_wf_fwd_reloc_comp_ack.W15acp01
p198
aVtc_241_755_intra_rau_with_sgw_change_subscription_fault_node_function_deactivate_pdp_after_rau_on.W15acp01
p199
aVtc_348_050_large_restart.W15acp01
p200
aVtc_260_273_receive_m3_reset_while_wf_setup_iteration_two_session.L15acp01
p201
aVtc_327_022_recovery_intra_TAU__initial_Detach_Request_while_waiting_for_Ue_Backup_Response.L15acp01
p202
aVtc_193_175_resending_smc_during_service_req_failed.L15acp01
p203
aVtc_295_017_Intra_S1_HO__S1_Setup_from_source_and_target_eNB_while_wf_handover_notify.L15acp01
p204
aVtc_103_700_diameter_retransmit_due_to_peer_down.L15acp01
p205
aVtc_103_850_error_code_DIAMETER_REALM_NOT_SERVED.L15acp01
p206
aVtc_103_1000_modify_diameter_peer_prio.L15acp01
p207
aVtc_367_026_pgw_reselection_tau_emergency_type_a_no_restriction.L15acp01
p208
aVtc_220_587_csfb_to_1xrtt_in_extended_service_request_during_attach_waiting_for_modify_bearer_response.L15acp01
p209
aVtc_103_203_send_to_peer.LW14b
p210
aVtc_103_853_error_code_DIAMETER_INVALID_HDR_BITS.LW14b
p211
aVtc_298_829_NRSPCA_S4_nsapi_collision_iu_release_request_while_waiting_for_delete_bearer_request.LW14b
p212
aVtc_256_141_mme_eps_srvcc_ho_source_cs_only_initial_ue_tau_request_wf_srvcc_ps_to_cs_cancel_acknowledge.LW14b
p213
aVtc_23_15_one_ra_update.LW14b
p214
aVtc_23_39_get_cause_codes_from_rab_assignment_response.LW14b
p215
aVtc_288_222_pgw_init_bearer_mod_QoS_paging_partly_fail_modification_fails_for_default.LW14b
p216
aVtc_358_043_lte_iterator_EF_Service_Request_wf_delete_session_response.LW14b
p217
aVtc_327_012_recovery_intra_TAU__initial_Attach_Request_while_waiting_for_Ue_Backup_Response.LW14b
p218
aVtc_327_370_recovery_service_request__initial_extended_service_request_while_waiting_for_Sub_procedure_Initial_Context_Setup_Response.LW14b
p219
aVtc_263_400_Attach_Flow__Insert_Subcriber_data_ODB_bit0_waiting_for_update_location_response.LW14b
p220
aVtc_313_238_inter_new_srns_reloc_s16_with_sgw_change_iu_release_request_none_user_inactivity_received_wf_forward_reloc_complete_ack.LW14b
p221
aVtc_363_021_gbip_feature_off_nses_bscconfirmed_trun_to_false.LWG
p222
aVtc_157_6_1_snmp_v2_com_consistent_filter.LWG
p223
aVtc_019_001_feIfShow_rt.LWG
p224
aVtc_231_281_activate_pdp_request_ignore_during_s4_pdp_deactivating.LWG
p225
aVtc_208_19_target_info_query.LWG
p226
aVtc_327_030_recovery_intra_TAU__uplink_same_ie_intra_TAU_Request_while_waiting_for_Ue_Backup_Response.LWG
p227
aVtc_327_022_recovery_intra_TAU__initial_Detach_Request_while_waiting_for_Ue_Backup_Response.LWG
p228
aVtc_295_017_Intra_S1_HO__S1_Setup_from_source_and_target_eNB_while_wf_handover_notify.LWG
p229
aVtc_107_101_eth_vlan_cli.LWG
p230
aVtc_251_66_w_to_l_to_w_with_cl_type_initialAttach_cl_after_sgsn_con_req.LWG
p231
aVtc_357_338_gsm_local_user_intra_tau_without_pdp_from_no_ip_area_to_ip_area.LWG
p232
aVtc_26_228_downlink_paging_interfered_by_insert_subscriber_data_rab_assignment_response_with_decreased_qos_GnOverrideSubscribedQos.LWG
p233
aVtc_367_026_pgw_reselection_tau_emergency_type_a_no_restriction.LWG
p234
aVtc_39_771_mas_rnc_reset_when_wf_ptmsi_realloc_cmpl_source.LWG
p235
aVtc_234_020_administrative_messages.LWG
p236
aVtc_267_230_Service_Request__Transfered_Attach_Request_while_waiting_for_Initial_Context_Setup_Response.LWG
p237
aVtc_209_201_s4_activate_failed.LWG
p238
aVtc_295_017_Intra_S1_HO__S1_Setup_from_source_and_target_eNB_while_wf_handover_notify.LWG
p239
aVtc_210_044_attach_reject_imsi_cc_96.LWG
p240
aVtc_367_026_pgw_reselection_tau_emergency_type_a_no_restriction.LWG
p241
aVtc_314_001_hss_init_qos_modification_apn_ambr_higher_than_policymap.LWG
p242
aVtc_166_154_israu_rau_new_rnc_non_3gdt_compliant.LWG
p243
aVtc_327_262_recovery_service_request_MBR_timeout__Create_Bearer_Request_wf_Guti_Reallocation_Complete.LWG
p244
aVtc_39_601_mas_unsucc_fwd_reloc_resp_mandatory_ie_missing_stop_source.LWG
p245
aVtc_324_424_ef_payload_buffered_wf_security_mode_complete_payload_different_contextId.LWG
p246
aVtc_26_114_inter_srns_reloc_new_SGSN_ARP_old_not_support.LWG
p247
aVtc_157_6_1_snmp_v2_com_consistent_filter.LWG
p248
aVtc_232_511_static_routes__bfd_supervision_of_static_route_v6_on_Gom.LWG
p249
aVtc_232_504_static_routes__ipv6_same_host_dest_4_sr.LWG
p250
aVtc_349_108_RAU_new_sgsn__RAU_Req_on_new_iu_while_waiting_for_CCA_initial_transfer.LWG
p251
aVtc_265_160_Detach_Flow_NW_init__Ue_moved_to_non_3gpp_while_imsi_detach.LWG
p252
aVtc_348_444_pra_period_rau_from_new_sai_then_service_request_data.LW14b
p253
aVtc_38_23_israu_new_sgsn_old_ptmsi_signature_mismatch_gtp_v0.LW14b
p254
aVtc_298_201_SIBD_S4_RAB_Release_3GDT_GTP_Resource_Unavailable.LW14b
p255
aVtc_312_250_inter_old_srns_reloc_wf_session_to_complete_interrupted_by_gtpv1_sgsn_context_request.LW14b
p256
aVtc_103_853_error_code_DIAMETER_INVALID_HDR_BITS.LW14b
p257
aVtc_367_026_pgw_reselection_tau_emergency_type_a_no_restriction.LW14b
p258
aVtc_295_017_Intra_S1_HO__S1_Setup_from_source_and_target_eNB_while_wf_handover_notify.LW14b
p259
aVtc_313_238_inter_new_srns_reloc_s16_with_sgw_change_iu_release_request_none_user_inactivity_received_wf_forward_reloc_complete_ack.LW14b
p260
aVtc_220_587_csfb_to_1xrtt_in_extended_service_request_during_attach_waiting_for_modify_bearer_response.LW14b
p261
aVtc_327_021_recovery_intra_TAU__uplink_Detach_Request_while_waiting_for_Update_Location_Response.LW14b
p262
aVtc_327_380_recovery_service_request__create_bearer_request_while_waiting_for_Location_Update_Response.LW14b
p263
aVtc_23_03_data_record_transfer_to_secondary_bs_after_timeout.W15acp01
p264
aVtc_324_388_ef_mo_sms_wf_ula.W15acp01
p265
aVtc_250_150_isd_with_odb_init_deactivation.W15acp01
p266
aVtc_340_25_validation_move_g_af_modify_trigger_stop_ongoing_job.WG14b
p267
aVtc_226_003_G__USC_Routing_Area_Update_Request_ControlMode_On.WG14b
p268
aVtc_357_018_gsm_iterator_turn_off_feature_with_ipAddressReset_irrEnabled_nrrEnabled_false.WG14b
p269
aVtc_34_2_isc_attach_no_detach_w_to_g.WG14b
p270
aVtc_34_5_israu_new_isc_w_to_g_no_pdp_context.WG14b
p271
aVtc_34_28_israu_new_isc_w_to_g_one_pdp_context_qos_change_ipv4.WG14b
p272
aVtc_34_62_israu_new_w_to_g_one_pdp_context_rau_accept_then_dsd.WG14b
p273
aVtc_20_1_isc_new_g_delete_request_during_update_from_ggsn_97.WG14b
p274
aVtc_20_2_isc_new_g_delete_request_ggsn_97_during_camel_report.WG14b
p275
aVtc_33_56_israu_new_isc_g_to_w_rau_resent_new_ptmsi.WG14b
p276
aVtc_306_1308_ef_seamless_move_target_buffer_update_bearer_request.L15acp01
p277
aVtc_295_017_Intra_S1_HO__S1_Setup_from_source_and_target_eNB_while_wf_handover_notify.L15acp01
p278
aVtc_327_255_recovery_service_request_MBR_timeout__PDN_Connectivity_Request_wf_Guti_Reallocation_Complete.L15acp01
p279
aVtc_103_701_MME_restarts.L15acp01
p280
aVtc_310_310_S3_new_SGW_emergency_attach_sv_pool_on_msc_one_offloading_one_available.L15acp01
p281
aVtc_369_100_HSS_based_PCSCF_restoration_ecm_connected_no_ims_PDN.L15acp01
p282
aVtc_346_633_pra_cn_predefined_ecgi_list__attach_no_sx_pdn_in_pra.L15acp01
p283
aVtc_241_733_service_request_wf_modify_bearer_response_interfered_by_activate_pdp_context.W15acp01
p284
aVtc_298_826_NRSPCA_S4_nsapi_collision_receiving_detach_request_while_waiting_for_delete_bearer_request.W15acp01
p285
aVtc_304_266_tau_from_gnsgsn_2g_control_mode_wf_delete_all_bearers_response_exception_case_reject_congestion_subscriber_cancelled.LWG
p286
aVtc_119_203_ospf_interface_cli_alg_vals.LWG
p287
aVtc_319_047_tau_ef_table_not_matched_from_mme_to_mme_stop_by_attach.LWG
p288
aVtc_295_017_Intra_S1_HO__S1_Setup_from_source_and_target_eNB_while_wf_handover_notify.LWG
p289
aVtc_214_407_combined_attach_vlr_reset_imsi_detach_interferred_by_combined_tau.LWG
p290
aVtc_208_48_df2_alarm_buffer_off.LWG
p291
aVtc_288_101_pgw_init_bearer_mod_one_bad_one_good_one_unknown_one_not_responding_bearer.LWG
p292
aVtc_59_12_sequence_on_demand_indexbased_replica_values_during_takeover.LWG
p293
aVtc_107_002_eth_port_cli_ls_an_comb.LWG
p294
aVtc_289_031_Modify_bearer__Downlink_nas_transport_meanwhile_path_switch_request_HO_success.LWG
p295
aVtc_326_271_Periodic_Intra_TAU_with_unknown_GUTI_active_flag.LWG
p296
aVtc_294_321_intra_mme_handover_with_ta_change_tai_different_from_s1ho.LWG
p297
aVtc_287_015_HSS_based_PCSCF_restoration__ecm_connected_intra_tau_wf_delete_serssion_response.LWG
p298
aVtc_367_026_pgw_reselection_tau_emergency_type_a_no_restriction.LWG
p299
aVtc_666_02_reboot_ss7_board.LWG
p300
aVtc_214_028_combined_attach_interfering_s1_reset.L15acp01
p301
aVtc_329_410_x2_ho_rs_restricted_rr_restricted_forbidden_tas_plmn_change.L15acp01
p302
aVtc_103_851_error_code_DIAMETER_APPLICATION_UNSUPPORTED.L15acp01
p303
aVtc_346_728_pra_cn_predefined_lrc_optimization_x2_ho__continuous_ho_all_enbs_lrc_needed.L15acp01
p304
aVtc_268_028_UE_Release_Flow__S1_Reset_while_wf_Release_Access_Bearers_Response_followed_by_Extended_Service_Request.L15acp01
p305
aVtc_268_060_Timer_Based_GBR_Deact__Detach_Request_Initial_UE_before_Timer_Expires.L15acp01
p306
aVtc_327_316_recovery_service_request__initial_Attach_Request_while_waiting_for_Sub_Procedure__Create_Session_Response_Old_Sgw_Unavailable.L15acp01
p307
aVtc_256_010_mme_eps_srvcc_ho_source_cs_only_mf_with_rau_to_s4_sgsn_for_multiple_voice_bearers_in_one_pdn.L15acp01
p308
aVtc_47_004_mobile_reachble_timer_ap_loss.L15acp01
p309
aVtc_250_154_attach_eps_sub_no_odb_activation_insert_gprs_sub_with_odb_deact.LW14b
p310
aVtc_103_701_MME_restarts.LW14b
p311
aVtc_295_017_Intra_S1_HO__S1_Setup_from_source_and_target_eNB_while_wf_handover_notify.LW14b
p312
aVtc_335_155_Locator_Restart__Attach_GA_change.LW14b
p313
aVtc_256_367_srvcc_ho_source_cs_only_gsm_2_msc_available.LW14b
p314
aVtc_302_217_1xrtt_srvcc_no_response_from_iws.LW14b
p315
aVtc_302_087_mme_relocation_tau_new_followed_by_uplink_tunneling_message.LW14b
p316
aVtc_304_135_uplink_nas_intra_tau_control_mode_threshold_exceeded_usc_detach_wf_tau_complete_after_handover.LW14b
p317
aVtc_367_026_pgw_reselection_tau_emergency_type_a_no_restriction.LW14b
p318
aVtc_262_600_combined_attach_cs_service_notification_when_emm_attach_state.L15acp01
p319
aVtc_283_024_GW_Deactivate_Bearer__Update_Bearer_Request_Dedicated_Bearer_one_bearer_already_deleted.L15acp01
p320
aVtc_310_116_af__HO_Cancel_before_Response_from_MSC_after_Response_from_SGSN.L15acp01
p321
aVtc_367_026_pgw_reselection_tau_emergency_type_a_no_restriction.L15acp01
p322
aVtc_103_1106_fallback_to_imsins_resend_success.L15acp01
p323
aVtc_327_021_recovery_intra_TAU__uplink_Detach_Request_while_waiting_for_Update_Location_Response.L15acp01
p324
aVtc_327_532_recovery_service_request__Imsi_Page_while_waiting_for_Location_Update_Answer.L15acp01
p325
aVtc_260_242_receive_sm_start_req_while_wf_m3_stop_resp_two_mce.LWG
p326
aVtc_367_026_pgw_reselection_tau_emergency_type_a_no_restriction.LWG
p327
aVtc_216_002_icmpv6_inEchos.LWG
p328
aVtc_216_005_icmpv6_inParmProbs.LWG
p329
aVtc_216_009_icmpv6_inDestUnreachs.LWG
p330
aVtc_216_012_icmpv6_inNeighborAds.LWG
p331
aVtc_216_101_icmpv6_outMsgs.LWG
p332
aVtc_295_017_Intra_S1_HO__S1_Setup_from_source_and_target_eNB_while_wf_handover_notify.LWG
p333
aVtc_209_171_tcp_df3_alarm_udp_clear_alarm.LWG
p334
aVtc_209_44_sgsn_init_pdp_modification.LWG
p335
aVtc_241_452_israu_new_with_10_dedicated_bearer_sgw_change_mf_s4.LWG
p336
aVtc_208_60_isc_attach_w_to_g_activate_deactivate.LWG
p337
aVtc_97_035_inter_sgsn_psho_mf_with_lawful_intercept.LWG
p338
aVtc_107_001_eth_port_cli_mand_vals.LWG
p339
aVtc_107_005_eth_port_cli_autonegotiation.LWG
p340
aVtc_019_001_feIfShow_rt.LWG
p341
aVtc_357_023_gsm_iterator_move_ra_from_one_area_to_another.G15acp01
p342
aVtc_273_247_tau_intra__sgw_reloc_mult_pdn_connections_active_2_ok_1_fail.LW14b
p343
aVtc_345_220_af__mo_csfb_with_psho__ecm_connected_sgw_relocation_no_cancel_location_from_hss.LW14b
p344
aVtc_346_364_handover_to_gn_sgsn_source_terminate_sx_session.LW14b
p345
aVtc_236_104_s4_3gdt_based_on_sr_inter_rau_then_rau_back_within_20s_with_new_ptmsi.LW14b
p346
aVtc_12_182_wcdma_repeat_paging_with_old_ptmsi.LW14b
p347
aVtc_103_701_MME_restarts.LW14b
p348
aVtc_295_017_Intra_S1_HO__S1_Setup_from_source_and_target_eNB_while_wf_handover_notify.LW14b
p349
aVtc_274_141_Intra_and_pTAU__Imei_Check_Answer_Blacklisted_after_Emergency_Attach_Type_d_during_Intra_TAU_au_true_ire_false.LW14b
p350
aVtc_327_012_recovery_intra_TAU__initial_Attach_Request_while_waiting_for_Ue_Backup_Response.LW14b
p351
aVtc_304_236_isc_active_flag_on_control_mode_threshold_exceeded_ignore_replace_s1_wf_initial_context_setup_response.LW14b
p352
aVtc_290_025_Timer_Based_GBR_Deact__insert_subscription_data_wf_release_access_bearer_response_before_timer_expires.LW14b
p353
aVtc_256_206_mme_eps_srvcc_ho_source_cs_only_service_request_wf_srvcc_ps_to_cs_cancel_acknowledge.LW14b
p354
aVtc_310_117_af__HO_Cancel_before_Response_from_SGSN_after_Response_from_MSC.LW14b
p355
aVtc_195_532_mme_logging_ue_unrechable.LW14b
p356
aVtc_327_021_recovery_intra_TAU__uplink_Detach_Request_while_waiting_for_Update_Location_Response.LW14b
p357
aVtc_327_500_recovery_service_request__s1_reset_while_waiting_for_Sub_Procedure__Initial_Context_Setup_Response.LW14b
p358
aVtc_234_006_interrogate_df.LW14b
p359
aVtc_273_024_tau_intra_normal_idle_active_flag_false.LW14b
p360
aVtc_295_017_Intra_S1_HO__S1_Setup_from_source_and_target_eNB_while_wf_handover_notify.LW14b
p361
aVtc_214_801_mo_sms_active_nas_non_delivery_s1_intra_system_handover_triggered_HO_ongoing_when_hold_timeout.LW14b
p362
aVtc_276_305_Inter_TAU_New_MME__Downlink_Data_Notification_while_waiting_for_failing_Modify_Bearer_Response.LW14b
p363
aVtc_304_127_initial_ue_intra_tau_previous_one_is_rejected_control_mode_threshold_exceeded_usc_reject.LW14b
p364
aVtc_357_023_gsm_iterator_move_ra_from_one_area_to_another.G15acp01
p365
aVtc_324_350_ef_relocation_required_reject.W15acp01
p366
aVtc_28_046_mo_sms_old_cdr_format_r7.W15acp01
p367
aVtc_101_022_mbms_session_hsdpa.W15acp01
p368
aVtc_263_312_Attach_Flow__Attach_Request_from_new_eNodeB__page_to_new_eNodeB.LWG
p369
aVtc_239_602_irat_rau_to_gsm_with_dedicated_bearer_interfered_by_detach.LWG
p370
aVtc_160_008_reset_rnc_initiated_sr.LWG
p371
aVtc_232_504_static_routes__ipv6_same_host_dest_4_sr.LWG
p372
aVtc_273_406_tau_intra_dedicated_bearers_active_flag_modify_bearer_partially_accepted_default_bearer_cc94.LWG
p373
aVtc_259_78_ef_isd_ms_init_detach_s4_w.LWG
p374
aVtc_306_192_ef_seamless_move_source_receive_path_switch_request_wf_source_guti_reallocation_complete.LWG
p375
aVtc_295_017_Intra_S1_HO__S1_Setup_from_source_and_target_eNB_while_wf_handover_notify.LWG
p376
aVtc_196_191_nrspca_iu_released_with_iu_satellite_hpa_arp1.LWG
p377
aVtc_103_1108_attach_resend_of_AIR_successful_last_retry.LWG
p378
aVtc_367_026_pgw_reselection_tau_emergency_type_a_no_restriction.LWG
p379
aVtc_261_41_isd_ef_mme_pool_3gpp_move.LWG
p380
aVtc_210_054_tau_inter_new_reject.LWG
p381
aVtc_293_229_X2_Based_HO_wo_SGW_change__s1_reset_then_back_to_old_eNodeB_by_SR_succeed.LWG
p382
aVtc_260_273_receive_m3_reset_while_wf_setup_iteration_two_session.LWG
p383
aVtc_258_104_location_report_IMSI_unknown_in_PGW_one_pdn_connection.LWG
p384
aVtc_314_048_sgsn_init_qos_modification_handover_l_to_w_interrupt_by_reset_paging_fail.LWG
p385
aVtc_241_452_israu_new_with_10_dedicated_bearer_sgw_change_mf_s4.LWG
p386
aVtc_310_243_ef__S1_Reset_wf_PS_to_CS_Complete_and_FR_Complete.LWG
p387
aVtc_310_335_ef_dbr_non_voice_bearer_wf_forward_relocation_complete_and_forward_relocation_complete_ack.LWG
p388
aVtc_302_074_mt_sms_from_second_iws.LWG
p389
aVtc_275_310_tau_inter_new_active_flag_keep_two_pdns_one_default_bearer_fail_in_eNB.LWG
p390
aVtc_283_038_GW_Deactivate_Bearer__Default_bearer_Delete_Interrupt_Dedicated_Bearer_Delete_no_response_from_ue_ecm_connected.LWG
p391
aVtc_194_119_cli_list_subscribers.L15acp01
p392
aVtc_44_750_s1_with_two_sctp_endpoints.L15acp01
p393
aVtc_266_026_DownlinkDataFailureInd_repeat_paging_timer_small_local_restart.L15acp01
p394
aVtc_197_807_sgw_prioritized_gw_selection_initial_pdn_connection_gw_blacklisting_enabled.L15acp01
p395
aVtc_346_300_Combination__PGW_Selection_UserLocationChange_RFSP.L15acp01
p396
aVtc_267_509_Service_Request_SGW_unavailable__Context_Request_while_wf_Create_Session_Response.L15acp01
p397
aVtc_256_198_mme_eps_srvcc_ho_source_cs_only_cancel_location_normal_srvcc_with_emergency_pdn_wf_session_finished.L15acp01
p398
aVtc_166_130_israu_new_3gdt_apn_not_in_hlr.WG14b
p399
aVtc_260_273_receive_m3_reset_while_wf_setup_iteration_two_session.LWG
p400
aVtc_367_026_pgw_reselection_tau_emergency_type_a_no_restriction.LWG
p401
aVtc_259_99_ef_s6d_s4_attach_old_w.LWG
p402
aVtc_77_5_attach_activate2_g_crash.LWG
p403
aVtc_264_072_HSS_Initiated_Detach_tz_change.LWG
p404
aVtc_178_720_action_ss7_tcap_subsystem.LWG
p405
aVtc_141_032_eth_v4_v6_traffic_vlan.LWG
p406
aVtc_57_3_nonindexed_gauge.LWG
p407
aVtc_327_037_recovery_intra_TAU_active_off_sgw_unchanged__RAR_wf_CSR_due_to_S11_linkdown.LWG
p408
aVtc_665_7_dp_block_deblock_within_4_min.LWG
p409
aVtc_321_093_mt_sms_segmented_tc_u_abort_after_second_segment.LWG
p410
aVtc_82_021_rab_modify_interrupted_by_israu.LWG
p411
aVtc_204_050_mme_eps_ho__no_modify_response_tau_req.LWG
p412
aVtc_346_464_AF__Service_Request_CCA_Update_with_Result_Code_5003_4003.LW14b
p413
aVtc_346_466_AF__Service_Request_CCA_Update_with_Result_Code_4001.LW14b
p414
aVtc_313_238_inter_new_srns_reloc_s16_with_sgw_change_iu_release_request_none_user_inactivity_received_wf_forward_reloc_complete_ack.LW14b
p415
aVtc_367_026_pgw_reselection_tau_emergency_type_a_no_restriction.LW14b
p416
aVtc_262_522_attach_successful_csr_piggybacked_with_cbr_one_dedicated_bearer_too_high_qos.LW14b
p417
aVtc_273_248_tau_intra__sgw_reloc_mult_pdn_dedicated_failure_1_pdn_active.L15acp01
p418
aVtc_367_026_pgw_reselection_tau_emergency_type_a_no_restriction.L15acp01
p419
aVtc_261_62_isd_ef_mme_interfere_intra_tau_with_sgw_change.L15acp01
p420
aVtc_44_750_s1_with_two_sctp_endpoints.L15acp01
p421
aVtc_276_282_Inter_TAU_New_MME__Delete_Bearer_Request_change_to_non_3gpp_while_waiting_for_Modify_Bearer_Response.L15acp01
p422
aVtc_327_022_recovery_intra_TAU__initial_Detach_Request_while_waiting_for_Ue_Backup_Response.L15acp01
p423
aVtc_295_017_Intra_S1_HO__S1_Setup_from_source_and_target_eNB_while_wf_handover_notify.LW14b
p424
aVtc_288_105_pgw_init_bearer_mod_ue_not_responding_all_bearers.LW14b
p425
aVtc_47_003_unstable_ue_ap_loss.LW14b
p426
aVtc_367_026_pgw_reselection_tau_emergency_type_a_no_restriction.LW14b
p427
aVtc_260_219_receive_2_m3_reset_req_while_wf_m3_start_resp.LW14b
p428
aVtc_260_273_receive_m3_reset_while_wf_setup_iteration_two_session.LW14b
p429
aVtc_44_340_sctp_counter_index_SGsAP.LW14b
p430
aVtc_287_027_HSS_based_PCSCF_restoration__ecm_connected_delete_subscriber_data_wf_delete_session_response.LW14b
p431
aVtc_335_110_Intra_TAU__GA_change.LW14b
p432
aVtc_302_113_mme_connection_closed_network_initiated_detach.LW14b
p433
aVtc_327_022_recovery_intra_TAU__initial_Detach_Request_while_waiting_for_Ue_Backup_Response.LW14b
p434
aVtc_231_227_PGW_Initiated_Modification_EARP_idle_one_tunnel.W15acp01
p435
aVtc_289_017_Modify_bearer__ERAB_modify_request_meanwhile_path_switch_request_HO_success.L15acp01
p436
aVtc_346_493_Small_Local_Restart__Terminate_when_UE_S1_release.L15acp01
p437
aVtc_44_750_s1_with_two_sctp_endpoints.L15acp01
p438
aVtc_44_850_mme_assoc_reestablish__board_restart_s1_mme.L15acp01
p439
aVtc_290_043_Timer_Based_GBR_Deact__cancel_location_with_subscription_withdrawn_wf_ue_context_release_complete_before_timer_expires.L15acp01
p440
aVtc_237_306_mme_eps_irat_Gn_ho_source__With_fwd_rel_resp_accepted_but_with_failedbearers.L15acp01
p441
aVtc_225_601_exp_flow_path_swith_request_while_wf_modification_context_response.L15acp01
p442
aVtc_313_238_inter_new_srns_reloc_s16_with_sgw_change_iu_release_request_none_user_inactivity_received_wf_forward_reloc_complete_ack.WG14b
p443
aVtc_50_011_activate_interactive_camel_subscriber.LWG
p444
aVtc_202_320_mf_seamless_move_by_mme_ue_ecm_idle_s1_sel_freq_1.LWG
p445
aVtc_334_286_path_failure_service_req_connected_3gdt_af_create_session_no_resp.LWG
p446
aVtc_326_206_Intra_TAU_Recovery_with_old_GUTI.LWG
p447
aVtc_220_025_csfb_to_1xrtt_ue_suspended_hss_reset.LWG
p448
aVtc_141_025_eth_v4_v6_conf_vlan.LWG
p449
aVtc_367_026_pgw_reselection_tau_emergency_type_a_no_restriction.LWG
p450
aVtc_260_273_receive_m3_reset_while_wf_setup_iteration_two_session.LWG
p451
aVtc_214_821_SGW_unavailable_Combined_Intra_TAU.LWG
p452
aVtc_262_1084_attach_tac_based_roaming_restriction_table_empty.LWG
p453
aVtc_665_1_dp_reboot_init_cm_restart_with_traffic.LWG
p454
aVtc_289_017_Modify_bearer__ERAB_modify_request_meanwhile_path_switch_request_HO_success.LWG
p455
aVtc_226_112_W_S4_USC_PDP_Context_Activation__ControlMode_On_reject_action_different_ongoing_wf_sgw_response.LWG
p456
aVtc_311_24_intra_srns_reloc_s4_with_sgw_change_with_11_pdns.LWG
p457
aVtc_157_4_1_snmp_consistent_filter.LWG
p458
aVtc_234_020_administrative_messages.G15acp01
p459
aVtc_324_318_ef_s6d_cli_delete_subscriber_wf_security_hss.LW14b
p460
aVtc_47_004_mobile_reachble_timer_ap_loss.LW14b
p461
aVtc_262_040_imsi_attach_NOK_emm_registered_ecm_Idle.LW14b
p462
aVtc_313_238_inter_new_srns_reloc_s16_with_sgw_change_iu_release_request_none_user_inactivity_received_wf_forward_reloc_complete_ack.LW14b
p463
aVtc_578_63_uetrace2pcap_deactivate_eps_bearer_check_warning.LW14b
p464
aVtc_103_853_error_code_DIAMETER_INVALID_HDR_BITS.LW14b
p465
aVtc_103_1007_secondary_dpl_set_and_then_emptied.LW14b
p466
aVtc_103_1109_attach_resend_of_AIR_no_more_peers.LW14b
p467
aVtc_103_1137_sx_resend__CCR_I_retransmit_then_diameter_too_busy_then_timeout_resend_no_more_peers_only_realm.LW14b
p468
aVtc_243_330_tau_from_sgsn_s3_emergency_type_a_no_restriction.LW14b
p469
aVtc_367_026_pgw_reselection_tau_emergency_type_a_no_restriction.LW14b
p470
aVtc_326_233_Intra_TAU_Recovery_fail_Security_Mode_Reject_then_Reattach.LWG
p471
aVtc_295_017_Intra_S1_HO__S1_Setup_from_source_and_target_eNB_while_wf_handover_notify.LWG
p472
aVtc_367_026_pgw_reselection_tau_emergency_type_a_no_restriction.LWG
p473
aVtc_248_09_inter_l_to_w_new_3gdt.LWG
p474
aVtc_306_1356_ef_seamless_move_target_buffer_provide_location_request_wf_icsr_with_lppa.LWG
p475
aVtc_157_6_1_snmp_v2_com_consistent_filter.LWG
p476
aVtc_284_109_pdn_connectivity_connection_same_apn_other_pdn_type.LWG
p477
aVtc_260_219_receive_2_m3_reset_req_while_wf_m3_start_resp.LWG
p478
aVtc_260_273_receive_m3_reset_while_wf_setup_iteration_two_session.LWG
p479
aVtc_313_212_inter_new_srns_reloc_s16_without_sgw_change_transfered_attach_request_received_wf_forward_reloc_complete_ack.WG14b
p480
aVtc_357_023_gsm_iterator_move_ra_from_one_area_to_another.WG14b
p481
aVtc_230_075_activation_wait_bss_pfc_ack_interrupted_by_sgsn_context_req.G15acp01
p482
aVtc_44_045_config_ep_SBc.L15acp01
p483
aVtc_295_124_tau_after_ho_tz_change_emm_information_meanwhile_handover_required_HO_success.L15acp01
p484
aVtc_103_206_sticky_hss_host_name.L15acp01
p485
aVtc_306_1051_ef_seamless_move_target_receive_cancel_location_withdraw_wf_lur_and_service_request_with_emergency_pdn.L15acp01
p486
aVtc_260_273_receive_m3_reset_while_wf_setup_iteration_two_session.L15acp01
p487
aVtc_286_128_pdn_disconnect_emergency_pdn_connection_with_2_dedicated_bearers.L15acp01
p488
aVtc_266_026_DownlinkDataFailureInd_repeat_paging_timer_small_local_restart.L15acp01
p489
aVtc_327_250_recovery_service_request_MBR_timeout__uplink_Attach_Request_wf_Guti_Reallocation_Complete.L15acp01
p490
aVtc_327_317_recovery_service_request__initial_Attach_Request_while_waiting_for_Sub_Procedure__Initial_Context_Setup_Response.L15acp01
p491
aVtc_210_044_attach_reject_imsi_cc_96.L15acp01
p492
aVtc_346_495_Small_Local_Restart__No_Terminate_when_UE1_Attach_waiting_for_CCA_Initial_UE2_Attach_waiting_for_MBR.L15acp01
p493
aVtc_346_493_Small_Local_Restart__Terminate_when_UE_S1_release.L15acp01
p494
aVtc_327_335_recovery_service_request__initial_Detach_Request_while_waiting_for_Location_Update_Response.L15acp01
p495
aVtc_284_351_pdn_connectivity_pb_activate_1_dedicated_bearer_interrupted_by_path_switch_request.L15acp01
p496
aVtc_103_101_destination_host_is_peer.L15acp01
p497
aVtc_347_001_Inter_TAU_New_MME__Attach_Req_while_waiting_for_CCA_initial.L15acp01
p498
aVtc_44_750_s1_with_two_sctp_endpoints.L15acp01
p499
aVtc_267_820_dbr_triggered_pgw_reselection__wf_service_request.L15acp01
p500
aVtc_326_380_Service_Request_with_unknown_STMSI_multiple_retrieve_responses.L15acp01
p501
aVtc_307_011_HSS_Init_QoS_Modification__UEAMBR_and_APNAMBR_Changed_ECM_IDLE.L15acp01
p502
aVtc_310_112_af__timeout_on_both_SRVCC_PS_to_CS_Complete_Notification_and_FR_Complete.LWG
p503
aVtc_237_006_mme_eps_irat_ho_source__no_forw_rel_complete.LWG
p504
aVtc_218_302_tau_inter_new_new_sgw_too_high_QoS_for_one_default_and_one_dedicated_bearer_gn_sgsn.LWG
p505
aVtc_103_855_error_code_DIAMETER_CONTRADICTING_AVPS.LWG
p506
aVtc_103_1131_sx_resend__CCR_I_diameter_unable_to_deliver_then_diameter_too_busy_host_and_realm.LWG
p507
aVtc_220_597_csfb_to_1xrtt_hss_reset_during_extended_service_request.LWG
p508
aVtc_24_171_msc_pool_israu_msc_from_old_sgsn_supported_but_offloading_select_msc.LWG
p509
aVtc_307_011_HSS_Init_QoS_Modification__UEAMBR_and_APNAMBR_Changed_ECM_IDLE.LWG
p510
aVtc_367_026_pgw_reselection_tau_emergency_type_a_no_restriction.LWG
p511
aVtc_267_820_dbr_triggered_pgw_reselection__wf_service_request.LWG
p512
aVtc_141_028_eth_v6_traffic_conf_deconf_vlan.LWG
p513
aVtc_194_007_cl_update_procedure_unknown_mme.LWG
p514
aVtc_209_180_handover_w_to_l_source_s4_sgsn.LWG
p515
aVtc_298_826_NRSPCA_S4_nsapi_collision_receiving_detach_request_while_waiting_for_delete_bearer_request.LWG
p516
aVtc_39_771_mas_rnc_reset_when_wf_ptmsi_realloc_cmpl_source.LWG
p517
aVtc_367_026_pgw_reselection_tau_emergency_type_a_no_restriction.LW14b
p518
aVtc_242_001_rau_to_sgsn_s3_keep_sgw.LW14b
p519
aVtc_267_820_dbr_triggered_pgw_reselection__wf_service_request.LW14b
p520
aVtc_194_084_hss_reset_after_large_restart.LW14b
p521
aVtc_250_154_attach_eps_sub_no_odb_activation_insert_gprs_sub_with_odb_deact.LW14b
p522
aVtc_26_107_GGSN_init_PDP_modify_ARP.LW14b
p523
aVtc_327_316_recovery_service_request__initial_Attach_Request_while_waiting_for_Sub_Procedure__Create_Session_Response_Old_Sgw_Unavailable.LW14b
p524
aVtc_307_011_HSS_Init_QoS_Modification__UEAMBR_and_APNAMBR_Changed_ECM_IDLE.LW14b
p525
aVtc_324_043_af_mbr_higher_than_policymap.W15acp01
p526
aVtc_307_011_HSS_Init_QoS_Modification__UEAMBR_and_APNAMBR_Changed_ECM_IDLE.LWG
p527
aVtc_267_820_dbr_triggered_pgw_reselection__wf_service_request.LWG
p528
aVtc_234_006_interrogate_df.LWG
p529
aVtc_321_079_gn_logging_gtpv0_error_indication_from_ggsn.LWG
p530
aVtc_285_006_PDN_Connectivity_Pb__Delete_default_bearer_request_while_wf_modify_bearer_response.LWG
p531
aVtc_244_055_mt_lr_cancel_location_with_update_procedure_received_wf_location_report.LWG
p532
aVtc_284_421_pdn_connection_apnredirectformultipleapn_sgsndefault_apn_misspelled_same_apn.LWG
p533
aVtc_306_234_ef_seamless_move_source_receive_delete_bearer_request_wf_source_guti_reallocation_complete.LWG
p534
aVtc_368_008_pgw_reselection_ubr_other_pdn_wf_service_request.LWG
p535
aVtc_107_003_eth_port_cli_opt_vals.LWG
p536
aVtc_107_005_eth_port_cli_autonegotiation.LWG
p537
aVtc_329_761_intra_irat_gn_tau_w_to_l_rs_restricted.LWG
p538
aVtc_367_026_pgw_reselection_tau_emergency_type_a_no_restriction.LWG
p539
aVtc_367_212_pgw_reselection_service_request_recovery_with_qci_1_reactivate_requested.LWG
p540
aVtc_203_471_mme_eps_ho_source__dbr_triggered_pgw_reselection_wf_forward_relocation_response.LWG
p541
aVtc_295_017_Intra_S1_HO__S1_Setup_from_source_and_target_eNB_while_wf_handover_notify.LWG
p542
aVtc_327_351_recovery_service_request__initial_intra_TAU_while_waiting_for_Location_Update_Response.LWG
p543
aVtc_239_505_intra_rau_detach_waiting_creat_session_response_from_sgw_s4.LWG
p544
aVtc_275_730_inter_tau_target_detach_with_cause_of_reattach_not_required_with_not_allowed_apn_in_odb_free_apn_list__odb_bit0.L15acp01
p545
aVtc_304_236_isc_active_flag_on_control_mode_threshold_exceeded_ignore_replace_s1_wf_initial_context_setup_response.L15acp01
p546
aVtc_267_820_dbr_triggered_pgw_reselection__wf_service_request.L15acp01
p547
aVtc_206_023_ebm_server_connection_failed.L15acp01
p548
aVtc_44_601_udp_on_same_board.L15acp01
p549
aVtc_273_247_tau_intra__sgw_reloc_mult_pdn_connections_active_2_ok_1_fail.L15acp01
p550
aVtc_307_011_HSS_Init_QoS_Modification__UEAMBR_and_APNAMBR_Changed_ECM_IDLE.L15acp01
p551
aVtc_260_273_receive_m3_reset_while_wf_setup_iteration_two_session.L15acp01
p552
aVtc_289_103_multi_pdns_pgw_init_bearer_mod_ecm_idle_interrupted_by_dbr_with_lbi.L15acp01
p553
aVtc_326_217_Intra_TAU_Recovery_with_active_flag_two_PDN_partial_fail.L15acp01
p554
aVtc_326_374_Service_Request_with_unknown_STMSI_Restriction_2_pdn_mmtel_off_emergency_pdn_deleted.L15acp01
p555
aVtc_346_493_Small_Local_Restart__Terminate_when_UE_S1_release.L15acp01
p556
aVtc_262_600_combined_attach_cs_service_notification_when_emm_attach_state.L15acp01
p557
aVtc_292_179_X2_Based_HO_MT_Call_while_wf_Modify_Bearer_Req.LW14b
p558
aVtc_358_001_lte_iterator_caused_by_config_creation_with_ipAddressReset_true_irrEnabled_nrrEnabled_false.LW14b
p559
aVtc_260_273_receive_m3_reset_while_wf_setup_iteration_two_session.LW14b
p560
aVtc_307_011_HSS_Init_QoS_Modification__UEAMBR_and_APNAMBR_Changed_ECM_IDLE.LW14b
p561
aVtc_267_820_dbr_triggered_pgw_reselection__wf_service_request.LW14b
p562
aVtc_295_017_Intra_S1_HO__S1_Setup_from_source_and_target_eNB_while_wf_handover_notify.LW14b
p563
aVtc_210_042_attach_detach_imei.LW14b
p564
aVtc_283_036_GW_Deactivate_Bearer__Different_PDN_Bearer_Delete.LW14b
p565
aVtc_334_116_sgw_restart_mf_restoration_trigger_by_ModifyBearerResponse.LW14b
p566
aVtc_218_090_tau_from_sgsn_when_emm_registered.LW14b
p567
aVtc_267_820_dbr_triggered_pgw_reselection__wf_service_request.LWG
p568
aVtc_304_216_combined_node_inter_tau_from_s4_control_mode_threshold_exceeded_reject_wf_tau_complete.LWG
p569
aVtc_295_017_Intra_S1_HO__S1_Setup_from_source_and_target_eNB_while_wf_handover_notify.LWG
p570
aVtc_327_007_recovery_intra_TAU__uplink_Attach_Request_while_waiting_for_Location_Update_Response.LWG
p571
aVtc_327_465_recovery_service_request__uplink_ue_associated_lppa_transport_while_waiting_for_MBR_Response.LWG
p572
aVtc_266_424_intra_tau_after_DDN_service_request_MBR_timeout.LWG
p573
aVtc_26_059_israu_gbr_changed_for_interactive.LWG
p574
aVtc_260_273_receive_m3_reset_while_wf_setup_iteration_two_session.LWG
p575
aVtc_318_311_sgw_restart_relocation_triggered_by_sr_emergency_type_b_hybrid_csg.LWG
p576
aVtc_244_051_mt_lr_delete_bearer_request_received_wf_location_report.LWG
p577
aVtc_183_013_itc_captured_packet_check.LWG
p578
aVtc_367_026_pgw_reselection_tau_emergency_type_a_no_restriction.LWG
p579
aVtc_307_011_HSS_Init_QoS_Modification__UEAMBR_and_APNAMBR_Changed_ECM_IDLE.LWG
p580
aVtc_203_471_mme_eps_ho_source__dbr_triggered_pgw_reselection_wf_forward_relocation_response.LWG
p581
aVtc_208_41_intra_rau_multiple_pdp_context.LWG
p582
aVtc_665_21_lr_then_gain.LWG
p583
aVtc_313_228_inter_new_srns_reloc_s16_with_sgw_change_rau_request_initial_ue_received_wf_rau_complete.LWG
p584
aVtc_313_203_inter_new_srns_reloc_s16_with_sgw_change_attach_request_initial_ue_received_wf_reloc_complete.LWG
p585
aVtc_236_048_s4_3gdt_deactivation_during_waiting_for_modify_bearer_rsp_in_activation_procedure_no_context.W15acp01
p586
aVtc_236_296_3gdt_switchback_with_gbr_bearer_iu_release_request_none_user_inactivity_received_received_wf_modify_bearer_response.W15acp01
p587
aVtc_307_011_HSS_Init_QoS_Modification__UEAMBR_and_APNAMBR_Changed_ECM_IDLE.L15acp01
p588
aVtc_327_012_recovery_intra_TAU__initial_Attach_Request_while_waiting_for_Ue_Backup_Response.L15acp01
p589
aVtc_327_022_recovery_intra_TAU__initial_Detach_Request_while_waiting_for_Ue_Backup_Response.L15acp01
p590
aVtc_197_062_s1_handover_sgw_reselection_topon_emc_ims_allpdn.L15acp01
p591
aVtc_103_850_error_code_DIAMETER_REALM_NOT_SERVED.L15acp01
p592
aVtc_103_603_georedundant_modify_diameter_peer.L15acp01
p593
aVtc_210_046_mme_initiated_detach_with_reattach_required.L15acp01
p594
aVtc_367_026_pgw_reselection_tau_emergency_type_a_no_restriction.L15acp01
p595
aVtc_44_850_mme_assoc_reestablish__board_restart_s1_mme.L15acp01
p596
aVtc_44_860_mme_assoc_reestablish__sctp_fe_restart_s1_mme.L15acp01
p597
aVtc_267_820_dbr_triggered_pgw_reselection__wf_service_request.L15acp01
p598
aVtc_327_037_recovery_intra_TAU_active_off_sgw_unchanged__RAR_wf_CSR_due_to_S11_linkdown.LW14b
p599
aVtc_244_919_mt_lr_uplink_ue_associated_lppa_transport_wf_esmlc_response_and_ecm_connected_for_LPPa.LW14b
p600
aVtc_267_303_Service_Request__faulty_message_attach_type_while_waiting_for_Initial_Context_Setup_Response.LW14b
p601
aVtc_267_820_dbr_triggered_pgw_reselection__wf_service_request.LW14b
p602
aVtc_307_011_HSS_Init_QoS_Modification__UEAMBR_and_APNAMBR_Changed_ECM_IDLE.LW14b
p603
aVtc_306_1051_ef_seamless_move_target_receive_cancel_location_withdraw_wf_lur_and_service_request_with_emergency_pdn.LW14b
p604
aVtc_367_026_pgw_reselection_tau_emergency_type_a_no_restriction.LW14b
p605
aVtc_310_202_ef__Detach_wf_PS_to_CS_Response.LW14b
p606
aVtc_263_076_Attach_Flow__Cancel_Location_Subscription_Withdrawal_while_waiting_for_Attach_Complete.LW14b
p607
aVtc_304_236_isc_active_flag_on_control_mode_threshold_exceeded_ignore_replace_s1_wf_initial_context_setup_response.LW14b
p608
aVtc_214_1139_la_selection_mf_reselection_ptau_during_ue_restoration.LWG
p609
aVtc_267_820_dbr_triggered_pgw_reselection__wf_service_request.LWG
p610
aVtc_357_023_gsm_iterator_move_ra_from_one_area_to_another.LWG
p611
aVtc_208_31_sms_mo.LWG
p612
aVtc_28_030_israu_new_sgsn_one_pdp_context_mo_sms.LWG
p613
aVtc_665_22_sr_then_gain.LWG
p614
aVtc_367_026_pgw_reselection_tau_emergency_type_a_no_restriction.LWG
p615
aVtc_322_023_smooth_move_af_frr_with_request_rejected.LWG
p616
aVtc_309_108_modify_event_job_notification.LWG
p617
aVtc_157_4_1_snmp_consistent_filter.LWG
p618
aVtc_157_4_snmp_consistent.LWG
p619
aVtc_295_017_Intra_S1_HO__S1_Setup_from_source_and_target_eNB_while_wf_handover_notify.LWG
p620
aVtc_24_163_msc_pool_location_update_reject_cause_22_select_second_msc.LWG
p621
aVtc_284_351_pdn_connectivity_pb_activate_1_dedicated_bearer_interrupted_by_path_switch_request.LWG
p622
aVtc_262_1010_apn_resolution_ext_ta_overlap_within_different_ga.LWG
p623
aVtc_271_101_sctp_paging_olp_verify_MPS_related_paging_is_immune.LWG
p624
aVtc_103_207_sticky_hss_host_name_primary_host_down.LWG
p625
aVtc_273_081_tau_intra_normal_connected_active_drx_update.LWG
p626
aVtc_273_290_tau_intra_imei_check_on_selective_auth_change_imei_no_imei_check.LWG
p627
aVtc_305_040_oms_mmi.LWG
p628
aVtc_220_403_csfb_to_1xrtt_in_ecm_connected_path_switch_request_HO_success.LWG
p629
aVtc_307_011_HSS_Init_QoS_Modification__UEAMBR_and_APNAMBR_Changed_ECM_IDLE.LWG
p630
aVtc_275_711_tau_inter_without_SGW_Change_receive_TZCR_flag_set_in_context_response_SN_change.L15acp01
p631
aVtc_367_026_pgw_reselection_tau_emergency_type_a_no_restriction.L15acp01
p632
aVtc_304_236_isc_active_flag_on_control_mode_threshold_exceeded_ignore_replace_s1_wf_initial_context_setup_response.L15acp01
p633
aVtc_307_011_HSS_Init_QoS_Modification__UEAMBR_and_APNAMBR_Changed_ECM_IDLE.L15acp01
p634
aVtc_295_017_Intra_S1_HO__S1_Setup_from_source_and_target_eNB_while_wf_handover_notify.L15acp01
p635
aVtc_260_099_one_mbms_session_starting_to_two_mce_one_mce_add.L15acp01
p636
aVtc_260_273_receive_m3_reset_while_wf_setup_iteration_two_session.L15acp01
p637
aVtc_267_734_Service_Request__CS_paging_while_waiting_for_Modify_Bearer_Response_S1_Reset_wf_extended_service_req.L15acp01
p638
aVtc_267_820_dbr_triggered_pgw_reselection__wf_service_request.L15acp01
p639
aVtc_266_016_downlink_data_notification_with_tau_as_paging_response_tau_fails.L15acp01
p640
aVtc_260_273_receive_m3_reset_while_wf_setup_iteration_two_session.LW14b
p641
aVtc_326_242_Intra_TAU_Recovery_Initial_Context_Setup_timeout.LW14b
p642
aVtc_326_903_Intra_TAU_Recovery_large_restart_active_flag_on_emergency_type_a_hybrid_csg.LW14b
p643
aVtc_298_724_service_request_ef_ms_deact_ti_dedicated_wf_rab_assignment_response.LW14b
p644
aVtc_293_009_X2_Based_HO__TAU_Request_in_uplink_NAS_from_source_while_wf_Modify_Bearer_Response.LW14b
p645
aVtc_327_110_recovery_intra_TAU__HSS_Reset_while_waiting_for_Identity_Response.LW14b
p646
aVtc_307_011_HSS_Init_QoS_Modification__UEAMBR_and_APNAMBR_Changed_ECM_IDLE.LW14b
p647
aVtc_367_026_pgw_reselection_tau_emergency_type_a_no_restriction.LW14b
p648
aVtc_267_820_dbr_triggered_pgw_reselection__wf_service_request.LW14b
p649
aVtc_11_091_activate_secondary_pdp_context_wrong_LinkedTI.LW14b
p650
aVtc_262_600_combined_attach_cs_service_notification_when_emm_attach_state.LW14b
p651
aVtc_262_043_imsi_attach_NOK_emm_registered_ecm_connected.LW14b
p652
aVtc_248_122_inter_l_to_w_new_detach_request_direct_transfer_received_wf_forward_relocation_complete_ack.W15acp01
p653
aVtc_79_058_intra_rau_new_rnc_qos_upgrade.W15acp01
p654
aVtc_298_826_NRSPCA_S4_nsapi_collision_receiving_detach_request_while_waiting_for_delete_bearer_request.W15acp01
p655
aVtc_304_236_isc_active_flag_on_control_mode_threshold_exceeded_ignore_replace_s1_wf_initial_context_setup_response.L15acp01
p656
aVtc_304_430_Service_Request_UE_Initiated__control_mode_threshold_exceeded_explicit_detach_idle_mode.L15acp01
p657
aVtc_358_002_lte_iterator_ipAddressReset_modify_to_true_while_all_pdns_already_in_target_area.L15acp01
p658
aVtc_283_070_multi_pdns_S1_Reset_while_wf_ERAB_Release_Resp.L15acp01
p659
aVtc_260_273_receive_m3_reset_while_wf_setup_iteration_two_session.L15acp01
p660
aVtc_44_750_s1_with_two_sctp_endpoints.L15acp01
p661
aVtc_307_011_HSS_Init_QoS_Modification__UEAMBR_and_APNAMBR_Changed_ECM_IDLE.L15acp01
p662
aVtc_267_820_dbr_triggered_pgw_reselection__wf_service_request.L15acp01
p663
aVtc_295_017_Intra_S1_HO__S1_Setup_from_source_and_target_eNB_while_wf_handover_notify.L15acp01
p664
aVtc_346_578_AF__HO_X2_2PDN_MBR_failure_for_1PDN_terminate_sx.LW14b
p665
aVtc_248_128_inter_l_to_w_new_rau_request_intial_ue_received_wf_update_location_resp.LW14b
p666
aVtc_307_011_HSS_Init_QoS_Modification__UEAMBR_and_APNAMBR_Changed_ECM_IDLE.LW14b
p667
aVtc_295_017_Intra_S1_HO__S1_Setup_from_source_and_target_eNB_while_wf_handover_notify.LW14b
p668
aVtc_321_076_gn_logging_inter_srns_relocation_cancel_source.LW14b
p669
aVtc_361_221_s3_handover_l_to_w_with_cl_wf_20s_timerout.LW14b
p670
aVtc_243_334_tau_from_sgsn_s3_emergency_type_c_ptmsi_sign_mismatch.LW14b
p671
aVtc_267_820_dbr_triggered_pgw_reselection__wf_service_request.LW14b
p672
aVtc_316_245_CSFB_1xRTT_ECM_Connected__Bacup_UE.LW14b
p673
aVtc_326_202_Intra_TAU_after_large_restart_after_combined_attach.LW14b
p674
aVtc_283_036_GW_Deactivate_Bearer__Different_PDN_Bearer_Delete.LW14b
p675
aVtc_274_441_Intra_TAU_Detach_Request_while_waiting_for_Create_Session_Response_2PDNs_partially_failure_sgw_unavailable.LW14b
p676
aVtc_327_012_recovery_intra_TAU__initial_Attach_Request_while_waiting_for_Ue_Backup_Response.LW14b
p677
aVtc_39_601_mas_unsucc_fwd_reloc_resp_mandatory_ie_missing_stop_source.LWG
p678
aVtc_274_441_Intra_TAU_Detach_Request_while_waiting_for_Create_Session_Response_2PDNs_partially_failure_sgw_unavailable.LWG
p679
aVtc_119_202_ospf_interface_opt_vals.LWG
p680
aVtc_141_025_eth_v4_v6_conf_vlan.LWG
p681
aVtc_263_302_Attach_Flow_Nas_Attach_Request_with_invalid_mandatory_information_while_waiting_for_update_location_response.LWG
p682
aVtc_103_1103_fallback_to_imsins_resend_no_more_peers.LWG
p683
aVtc_208_171_tcp_df3_alarm_udp_clear_alarm.LWG
p684
aVtc_19_35_attach_move_initiated_periodic_rau_before_attach_complete_ignored.LWG
p685
aVtc_307_011_HSS_Init_QoS_Modification__UEAMBR_and_APNAMBR_Changed_ECM_IDLE.LWG
p686
aVtc_337_005_validation_move_manually_stopped_between_two_pool_moves_smooth_move.LWG
p687
aVtc_267_820_dbr_triggered_pgw_reselection__wf_service_request.LWG
p688
aVtc_349_108_RAU_new_sgsn__RAU_Req_on_new_iu_while_waiting_for_CCA_initial_transfer.LWG
p689
aVtc_24_125_mcs_pool_associated_intra_rau_combined_ra_la_update_la_not_supported_select_msc_algorithm.LWG
p690
aVtc_97_035_inter_sgsn_psho_mf_with_lawful_intercept.LWG
p691
aVtc_367_026_pgw_reselection_tau_emergency_type_a_no_restriction.LWG
p692
aVtc_12_185_service_request_with_pdp_context_status_inactive_pmmconnected.W15acp01
p693
aVtc_295_017_Intra_S1_HO__S1_Setup_from_source_and_target_eNB_while_wf_handover_notify.LWG
p694
aVtc_260_273_receive_m3_reset_while_wf_setup_iteration_two_session.LWG
p695
aVtc_304_108_uplink_nas_intra_tau_control_mode_threshold_exceeded_usc_reject_lead_to_implicit_detach.LWG
p696
aVtc_310_220_ef__Ue_Release_Request_wf_PS_to_CS_Response_and_FR_Response.LWG
p697
aVtc_346_674_pra_cn_predefined_cca_u_for_initial_report_rfsp_out_of_range_seamless_move.LWG
p698
aVtc_316_233_MME_Pool_Old_BMME_Removed_New_BMME_Selected_Add_Old_BMME_Delete_Old_Backup.LWG
p699
aVtc_eabln37805_deactivate_after_detach.LWG
p700
aVtc_26_228_downlink_paging_interfered_by_insert_subscriber_data_rab_assignment_response_with_decreased_qos_GnOverrideSubscribedQos.LWG
p701
aVtc_307_011_HSS_Init_QoS_Modification__UEAMBR_and_APNAMBR_Changed_ECM_IDLE.LWG
p702
aVtc_156_11_ap_gain_w.LWG
p703
aVtc_271_003_sctp_paging_olp_verify_pagingOlpDiscardAllCpuThreshold.LWG
p704
aVtc_103_1108_attach_resend_of_AIR_successful_last_retry.LWG
p705
aVtc_259_83_isd_tads_s4_gsm_act_deact_pdp_context.LWG
p706
aVtc_44_750_s1_with_two_sctp_endpoints.L15acp01
p707
aVtc_260_273_receive_m3_reset_while_wf_setup_iteration_two_session.L15acp01
p708
aVtc_307_011_HSS_Init_QoS_Modification__UEAMBR_and_APNAMBR_Changed_ECM_IDLE.L15acp01
p709
aVtc_306_1140_ef_seamless_move_target_receive_path_switch_request_wf_initial_context_setup_response.L15acp01
p710
aVtc_295_136_mo_call_during_s1_ho_tau_request_when_wf_handover_notify.L15acp01
p711
aVtc_306_1051_ef_seamless_move_target_receive_cancel_location_withdraw_wf_lur_and_service_request_with_emergency_pdn.LW14b
p712
aVtc_306_1256_ef_seamless_move_target_receive_sgsn_context_request_wf_service_request.LW14b
p713
aVtc_347_050_HO_X2__RAR_while_waiting_for_Create_Session_Response.LW14b
p714
aVtc_295_017_Intra_S1_HO__S1_Setup_from_source_and_target_eNB_while_wf_handover_notify.LW14b
p715
aVtc_307_011_HSS_Init_QoS_Modification__UEAMBR_and_APNAMBR_Changed_ECM_IDLE.LW14b
p716
aVtc_326_242_Intra_TAU_Recovery_Initial_Context_Setup_timeout.LW14b
p717
aVtc_326_204_Intra_TAU_combined_type_with_LA_served_by_old_msc_after_large_restart_after_combined_attach.LW14b
p718
aVtc_248_128_inter_l_to_w_new_rau_request_intial_ue_received_wf_update_location_resp.LW14b
p719
aVtc_273_553_tau_intra__sgw_relocation_with_csg_id_plmn_change.LW14b
p720
aVtc_203_005_mme_eps_handover_source_inter__forw_rel_resp_not_accepted.LW14b
p721
aVtc_204_1362_mme_eps_ho__sgs_cs_paging_wf_location_update_answer.LW14b
p722
aVtc_283_036_GW_Deactivate_Bearer__Different_PDN_Bearer_Delete.LW14b
p723
aVtc_260_273_receive_m3_reset_while_wf_setup_iteration_two_session.LW14b
p724
aVtc_236_051_s4_3dgt_deactivation_during_waiting_for_modify_bearer_rsp_in_service_request_procedure.LW14b
p725
aVtc_306_1051_ef_seamless_move_target_receive_cancel_location_withdraw_wf_lur_and_service_request_with_emergency_pdn.LW14b
p726
aVtc_326_907_Periodic_Intra_TAU_Recovery_large_restart_active_flag_on_unavailable_SGW_hybrid_csg.LW14b
p727
aVtc_234_017_update_unknown_case.LW14b
p728
aVtc_31_064_activate_loc_not_confirmed_ul_fails_network_failure.LW14b
p729
aVtc_295_017_Intra_S1_HO__S1_Setup_from_source_and_target_eNB_while_wf_handover_notify.LW14b
p730
aVtc_283_015_2_GW_Deactivate_Bearer__Create_Bearer_Request_while_wf_deactivate_eps_bearer_context_accept.LW14b
p731
aVtc_203_442_mme_eps_handover_source_inter_af_tenb_not_support_forwarding.LW14b
p732
aVtc_250_44_inter_rau_old_s4_to_gn_visitor_with_local_rfsp.LW14b
p733
aVtc_346_495_Small_Local_Restart__No_Terminate_when_UE1_Attach_waiting_for_CCA_Initial_UE2_Attach_waiting_for_MBR.LW14b
p734
aVtc_307_011_HSS_Init_QoS_Modification__UEAMBR_and_APNAMBR_Changed_ECM_IDLE.LW14b
p735
aVtc_260_273_receive_m3_reset_while_wf_setup_iteration_two_session.LW14b
p736
aVtc_327_037_recovery_intra_TAU_active_off_sgw_unchanged__RAR_wf_CSR_due_to_S11_linkdown.L15acp01
p737
aVtc_103_840_error_code_UNRECOGNIZED_CLASS_in_answer_Result_Code.L15acp01
p738
aVtc_295_017_Intra_S1_HO__S1_Setup_from_source_and_target_eNB_while_wf_handover_notify.L15acp01
p739
aVtc_295_310_Intra_S1_HO__PCSCF_restoration_while_wf_Modify_Bearer_Response.L15acp01
p740
aVtc_265_160_Detach_Flow_NW_init__Ue_moved_to_non_3gpp_while_imsi_detach.L15acp01
p741
aVtc_44_750_s1_with_two_sctp_endpoints.L15acp01
p742
aVtc_307_011_HSS_Init_QoS_Modification__UEAMBR_and_APNAMBR_Changed_ECM_IDLE.L15acp01
p743
aVtc_326_822_IRAT_Tau_as_response_to_recovery_paging.L15acp01
p744
aVtc_369_005_ecm_connected__timezone__idr_flags.L15acp01
p745
aVtc_369_086_ERAB_release_indication_during_waiting_location_report__idr_flags_ef.L15acp01
p746
aVtc_262_600_combined_attach_cs_service_notification_when_emm_attach_state.L15acp01
p747
aVtc_260_273_receive_m3_reset_while_wf_setup_iteration_two_session.L15acp01
p748
aVtc_194_1630_hss_reset_emergency_pdn_connectivity_hybrid_csg.LWG
p749
aVtc_295_017_Intra_S1_HO__S1_Setup_from_source_and_target_eNB_while_wf_handover_notify.LWG
p750
aVtc_295_025_Intra_S1_HO__Attach_request_while_wf_TAU_request.LWG
p751
aVtc_307_011_HSS_Init_QoS_Modification__UEAMBR_and_APNAMBR_Changed_ECM_IDLE.LWG
p752
aVtc_298_832_NRSPCA_S4_nsapi_collision_after_RAU_one_pdn_failed.LWG
p753
aVtc_203_056_mme_eps_handover_source_inter_relocation_cancel_request_radio_conn_lost.LWG
p754
aVtc_357_023_gsm_iterator_move_ra_from_one_area_to_another.LWG
p755
aVtc_202_200_timer_expiry_after_s1_release_ImplicitDetachTimer.LWG
p756
aVtc_202_467_af_seamless_move_source_no_FRCN_with_s1_recovery.LWG
p757
aVtc_665_21_lr_then_gain.LWG
p758
aVtc_665_22_sr_then_gain.LWG
p759
aVtc_284_351_pdn_connectivity_pb_activate_1_dedicated_bearer_interrupted_by_path_switch_request.LWG
p760
aVtc_244_055_mt_lr_cancel_location_with_update_procedure_received_wf_location_report.LWG
p761
aVtc_329_820_geored_service_request_rr_restricted_after_update_location.LWG
p762
aVtc_156_05_ap_loss_w_mobile_reachable_timer_expires.LWG
p763
aVtc_281_042_Activate_bearer__Create_Bearer_Request_while_service_request_then_page_timeout.LWG
p764
aVtc_208_203_s4_ra_cell_update.LWG
p765
aVtc_103_1132_sx_resend__CCR_I_diameter_out_of_space_another_pdn_timeout_diameter_too_busy_host_and_realm.LWG
p766
aVtc_141_022_eth_v6_modify_interface.LWG
p767
aVtc_276_370_Inter_TAU_New_MME__Attach_Request_while_waiting_for_Create_Session_Response_sgw_unavailable.LWG
p768
aVtc_31_064_activate_loc_not_confirmed_ul_fails_network_failure.W15acp01
p769
aVtc_359_068_handover_from_non3gpp_ef_ISD_wf_modify_bearer_request.W15acp01
p770
aVtc_236_076_s4_detach_during_release_access_bearer_request_in_service_request_procedure.W15acp01
p771
aVtc_324_388_ef_mo_sms_wf_ula.W15acp01
p772
aVtc_275_730_inter_tau_target_detach_with_cause_of_reattach_not_required_with_not_allowed_apn_in_odb_free_apn_list__odb_bit0.L15acp01
p773
aVtc_221_111_paging__feature_off.L15acp01
p774
aVtc_267_511_Service_Request_SGW_unavailable__IDR_with_QoS_modification_while_wf_Create_Session_Response.L15acp01
p775
aVtc_44_750_s1_with_two_sctp_endpoints.L15acp01
p776
aVtc_262_1055_imsi_attach_with_csg_id_is_rejected.L15acp01
p777
aVtc_103_101_destination_host_is_peer.L15acp01
p778
aVtc_195_208_mme_logging_maximum_modify_eps_bearer_context.L15acp01
p779
aVtc_260_273_receive_m3_reset_while_wf_setup_iteration_two_session.L15acp01
p780
aVtc_307_011_HSS_Init_QoS_Modification__UEAMBR_and_APNAMBR_Changed_ECM_IDLE.L15acp01
p781
aVtc_103_702_CEA_timeout.LW14b
p782
aVtc_327_532_recovery_service_request__Imsi_Page_while_waiting_for_Location_Update_Answer.LW14b
p783
aVtc_217_111_rau_to_gn_sgsn_timeout_when_wf_delete_session_response_with_emergency_pdn.LW14b
p784
aVtc_295_017_Intra_S1_HO__S1_Setup_from_source_and_target_eNB_while_wf_handover_notify.LW14b
p785
aVtc_307_011_HSS_Init_QoS_Modification__UEAMBR_and_APNAMBR_Changed_ECM_IDLE.LW14b
p786
aVtc_265_125_Detach_Flow_NW_init__Reattach_Not_Required_Emergency_Attach_Request_while_waiting_for_Detach_Accept.LW14b
p787
aVtc_209_156_dl_payload_msisdn_imsi_imei_udp.LW14b
p788
aVtc_209_210_s4_no_sm_events_context_activate_modify_deactivate.LW14b
p789
aVtc_214_1042_la_selection_mf_msc_offloading_msc_pool_on.LW14b
p790
aVtc_326_903_Intra_TAU_Recovery_large_restart_active_flag_on_emergency_type_a_hybrid_csg.LW14b
p791
aVtc_243_772_tau_from_sgsn_s3_active_flag_true_SGW_change_no_modify_bearer_response.LWG
p792
aVtc_307_011_HSS_Init_QoS_Modification__UEAMBR_and_APNAMBR_Changed_ECM_IDLE.LWG
p793
aVtc_214_1141_la_selection_mf_oldmscpreferred_prau_during_ue_restoration.LWG
p794
aVtc_209_151_ul_payload_imsi.LWG
p795
aVtc_251_010_rau_w_to_g_after_hss_reset_storm.LWG
p796
aVtc_226_503_Intra_ISC_L2W_Gn_SGSN_ControlMode_On_reject_congestion.LWG
p797
aVtc_298_826_NRSPCA_S4_nsapi_collision_receiving_detach_request_while_waiting_for_delete_bearer_request.LWG
p798
aVtc_368_240_GW_Deactivate_Bearer__pgw_reselection_dbr_and_erab_rel_ind_wf_erab_release_response_and_deactivate_eps_bearer_context_accept.LWG
p799
aVtc_295_017_Intra_S1_HO__S1_Setup_from_source_and_target_eNB_while_wf_handover_notify.LWG
p800
aVtc_275_054_tau_inter_new_active_flag_get_new_sgw_two_pdn_connections_first_ok_second_failed.LWG
p801
aVtc_208_33_start_of_interception.LWG
p802
aVtc_260_273_receive_m3_reset_while_wf_setup_iteration_two_session.L15acp01
p803
aVtc_197_547_inter_gnsgsn_handover_table_not_matched_snaptr.L15acp01
p804
aVtc_327_037_recovery_intra_TAU_active_off_sgw_unchanged__RAR_wf_CSR_due_to_S11_linkdown.L15acp01
p805
aVtc_287_012_HSS_based_PCSCF_restoration__ecm_connected_attach_request_wf_delete_session_response.L15acp01
p806
aVtc_287_013_HSS_based_PCSCF_restoration__ecm_connected_detach_request_wf_delete_session_response.L15acp01
p807
aVtc_295_017_Intra_S1_HO__S1_Setup_from_source_and_target_eNB_while_wf_handover_notify.L15acp01
p808
aVtc_284_420_pdn_connectivity_connection_same_apn_same_pdn_type.L15acp01
p809
aVtc_307_011_HSS_Init_QoS_Modification__UEAMBR_and_APNAMBR_Changed_ECM_IDLE.L15acp01
p810
aVtc_51_036_reloc_wf_rau_req_interrupted_by_normal_detach_on_target_iu.LW14b
p811
aVtc_284_361_pdn_connectivity_handover_indication_no_override_after_timeout.LW14b
p812
aVtc_210_057_pdn_disconnection.LW14b
p813
aVtc_265_160_Detach_Flow_NW_init__Ue_moved_to_non_3gpp_while_imsi_detach.LW14b
p814
aVtc_287_031_HSS_based_PCSCF_restoration__ecm_idle_update_bearer_request_other_pdn_wf_delete_session_response.LW14b
p815
aVtc_53_101_inter_new_srns_reloc_interfere_service_request_data_same_iu.LW14b
p816
aVtc_214_1037_la_selection_af_combined_attach_after_mme_initiated_error_recovery_procedure.LW14b
p817
aVtc_307_011_HSS_Init_QoS_Modification__UEAMBR_and_APNAMBR_Changed_ECM_IDLE.LW14b
p818
aVtc_322_096_smooth_move_ef_reset_wf_frr_idle.LW14b
p819
aVtc_295_017_Intra_S1_HO__S1_Setup_from_source_and_target_eNB_while_wf_handover_notify.LW14b
p820
aVtc_107_005_eth_port_cli_autonegotiation.LWG
p821
aVtc_327_532_recovery_service_request__Imsi_Page_while_waiting_for_Location_Update_Answer.LWG
p822
aVtc_30_139_hlr_reset_dp_unavailable.LWG
p823
aVtc_019_001_feIfShow_rt.LWG
p824
aVtc_324_043_af_mbr_higher_than_policymap.LWG
p825
aVtc_363_021_gbip_feature_off_nses_bscconfirmed_trun_to_false.LWG
p826
aVtc_665_22_sr_then_gain.LWG
p827
aVtc_307_011_HSS_Init_QoS_Modification__UEAMBR_and_APNAMBR_Changed_ECM_IDLE.LWG
p828
aVtc_208_29_pdp_activate_deactivate_two_contexts_imsi.LWG
p829
aVtc_31_035_attach_ul_fails_no_relevant_data.LWG
p830
aVtc_326_662_tau_intra_periodic_SGW_unavailable_after_MME_large_restart__two_pdn_one_fail.LWG
p831
aVtc_22_033_cl_attach_while_attached.W15acp01
p832
aVtc_53_137_inter_new_ggsn_decrease_qos_rab_setup_timeout.W15acp01
p833
aVtc_248_61_inter_l_to_w_new_two_pdns_timeout_waiting_for_reloc_req_ack_without_sgw_change.W15acp01
p834
aVtc_267_504_Service_Request_SGW_unavailable__TAU_Request_while_wf_Create_Session_Response.LW14b
p835
aVtc_267_537_DDN_SGW_unavailable__LPP_Connection_Oriented_Information_while_wf_Create_Session_Request.LW14b
p836
aVtc_79_036_israu_new_streaming_context_MBR_not_zero_service_request.LW14b
p837
aVtc_369_105_HSS_based_PCSCF_restoration_ecm_connected_detach_request_no_response.LW14b
p838
aVtc_266_172_service_request_sgw_unavailable_hybrid_csg.LW14b
p839
aVtc_307_011_HSS_Init_QoS_Modification__UEAMBR_and_APNAMBR_Changed_ECM_IDLE.LW14b
p840
aVtc_238_067_mme_eps_irat_ho_target__location_report_wf_handover_notify.LW14b
p841
aVtc_263_453_Attach_Flow__S1_Reset_then_Attach_again_while_waiting_for_Create_Session_Response.LW14b
p842
aVtc_304_125_initial_ue_intra_tau_ecm_idle_control_mode_threshold_exceeded_usc_reject.LW14b
p843
aVtc_273_001_tau_intra_normal_idle.LW14b
p844
aVtc_273_254_tau_intra__sgw_relocation_no_resp_delete_bearer_command_mult_pdn.LW14b
p845
aVtc_273_632_tau_intra_SGW_unavailable_active_flag_off__with_static_SGW.LW14b
p846
aVtc_220_583_csfb_to_1xrtt_in_ecm_idle_extended_service_request_as_paging_response_create_bearer.LW14b
p847
aVtc_197_703_apn_oi_replacement_pdn_connectivity_with_ims_ue_level_only.LW14b
p848
aVtc_262_1055_imsi_attach_with_csg_id_is_rejected.LW14b
p849
aVtc_268_012_UE_Release_Flow__SGSN_Context_Request_while_waiting_for_Release_Access_Bearers_response.LW14b
p850
aVtc_268_031_Timer_Based_GBR_Deact__Receive_DDN_Only_GBR_in_EBI_before_UE_Context_Release_Complete.LW14b
p851
aVtc_260_273_receive_m3_reset_while_wf_setup_iteration_two_session.LW14b
p852
aVtc_341_514_x2_activity_event_combined_attach_detach.LW14b
p853
aVtc_295_017_Intra_S1_HO__S1_Setup_from_source_and_target_eNB_while_wf_handover_notify.LW14b
p854
aVtc_295_124_tau_after_ho_tz_change_emm_information_meanwhile_handover_required_HO_success.LW14b
p855
aVtc_295_136_mo_call_during_s1_ho_tau_request_when_wf_handover_notify.LW14b
p856
aVtc_103_009_prioritized_peer_realm_routing_rule_not_handled_by_peer.LW14b
p857
aVtc_245_211_inter_rau_new_s4_turning_back_from_mme_no_cancel_location_with_sgw_change.LWG
p858
aVtc_60_4_small_restart_during_hlr_reset.LWG
p859
aVtc_307_011_HSS_Init_QoS_Modification__UEAMBR_and_APNAMBR_Changed_ECM_IDLE.LWG
p860
aVtc_247_188_inter_w_to_l_old_one_dedicate_bearer_initial_ue_rau_wf_cancel_location.LWG
p861
aVtc_260_273_receive_m3_reset_while_wf_setup_iteration_two_session.LWG
p862
aVtc_246_401_israu_new_l_to_g_downgrade_AMBR_nuqm_false.LWG
p863
aVtc_246_070_israu_new_l_to_g_sgw_change_ubr_interfered_by_intra_rau_sgw_unchange_wf_rau_complete_then_ubr_comes.LWG
p864
aVtc_141_021_eth_v6_conf_novlan.LWG
p865
aVtc_248_305_inter_l_to_w_new_ms_connected_handover_from_mme_interfering_imsi_attach.LWG
p866
aVtc_208_33_start_of_interception.LWG
p867
aVtc_251_61_rau_l_to_w_with_cl_type_initialAttach.LWG
p868
aVtc_107_001_eth_port_cli_mand_vals.LWG
p869
aVtc_262_098_emergency_guti_attach_integrity_not_ok_authentication_fail.LWG
p870
aVtc_019_001_feIfShow_rt.LWG
p871
aVtc_244_509_SLg_Location_Request__HO_old_wwf_Location_Response_from_ESMLC.LWG
p872
aVtc_244_504_SLg_Location_Request__Extended_Service_Request_wwf_Location_Response_from_ESMLC.LWG
p873
aVtc_165_4_auto_large_restart_alarm.LWG
p874
aVtc_332_052_3_mf__paging_due_to_UBR_during_paging_due_to_CBR_latest_with_higher_prio.LWG
p875
aVtc_327_317_recovery_service_request__initial_Attach_Request_while_waiting_for_Sub_Procedure__Initial_Context_Setup_Response.L15acp01
p876
aVtc_285_041_PDN_Connectivity__IRAT_Handover_Required_while_wf_create_session_response.L15acp01
p877
aVtc_225_701_csfb_to_g_without_dtm_in_ecm_idle.L15acp01
p878
aVtc_262_600_combined_attach_cs_service_notification_when_emm_attach_state.L15acp01
p879
aVtc_307_011_HSS_Init_QoS_Modification__UEAMBR_and_APNAMBR_Changed_ECM_IDLE.L15acp01
p880
aVtc_263_108_Attach_Flow__TAU_Request_while_waiting_for_Attach_Complete.L15acp01
p881
aVtc_332_090_mf__cs_paging_during_cs_paging_csfb_to_wg_latest_with_higher_prio.L15acp01
p882
aVtc_205_71_01_ss7_SCCP_CR_DT1_RLSD.LWG
p883
aVtc_39_601_mas_unsucc_fwd_reloc_resp_mandatory_ie_missing_stop_source.LWG
p884
aVtc_39_771_mas_rnc_reset_when_wf_ptmsi_realloc_cmpl_source.LWG
p885
aVtc_216_106_icmpv6_outNeighborSol.LWG
p886
aVtc_307_011_HSS_Init_QoS_Modification__UEAMBR_and_APNAMBR_Changed_ECM_IDLE.LWG
p887
aVtc_665_22_sr_then_gain.LWG
p888
aVtc_332_050_3_mf__paging_due_to_DDN_during_paging_due_to_DBR_latest_with_high_prio.LWG
p889
aVtc_262_1006_attach_apn_resolution_ext_apn_based_with_ga_msisdn_cc.LWG
p890
aVtc_234_010_activate_deactivate_imei.G15acp01
p891
aVtc_304_236_isc_active_flag_on_control_mode_threshold_exceeded_ignore_replace_s1_wf_initial_context_setup_response.LW14b
p892
aVtc_307_011_HSS_Init_QoS_Modification__UEAMBR_and_APNAMBR_Changed_ECM_IDLE.LW14b
p893
aVtc_310_244_ef__S1_Reset_wf_FR_Complete_PS_to_CS_Complete_received.LW14b
p894
aVtc_310_335_ef_dbr_non_voice_bearer_wf_forward_relocation_complete_and_forward_relocation_complete_ack.LW14b
p895
aVtc_327_022_recovery_intra_TAU__initial_Detach_Request_while_waiting_for_Ue_Backup_Response.LW14b
p896
aVtc_103_208_hostname_in_conf_unavail.LW14b
p897
aVtc_103_860_ue_trace_retransmit.LW14b
p898
aVtc_103_602_georedundant_realm_routing.LW14b
p899
aVtc_326_244_Intra_TAU_Recovery_fail_default_bearer_fail_to_setup.LW14b
p900
aVtc_250_153_attach_activation_insert_odb_feature_off.LW14b
p901
aVtc_11_048_activate_reject_vplmn_not_allowed.W15acp01
p902
aVtc_103_101_destination_host_is_peer.L15acp01
p903
aVtc_103_603_georedundant_modify_diameter_peer.L15acp01
p904
aVtc_260_272_receive_sm_stop_req_while_wf_setup_iteration.L15acp01
p905
aVtc_326_243_Intra_TAU_Recovery_fail_default_bearer_fail_to_setup_SGW_Change.L15acp01
p906
aVtc_234_007_interrogate_all.L15acp01
p907
aVtc_327_022_recovery_intra_TAU__initial_Detach_Request_while_waiting_for_Ue_Backup_Response.L15acp01
p908
aVtc_307_011_HSS_Init_QoS_Modification__UEAMBR_and_APNAMBR_Changed_ECM_IDLE.L15acp01
p909
aVtc_44_251_sctp_assoc_config__modify_rt_Diameter.L15acp01
p910
aVtc_346_493_Small_Local_Restart__Terminate_when_UE_S1_release.L15acp01
p911
aVtc_210_100_pdn_connectivity_erab_setup_failure_response_from_enodeb.LWG
p912
aVtc_242_158_rau_to_sgsn_s3_emergency_not_allowed_no_pdns_transferred.LWG
p913
aVtc_666_03_block_ss7_board.LWG
p914
aVtc_85_05_provide_subscriber_location_unknown_imsi.LWG
p915
aVtc_326_280_Intra_TAU_with_unknown_GUTI_SGW_not_change_SGW_unavailable.LWG
p916
aVtc_80_094_bss_modify_conv_upgrade_gbr_no_new_resources.LWG
p917
aVtc_39_212_detach_trigger_paging_fails.LWG
p918
aVtc_307_011_HSS_Init_QoS_Modification__UEAMBR_and_APNAMBR_Changed_ECM_IDLE.LWG
p919
aVtc_019_001_feIfShow_rt.LWG
p920
aVtc_107_001_eth_port_cli_mand_vals.LWG
p921
aVtc_322_302_smooth_move_3GDT_with_one_PDN_TZCR_set.LWG
p922
aVtc_665_6_dp_block_deblock_with_traffic.LWG
p923
aVtc_175_007_activate_interrupted_by_suspend_before_create_ack.G15acp01
p924
aVtc_39_242_attach_prau_intrarau_triggers_imsi_profile.W15acp01
p925
aVtc_324_084_af_sec_modify_bearer_response_with_s4_interface_3gdt.W15acp01
p926
aVtc_307_011_HSS_Init_QoS_Modification__UEAMBR_and_APNAMBR_Changed_ECM_IDLE.LW14b
p927
aVtc_193_164_service_req_service_req_during_auth_ue.LW14b
p928
aVtc_194_153_cli_get_subscriber_normal_attach_when_turn_on_csfb_to_1xrtt.LW14b
p929
aVtc_248_128_inter_l_to_w_new_rau_request_intial_ue_received_wf_update_location_resp.LW14b
p930
aVtc_367_025_pgw_reselection_tau_11_pdns_without_qci_1_detach.LW14b
p931
aVtc_103_206_sticky_hss_host_name.LW14b
p932
aVtc_103_1008_create_peer__system_set_prio__same_prio_loadsharing.LW14b
p933
aVtc_103_1140_sx_resend__resend_to_another_sapc.LW14b
p934
aVtc_289_031_Modify_bearer__Downlink_nas_transport_meanwhile_path_switch_request_HO_success.LW14b
p935
aVtc_262_054_guti_attach_transfer_due_to_imsi_mismatch_emm_deregistered.LW14b
p936
aVtc_47_004_mobile_reachble_timer_ap_loss.LW14b
p937
aVtc_304_236_isc_active_flag_on_control_mode_threshold_exceeded_ignore_replace_s1_wf_initial_context_setup_response.L15acp01
p938
aVtc_307_011_HSS_Init_QoS_Modification__UEAMBR_and_APNAMBR_Changed_ECM_IDLE.L15acp01
p939
aVtc_327_400_recovery_service_request__Handover_Required_while_waiting_for_Sub_Procedure.L15acp01
p940
aVtc_307_011_HSS_Init_QoS_Modification__UEAMBR_and_APNAMBR_Changed_ECM_IDLE.L15acp01
p941
aVtc_335_31_wifi_to_mobility_in_ecm_idle_af__cells_from_eNB_more_than_from_WIC.L15acp01
p942
aVtc_304_109_initial_ue_intra_tau_control_mode_threshold_exceeded_usc_detach_then_reattach.L15acp01
p943
aVtc_275_711_tau_inter_without_SGW_Change_receive_TZCR_flag_set_in_context_response_SN_change.L15acp01
p944
aVtc_275_730_inter_tau_target_detach_with_cause_of_reattach_not_required_with_not_allowed_apn_in_odb_free_apn_list__odb_bit0.L15acp01
p945
aVtc_262_1103_imsi_attach_volte_bearer_gauge_create_session_response_with_new_qci.L15acp01
p946
aVtc_43_050_eNB_configuration_update__attach_finish_recv_eNB_conf_update_then_intra_tau.L15acp01
p947
aVtc_306_1051_ef_seamless_move_target_receive_cancel_location_withdraw_wf_lur_and_service_request_with_emergency_pdn.L15acp01
p948
aVtc_346_576_AF__HO_X2_2PDN_CSR_failure_for_1PDN_terminate_sx.L15acp01
p949
aVtc_289_017_Modify_bearer__ERAB_modify_request_meanwhile_path_switch_request_HO_success.LW14b
p950
aVtc_44_004_small_restart__sctp_fe_restart.LW14b
p951
aVtc_44_550_s1ap_reset_reset_resource.LW14b
p952
aVtc_262_600_combined_attach_cs_service_notification_when_emm_attach_state.LW14b
p953
aVtc_103_205_app_specific_realm_routing.LW14b
p954
aVtc_324_388_ef_mo_sms_wf_ula.LW14b
p955
aVtc_265_161_Detach_Flow_NW_init__Delete_default_bearer_while_imsi_detach.LW14b
p956
aVtc_307_011_HSS_Init_QoS_Modification__UEAMBR_and_APNAMBR_Changed_ECM_IDLE.LW14b
p957
aVtc_322_024_smooth_move_af_frr_without_moveIndicator.W15acp01
p958
aVtc_234_001_ping.W15acp01
p959
aVtc_342_902_cli_test_cchecks.LWG
p960
aVtc_578_52_check_uetracer_parser.LWG
p961
aVtc_183_011_itc_trace_file_wrap.LWG
p962
aVtc_307_011_HSS_Init_QoS_Modification__UEAMBR_and_APNAMBR_Changed_ECM_IDLE.LWG
p963
aVtc_304_026_attach_successful_then_imsi_attach__control_mode_threshold_exceeded_usc_reject_illegal_ue.LWG
p964
aVtc_304_266_tau_from_gnsgsn_2g_control_mode_wf_delete_all_bearers_response_exception_case_reject_congestion_subscriber_cancelled.LWG
p965
aVtc_267_777_HSS_based_PCSCF_restoration__delete_bearer_request_other_pdn_wf_service_request.LWG
p966
aVtc_208_150_dl_payload_imsi.LWG
p967
a.