(lp0
Vtc_248_303_inter_l_to_w_new_ms_connected_handover_from_mme.LWG
p1
aVtc_238_211_mme_eps_irat_ho_target__SGW_unavailable.LWG
p2
aVtc_307_011_HSS_Init_QoS_Modification__UEAMBR_and_APNAMBR_Changed_ECM_IDLE.LWG
p3
aVtc_368_160_gw_dedicated_bearer_deact__pgw_reselection_dbr_wf_erab_release_response.LWG
p4
aVtc_259_78_ef_isd_ms_init_detach_s4_w.LWG
p5
aVtc_665_22_sr_then_gain.LWG
p6
aVtc_307_011_HSS_Init_QoS_Modification__UEAMBR_and_APNAMBR_Changed_ECM_IDLE.LW14b
p7
aVtc_78_058_intra_rau_intra_plmn_forced_csps_coord_accept_foreign_ms.LW14b
p8
aVtc_214_060_combined_attach_combined_detach_interfering_combined_attach.LW14b
p9
aVtc_103_206_sticky_hss_host_name.LW14b
p10
aVtc_103_851_error_code_DIAMETER_APPLICATION_UNSUPPORTED.LW14b
p11
aVtc_103_854_error_code_DIAMETER_INVALID_AVP_VALUE.LW14b
p12
aVtc_103_1004_secondary_dpl_used_when_all_peers_in_dpl_unavailable_no_sls.LW14b
p13
aVtc_103_1005_secondary_dpl_used_when_all_peers_in_dpl_unavailable_with_sls.LW14b
p14
aVtc_103_1110_attach_negative_AIA_resend_success_s6d.LW14b
p15
aVtc_103_1144_sx_resend__timeout_timeout_duplicate_CCA_I_Auth_fail.LW14b
p16
aVtc_263_066_Attach_Flow__S1_Reset_while_waiting_for_Security_Mode_Complete.LW14b
p17
aVtc_346_505_AF__TAU_Inter_New__get_new_sgw__2PDN_CSR_failure_for_1PDN_terminate_1Sx.LW14b
p18
aVtc_260_272_receive_sm_stop_req_while_wf_setup_iteration.L15acp01
p19
aVtc_307_011_HSS_Init_QoS_Modification__UEAMBR_and_APNAMBR_Changed_ECM_IDLE.L15acp01
p20
aVtc_293_225_X2_Based_HO_with_SGW_change__s1_reset_while_waiting_for_TAU_Request_then_TAU.L15acp01
p21
aVtc_262_600_combined_attach_cs_service_notification_when_emm_attach_state.L15acp01
p22
aVtc_44_850_mme_assoc_reestablish__board_restart_s1_mme.L15acp01
p23
aVtc_327_012_recovery_intra_TAU__initial_Attach_Request_while_waiting_for_Ue_Backup_Response.L15acp01
p24
aVtc_250_115_act_ipv4v6_pdp_ctx_idr_pdp_type_dual_to_single_gprs.W15acp01
p25
aVtc_241_316_israu_new_gn_to_s4_pdp_to_bearer_3gdt_on_to_on.W15acp01
p26
aVtc_275_106_Inter_TAU_New_MME_Emergency__Imei_Check_Answer_Blacklisted_before_TAU_Accept_ire_true.L15acp01
p27
aVtc_307_011_HSS_Init_QoS_Modification__UEAMBR_and_APNAMBR_Changed_ECM_IDLE.L15acp01
p28
aVtc_327_532_recovery_service_request__Imsi_Page_while_waiting_for_Location_Update_Answer.L15acp01
p29
aVtc_368_210_UE_release__pgw_reselection_dbr_and_erab_rel_ind_wf_release_access_bearers_request_and_delete_bearer_command_and_ue_context_release_complete.L15acp01
p30
aVtc_290_020_Timer_Based_GBR_Deact__enodeb_configuration_update_wf_release_access_bearer_response_before_timer_expires.L15acp01
p31
aVtc_103_101_destination_host_is_peer.L15acp01
p32
aVtc_358_133_lte_local_user_inter_tau_old_in_ip_area_response_only_contain_unrestricted_ip_pdn.L15acp01
p33
aVtc_232_504_static_routes__ipv6_same_host_dest_4_sr.LWG
p34
aVtc_141_021_eth_v6_conf_novlan.LWG
p35
aVtc_208_105_dual_stack_not_supported_ipv6.LWG
p36
aVtc_220_597_csfb_to_1xrtt_hss_reset_during_extended_service_request.LWG
p37
aVtc_307_011_HSS_Init_QoS_Modification__UEAMBR_and_APNAMBR_Changed_ECM_IDLE.LWG
p38
aVtc_257_30_pws_sctp_device_failure.LWG
p39
aVtc_326_903_Intra_TAU_Recovery_large_restart_active_flag_on_emergency_type_a_hybrid_csg.LWG
p40
aVtc_234_001_ping.LWG
p41
aVtc_665_21_lr_then_gain.LWG
p42
aVtc_357_023_gsm_iterator_move_ra_from_one_area_to_another.LWG
p43
aVtc_107_001_eth_port_cli_mand_vals.LWG
p44
aVtc_107_101_eth_vlan_cli.LWG
p45
aVtc_019_001_feIfShow_rt.LWG
p46
aVtc_203_471_mme_eps_ho_source__dbr_triggered_pgw_reselection_wf_forward_relocation_response.LWG
p47
aVtc_226_106_W_USC_PDP_Context_Activation__ControlMode_On_detach_action_different_ongoing_wf_ggsn_response.LWG
p48
aVtc_325_104_inter_old_srns_reloc_s4_to_gn_waiting_for_forward_relocation_complete_timeout.LWG
p49
aVtc_243_772_tau_from_sgsn_s3_active_flag_true_SGW_change_no_modify_bearer_response.LWG
p50
aVtc_305_040_oms_mmi.LWG
p51
aVtc_262_600_combined_attach_cs_service_notification_when_emm_attach_state.LW14b
p52
aVtc_310_335_ef_dbr_non_voice_bearer_wf_forward_relocation_complete_and_forward_relocation_complete_ack.LW14b
p53
aVtc_361_118_s3_handover_l_to_w_intra_with_cl_qos_higher_than_policymap_trigger_alarm_1_ue.LW14b
p54
aVtc_103_1142_sx_resend__resend_during_inter_mme_tau_2_pdns.LW14b
p55
aVtc_194_501_Notification_SV_change_during_Attach_Procedure_no_Response.LW14b
p56
aVtc_204_1180_mme_eps_handover_target_recheck_fail_followed_by_ISD.LW14b
p57
aVtc_307_011_HSS_Init_QoS_Modification__UEAMBR_and_APNAMBR_Changed_ECM_IDLE.LW14b
p58
aVtc_368_004_pgw_reselection_cbr_other_pdn_wf_service_request.LW14b
p59
aVtc_279_010_tai_list_dns_use_secondary.LW14b
p60
aVtc_327_114_recovery_intra_TAU__Insert_Subscriber_Data_while_waiting_for_Ue_Backup_Response.LW14b
p61
aVtc_52_44_inter_old_srns_reloc_main_flow_interfered_by_insert_subscr.LW14b
p62
aVtc_79_036_israu_new_streaming_context_MBR_not_zero_service_request.LW14b
p63
aVtc_019_001_feIfShow_rt.LWG
p64
aVtc_319_073_path_management_configured_timer_expired.LWG
p65
aVtc_267_012_Service_Request__Service_Request_while_waiting_for_Modify_Bearer_Response_Dedicated.LWG
p66
aVtc_251_66_w_to_l_to_w_with_cl_type_initialAttach_cl_after_sgsn_con_req.LWG
p67
aVtc_24_86_comb_att_act_context_hlr_reset_periodic_rau.LWG
p68
aVtc_307_011_HSS_Init_QoS_Modification__UEAMBR_and_APNAMBR_Changed_ECM_IDLE.LWG
p69
aVtc_304_266_tau_from_gnsgsn_2g_control_mode_wf_delete_all_bearers_response_exception_case_reject_congestion_subscriber_cancelled.LWG
p70
aVtc_238_026_mme_eps_irat_ho_target__multi_pdn_sgw_relocation_setup_fails.LWG
p71
aVtc_262_1054_emergency_type_c_imsi_attach_with_csg_id.LWG
p72
aVtc_103_203_send_to_peer.LWG
p73
aVtc_219_134_s3_handover_w_to_l_relocation_cancel_wf_forward_relocation_response.LWG
p74
aVtc_307_011_HSS_Init_QoS_Modification__UEAMBR_and_APNAMBR_Changed_ECM_IDLE.L15acp01
p75
aVtc_203_116_S1_Based_HO_Source_MME_Handover_Required_while_waiting_for_Forward_Relocation_Response.L15acp01
p76
aVtc_273_610_tau_intra_periodic_SGW_unavailable__two_pdn.L15acp01
p77
aVtc_316_297_Attach_Detach_Then_Inter_MME_TAU_New_MME__Buffer_List_Delete.L15acp01
p78
aVtc_345_140_af__mo_csfb_with_psho__ecm_connected_gsm_access.L15acp01
p79
aVtc_327_022_recovery_intra_TAU__initial_Detach_Request_while_waiting_for_Ue_Backup_Response.L15acp01
p80
aVtc_28_052_mo_sms_homer_block_visiting_redirection.LW14b
p81
aVtc_307_011_HSS_Init_QoS_Modification__UEAMBR_and_APNAMBR_Changed_ECM_IDLE.LW14b
p82
aVtc_342_857_online_change_licId.LW14b
p83
aVtc_327_012_recovery_intra_TAU__initial_Attach_Request_while_waiting_for_Ue_Backup_Response.LW14b
p84
aVtc_361_190_s3_intra_rau_l_to_w_with_dedicate_bearers_3gdt_ipv4v6.LW14b
p85
aVtc_260_272_receive_sm_stop_req_while_wf_setup_iteration.LW14b
p86
aVtc_220_501_csfb_to_1xrtt_in_ecm_idle_attach_request_wf_ue_context_release_request.LW14b
p87
aVtc_103_203_send_to_peer.LW14b
p88
aVtc_307_011_HSS_Init_QoS_Modification__UEAMBR_and_APNAMBR_Changed_ECM_IDLE.LW14b
p89
aVtc_263_120_Emergency_Attach_Flow_Type_A__ME_Identity_Check_Answer_Blacklisted_while_waiting_for_Create_Session_Response.LW14b
p90
aVtc_267_342_DDN_wf_modify_bearer_resp_interfer_by_emergency_pdn_connectivity_req.LW14b
p91
aVtc_103_206_sticky_hss_host_name.LW14b
p92
aVtc_307_011_HSS_Init_QoS_Modification__UEAMBR_and_APNAMBR_Changed_ECM_IDLE.L15acp01
p93
aVtc_306_1051_ef_seamless_move_target_receive_cancel_location_withdraw_wf_lur_and_service_request_with_emergency_pdn.L15acp01
p94
aVtc_220_414_csfb_to_1xrtt_in_ecm_connected_ue_context_modification_failure_UBR_received_hold_two_procedures.L15acp01
p95
aVtc_346_493_Small_Local_Restart__Terminate_when_UE_S1_release.L15acp01
p96
aVtc_262_600_combined_attach_cs_service_notification_when_emm_attach_state.L15acp01
p97
aVtc_160_003_reset_sgsn_initiated.W15acp01
p98
aVtc_84_72_provide_subscriber_location_ef_plr_interrupted_by_rau_req.G15acp01
p99
aVtc_84_83_provide_subscriber_location_ef_plr_interrupted_by_transfer_attach.G15acp01
p100
aVtc_04_25_gprs_ptmsi_attach_ms_not_known_in_old_sgsn.G15acp01
p101
aVtc_04_27_gprs_ptmsi_attach_normal_identity_request_after_identification_timeout.G15acp01
p102
aVtc_04_30_gprs_imsi_attach_lower_layer_failure_awaiting_complete_ms_uses_new_ptmsi.G15acp01
p103
aVtc_04_33_gprs_imsi_attach_new_attach_with_differing_ies_received_before_attach_accept.G15acp01
p104
aVtc_04_35_gprs_imsi_attach_ra_update_recieved_waiting_for_complete.G15acp01
p105
aVtc_04_62_no_auth_and_ciph_resp_during_periodic_auth.G15acp01
p106
aVtc_15_019_normal_successful_rau_followed_by_new_normal_rau_new_ptmsi.G15acp01
p107
aVtc_15_022_normal_unsuccessful_nw_initiated_detach_received_after_rau_accept.G15acp01
p108
aVtc_15_025_normal_successful_new_ra_update_during_ongoing_rau_after_rau_accept.G15acp01
p109
aVtc_15_071_intra_rau_rejected_NRR_cause_14.G15acp01
p110
aVtc_15_124_sgsn_pool_handle_relayed_sgsn_context_request_5_bit_nri_length.G15acp01
p111
aVtc_05_039_gprs_imsi_attach_lower_layer_failure_awaiting_complete_ms_uses_new_ptmsi.G15acp01
p112
aVtc_05_046_gprs_imsi_attach_ra_update_recieved_waiting_for_complete.G15acp01
p113
aVtc_27_002_mo_sms_no_dest.G15acp01
p114
aVtc_27_005_mt_sms_reatt.G15acp01
p115
aVtc_27_016_mo_sms_fallback_v2_ok.G15acp01
p116
aVtc_27_018_mo_sms_fallback_v1_ok.G15acp01
p117
aVtc_27_021_mo_sms_visiting_ms.G15acp01
p118
aVtc_27_028_mt_sms_suspend_during_paging.G15acp01
p119
aVtc_357_008_gsm_iterator_nrrEnabled_modify_to_true_with_ipAddressReset_true_irrEnabled_false.G15acp01
p120
aVtc_19_45_attach_start_move_intra_rau_when_not_triggered_move_not_initiated.G15acp01
p121
aVtc_19_48_attach_start_move_intra_rau_move_initiated_detach_req_before_rau_complete_ignored.G15acp01
p122
aVtc_19_101_move_periodic_rau_rai_filter.G15acp01
p123
aVtc_19_108_move_detach_rai_filter_iterator_restart.G15acp01
p124
aVtc_90_015_attach_send_authentication_info_ack_fragmented.G15acp01
p125
aVtc_17_13_inter_rau_new_secondary_contexts_ms_99_gtp_99_old_99_no_bss.G15acp01
p126
aVtc_17_50_intra_rau_activation_before_update_complete.G15acp01
p127
aVtc_17_79_intra_rau_hz_to_g_bss.G15acp01
p128
aVtc_17_84_intra_rau_hz_ggsninfo_scdrinfo_to_hz_ggsninfo_scdrinfo_old_cdr_format.G15acp01
p129
aVtc_17_155_doia_inter_rau_new_with_active_context.G15acp01
p130
aVtc_21_10_gsm_activity_test_camel.G15acp01
p131
aVtc_21_16_gsm_resettimer_continue_camel.G15acp01
p132
aVtc_21_20_gsm_apply_charging_vol.G15acp01
p133
aVtc_21_23_gsm_modify_tssf_timeout.G15acp01
p134
aVtc_21_44_gsm_activate_collission_intra_ra_update_with_context.G15acp01
p135
aVtc_21_51_gsm_change_NbrCamelSub_camel_nocamel.G15acp01
p136
aVtc_06_006_activate_deactivate_primary_ms_99_gtp_99_dynamic_ipv6.G15acp01
p137
aVtc_06_304_activate_deactivate_secondary_ms_99_gtp_99_dynamic_ipv4v6.G15acp01
p138
aVtc_06_331_deactivate_mutiple_pdp_contexts_isd_pdp_type_static.G15acp01
p139
aVtc_06_650_dualstack_activate_ipv4_requested_ipv4v6_no_apn_subscribed_ipv4_and_ipv6_spt_ipv4.G15acp01
p140
aVtc_30_108_rau_ul_fails_access_restriction_same_plmn_when_data_not_confirmed.G15acp01
p141
aVtc_16_030_intra_rau_tz_changed.G15acp01
p142
aVtc_183_011_itc_trace_file_wrap.LWG
p143
aVtc_256_380_Sv_Path_Mgt__Echo_Request_No_Response.LWG
p144
aVtc_348_164_israu_af__new_sgsn_ggsn_return_higher_qos.LWG
p145
aVtc_260_272_receive_sm_stop_req_while_wf_setup_iteration.LWG
p146
aVtc_107_001_eth_port_cli_mand_vals.LWG
p147
aVtc_107_002_eth_port_cli_ls_an_comb.LWG
p148
aVtc_107_101_eth_vlan_cli.LWG
p149
aVtc_326_835_Intra_TAU_Recovery_after_Node_Restart_SGW_Unchange_active_flag_on_no_modify_bearer_response_two_pdn.LWG
p150
aVtc_119_202_ospf_interface_opt_vals.LWG
p151
aVtc_119_203_ospf_interface_cli_alg_vals.LWG
p152
aVtc_307_011_HSS_Init_QoS_Modification__UEAMBR_and_APNAMBR_Changed_ECM_IDLE.LWG
p153
aVtc_141_021_eth_v6_conf_novlan.LWG
p154
aVtc_141_022_eth_v6_modify_interface.LWG
p155
aVtc_241_301_israu_new_create_session_failed_and_paging_timeout.LWG
p156
aVtc_268_028_UE_Release_Flow__S1_Reset_while_wf_Release_Access_Bearers_Response_followed_by_Extended_Service_Request.LWG
p157
aVtc_203_471_mme_eps_ho_source__dbr_triggered_pgw_reselection_wf_forward_relocation_response.L15acp01
p158
aVtc_44_860_mme_assoc_reestablish__sctp_fe_restart_s1_mme.L15acp01
p159
aVtc_265_252_Detach_Flow_NW_init__Sgs_CS_Paging_while_wf_delete_session_response.L15acp01
p160
aVtc_275_760_tau_inter_new_active_flag_without_sgw_change_hybrid_csg.L15acp01
p161
aVtc_365_07_seq_num_overflow_forward_relocation_complete.W15acp01
p162
aVtc_348_410_pra_israu__sai_list__cca_u_before_iu_release.W15acp01
p163
aVtc_326_272_Periodic_Intra_TAU_with_unknown_GUTI_after_combined_attach_then_MO_SMS.LW14b
p164
aVtc_43_022_mme_id_changed.LW14b
p165
aVtc_306_007_ef_seamless_move_source_receive_attach_request_wf_frr_ecm_connected.LW14b
p166
aVtc_327_012_recovery_intra_TAU__initial_Attach_Request_while_waiting_for_Ue_Backup_Response.LW14b
p167
aVtc_327_022_recovery_intra_TAU__initial_Detach_Request_while_waiting_for_Ue_Backup_Response.LW14b
p168
aVtc_342_134_update_x3_address_multiple_pdp.LW14b
p169
aVtc_304_236_isc_active_flag_on_control_mode_threshold_exceeded_ignore_replace_s1_wf_initial_context_setup_response.LW14b
p170
aVtc_236_254_IRAT_HO_for_S4_over_S3_target_DtSelMode_5_APN_not_in_APN_list_TAC_in_TAC_list.LW14b
p171
aVtc_348_426_pra_smooth_move__downlink_payload.LWG
p172
aVtc_110_005_inbound_outbound_pf_rule_cli_ip.LWG
p173
aVtc_357_023_gsm_iterator_move_ra_from_one_area_to_another.LWG
p174
aVtc_260_272_receive_sm_stop_req_while_wf_setup_iteration.LWG
p175
aVtc_208_155_ul_payload_imsi_udp.LWG
p176
aVtc_141_025_eth_v4_v6_conf_vlan.LWG
p177
aVtc_327_040_recovery_periodic_TAU__gtpv1_identify_request_wf_CSR_due_to_S11_linkdown.LWG
p178
aVtc_327_037_recovery_intra_TAU_active_off_sgw_unchanged__RAR_wf_CSR_due_to_S11_linkdown.LWG
p179
aVtc_019_001_feIfShow_rt.LWG
p180
aVtc_363_018_mmi_get_ra.LWG
p181
aVtc_107_005_eth_port_cli_autonegotiation.LWG
p182
aVtc_260_095_two_mbms_session_started_one_mce_add_one_session_send_to_new_mce.L15acp01
p183
aVtc_260_272_receive_sm_stop_req_while_wf_setup_iteration.L15acp01
p184
aVtc_327_022_recovery_intra_TAU__initial_Detach_Request_while_waiting_for_Ue_Backup_Response.L15acp01
p185
aVtc_310_109_af__timeout_on_both_PS_to_CS_Response_and_FRResponse.L15acp01
p186
aVtc_368_130_service_request_recovery__pgw_reselection_dbr_wf_create_session_response.L15acp01
p187
aVtc_256_393_mme_eps_srvcc_ho_source_cs_only_emergency__ubr_wf_ps_to_cs_response.L15acp01
p188
aVtc_220_302_csfb_to_1xrtt_return_with_tau_resume_t3n3_expired.L15acp01
p189
aVtc_334_288_path_failure_service_req_connected_3gdt_af_multi_pdn_try_next.LWG
p190
aVtc_368_006_pgw_reselection_dbr_other_pdn_wf_service_request.LWG
p191
aVtc_326_246_Intra_TAU_Recovery_fail_Modify_Bearer_fail_active_flag_SGW_Change.LWG
p192
aVtc_178_471_modify_ss7_sys_noss7.LWG
p193
aVtc_107_002_eth_port_cli_ls_an_comb.LWG
p194
aVtc_208_100_dual_stack_supported_ipv4.LWG
p195
aVtc_268_025_UE_Release__initial_ue_tau_request_wf_release_access_bearer_resp.LWG
p196
aVtc_26_029_israu_old_new_is_gtpv0_mixed_contexts_II.LWG
p197
aVtc_349_107_RAU_new_sgsn__Detach_Req_with_power_off_while_waiting_for_CCA_initial.LWG
p198
aVtc_267_777_HSS_based_PCSCF_restoration__delete_bearer_request_other_pdn_wf_service_request.LWG
p199
aVtc_166_096_israu_new_two_tunnel_since_camel_subscriber.WG14b
p200
aVtc_31_064_activate_loc_not_confirmed_ul_fails_network_failure.W15acp01
p201
aVtc_369_110_HSS_based_PCSCF_restoration_ecm_idle_only_emergency_ims_PDN.LW14b
p202
aVtc_267_523_Service_Request_SGW_unavailable__Update_Bearer_Request_while_wf_GUTI_Reallocation_Complete.LW14b
p203
aVtc_346_359_MME_Large_Restart_Origin_State_ID_increased.LW14b
p204
aVtc_236_041_s4_3gdt_detach_modify_bearer_response_reject_in_active_procedure.LW14b
p205
aVtc_195_532_mme_logging_ue_unrechable.LW14b
p206
aVtc_289_052_Modify_bearer__UE_context_modification_failure_s1_intra_system_handover_triggered_two_pdn_uninvolved_default_bearer_fail.LW14b
p207
aVtc_262_600_combined_attach_cs_service_notification_when_emm_attach_state.LW14b
p208
aVtc_304_213_isc_control_mode_threshold_exceeded_wf_session_response_reject.LW14b
p209
aVtc_304_412_Service_Request_UE_Initiated__control_mode_threshold_exceeded_onging_icsr_abort.LW14b
p210
aVtc_26_159_israu_new_not_updated_with_qos_upgradeAllowed.LW14b
p211
aVtc_214_210_mo_sms_idle_sgs_link_broken.LW14b
p212
aVtc_306_1255_ef_seamless_move_target_receive_sgsn_context_request_wf_lua.LW14b
p213
aVtc_202_540_seamless_move_target_with_latest_tai_and_enb_list.LWG
p214
aVtc_208_36_start_of_interception_imsi_msisdn_imei.LWG
p215
aVtc_283_008_GW_Deactivate_bearer__S1_reset_while_wf_ERAB_Release_complete.LWG
p216
aVtc_197_851_sgw_prioritized_gw_selection_path_failure_inter_tau.LWG
p217
aVtc_25_04_activate_interactive_check_guaranteed_bitrate_gauge.LWG
p218
aVtc_103_1100_resending_AIR_dpl_changed.LWG
p219
aVtc_103_1108_attach_resend_of_AIR_successful_last_retry.LWG
p220
aVtc_368_006_pgw_reselection_dbr_other_pdn_wf_service_request.LWG
p221
aVtc_368_130_service_request_recovery__pgw_reselection_dbr_wf_create_session_response.LWG
p222
aVtc_244_049_mt_lr_cancel_location_with_subscription_withdraw_received_wf_location_report.LWG
p223
aVtc_346_493_Small_Local_Restart__Terminate_when_UE_S1_release.LWG
p224
aVtc_335_82_From_Wifi_ECM_Connected_AF__All_Cells_from_WIC_can_not_recognize_by_MME.LWG
p225
aVtc_141_016_eth_conf_vlan_novlan.LWG
p226
aVtc_262_600_combined_attach_cs_service_notification_when_emm_attach_state.LW14b
p227
aVtc_26_008_activate_primary_context_MBR_set_to_zero.LW14b
p228
aVtc_304_500_intra_tau_success_control_mode_threshold_exceeded_dgn.LW14b
p229
aVtc_28_051_mo_sms_visitor_no_block_redirection.LW14b
p230
aVtc_313_238_inter_new_srns_reloc_s16_with_sgw_change_iu_release_request_none_user_inactivity_received_wf_forward_reloc_complete_ack.LW14b
p231
aVtc_327_022_recovery_intra_TAU__initial_Detach_Request_while_waiting_for_Ue_Backup_Response.LW14b
p232
aVtc_241_1636_israu_new_modify_bearer_response_timeout_followed_by_ms_init_deac.W15acp01
p233
aVtc_268_052_Timer_Based_GBR_Deact__Service_Request_before_Timer_Expires_ERAB_Setup_Fails.L15acp01
p234
aVtc_327_012_recovery_intra_TAU__initial_Attach_Request_while_waiting_for_Ue_Backup_Response.L15acp01
p235
aVtc_304_102_emergency_intra_tau_success__control_mode_threshold_exceeded.L15acp01
p236
aVtc_103_101_destination_host_is_peer.L15acp01
p237
aVtc_103_1004_secondary_dpl_used_when_all_peers_in_dpl_unavailable_no_sls.L15acp01
p238
aVtc_313_238_inter_new_srns_reloc_s16_with_sgw_change_iu_release_request_none_user_inactivity_received_wf_forward_reloc_complete_ack.LW14b
p239
aVtc_310_223_ef__Ue_Release_Request_wf_PS_to_CS_Complete_and_FR_Complete.LW14b
p240
aVtc_304_213_isc_control_mode_threshold_exceeded_wf_session_response_reject.LW14b
p241
aVtc_357_023_gsm_iterator_move_ra_from_one_area_to_another.LWG
p242
aVtc_248_61_inter_l_to_w_new_two_pdns_timeout_waiting_for_reloc_req_ack_without_sgw_change.LWG
p243
aVtc_208_170_df3_alarm_udp.LWG
p244
aVtc_267_777_HSS_based_PCSCF_restoration__delete_bearer_request_other_pdn_wf_service_request.LWG
p245
aVtc_267_773_HSS_based_PCSCF_restoration__create_bearer_request_wf_service_request.LWG
p246
aVtc_178_938_sctp_setprofile.LWG
p247
aVtc_202_41_type_a_emergency_pdn_ecm_idle.LWG
p248
aVtc_322_122_smooth_move_ef_cancel_location_wf_security_mode_complete.LWG
p249
aVtc_666_02_reboot_ss7_board.LWG
p250
aVtc_119_202_ospf_interface_opt_vals.LWG
p251
aVtc_107_001_eth_port_cli_mand_vals.LWG
p252
aVtc_019_001_feIfShow_rt.LWG
p253
aVtc_216_012_icmpv6_inNeighborAds.LWG
p254
aVtc_216_106_icmpv6_outNeighborSol.LWG
p255
aVtc_241_755_intra_rau_with_sgw_change_subscription_fault_node_function_deactivate_pdp_after_rau_on.W15acp01
p256
aVtc_241_1503_intra_rau_with_bearer_sgw_nochange_wf_modify_bearer_response_interfere_by_cancel_location.W15acp01
p257
aVtc_298_826_NRSPCA_S4_nsapi_collision_receiving_detach_request_while_waiting_for_delete_bearer_request.W15acp01
p258
aVtc_85_12_mo_sms.W15acp01
p259
aVtc_103_410_diameterConnectionDown_alarm_cleared_and_raised_if_pn_changed.LW14b
p260
aVtc_103_602_georedundant_realm_routing.LW14b
p261
aVtc_262_063_attach_tai_not_supported.LW14b
p262
aVtc_263_320_Attach_Flow__Attach_Request_Different_IEs_IP_OK_while_waiting_for_Update_Location_Answer.LW14b
p263
aVtc_313_204_inter_new_srns_reloc_s16_with_sgw_change_attach_request_initial_ue_received_wf_forward_reloc_complete_ack.LW14b
p264
aVtc_326_267_Intra_TAU_with_unknown_GUTI_Restriction_2_pdn_SAU_license_limit_reached.LW14b
p265
aVtc_292_170_inter_handover_before_timer_expiration_of_x2_ho.LW14b
p266
aVtc_347_250_UE_initiated_detach__location_report_while_waiting_for_delete_session_response_ue_context_release_complete.LW14b
p267
aVtc_198_001_UDPPort.LWG
p268
aVtc_198_002_TEID.LWG
p269
aVtc_198_006_TCPPort.LWG
p270
aVtc_198_004_TLLI.LWG
p271
aVtc_198_003_FlowLabel.LWG
p272
aVtc_198_007_GTPUError.LWG
p273
aVtc_198_008_GTPUEchoReq.LWG
p274
aVtc_198_010_TCPUDPPortToNCB.LWG
p275
aVtc_198_009_S102FixedPort.LWG
p276
aVtc_198_011_UDPFragments.LWG
p277
aVtc_198_012_TCPFragments.LWG
p278
aVtc_198_014_SCTPv4ToInvalidIndex.LWG
p279
aVtc_198_013_SCTPv4ToAllValidIndex.LWG
p280
aVtc_198_015_SCTPv4VerTag0.LWG
p281
aVtc_198_016_SCTPv4IndexEntry00.LWG
p282
aVtc_198_017_SCTPv4EmptyIndexMap.LWG
p283
aVtc_198_018_ICMPv4DstUnreachSCTP.LWG
p284
aVtc_198_021_SCTPv4VerTag0MultipleNetworks.LWG
p285
aVtc_198_019_ICMPv4EchoReq.LWG
p286
aVtc_198_020_SCTPFragments.LWG
p287
aVtc_198_030_UDPv6_TEID.LWG
p288
aVtc_198_031_TCPv6_DNS.LWG
p289
aVtc_198_035_SCTPv6ToAllValidIndex.LWG
p290
aVtc_198_036_SCTPv6ToInvalidIndex.LWG
p291
aVtc_198_038_SCTPv6IndexEntry00.LWG
p292
aVtc_198_037_SCTPv6VerTag0.LWG
p293
aVtc_198_039_SCTPv6EmptyIndexMap.LWG
p294
aVtc_198_040_ICMPv6DstUnreachGTPv2.LWG
p295
aVtc_198_042_ICMPv6EchoResp.LWG
p296
aVtc_198_043_ICMPv6DstUnreachSCTP.LWG
p297
aVtc_198_044_ICMPv6DstUnreachGTPv2NoPort.LWG
p298
aVtc_198_045_ICMPv6DstUnreachTCPv6Port.LWG
p299
aVtc_198_050_IPv4_traffic_flow.LWG
p300
aVtc_198_052_IPv4_traffic_flow_multiple_vpn.LWG
p301
aVtc_198_051_IPv6_traffic_flow.LWG
p302
aVtc_198_054_IPv4_load_sharing.LWG
p303
aVtc_198_055_IPv6_load_sharing.LWG
p304
aVtc_198_041_ICMPv6EchoReq.LWG
p305
aVtc_198_053_IPv6_traffic_flow_multiple_vpn.LWG
p306
aVtc_198_056_IPv4_route_selection.LWG
p307
aVtc_198_057_IPv6_route_selection.LWG
p308
aVtc_198_058_IPv4_no_route.LWG
p309
aVtc_198_059_IPv6_no_route.LWG
p310
aVtc_198_060_TCPv6Port.LWG
p311
aVtc_198_061_TCPUDPPortToNCB_IPv6.LWG
p312
aVtc_208_32_sms_mt.LWG
p313
aVtc_197_561_pgw_selection_removal_of_pgw_infomation2.LWG
p314
aVtc_268_006_release_request_not_accepted.LWG
p315
aVtc_216_012_icmpv6_inNeighborAds.LWG
p316
aVtc_216_013_icmpv6_inNeighborSol.LWG
p317
aVtc_216_106_icmpv6_outNeighborSol.LWG
p318
aVtc_295_010_Intra_S1_HO__Attach_req_from_target_eNB_while_wf_handover_notify.LWG
p319
aVtc_141_025_eth_v4_v6_conf_vlan.LWG
p320
aVtc_219_131_s3_handover_w_to_l_with_cl_two_pdns_one_failed_sgw_relocation.LWG
p321
aVtc_340_124_oms_consistence_check_for_action_pool_move_validation_start.LWG
p322
aVtc_260_272_receive_sm_stop_req_while_wf_setup_iteration.LWG
p323
aVtc_234_006_interrogate_df.L15acp01
p324
aVtc_44_750_s1_with_two_sctp_endpoints.L15acp01
p325
aVtc_326_217_Intra_TAU_Recovery_with_active_flag_two_PDN_partial_fail.L15acp01
p326
aVtc_244_602_delete_eslmc.L15acp01
p327
aVtc_220_008_csfb_to_1xrtt_in_ecm_idle_int_prot_nok_unknown_mtmsi.L15acp01
p328
aVtc_257_30_pws_sctp_device_failure.L15acp01
p329
aVtc_357_023_gsm_iterator_move_ra_from_one_area_to_another.G15acp01
p330
aVtc_347_221_Service_Request__RAR_while_waiting_for_Service_Request.L15acp01
p331
aVtc_257_30_pws_sctp_device_failure.L15acp01
p332
aVtc_234_017_update_unknown_case.L15acp01
p333
aVtc_28_048_mo_sms_old_cdr_format_r6.W15acp01
p334
aVtc_334_107_sgw_restart_mf_restoration_trigger_by_ReleaseAccessBearerResponse.W15acp01
p335
aVtc_324_273_ef_reset_wf_security_mode_wf_update_location_hss_service_req_data.WG14b
p336
aVtc_39_192_detach_trigger_worker_not_parked_move_stopped.LWG
p337
aVtc_39_702_interfering_attach_after_update_location_to_hlr_target.LWG
p338
aVtc_304_300_PDN_connectivity__control_mode_threshold_exceeded.LWG
p339
aVtc_244_051_mt_lr_delete_bearer_request_received_wf_location_report.LWG
p340
aVtc_232_511_static_routes__bfd_supervision_of_static_route_v6_on_Gom.LWG
p341
aVtc_119_202_ospf_interface_opt_vals.LWG
p342
aVtc_30_139_hlr_reset_dp_unavailable.LWG
p343
aVtc_266_306_Service_Request_SGW_unavailable__create_session_two_PDN_one_failed.LWG
p344
aVtc_194_406_service_request_ai_fails_roaming_not_allowed_remap_on_without_err_diag.LWG
p345
aVtc_209_103_dual_stack_supported_ipv6_ipv4v6.LW14b
p346
aVtc_214_006_combined_attach_implicit_detach_timer_expiry.LW14b
p347
aVtc_275_206_tau_inter_new_emergency_type_b_restricted_no_rrc_or_active_flag.LW14b
p348
aVtc_304_213_isc_control_mode_threshold_exceeded_wf_session_response_reject.LW14b
p349
aVtc_82_020_rab_modify_followed_by_israu.LW14b
p350
aVtc_194_707_HSS_initiated_ISD_ue_context_modification_request_meanwhile_handover_required.LW14b
p351
aVtc_268_040_Timer_Based_GBR_Deact__Receive_DDN_with_known_IMSI_before_Timer_Expires.LWG
p352
aVtc_019_001_feIfShow_rt.LWG
p353
aVtc_215_003_ipv6_InTruncatedPkts.LWG
p354
aVtc_306_1201_ef_seamless_move_target_receive_hss_reset_with_ue_activity_indication.LWG
p355
aVtc_157_7_snmp_v3_com_consistent.LWG
p356
aVtc_224_102_ipv6_discard_unconfigured_address.LWG
p357
aVtc_327_037_recovery_intra_TAU_active_off_sgw_unchanged__RAR_wf_CSR_due_to_S11_linkdown.LWG
p358
aVtc_222_102_cis_mit_icmp_v6_error_service_ipv6addr_sctp.LWG
p359
aVtc_110_005_inbound_outbound_pf_rule_cli_ip.LWG
p360
aVtc_209_70_israu_new_sgsn_one_pdp_context_wrong_pdp_type.LWG
p361
aVtc_326_671_tau_intra_SGW_unavailable_active_flag_off_after_MME_large_restart__with_emergency_PDN.LWG
p362
aVtc_361_510_rau_l_to_w_S4SGSN_check_old_qos_failed_node_function_deactivate_pdp_after_rau_on.LWG
p363
aVtc_210_100_pdn_connectivity_erab_setup_failure_response_from_enodeb.LW14b
p364
aVtc_197_482_attach_sgw_selection_table_empty_type_a_query_failed.LW14b
p365
aVtc_304_004_attach_success__only_measurement_mode_threshold_reached.LW14b
p366
aVtc_28_030_israu_new_sgsn_one_pdp_context_mo_sms.LW14b
p367
aVtc_313_238_inter_new_srns_reloc_s16_with_sgw_change_iu_release_request_none_user_inactivity_received_wf_forward_reloc_complete_ack.LW14b
p368
aVtc_210_024_target_info_query_msisdn.L15acp01
p369
aVtc_358_013_lte_remove_ip_area_with_ipAddressReset_true_and_irrEnabled_nrrEnabled_false.L15acp01
p370
aVtc_304_236_isc_active_flag_on_control_mode_threshold_exceeded_ignore_replace_s1_wf_initial_context_setup_response.L15acp01
p371
aVtc_275_206_tau_inter_new_emergency_type_b_restricted_no_rrc_or_active_flag.L15acp01
p372
aVtc_103_903_primary_or_secondary_realm_routing_own_realm.L15acp01
p373
aVtc_262_084_emergency_imsi_attach_unauthentication_fails_in_hss.L15acp01
p374
aVtc_220_204_csfb_to_1xrtt_delete_bearer_ho_to_no_3gpp_wf_delete_gbr_bearer_response.L15acp01
p375
aVtc_78_058_intra_rau_intra_plmn_forced_csps_coord_accept_foreign_ms.W15acp01
p376
aVtc_101_004_single_mbms_session_rnc_rab_and_iu_release.W15acp01
p377
aVtc_166_134_israu_new_3gdt_incompatible_ggsn.WG14b
p378
a.