(lp0
Vtc_260_272_receive_sm_stop_req_while_wf_setup_iteration.L15acp01
p1
aVtc_204_011_mme_eps_handover_target_inter_main_flow_with_sgw_relocation__dedicated_bearer.L15acp01
p2
aVtc_306_1045_ef_seamless_move_target_receive_cancel_location_withdraw_wf_lur_and_service_request_without_emergency_pdn.L15acp01
p3
aVtc_329_002_attach_rs_allowed_emergency.L15acp01
p4
aVtc_207_023_ebm_server_connection_failure.WG14b
p5
aVtc_243_532_tau_from_sgsn_s3_active_flag_false_dl_data_notification_wf_tau_complete.LWG
p6
aVtc_107_101_eth_vlan_cli.LWG
p7
aVtc_81_013_israu_conversational_use_sub_ggsn_modifies_to_conv.LWG
p8
aVtc_319_047_tau_ef_table_not_matched_from_mme_to_mme_stop_by_attach.LWG
p9
aVtc_214_807_mo_sms_active_donwlink_nas_transport_meanwhile_handover_required_HO_success_TAU.LWG
p10
aVtc_368_006_pgw_reselection_dbr_other_pdn_wf_service_request.LWG
p11
aVtc_019_001_feIfShow_rt.LWG
p12
aVtc_208_48_df2_alarm_buffer_off.LWG
p13
aVtc_238_300_mme_eps_irat_ho_target_HeNB_with_csg_id.LWG
p14
aVtc_141_025_eth_v4_v6_conf_vlan.LWG
p15
aVtc_340_34_validation_move_g_s4_filter_all_apn.G15acp01
p16
aVtc_327_022_recovery_intra_TAU__initial_Detach_Request_while_waiting_for_Ue_Backup_Response.LW14b
p17
aVtc_217_090_rau_to_sgsn_while_deactivate_gbr_bearer.LW14b
p18
aVtc_52_17_inter_old_treloccomplete_timeout_before_ack.W15acp01
p19
aVtc_30_090_concurrent_msd_cl.G15acp01
p20
aVtc_215_005_ipv6_InAddrErrors.LWG
p21
aVtc_215_002_ipv6_InHdrErrors.LWG
p22
aVtc_215_003_ipv6_InTruncatedPkts.LWG
p23
aVtc_216_001_icmpv6_inMsgs.LWG
p24
aVtc_216_012_icmpv6_inNeighborAds.LWG
p25
aVtc_216_106_icmpv6_outNeighborSol.LWG
p26
aVtc_224_103_ipv6_discard_tcp.LWG
p27
aVtc_224_104_ipv6_discard_sctp_unconfigured.LWG
p28
aVtc_224_102_ipv6_discard_unconfigured_address.LWG
p29
aVtc_219_131_s3_handover_w_to_l_with_cl_two_pdns_one_failed_sgw_relocation.LWG
p30
aVtc_24_172_msc_pool_israu_msc_from_old_sgsn_not_supported_select_msc.LWG
p31
aVtc_56_10_cm_restart_during_SR.LWG
p32
aVtc_217_802_rau_to_gn_sgsn_tranfer_attach_when_wf_sgsn_context_ack.LWG
p33
aVtc_260_272_receive_sm_stop_req_while_wf_setup_iteration.LWG
p34
aVtc_206_020_create_ebm_server_while_attached.L15acp01
p35
aVtc_214_028_combined_attach_interfering_s1_reset.L15acp01
p36
aVtc_197_063_s1_handover_sgw_reselection_topon_emc_ims.LW14b
p37
aVtc_304_213_isc_control_mode_threshold_exceeded_wf_session_response_reject.LW14b
p38
aVtc_266_314_service_request_2_pdn_Modify_Bearer_Response_with_dedicated_bearer_not_match.LW14b
p39
aVtc_236_045_s4_3gdt_iu_release_during_waiting_for_modify_bearer_rsp_in_service_request_procedure.LW14b
p40
aVtc_324_388_ef_mo_sms_wf_ula.LW14b
p41
aVtc_578_52_check_uetracer_parser.LW14b
p42
aVtc_327_022_recovery_intra_TAU__initial_Detach_Request_while_waiting_for_Ue_Backup_Response.LW14b
p43
aVtc_304_475_initial_ue_csfb_to_1xrtt_cdma2000_control_mode_threshold_exceeded_usc_detach_congestion_in_ecm_idle.LW14b
p44
aVtc_103_702_CEA_timeout.LWG
p45
aVtc_44_070_sctp_large_message.LWG
p46
aVtc_216_012_icmpv6_inNeighborAds.LWG
p47
aVtc_216_106_icmpv6_outNeighborSol.LWG
p48
aVtc_274_321_Intra_and_pTAU__SGSN_Context_Request_while_waiting_for_Delete_Bearer_Request_no_SGW_answer.LWG
p49
aVtc_259_112_ef_s6d_tads_interfere_inter_rau_old_g.LWG
p50
aVtc_262_084_emergency_imsi_attach_unauthentication_fails_in_hss.LWG
p51
aVtc_256_143_mme_eps_srvcc_ho_source_cs_only_initial_ue_extended_service_request_wf_srvcc_ps_to_cs_response.LWG
p52
aVtc_256_367_srvcc_ho_source_cs_only_gsm_2_msc_available.LWG
p53
aVtc_165_7_real_large_restart.LWG
p54
aVtc_103_1007_secondary_dpl_set_and_then_emptied.L15acp01
p55
aVtc_260_272_receive_sm_stop_req_while_wf_setup_iteration.L15acp01
p56
aVtc_273_201_tau_intra_roaming_restricted_plmn.L15acp01
p57
aVtc_248_122_inter_l_to_w_new_detach_request_direct_transfer_received_wf_forward_relocation_complete_ack.W15acp01
p58
aVtc_52_13_inter_old_no_forwSRNScont_ack.W15acp01
p59
aVtc_194_133_cli_delete_subscriber_msisdn_reattach_not_required_idle_state.LW14b
p60
aVtc_262_1000_attach_apn_resolution_ext_imsins_based_with_msisdn.LW14b
p61
aVtc_26_028_israu_old_new_is_gtpv0_mixed_contexts_I.LW14b
p62
aVtc_241_262_israu_new_S4_g_to_S4_w_nuqm_false.W15acp01
p63
aVtc_348_460_pra_intra_relocation__CCR_U_lrc_lr.LWG
p64
aVtc_103_850_error_code_DIAMETER_REALM_NOT_SERVED.LWG
p65
aVtc_103_860_ue_trace_retransmit.LWG
p66
aVtc_289_031_Modify_bearer__Downlink_nas_transport_meanwhile_path_switch_request_HO_success.LWG
p67
aVtc_369_064_s1_reset_from_enb_during_waiting_location_report__idr_flags_ef.LWG
p68
aVtc_326_201_Intra_TAU_with_unknown_GUTI_with_active_flag.LWG
p69
aVtc_216_012_icmpv6_inNeighborAds.LWG
p70
aVtc_230_152_attach_with_pdp_si_context_request_when_att_completing.LWG
p71
aVtc_304_236_isc_active_flag_on_control_mode_threshold_exceeded_ignore_replace_s1_wf_initial_context_setup_response.L15acp01
p72
aVtc_346_494_Small_Local_Restart__Terminate_when_UE1_PDN_Connectivity_waiting_for_CCAI_UE2_Location_Report_waiting_for_CCAU.L15acp01
p73
aVtc_13_29_gprs_ptmsi_attach_mac_failure_same_imsi.G15acp01
p74
aVtc_324_317_ef_gr_cli_delete_subscriber_data_wf_modify_bearer_response_wf_ula.W15acp01
p75
aVtc_327_037_recovery_intra_TAU_active_off_sgw_unchanged__RAR_wf_CSR_due_to_S11_linkdown.LWG
p76
aVtc_226_114_W_S4_USC_PDP_Context_Activation__ControlMode_On_detach_action_same_ongoing_wf_sgw_response.LWG
p77
aVtc_263_455_Attach_Flow__Cancel_Location_Update_Procedure_while_waiting_for_Create_Session_Response.LWG
p78
aVtc_196_152_nrspca_ongoing_when_inter_w_to_g_old.LWG
p79
aVtc_103_1100_resending_AIR_dpl_changed.LWG
p80
aVtc_103_1102_fallback_to_imsins_success.LWG
p81
aVtc_244_055_mt_lr_cancel_location_with_update_procedure_received_wf_location_report.LWG
p82
aVtc_26_147_nrspca_rejected_ARP.LW14b
p83
aVtc_302_083_mme_relocation_tau_new_no_licence.LW14b
p84
aVtc_103_853_error_code_DIAMETER_INVALID_HDR_BITS.LW14b
p85
aVtc_262_183_new_mme_identification_fail_to_find_old_sgsn_s3.LW14b
p86
aVtc_329_761_intra_irat_gn_tau_w_to_l_rs_restricted.LW14b
p87
aVtc_103_903_primary_or_secondary_realm_routing_own_realm.L15acp01
p88
aVtc_103_1134_sx_resend__CCR_I_resend_1_times_diameter_too_busy_timeout_failed_only_realm.L15acp01
p89
aVtc_318_270_sgw_restart_mf_relocation_triggered_by_DDN_initiated_service_request_multi_pdn.L15acp01
p90
aVtc_304_267_tau_from_gnsgsn_with_active_flag_control_mode_ignore_replace_s1.L15acp01
p91
aVtc_195_547_mme_logging_two_ue_tau_inter_new_traced_by_same_imei.L15acp01
p92
aVtc_324_371_ef_cancel_location_intialAttach_wf_modify_bearer_response_service_req_data.WG14b
p93
aVtc_207_023_ebm_server_connection_failure.WG14b
p94
aVtc_578_02_check_parse_ebm_and_ci_eci_w.WG14b
p95
aVtc_340_25_validation_move_g_af_modify_trigger_stop_ongoing_job.G15acp01
p96
aVtc_260_272_receive_sm_stop_req_while_wf_setup_iteration.L15acp01
p97
aVtc_346_493_Small_Local_Restart__Terminate_when_UE_S1_release.L15acp01
p98
aVtc_44_850_mme_assoc_reestablish__board_restart_s1_mme.L15acp01
p99
aVtc_225_621_exp_enb_configuration_update_while_wf_extended_service_request_mt_call_idle_mode.L15acp01
p100
aVtc_211_024_streamed_cell_trace_mapping_alarm_ipv6.L15acp01
p101
aVtc_103_903_primary_or_secondary_realm_routing_own_realm.L15acp01
p102
aVtc_39_771_mas_rnc_reset_when_wf_ptmsi_realloc_cmpl_source.LWG
p103
aVtc_262_802_guti_attach_initial_context_setup_failure_reattach.LWG
p104
aVtc_368_004_pgw_reselection_cbr_other_pdn_wf_service_request.LWG
p105
aVtc_368_070_x2_based_ho__pgw_reselection_dbr_wf_delete_session_response.LWG
p106
aVtc_205_71_02_ss7_SCCP_UDT_XUDT.LWG
p107
aVtc_59_12_sequence_on_demand_indexbased_replica_values_during_takeover.LWG
p108
aVtc_316_294_GUTI_Attach_UnKnown_IMSI_Broadcast_Force_Delete_Among_Pool.LWG
p109
aVtc_103_1106_fallback_to_imsins_resend_success.LWG
p110
aVtc_103_905_proxy_node_s6a_s13.LWG
p111
aVtc_259_99_ef_s6d_s4_attach_old_w.LWG
p112
aVtc_241_228_pool_relay_default_sgsn_send_version_not_supported.W15acp01
p113
aVtc_236_288_Relocation_3gdt_switchback_iu_release_request_none_user_inactivity_received_wf_modify_bearer_response.W15acp01
p114
aVtc_324_071_af_modify_bearer_pdn_particially_accept_3gdt.W15acp01
p115
aVtc_289_101_multi_pdn_pgw_init_bearer_mod_wf_service_interrupted_by_dbr_with_lbi.LW14b
p116
aVtc_348_424_pra_israu__follow_on_back_in_20s_l_and_w.LW14b
p117
aVtc_327_728_recovery_service_request__uplink_NAS_Transport_while_wf_ue_context_modification_response.LW14b
p118
aVtc_327_752_recovery_service_request__delete_bearer_request_while_wf_ue_context_modification_response.LW14b
p119
aVtc_335_154_Locator_Restart__Service_Request_af__GA_not_Change.LW14b
p120
aVtc_340_14_validation_move_w_filter_all_apn_with_two_pdns.LW14b
p121
aVtc_268_081_Timer_Based_GBR_Deact__receive_DDN_contain_default_bearer_receive_interfering_DBR_UBR.LW14b
p122
aVtc_44_850_mme_assoc_reestablish__board_restart_s1_mme.L15acp01
p123
aVtc_214_028_combined_attach_interfering_s1_reset.L15acp01
p124
aVtc_43_042_eNB_configuration_update_af_configuration_update_failure_twice.L15acp01
p125
aVtc_267_786_HSS_based_PCSCF_restoration__vlr_reset_indication_wf_service_request.L15acp01
p126
aVtc_346_495_Small_Local_Restart__No_Terminate_when_UE1_Attach_waiting_for_CCA_Initial_UE2_Attach_waiting_for_MBR.L15acp01
p127
aVtc_358_119_lte_local_user_reject_intra_handover_unrestricted_ip_area_to_ip_area.L15acp01
p128
aVtc_358_012_lte_iterator_turn_off_feature_with_ipAddressReset_true_irrEnabled_nrrEnabled_false.L15acp01
p129
aVtc_244_053_mt_lr_provide_location_request_received_wf_location_report.L15acp01
p130
aVtc_22_004_wcdma_arm_edp_disconnect_at_dp_estack.W15acp01
p131
aVtc_38_500_israu_old_sgsn_israu_new_sgsn_one_pdp_context_with_old_ptmsi.W15acp01
p132
aVtc_274_506_Intra_TAU_active_off__gtpv2_FRR_wf_CSR_due_to_S11_linkdown.LW14b
p133
aVtc_260_272_receive_sm_stop_req_while_wf_setup_iteration.LW14b
p134
aVtc_327_037_recovery_intra_TAU_active_off_sgw_unchanged__RAR_wf_CSR_due_to_S11_linkdown.LW14b
p135
aVtc_322_024_smooth_move_af_frr_without_moveIndicator.LWG
p136
aVtc_241_635_intra_rau_with_bearer_sgw_change_with_3gdt_wait_release_access_resp_interfer_by_context_req.LWG
p137
aVtc_26_110_nrspca_ARP_GGSN_not_support.LWG
p138
aVtc_665_1_dp_reboot_init_cm_restart_with_traffic.LWG
p139
aVtc_357_023_gsm_iterator_move_ra_from_one_area_to_another.LWG
p140
aVtc_284_320_deactivate_1_default_bearer_plus_the_last_one_in_parallel.LWG
p141
aVtc_275_103_Inter_TAU_New_MME__Imei_Check_answer_Blacklisted_before_TAU_Accept.LWG
p142
aVtc_292_045_Report_SN_X2HO_with_SGW_changed.LWG
p143
aVtc_666_02_reboot_ss7_board.LWG
p144
aVtc_293_041_X2_Based_HO__Sgw_reloc__Downlink_A21_AIS_while_wf_Delete_Session_Response.LWG
p145
aVtc_357_023_gsm_iterator_move_ra_from_one_area_to_another.G15acp01
p146
aVtc_79_035_israu_new_streaming_context_MBR_not_zero.LW14b
p147
aVtc_307_052_IRAT_Mobility__TAU_from_W_S4SGSN_Active_flag_on.LW14b
p148
aVtc_38_17_israu_new_sgsn_unsuccessful_authentication.LW14b
p149
aVtc_327_022_recovery_intra_TAU__initial_Detach_Request_while_waiting_for_Ue_Backup_Response.LW14b
p150
aVtc_28_037_mo_sms_fallback_v2_ok_previous_higher.LW14b
p151
aVtc_236_048_s4_3gdt_deactivation_during_waiting_for_modify_bearer_rsp_in_activation_procedure_no_context.W15acp01
p152
aVtc_52_44_inter_old_srns_reloc_main_flow_interfered_by_insert_subscr.W15acp01
p153
aVtc_326_203_Intra_TAU_after_node_restart_with_two_retrieval_responses_with_SGW_change_with_emergency_PDN.L15acp01
p154
aVtc_214_028_combined_attach_interfering_s1_reset.L15acp01
p155
aVtc_364_202_af_trigger_hits_when_max_ue_trace_sessions_reached.LWG
p156
aVtc_195_535_mme_logging_sgsap_reset.LWG
p157
aVtc_291_40_action_ue_trace.LWG
p158
aVtc_251_010_rau_w_to_g_after_hss_reset_storm.LWG
p159
aVtc_326_290_Intra_TAU_with_unknown_GUTI_with_SGW_Change.LWG
p160
aVtc_264_080_MME_Initiated_Detach__UE_ECM_Idle__Paging_Failed_due_to_OLP.LWG
p161
aVtc_305_052_oms_mmi.LWG
p162
aVtc_213_020_nrspca_ms_activate_sec_request_ril3_decode_error_li.LWG
p163
aVtc_666_02_reboot_ss7_board.LWG
p164
aVtc_318_133_sgw_restart_mf_relocation_triggered_by_intra_tau_multi_pdn.LW14b
p165
aVtc_304_117_initial_ue_intra_tau_control_mode_threshold_exceeded_usc_detach_intruder_wf_release_request_response.LW14b
p166
aVtc_26_087_isd_0kbps.LW14b
p167
aVtc_103_602_georedundant_realm_routing.LW14b
p168
aVts_336_001_access_request__access_request_while_waiting_for_eab_wifi_decision_response.LW14b
p169
aVtc_316_244_Combined_Attach_TMSI_reallocation__Backup_UE.LW14b
p170
aVtc_260_272_receive_sm_stop_req_while_wf_setup_iteration.LW14b
p171
aVtc_262_753_attach_handover_indication_override_no_pgw_in_subscription.LW14b
p172
aVtc_241_733_service_request_wf_modify_bearer_response_interfered_by_activate_pdp_context.W15acp01
p173
aVtc_313_001_inter_new_srns_reloc_s16_without_sgw_change.W15acp01
p174
aVtc_31_064_activate_loc_not_confirmed_ul_fails_network_failure.W15acp01
p175
aVtc_141_025_eth_v4_v6_conf_vlan.LWG
p176
aVtc_157_6_1_snmp_v2_com_consistent_filter.LWG
p177
aVtc_260_272_receive_sm_stop_req_while_wf_setup_iteration.LWG
p178
aVtc_208_36_start_of_interception_imsi_msisdn_imei.LWG
p179
aVtc_342_134_update_x3_address_multiple_pdp.LWG
p180
aVtc_281_060_Activate_bearer__Attach_Request_while_wf_activate_dedicated_eps_bearer_context_accept.LWG
p181
aVtc_24_131_msc_pool_ngaf_gs_null_handle_second_alert_request.LWG
p182
aVtc_334_252_path_failure_service_req_connected_3gdt_mf.LWG
p183
aVtc_291_40_action_ue_trace.LWG
p184
aVtc_220_302_csfb_to_1xrtt_return_with_tau_resume_t3n3_expired.L15acp01
p185
aVtc_44_056_s1ap_mdholpap_attach_request_exceeds_allowed_rate.L15acp01
p186
aVtc_260_272_receive_sm_stop_req_while_wf_setup_iteration.L15acp01
p187
aVtc_193_022_auth_failure_sync_abort.L15acp01
p188
aVtc_285_006_PDN_Connectivity_Pb__Delete_default_bearer_request_while_wf_modify_bearer_response.L15acp01
p189
aVtc_28_016_mt_sms_paging_request_no_response_mo_sms_inform_hlr.W15acp01
p190
aVtc_81_032_israu_conversational_no_lic.W15acp01
p191
aVtc_204_100_inter_s1ho_target_HeNB_format_targetid_HeNB_GW_table_matched.L15acp01
p192
aVtc_326_212_Intra_TAU_Recovery_after_node_restart_Update_Location_timeout_TAU_Complete_timeout.L15acp01
p193
aVtc_44_850_mme_assoc_reestablish__board_restart_s1_mme.L15acp01
p194
aVtc_199_32_zero_teid_request.L15acp01
p195
aVtc_103_851_error_code_DIAMETER_APPLICATION_UNSUPPORTED.L15acp01
p196
aVtc_327_037_recovery_intra_TAU_active_off_sgw_unchanged__RAR_wf_CSR_due_to_S11_linkdown.LW14b
p197
aVtc_282_105_deactivate_bearer_no_response_from_ue.LW14b
p198
aVtc_346_495_Small_Local_Restart__No_Terminate_when_UE1_Attach_waiting_for_CCA_Initial_UE2_Attach_waiting_for_MBR.LW14b
p199
aVtc_43_015_mme_relative_capacity_changed_s1ap_setup_get_new_value.LW14b
p200
aVtc_214_1139_la_selection_mf_reselection_ptau_during_ue_restoration.LW14b
p201
aVtc_306_1104_ef_seamless_move_target_ecm_idle_receive_sgs_paging_with_sms_indicator_wf_lua.LW14b
p202
aVtc_368_004_pgw_reselection_cbr_other_pdn_wf_service_request.LW14b
p203
aVtc_368_006_pgw_reselection_dbr_other_pdn_wf_service_request.LW14b
p204
aVtc_209_106_dual_stack_not_supported_ipv4_ipv4v6.LW14b
p205
aVtc_290_037_Timer_Based_GBR_Deact__path_switch_request_wf_ue_context_release_complete_before_timer_expires.LW14b
p206
aVtc_578_52_check_uetracer_parser.LW14b
p207
aVtc_265_253_Detach_Flow_NW_init__Sgs_CS_Paging_while_wf_detach_accept.LW14b
p208
aVtc_208_200_s4_context_activate_modify_deactivate.LWG
p209
aVtc_368_006_pgw_reselection_dbr_other_pdn_wf_service_request.LWG
p210
aVtc_306_1216_ef_seamless_move_target_receive_s1_setup_ecm_idle.LWG
p211
aVtc_77_5_attach_activate2_g_crash.LWG
p212
aVtc_38_144_israu_new_sgsn_auth_res_fail_transfer_to_existing_imsi_not_ok.LWG
p213
aVtc_259_83_isd_tads_s4_gsm_act_deact_pdp_context.LWG
p214
aVtc_307_011_HSS_Init_QoS_Modification__UEAMBR_and_APNAMBR_Changed_ECM_IDLE.LWG
p215
aVtc_11_237_context_modification_with_aace_mtz.LWG
p216
aVtc_103_701_MME_restarts.LWG
p217
aVtc_288_115_pgw_init_bearer_mod_paging_one_bearer_not_existent_in_modify_bearer_response.LWG
p218
aVtc_329_761_intra_irat_gn_tau_w_to_l_rs_restricted.LWG
p219
aVtc_326_317_Service_Request_with_unknown_STMSI_node_restart_1xrtt_cs_registration_then_mo_sms.LWG
p220
aVtc_326_680_tau_intra_SGW_unavailable_active_flag_off_after_MME_large_restart__two_pdn.LWG
p221
aVtc_78_360_intra_rau_with_undefined_imsi_reject_with_cc_10_and_redirection_complete.LWG
p222
aVtc_327_037_recovery_intra_TAU_active_off_sgw_unchanged__RAR_wf_CSR_due_to_S11_linkdown.LWG
p223
aVtc_666_02_reboot_ss7_board.LWG
p224
aVtc_327_037_recovery_intra_TAU_active_off_sgw_unchanged__RAR_wf_CSR_due_to_S11_linkdown.LW14b
p225
aVtc_260_272_receive_sm_stop_req_while_wf_setup_iteration.LW14b
p226
aVtc_238_233_mme_eps_irat_Gn_ho_target_macro_eNB_skt_specific_format_targetid_HeNB_GW_table_matched.LW14b
p227
aVtc_103_602_georedundant_realm_routing.LW14b
p228
aVtc_79_036_israu_new_streaming_context_MBR_not_zero_service_request.LW14b
p229
aVtc_578_52_check_uetracer_parser.LW14b
p230
aVtc_324_371_ef_cancel_location_intialAttach_wf_modify_bearer_response_service_req_data.W15acp01
p231
aVtc_250_114_act_ipv4v6_pdp_ctx_idr_pdp_type_dual_to_single_eps.W15acp01
p232
aVtc_44_850_mme_assoc_reestablish__board_restart_s1_mme.L15acp01
p233
aVtc_256_050_mme_eps_srvcc_ho_source_cs_only_invalid_ho_type_target_id_mapping.L15acp01
p234
aVtc_194_507_Notification_during_Intra_TAU_without_SGW_Relocation_HSS_Reset_during_SMC.L15acp01
p235
aVtc_194_501_Notification_SV_change_during_Attach_Procedure_no_Response.L15acp01
p236
aVtc_260_272_receive_sm_stop_req_while_wf_setup_iteration.L15acp01
p237
aVtc_177_200_test_list_cmd.LWG
p238
aVtc_319_036_act_pdp_ef_table_not_matched_stop_by_detach.LWG
p239
aVtc_219_131_s3_handover_w_to_l_with_cl_two_pdns_one_failed_sgw_relocation.LWG
p240
aVtc_44_750_s1_with_two_sctp_endpoints.LWG
p241
aVtc_11_399_activation_with_same_NSAPI_interrupted_by_detach.LWG
p242
aVtc_203_471_mme_eps_ho_source__dbr_triggered_pgw_reselection_wf_forward_relocation_response.LWG
p243
aVtc_578_63_uetrace2pcap_deactivate_eps_bearer_check_warning.LWG
p244
aVtc_357_023_gsm_iterator_move_ra_from_one_area_to_another.WG14b
p245
aVtc_578_65_uetrace2pcap_x2_handover.W15acp01
p246
aVtc_578_52_check_uetracer_parser.LWG
p247
aVtc_208_59_extra_pdp_activate_signal_ignore.LWG
p248
aVtc_666_03_block_ss7_board.LWG
p249
aVtc_329_250_s1_inter_ho_source_rs_allowed.LWG
p250
aVtc_368_220_csfb__pgw_reselection_dbr_wf_extended_service_request.LWG
p251
aVtc_101_005_single_mbms_session_rnc_reset_resource.LWG
p252
aVtc_103_701_MME_restarts.LWG
p253
aVtc_326_201_Intra_TAU_with_unknown_GUTI_with_active_flag.LWG
p254
aVtc_103_852_error_code_DIAMETER_COMMAND_UNSUPPORTED.LW14b
p255
aVtc_103_701_MME_restarts.LW14b
p256
aVtc_304_236_isc_active_flag_on_control_mode_threshold_exceeded_ignore_replace_s1_wf_initial_context_setup_response.LW14b
p257
aVtc_214_028_combined_attach_interfering_s1_reset.LW14b
p258
aVtc_266_523_DDN_Service_Request_SGW_unavailable__create_session_dedicated_bearer_failed.LW14b
p259
aVgn_wcdma_payload_no_context_ensure_stored.WG14b
p260
aVtc_166_334_activate_fail_interrupted_by_deactivate_req_when_updating_in_GGSN.WG14b
p261
aVtc_322_038_smooth_move_af_no_cancel_location_request_from_hlr.WG14b
p262
aVtc_578_65_uetrace2pcap_x2_handover.WG14b
p263
aVtc_103_701_MME_restarts.L15acp01
p264
aVtc_103_603_georedundant_modify_diameter_peer.L15acp01
p265
aVtc_103_705_delete_peer_send_DPR_timeout_on_DPA.L15acp01
p266
aVtc_273_132_tau_intra_normal_idle_active_two_pdn_connections_all_ok.L15acp01
p267
aVtc_289_103_multi_pdns_pgw_init_bearer_mod_ecm_idle_interrupted_by_dbr_with_lbi.L15acp01
p268
aVtc_357_023_gsm_iterator_move_ra_from_one_area_to_another.G15acp01
p269
aVtc_578_65_uetrace2pcap_x2_handover.G15acp01
p270
aVtc_578_65_uetrace2pcap_x2_handover.G15acp01
p271
aVtc_204_257_mme_eps_ho_target_imei_check_integrity_fail_auth_no_imei_in_smc.LW14b
p272
aVtc_290_071_Timer_Based_GBR_Deact__identification_request_over_s3_ecm_idle_before_timer_expires.LW14b
p273
aVtc_310_116_af__HO_Cancel_before_Response_from_MSC_after_Response_from_SGSN.LW14b
p274
aVtc_11_383_no_deactivation_by_sdm_after_israu_vplmn_not_allowed.LW14b
p275
aVtc_267_760_HSS_based_PCSCF_restoration__attach_request_wf_service_request_in_detach.LW14b
p276
aVtc_326_210_Intra_TAU_combined_after_large_restart_after_EPS_attach.LW14b
p277
aVtc_329_154_intra_tau_rs_restricted_emergency_plmn_change_ula_fails.LW14b
p278
aVtc_262_511_attach_pb_activate_dedicated_bearer_initial_context_setup_response_timeout.LW14b
p279
aVtc_578_65_uetrace2pcap_x2_handover.W15acp01
p280
aVtc_231_172_iu_release_request_interfere_ms_init_deactivation.W15acp01
p281
aVtc_28_052_mo_sms_homer_block_visiting_redirection.W15acp01
p282
aVtc_101_030_mbms.W15acp01
p283
aVtc_273_404_tau_intra_bearer_status_mismatch_guti_realloc_del_ded.L15acp01
p284
aVtc_193_176_security_mode_reject_during_service_req.L15acp01
p285
aVtc_295_136_mo_call_during_s1_ho_tau_request_when_wf_handover_notify.L15acp01
p286
aVtc_103_701_MME_restarts.L15acp01
p287
aVtc_578_65_uetrace2pcap_x2_handover.WG14b
p288
aVtc_178_938_sctp_setprofile.LWG
p289
aVtc_666_02_reboot_ss7_board.LWG
p290
aVgn_wcdma_payload_no_context_ensure_stored.LWG
p291
aVtc_203_471_mme_eps_ho_source__dbr_triggered_pgw_reselection_wf_forward_relocation_response.LWG
p292
aVtc_193_009_background_fetching_off.LWG
p293
aVtc_103_854_error_code_DIAMETER_INVALID_AVP_VALUE.LWG
p294
aVtc_24_90_msc_pool_off_comb_proc_on_default_msc_in_la_with_2_connected_mscs.LWG
p295
aVtc_245_123_inter_rau_old_s4_sgsn_activated_on_ggsn.LWG
p296
aVtc_26_155_activate_secondary_pdp_with_upgradeAllowed.LW14b
p297
aVtc_294_326_intra_handover_with_sgw_relocation_target_enodeb_fails.LW14b
p298
aVtc_361_190_s3_intra_rau_l_to_w_with_dedicate_bearers_3gdt_ipv4v6.LW14b
p299
aVtc_220_403_csfb_to_1xrtt_in_ecm_connected_path_switch_request_HO_success.LW14b
p300
aVtc_44_004_small_restart__sctp_fe_restart.LW14b
p301
aVtc_578_65_uetrace2pcap_x2_handover.WG14b
p302
aVtc_357_023_gsm_iterator_move_ra_from_one_area_to_another.WG14b
p303
aVtc_578_65_uetrace2pcap_x2_handover.G15acp01
p304
aVtc_578_65_uetrace2pcap_x2_handover.W15acp01
p305
aVtc_231_736_handle_outdated_triggered_delete_bearer_request_2_bearers_1_exist.W15acp01
p306
aVtc_665_1_dp_reboot_init_cm_restart_with_traffic.LWG
p307
aVtc_368_006_pgw_reselection_dbr_other_pdn_wf_service_request.LWG
p308
aVtc_103_1109_attach_resend_of_AIR_no_more_peers.LWG
p309
aVtc_56_5_restart_during_SR.LWG
p310
aVtc_666_02_reboot_ss7_board.LWG
p311
aVtc_666_06_block_rt_board.LWG
p312
aVtc_178_471_modify_ss7_sys_noss7.LWG
p313
aVtc_310_125_af__Forward_Relocation_Response_from_SGSN_arrives_after_PS_to_CS_response_from_MSC.L15acp01
p314
aVtc_280_043_create_dedicated_bearers_qci_counters__qci1_2_3_4_5_6_qci64.L15acp01
p315
aVtc_44_850_mme_assoc_reestablish__board_restart_s1_mme.L15acp01
p316
aVtc_214_1141_la_selection_mf_oldmscpreferred_prau_during_ue_restoration.LWG
p317
aVtc_213_020_nrspca_ms_activate_sec_request_ril3_decode_error_li.LWG
p318
aVtc_327_037_recovery_intra_TAU_active_off_sgw_unchanged__RAR_wf_CSR_due_to_S11_linkdown.LWG
p319
aVtc_25_15_ms_init_modification_ms_99_gtp_99_qos_reject.LWG
p320
aVtc_234_012_activate_update_deactivate_all.LWG
p321
aVtc_665_7_dp_block_deblock_within_4_min.LWG
p322
aVtc_334_251_path_failure_service_req_connected_mf.LWG
p323
aVtc_363_018_mmi_get_ra.LWG
p324
aVtc_310_244_ef__S1_Reset_wf_FR_Complete_PS_to_CS_Complete_received.LWG
p325
aVtc_578_65_uetrace2pcap_x2_handover.G15acp01
p326
aVtc_06_515_apn_resolution_main_flow_resolute_based_on_imsins_when_ms_request_empty_apn.G15acp01
p327
aVtc_578_65_uetrace2pcap_x2_handover.W15acp01
p328
aVtc_578_65_uetrace2pcap_x2_handover.WG14b
p329
aVtc_103_701_MME_restarts.LW14b
p330
aVtc_282_132_deactivate_1_then_the_last_default_bearer.LW14b
p331
aVtc_43_015_mme_relative_capacity_changed_s1ap_setup_get_new_value.LW14b
p332
aVtc_348_424_pra_israu__follow_on_back_in_20s_l_and_w.LW14b
p333
aVtc_346_493_Small_Local_Restart__Terminate_when_UE_S1_release.L15acp01
p334
aVtc_295_136_mo_call_during_s1_ho_tau_request_when_wf_handover_notify.L15acp01
p335
aVtc_307_011_HSS_Init_QoS_Modification__UEAMBR_and_APNAMBR_Changed_ECM_IDLE.L15acp01
p336
aVtc_368_130_service_request_recovery__pgw_reselection_dbr_wf_create_session_response.L15acp01
p337
aVtc_103_705_delete_peer_send_DPR_timeout_on_DPA.L15acp01
p338
aVtc_348_102_israu_mf__new_sgsn_multiple_pdp_diff_sapc_with_sx.W15acp01
p339
aVtc_247_96_inter_w_to_l_old_wf_reloc_cancel_resp_interrupted_by_detach_on_new_iu.W15acp01
p340
aVtc_578_65_uetrace2pcap_x2_handover.W15acp01
p341
aVtc_236_169_s4_3gdt_with_2_pdn_9_dedicated_bearer_service_request_all_rab_setup_successful.LWG
p342
aVtc_329_1008_test_cli_same_zc_different_plmns.LWG
p343
aVtc_306_1201_ef_seamless_move_target_receive_hss_reset_with_ue_activity_indication.LWG
p344
aVtc_183_010_itc_snaplength.LWG
p345
aVtc_313_217_inter_new_srns_reloc_s16_with_sgw_change_detach_request_direct_transfer_received_bf_forward_reloc_complete_ack.LWG
p346
aVtc_327_037_recovery_intra_TAU_active_off_sgw_unchanged__RAR_wf_CSR_due_to_S11_linkdown.LWG
p347
aVtc_327_711_recovery_for_DDN__pdn_req_succ_while_wf_guti_complete.LWG
p348
aVtc_324_420_ef_payload_buffered.LWG
p349
aVtc_203_471_mme_eps_ho_source__dbr_triggered_pgw_reselection_wf_forward_relocation_response.LWG
p350
aVtc_304_103_emergency_intra_tau_success__control_mode_threshold_not_reached.LWG
p351
aVtc_244_049_mt_lr_cancel_location_with_subscription_withdraw_received_wf_location_report.LWG
p352
aVtc_202_395_mf_seamless_move_target_fwdRelocCmplAck_come_no_ulr.LWG
p353
aVtc_578_65_uetrace2pcap_x2_handover.G15acp01
p354
aVtc_578_65_uetrace2pcap_x2_handover.WG14b
p355
aVgn_wcdma_payload_no_context_ensure_stored.WG14b
p356
aVtc_318_302_sgw_restart_relocation_triggered_by_periodic_intra_tau_closed_csg.LW14b
p357
aVtc_361_190_s3_intra_rau_l_to_w_with_dedicate_bearers_3gdt_ipv4v6.LW14b
p358
aVtc_236_045_s4_3gdt_iu_release_during_waiting_for_modify_bearer_rsp_in_service_request_procedure.LW14b
p359
aVtc_367_120_pgw_reselection_ho_without_qci_1_buffered_dbr_then_sgw_dbr_reactivate_requested.LW14b
p360
aVtc_346_026_PDN_Connectivity__CCA_I_using_configured_timer_interval.L15acp01
p361
aVtc_194_625_DSD_EF__Receive_DSDR_when_Waiting_for_Create_Session_Response_during_PDN_Connectivity_Procedure.L15acp01
p362
aVtc_195_537_mme_logging_tau_inter_old_s10_s3_the_same_address.L15acp01
p363
aVtc_578_65_uetrace2pcap_x2_handover.WG14b
p364
aVtc_324_083_af_sec_modify_bearer_response_dedicated_bearer_fail.WG14b
p365
aVtc_357_023_gsm_iterator_move_ra_from_one_area_to_another.WG14b
p366
aVtc_295_030_Intra_S1_HO__With_sgw_relocation_UE_Context_Release_Request_from_Target_while_wf_modify_bearer_response.LW14b
p367
aVtc_304_022_attach_successful_then_guti_attach__control_mode_threshold_exceeded_usc_reject_congestion.LW14b
p368
aVtc_346_600_Location_Based_Policies__User_Location_Changes_Sx_Only_2_CCR_for_same_PDN.LW14b
p369
aVtc_292_131_x2_ho_with_sgw_relocation_1_pdn_fail_tau_while_cleanup.LW14b
p370
aVtc_578_65_uetrace2pcap_x2_handover.G15acp01
p371
aVtc_260_272_receive_sm_stop_req_while_wf_setup_iteration.L15acp01
p372
aVtc_304_236_isc_active_flag_on_control_mode_threshold_exceeded_ignore_replace_s1_wf_initial_context_setup_response.L15acp01
p373
aVtc_103_903_primary_or_secondary_realm_routing_own_realm.L15acp01
p374
aVtc_266_026_DownlinkDataFailureInd_repeat_paging_timer_small_local_restart.L15acp01
p375
aVtc_44_850_mme_assoc_reestablish__board_restart_s1_mme.L15acp01
p376
aVtc_327_022_recovery_intra_TAU__initial_Detach_Request_while_waiting_for_Ue_Backup_Response.L15acp01
p377
aVtc_203_471_mme_eps_ho_source__dbr_triggered_pgw_reselection_wf_forward_relocation_response.L15acp01
p378
aVtc_324_084_af_sec_modify_bearer_response_with_s4_interface_3gdt.W15acp01
p379
aVtc_578_65_uetrace2pcap_x2_handover.W15acp01
p380
aVtc_166_100_intra_rau_new_rnc_hlr_update_service_req_reestablish_streaming.LWG
p381
aVtc_260_122_mbms_session_stop_mf_cli_trigger.LWG
p382
aVtc_260_272_receive_sm_stop_req_while_wf_setup_iteration.LWG
p383
aVtc_267_773_HSS_based_PCSCF_restoration__create_bearer_request_wf_service_request.LWG
p384
aVtc_301_001_activate_ipv6_visitor_requested_ipv6_subscribed_ipv6_aifav_true_aifv_true.LWG
p385
aVtc_335_21_wifi_to_mobility_in_ecm_idle_mf__one_cell_info_from_wic__all_cells_succeed_from_eNB.LWG
p386
aVtc_363_021_gbip_feature_off_nses_bscconfirmed_trun_to_false.LWG
p387
aVtc_248_165_inter_l_to_w_new_iu_release_request_none_user_inactivity_received_wf_modify_bearer_response.LWG
p388
aVtc_203_471_mme_eps_ho_source__dbr_triggered_pgw_reselection_wf_forward_relocation_response.LWG
p389
aVtc_194_107_tau_ul_fails_access_restriction.LWG
p390
aVtc_194_1643_hss_reset_tau_intra_active_flag_on_plmn_change_hybrid_csg.LWG
p391
aVtc_208_40_sgsn_init_pdp_modification.LWG
p392
aVtc_324_350_ef_relocation_required_reject.LWG
p393
aVtc_146_006_filter_denyAllPkts_overEth.LWG
p394
aVtc_262_1055_imsi_attach_with_csg_id_is_rejected.L15acp01
p395
aVtc_43_005_s1ap_setup.L15acp01
p396
aVtc_367_159_pgw_reselection_irat_Gn_ho_with_qci_1_bearer_deactivate_timeout_reactivate_requested.L15acp01
p397
aVtc_211_023_streamed_cell_trace_mapping_log_only_ipv6.L15acp01
p398
aVtc_304_236_isc_active_flag_on_control_mode_threshold_exceeded_ignore_replace_s1_wf_initial_context_setup_response.L15acp01
p399
aVtc_195_532_mme_logging_ue_unrechable.L15acp01
p400
aVtc_103_903_primary_or_secondary_realm_routing_own_realm.L15acp01
p401
aVtc_310_335_ef_dbr_non_voice_bearer_wf_forward_relocation_complete_and_forward_relocation_complete_ack.L15acp01
p402
aVtc_329_301_s1_inter_ho_target_rs_allowed_hrl_eqplmns.L15acp01
p403
aVtc_22_016_wcdma_change_of_position_reject_due_to_camel_no_answer.W15acp01
p404
aVtc_273_254_tau_intra__sgw_relocation_no_resp_delete_bearer_command_mult_pdn.LWG
p405
aVtc_103_1007_secondary_dpl_set_and_then_emptied.LWG
p406
aVtc_103_860_ue_trace_retransmit.LWG
p407
aVtc_103_1102_fallback_to_imsins_success.LWG
p408
aVtc_25_11_activate_ms99_one_primary_two_secondary.LWG
p409
aVtc_335_22_wifi_to_mobility_estimate_request_in_ecm_idle_unknown_user.LWG
p410
aVtc_157_4_1_snmp_consistent_filter.LWG
p411
aVgn_wcdma_payload_no_context_ensure_stored.LWG
p412
aVtc_78_058_intra_rau_intra_plmn_forced_csps_coord_accept_foreign_ms.LWG
p413
aVtc_324_426_ef_payload_buffered_wf_security_mode_complete_payload_different_pdn_non_3gdt.LWG
p414
aVtc_220_610_csfb_to_1xrtt_in_ecm_idle_with_gbr_bearers.LWG
p415
aVtc_302_220_1xrtt_srvcc_with_emergency_main_flow.LWG
p416
aVtc_326_251_Intra_TAU_with_unknown_GUTI_with_active_flag_then_s1_Intra_HO.LW14b
p417
aVtc_248_09_inter_l_to_w_new_3gdt.LW14b
p418
aVtc_17_68_inter_rau_new_pdp_context_collision_by_intruder_intra_rau.G15acp01
p419
aVtc_17_74_intra_rau_hz_ggsninfo_scdrinfo_to_hz_ggsninfo_scdrinfo.G15acp01
p420
aVtc_17_81_intra_rau_hz_to_g_no_ggsn_answer.G15acp01
p421
aVtc_17_89_intra_rau_hz_to_g_during_update_pdp_interrupt_by_attach_then_intra_rau.G15acp01
p422
aVtc_17_158_israu_new_sgsn_g_to_g_multiple_pdp_one_with_gtpv1_controlplane_ipv6.G15acp01
p423
aVtc_15_124_sgsn_pool_handle_relayed_sgsn_context_request_5_bit_nri_length.G15acp01
p424
aVtc_30_085_hlr_reset_after_subdata_read_from_cache.G15acp01
p425
aVtc_208_54_validate_imsi_and_msisdn_in_deactivation_event_generated_by_cancel_location.G15acp01
p426
aVtc_357_008_gsm_iterator_nrrEnabled_modify_to_true_with_ipAddressReset_true_irrEnabled_false.G15acp01
p427
aVtc_16_032_intra_rau_tz_changed_after_rau_accept.G15acp01
p428
aVtc_27_001_mo_sms.G15acp01
p429
aVtc_27_007_mt_sms_ac2_detached.G15acp01
p430
aVtc_27_018_mo_sms_fallback_v1_ok.G15acp01
p431
aVtc_27_025_mt_sms_old_cdr_format_r7.G15acp01
p432
aVtc_19_46_attach_start_move_intra_rau_move_initiated_intra_rau_req_before_complete_new_move.G15acp01
p433
aVtc_19_110_activate_gtpv1_ipv4v6_periodic_move_complete_in_target.G15acp01
p434
aVtc_19_252_pool_move_by_ues_3gsm_2sgsn.G15acp01
p435
aVtc_340_110_ef_g_gn_pRAU_trigger_interfering_rau_request_wf_rau_complete.G15acp01
p436
aVtc_11_322_serv_req_data_uplink_data_status_two_serv_req.W15acp01
p437
aVtc_298_826_NRSPCA_S4_nsapi_collision_receiving_detach_request_while_waiting_for_delete_bearer_request.W15acp01
p438
aVtc_348_167_israu_af__new_sgsn_camel_release.W15acp01
p439
aVtc_237_102_mme_eps_irat_ho_source_type_c_emc_preparation_failure.L15acp01
p440
aVtc_293_222_X2_Based_HO_with_SGW_change__ue_release_request_then_back_to_old_eNodeB_with_SR_failed.L15acp01
p441
aVtc_28_001_mo_sms.LW14b
p442
aVtc_28_046_mo_sms_old_cdr_format_r7.LW14b
p443
aVtc_263_033_Attach_Flow__Detach_Request_while_waiting_for_Create_Session_Response.LW14b
p444
aVtc_322_096_smooth_move_ef_reset_wf_frr_idle.LW14b
p445
aVtc_209_74_x3_tcp_sendbuffer_full.LW14b
p446
aVtc_368_006_pgw_reselection_dbr_other_pdn_wf_service_request.LW14b
p447
aVtc_327_023_recovery_intra_TAU__initial_Detach_Request_while_waiting_for_Create_Session_Response.LW14b
p448
aVtc_276_140_Inter_TAU_New_MME__PDN_Connectivity_Request_while_waiting_for_Modify_Bearer_Response.LWG
p449
aVtc_304_236_isc_active_flag_on_control_mode_threshold_exceeded_ignore_replace_s1_wf_initial_context_setup_response.LWG
p450
aVtc_214_704_combined_attach_MSC_selection_in_pool_with_all_links_breakdown.LWG
p451
aVtc_194_084_hss_reset_after_large_restart.LWG
p452
aVtc_241_462_israu_new_with_10_dedicated_bearers_sgw_not_change_mf_s4.LWG
p453
aVtc_208_51_move_sim_to_non_intercepted_ms.LWG
p454
aVtc_208_101_dual_stack_supported_ipv6.LWG
p455
aVtc_316_206_TAU_From_S4_SGSN_Multiple_PDN_Connections_With_Max_Dedicated_Bearers__Backup_UE.LWG
p456
aVtc_348_490_pra_CCA_U_for_initial_report_timeout_then_service_request.LWG
p457
aVtc_295_010_Intra_S1_HO__Attach_req_from_target_eNB_while_wf_handover_notify.LWG
p458
aVtc_259_83_isd_tads_s4_gsm_act_deact_pdp_context.LWG
p459
aVtc_166_334_activate_fail_interrupted_by_deactivate_req_when_updating_in_GGSN.LWG
p460
aVtc_12_512_pmm_undefined_attach_when_updating_location_interfered_by_rnc_reset.W15acp01
p461
aVtc_241_1623_intra_rau_in_one_RNC_with_bearer_sgw_changed_wf_create_session_resp_interfere_by_detach.W15acp01
p462
aVtc_236_048_s4_3gdt_deactivation_during_waiting_for_modify_bearer_rsp_in_activation_procedure_no_context.W15acp01
p463
aVtc_103_853_error_code_DIAMETER_INVALID_HDR_BITS.LWG
p464
aVtc_43_042_eNB_configuration_update_af_configuration_update_failure_twice.L15acp01
p465
aVtc_256_033_mme_eps_srvcc_ho_source_cs_only_srvcc_license_off.L15acp01
p466
aVtc_103_701_MME_restarts.LW14b
p467
aVtc_209_157_ul_payload_msisdn_imsi_imei_udp.LW14b
p468
aVtc_211_024_streamed_cell_trace_mapping_alarm_ipv6.LW14b
p469
aVtc_53_34_inter_new_srns_reloc_interfering_signal_cancel_location_ignore.LWG
p470
aVtc_326_270_Periodic_Intra_TAU_with_unknown_GUTI_then_Service_Request.LWG
p471
aVtc_234_020_administrative_messages.LWG
p472
aVtc_327_037_recovery_intra_TAU_active_off_sgw_unchanged__RAR_wf_CSR_due_to_S11_linkdown.LWG
p473
aVtc_25_53_isd_bss_change_to_0kbps.LWG
p474
aVtc_281_017_Activate_bearer__ERAB_setup_response_s1_intra_system_handover_triggered_two_pdn_HO_all_sessions_fail.LWG
p475
aVtc_310_125_af__Forward_Relocation_Response_from_SGSN_arrives_after_PS_to_CS_response_from_MSC.LWG
p476
aVtc_214_710_combined_tau_intra_eps_attach_interfering_mt_sms_paging_wf_tau_complete_then_ddn.LWG
p477
aVtc_194_190_hss_reset_apn_ambr_changed_followed_by_service_request.LWG
p478
aVtc_256_066_mme_eps_srvcc_ho_source_to_geran_cs_only_mf_after_tau_after_s1_ho_without_dtm_with_GBR_bearers.L15acp01
p479
aVtc_260_272_receive_sm_stop_req_while_wf_setup_iteration.L15acp01
p480
aVtc_103_1004_secondary_dpl_used_when_all_peers_in_dpl_unavailable_no_sls.L15acp01
p481
aVtc_364_003_output_from_list_ue_trace_for_triggered_trace_session.L15acp01
p482
aVtc_306_1300_ef_seamless_move_target_receive_uplink_nas_transport_bf_lur.L15acp01
p483
aVtc_268_080_Timer_Based_GBR_Deact__receive_DDN_contain_default_bearer_partially_failed_to_setup.L15acp01
p484
aVtc_357_012_gsm_iterator_ipAllocEnabled_modify_to_false_ipAddressReset_modify_to_true_while_one_pdp_in_white_area.G15acp01
p485
aVtc_28_045_mo_sms_cancel_location_when_waiting_for_keep_iu_timer.LW14b
p486
aVtc_103_700_diameter_retransmit_due_to_peer_down.L15acp01
p487
aVtc_326_911_Intra_TAU_Recovery_node_restart_active_flag_on_sgw_relocation_closed_csg.L15acp01
p488
aVtc_288_255_pgw_init_bearer_mod_qci_arp_should_be_used_in_paging_profile.L15acp01
p489
aVtc_324_259_ef_rau_request_wf_modify_bearer_response_wf_update_location_hlr_ack_timeout.WG14b
p490
aVtc_226_007_W__USC_SMS_ControlMode_On.WG14b
p491
aVtc_327_149_recovery_intra_TAU_MBR_timeout__S1_Reset_wf_UE_context_release_complete.LWG
p492
aVtc_234_020_administrative_messages.LWG
p493
aVtc_324_420_ef_payload_buffered.LWG
p494
aVtc_307_063_IRAT_intra_HO_Combined_node.LWG
p495
aVtc_95_13_atm277_emergency.LWG
p496
aVtc_194_815_isd_private_extension_of_lzone_from_lzone_to_none_followed_by_pdn_connectivity_request.LWG
p497
aVtc_278_450_Inter_TAU_Old_MME__Ecm_Idle_Sgs_CS_Paging_Call_while_wait_for_context_ack.LW14b
p498
aVtc_298_826_NRSPCA_S4_nsapi_collision_receiving_detach_request_while_waiting_for_delete_bearer_request.LW14b
p499
aVtc_78_089_ptmsi_attach_accept_home_ms_li_active.LW14b
p500
aVtc_43_042_eNB_configuration_update_af_configuration_update_failure_twice.LW14b
p501
aVtc_327_037_recovery_intra_TAU_active_off_sgw_unchanged__RAR_wf_CSR_due_to_S11_linkdown.LW14b
p502
aVtc_288_105_pgw_init_bearer_mod_ue_not_responding_all_bearers.LW14b
p503
aVtc_13_29_gprs_ptmsi_attach_mac_failure_same_imsi.G15acp01
p504
aVtc_202_311_mf_seamless_move_by_mme_ue_ecm_idle_service_req_int_not_ok.LW14b
p505
aVtc_225_912_mo_call_idle_mode__sgs_sms_paging_wf_UE_Context_Release_Request.LW14b
p506
aVtc_304_236_isc_active_flag_on_control_mode_threshold_exceeded_ignore_replace_s1_wf_initial_context_setup_response.LW14b
p507
aVtc_326_201_Intra_TAU_with_unknown_GUTI_with_active_flag.LW14b
p508
aVtc_209_105_dual_stack_not_supported_ipv6.LW14b
p509
aVtc_275_711_tau_inter_without_SGW_Change_receive_TZCR_flag_set_in_context_response_SN_change.LW14b
p510
aVtc_274_040_Intra_and_pTAU__Intra_TAU_same_ies_while_waiting_for_Initial_Context_Setup_Response.LW14b
p511
aVtc_103_701_MME_restarts.LWG
p512
aVtc_327_702_recovery_service_request__pdn_req_succ_while_wf_ULA_success.LWG
p513
aVtc_665_1_dp_reboot_init_cm_restart_with_traffic.LWG
p514
aVtc_273_086_tau_intra_normal_connected_active_two_dedicated_bearer_status_inactive.L15acp01
p515
aVtc_103_840_error_code_UNRECOGNIZED_CLASS_in_answer_Result_Code.L15acp01
p516
aVtc_204_048_inter_mme_handover_with_ta_change_before_handover_notify.L15acp01
p517
aVtc_43_042_eNB_configuration_update_af_configuration_update_failure_twice.L15acp01
p518
aVtc_348_424_pra_israu__follow_on_back_in_20s_l_and_w.LW14b
p519
aVtc_313_238_inter_new_srns_reloc_s16_with_sgw_change_iu_release_request_none_user_inactivity_received_wf_forward_reloc_complete_ack.LW14b
p520
aVtc_194_109_tau_ul_fails_all_3gpp_access_restricted.LW14b
p521
aVtc_43_015_mme_relative_capacity_changed_s1ap_setup_get_new_value.LW14b
p522
aVtc_304_236_isc_active_flag_on_control_mode_threshold_exceeded_ignore_replace_s1_wf_initial_context_setup_response.LW14b
p523
aVtc_326_281_Intra_TAU_combined_type_with_unknown_GUTI_SGW_unavailable.LW14b
p524
aVtc_346_493_Small_Local_Restart__Terminate_when_UE_S1_release.LW14b
p525
aVtc_318_301_sgw_restart_relocation_triggered_by_sr_closed_csg.LW14b
p526
aVtc_310_116_1_af__HO_Cancel_before_Response_from_MSC_after_error_Response_from_SGSN.LW14b
p527
aVtc_259_99_ef_s6d_s4_attach_old_w.LWG
p528
aVtc_294_313_unknown_target_id.LWG
p529
aVtc_204_900_mme_eps_handover_target_inter_with_sgw_relocation_detach_odb_bit0.LWG
p530
aVtc_284_303_two_update_bearer_in_parallel_connected.LWG
p531
aVtc_361_510_rau_l_to_w_S4SGSN_check_old_qos_failed_node_function_deactivate_pdp_after_rau_on.LWG
p532
aVtc_273_403_tau_intra_active_bearer_status_mismatch_delete_dedicated.LWG
p533
aVtc_368_006_pgw_reselection_dbr_other_pdn_wf_service_request.LWG
p534
aVtc_220_025_csfb_to_1xrtt_ue_suspended_hss_reset.LWG
p535
aVtc_103_1102_fallback_to_imsins_success.LWG
p536
aVtc_44_850_mme_assoc_reestablish__board_restart_s1_mme.L15acp01
p537
aVtc_225_320_mt_call_active_mode_nas_non_delivery__cs_service_notification_meanwhile_path_switch_request_HO_all_bearer_fail.L15acp01
p538
aVtc_289_065_Modify_bearer__UE_context_modification_failure_x2_ho_triggered_SGW_resend_UBR_before_ho_finish.L15acp01
p539
aVtc_346_701_pra_cn_predefined_lrc_optimization_all_eCGIs_supported_by_enb_in_pra.L15acp01
p540
aVtc_342_125_delete_target_different_connection_three_targets.W15acp01
p541
a.