(lp0
Vtc_357_023_gsm_iterator_move_ra_from_one_area_to_another.WG14b
p1
aVtc_326_290_Intra_TAU_with_unknown_GUTI_with_SGW_Change.LWG
p2
aVtc_260_272_receive_sm_stop_req_while_wf_setup_iteration.LWG
p3
aVtc_217_029_rau_to_sgsn_cancel_location_update_procedure_when_wf_sgsn_context_ack.LWG
p4
aVtc_322_052_smooth_move_ef_attach_request_wf_frr_connected.LWG
p5
aVtc_274_361_Intra_and_pTAU__nas_non_delivery_indication_for_security_mode_command.LWG
p6
aVtc_310_244_ef__S1_Reset_wf_FR_Complete_PS_to_CS_Complete_received.L15acp01
p7
aVtc_103_603_georedundant_modify_diameter_peer.L15acp01
p8
aVtc_214_706_msc_pool_intra_tau_with_associated_interfer_attach_request_all_msc_link_breakdown.L15acp01
p9
aVtc_38_98_intra_rau_update_location_failed_4.W15acp01
p10
aVtc_324_052_01_af_frca_timeout_security_mode_command_timeout_before_ulr.W15acp01
p11
aVtc_313_238_inter_new_srns_reloc_s16_with_sgw_change_iu_release_request_none_user_inactivity_received_wf_forward_reloc_complete_ack.LW14b
p12
aVtc_203_453_mme_eps_handover_source__sms_paging_wf_forward_relocation_response.LW14b
p13
aVtc_103_800_device_watchdog_request_to_SGSN_MME.LW14b
p14
aVtc_103_701_MME_restarts.LW14b
p15
aVtc_326_233_Intra_TAU_Recovery_fail_Security_Mode_Reject_then_Reattach.LW14b
p16
aVtc_298_826_NRSPCA_S4_nsapi_collision_receiving_detach_request_while_waiting_for_delete_bearer_request.LW14b
p17
aVtc_209_103_dual_stack_supported_ipv6_ipv4v6.LW14b
p18
aVtc_367_343_pgw_reselection_service_request_back_to_eutran_initial_context_setup_response_timeout_no_reattach_required.LW14b
p19
aVtc_284_342_pdn_connectivity_request_emergency_too_high_subscribed_qos.LW14b
p20
aVtc_327_018_recovery_intra_TAU__uplink_Detach_Request_while_waiting_for_Security_Mode_Complete.LW14b
p21
aVtc_324_328_ef_service_req_data_direct_transfer_ingore_wf_update_location.LW14b
p22
aVtc_334_107_sgw_restart_mf_restoration_trigger_by_ReleaseAccessBearerResponse.W15acp01
p23
aVtc_326_652_tau_intra_periodic_SGW_unavailable_after_MME_large_restart__with_static_SGW.LWG
p24
aVtc_358_133_lte_local_user_inter_tau_old_in_ip_area_response_only_contain_unrestricted_ip_pdn.LWG
p25
aVtc_358_136_lte_local_user_intra_handover_ip_area_to_unrestricted_ip_area_with_one_pdn_activated_in_unrestricted_ip_area.LWG
p26
aVtc_327_037_recovery_intra_TAU_active_off_sgw_unchanged__RAR_wf_CSR_due_to_S11_linkdown.LWG
p27
aVtc_578_63_uetrace2pcap_deactivate_eps_bearer_check_warning.LWG
p28
aVtc_103_1155_sx_retransmit__Small_restart_terminate_request.LWG
p29
aVtc_367_310_pgw_reselection_intra_tau_without_sgw_change_srvcc_back_from_geran_reactivate_requested.LWG
p30
aVtc_267_229_Service_Request__PDN_connectivity_request_while_wf_authentication_response.LWG
p31
aVtc_298_826_NRSPCA_S4_nsapi_collision_receiving_detach_request_while_waiting_for_delete_bearer_request.LWG
p32
aVtc_213_005_irat_ps_handover_from_w_to_g_with_nrspca_on.LWG
p33
aVtc_342_862_modify_LI_C.LWG
p34
aVtc_665_1_dp_reboot_init_cm_restart_with_traffic.LWG
p35
aVtc_271_003_sctp_paging_olp_verify_pagingOlpDiscardAllCpuThreshold.L15acp01
p36
aVtc_103_1008_create_peer__system_set_prio__same_prio_loadsharing.L15acp01
p37
aVtc_247_116_inter_w_to_l_old_wf_reloc_cancel_resp_interrupted_by_rnc_reset.W15acp01
p38
aVtc_260_272_receive_sm_stop_req_while_wf_setup_iteration.LWG
p39
aVtc_26_058_activate_3_primary_contexts_different_policy_maps.LWG
p40
aVtc_357_438_wcdma_local_3gdt_user_activated_one_pdp_then_intra_rau_non_ip_area_to_ip_area.LWG
p41
aVtc_304_033_attach_successful__control_mode_then_modify_control_period.LWG
p42
aVtc_367_310_pgw_reselection_intra_tau_without_sgw_change_srvcc_back_from_geran_reactivate_requested.LWG
p43
aVtc_306_217_ef_seamless_move_source_receive_pdn_connectivity_request_wf_source_guti_reallocation_complete.LWG
p44
aVtc_306_1341_ef_seamless_move_target_receive_Insert_Subscription_Data.LWG
p45
aVtc_19_252_pool_move_by_ues_3gsm_2sgsn.LWG
p46
aVtc_248_303_inter_l_to_w_new_ms_connected_handover_from_mme.LWG
p47
aVtc_244_051_mt_lr_delete_bearer_request_received_wf_location_report.LWG
p48
aVtc_220_045_csfb_to_1xrtt_in_ecm_connected_s1_reset_failed_release_access_beareres_response.LWG
p49
aVtc_232_511_static_routes__bfd_supervision_of_static_route_v6_on_Gom.LWG
p50
aVtc_208_36_start_of_interception_imsi_msisdn_imei.LWG
p51
aVtc_346_140_Location_Based_Policies__User_Location_Change_2_PDNs_different_options.LWG
p52
aVtc_346_493_Small_Local_Restart__Terminate_when_UE_S1_release.LWG
p53
aVtc_259_133_ef_provide_subscriber_information_psho_inter_old_g_to_w.LWG
p54
aVtc_298_792_S4_3GDT_rab_reestablish_on_second_service_request_data.LWG
p55
aVtc_43_015_mme_relative_capacity_changed_s1ap_setup_get_new_value.LW14b
p56
aVtc_327_022_recovery_intra_TAU__initial_Detach_Request_while_waiting_for_Ue_Backup_Response.LW14b
p57
aVtc_39_024_intra_periodic_modify_triggers.LW14b
p58
aVtc_44_076_s1ap_mdholpap_counters_detach.LW14b
p59
aVtc_313_204_inter_new_srns_reloc_s16_with_sgw_change_attach_request_initial_ue_received_wf_forward_reloc_complete_ack.LW14b
p60
aVtc_208_30_pdp_context_reject_imsi.G15acp01
p61
aVtc_367_343_pgw_reselection_service_request_back_to_eutran_initial_context_setup_response_timeout_no_reattach_required.L15acp01
p62
aVtc_103_903_primary_or_secondary_realm_routing_own_realm.L15acp01
p63
aVtc_44_850_mme_assoc_reestablish__board_restart_s1_mme.L15acp01
p64
aVtc_44_860_mme_assoc_reestablish__sctp_fe_restart_s1_mme.L15acp01
p65
aVtc_345_270_ef__mo_csfb_with_psho__ho_cancel_while_wf_forward_relocation_response.L15acp01
p66
aVtc_195_532_mme_logging_ue_unrechable.L15acp01
p67
aVtc_368_276_slg_location_report_control__pgw_reselection_erab_rel_wf_eNB_location_report.L15acp01
p68
aVtc_43_042_eNB_configuration_update_af_configuration_update_failure_twice.L15acp01
p69
aVtc_327_022_recovery_intra_TAU__initial_Detach_Request_while_waiting_for_Ue_Backup_Response.L15acp01
p70
aVtc_324_367_ef_cancel_location_with_subscriptionWithdraw_wf_modify_bearer_response_wf_isd_hlr.WG14b
p71
aVtc_357_023_gsm_iterator_move_ra_from_one_area_to_another.G15acp01
p72
aVtc_334_290_service_req_relocation_multi_3gdt_ef_iu_release_when_wf_rab_assignment_response.LWG
p73
aVtc_326_862_Service_Request_with_unknown_STMSI_large_restart_hybrid_csg.LWG
p74
aVtc_264_080_MME_Initiated_Detach__UE_ECM_Idle__Paging_Failed_due_to_OLP.LWG
p75
aVtc_316_296_New_BMME_Not_In_Backup_MME_List__Force_Delete.LWG
p76
aVtc_337_005_validation_move_manually_stopped_between_two_pool_moves_smooth_move.LWG
p77
aVtc_357_023_gsm_iterator_move_ra_from_one_area_to_another.LWG
p78
aVtc_157_4_1_snmp_consistent_filter.LWG
p79
aVtc_157_7_snmp_v3_com_consistent.LWG
p80
aVtc_298_826_NRSPCA_S4_nsapi_collision_receiving_detach_request_while_waiting_for_delete_bearer_request.W15acp01
p81
aVtc_242_151_rau_to_sgsn_s3_emergency_allowed_irat.L15acp01
p82
aVtc_44_860_mme_assoc_reestablish__sctp_fe_restart_s1_mme.L15acp01
p83
aVtc_221_124_Downlink_Data_Notification_2_same_EBI_known.L15acp01
p84
aVtc_346_494_Small_Local_Restart__Terminate_when_UE1_PDN_Connectivity_waiting_for_CCAI_UE2_Location_Report_waiting_for_CCAU.L15acp01
p85
aVtc_193_006_background_fetching_s1_sel_freq_0.L15acp01
p86
aVtc_260_272_receive_sm_stop_req_while_wf_setup_iteration.L15acp01
p87
aVtc_327_024_recovery_intra_TAU__initial_Detach_Request_while_waiting_for_Modify_Bearer_Response.LW14b
p88
aVtc_327_037_recovery_intra_TAU_active_off_sgw_unchanged__RAR_wf_CSR_due_to_S11_linkdown.LW14b
p89
aVtc_250_115_act_ipv4v6_pdp_ctx_idr_pdp_type_dual_to_single_gprs.LW14b
p90
aVtc_262_063_attach_tai_not_supported.LW14b
p91
aVtc_103_905_proxy_node_s6a_s13.LW14b
p92
aVtc_274_506_Intra_TAU_active_off__gtpv2_FRR_wf_CSR_due_to_S11_linkdown.LW14b
p93
aVtc_236_302_HO_over_S3_3GDT_switchback_ef_iu_release_wf_modify_bearer_response.W15acp01
p94
aVtc_316_212_Intra_MME_S1_HO_With_SGW_Change_With_Two_PDN_Connections_Different_APN__Backup_UE.LWG
p95
aVtc_97_035_inter_sgsn_psho_mf_with_lawful_intercept.LWG
p96
aVtc_367_310_pgw_reselection_intra_tau_without_sgw_change_srvcc_back_from_geran_reactivate_requested.LWG
p97
aVtc_165_12_check_resource_alarms_dp.LWG
p98
aVtc_195_513_mme_logging_old_identification_procedure_s3.LWG
p99
aVtc_282_020_delete_bearer_request_handover_to_non_3GPP_ecm_connected_multi_pdn.LWG
p100
aVtc_194_1671_hss_reset_service_request_emergency_type_b_closed_csg.LWG
p101
aVtc_44_004_small_restart__sctp_fe_restart.LWG
p102
aVtc_256_204_mme_eps_srvcc_ho_source_cs_only_service_request_wf_srvcc_ps_to_cs_complete_notification.LWG
p103
aVtc_225_309_mt_call_interfered_by_S1HO_including_TAU.LWG
p104
aVtc_214_1017_la_selection_mf_reselection_dyn_tailist_updated_with_ue_capability_profile_not_match_csfb_off.L15acp01
p105
aVtc_286_120_pdn_disconnect_delete_session_no_response_from_sgw.L15acp01
p106
aVtc_288_262_pgw_init_bearer_mod_QoS_from_GBR_to_non_GBR_idle_mode.L15acp01
p107
aVtc_288_125_pgw_init_bearer_mod_from_ecm_idle_2_default_bearers_fail_to_setup.L15acp01
p108
aVtc_44_850_mme_assoc_reestablish__board_restart_s1_mme.L15acp01
p109
aVtc_44_860_mme_assoc_reestablish__sctp_fe_restart_s1_mme.L15acp01
p110
aVtc_289_103_multi_pdns_pgw_init_bearer_mod_ecm_idle_interrupted_by_dbr_with_lbi.L15acp01
p111
aVtc_197_561_pgw_selection_removal_of_pgw_infomation2.LW14b
p112
aVtc_341_512_x2_activity_event_attached_user_notification_multi_pdn.LW14b
p113
aVtc_265_160_Detach_Flow_NW_init__Ue_moved_to_non_3gpp_while_imsi_detach.LW14b
p114
aVtc_103_902_load_sharing_realm_routing_own_realm.LW14b
p115
aVtc_313_204_inter_new_srns_reloc_s16_with_sgw_change_attach_request_initial_ue_received_wf_forward_reloc_complete_ack.LW14b
p116
aVtc_11_195_ms_initiated_modification_nonexisting_context_sm_status.LW14b
p117
aVtc_44_056_s1ap_mdholpap_attach_request_exceeds_allowed_rate.LW14b
p118
aVtc_275_206_tau_inter_new_emergency_type_b_restricted_no_rrc_or_active_flag.LW14b
p119
aVtc_342_131_set_three_target_with_different_x2x3_addr_and_ccoutput.LW14b
p120
aVtc_367_343_pgw_reselection_service_request_back_to_eutran_initial_context_setup_response_timeout_no_reattach_required.LW14b
p121
aVtc_103_1141_sx_resend__resend_during_inter_mme_handover_2_pdns.LW14b
p122
aVtc_194_1618_ISD_in_Idle_mode_current_CSG_Id_added_Hybrid_CSG_then_service_request.LW14b
p123
aVtc_326_270_Periodic_Intra_TAU_with_unknown_GUTI_then_Service_Request.LW14b
p124
aVtc_327_037_recovery_intra_TAU_active_off_sgw_unchanged__RAR_wf_CSR_due_to_S11_linkdown.LWG
p125
aVtc_30_045_rau_ul_fails_restricted_unsupp_feature.LWG
p126
aVtc_244_049_mt_lr_cancel_location_with_subscription_withdraw_received_wf_location_report.LWG
p127
aVtc_346_491_Small_Restart__Terminate_when_UE1_PDN_Connectivity_waiting_for_CCAI_UE2_Location_Report_waiting_for_CCAU.LWG
p128
aVtc_259_51_isd_tads_s4_w_pmmidle_intra_rau_w_to_w.LWG
p129
aVtc_324_325_ef_service_req_signalling_initial_ue_handle_wf_modify_bearer.LWG
p130
aVtc_313_001_inter_new_srns_reloc_s16_without_sgw_change.LWG
p131
aVtc_220_580_csfb_to_1xrtt_in_ecm_connected_detach_request_wf_release_access_bearers_response.LWG
p132
aVtc_260_272_receive_sm_stop_req_while_wf_setup_iteration.L15acp01
p133
aVtc_44_850_mme_assoc_reestablish__board_restart_s1_mme.L15acp01
p134
aVtc_346_493_Small_Local_Restart__Terminate_when_UE_S1_release.L15acp01
p135
aVtc_367_343_pgw_reselection_service_request_back_to_eutran_initial_context_setup_response_timeout_no_reattach_required.L15acp01
p136
aVtc_306_1085_ef_seamless_move_target_buffer_extended_service_request_wf_paging_response.L15acp01
p137
aVtc_304_236_isc_active_flag_on_control_mode_threshold_exceeded_ignore_replace_s1_wf_initial_context_setup_response.L15acp01
p138
aVtc_367_343_pgw_reselection_service_request_back_to_eutran_initial_context_setup_response_timeout_no_reattach_required.L15acp01
p139
aVtc_203_119_S1_Based_HO_Source_MME_Cancel_Location_Update_Procedure_while_waiting_for_Forward_Relocation_Complete_Notification.L15acp01
p140
aVtc_275_711_tau_inter_without_SGW_Change_receive_TZCR_flag_set_in_context_response_SN_change.L15acp01
p141
aVtc_206_021_ebm_server_crashes_and_recovers_while_attached.L15acp01
p142
aVtc_295_136_mo_call_during_s1_ho_tau_request_when_wf_handover_notify.L15acp01
p143
aVtc_368_276_slg_location_report_control__pgw_reselection_erab_rel_wf_eNB_location_report.L15acp01
p144
aVtc_103_903_primary_or_secondary_realm_routing_own_realm.L15acp01
p145
aVtc_13_29_gprs_ptmsi_attach_mac_failure_same_imsi.G15acp01
p146
aVtc_203_441_mme_eps_handover_source_inter_mf_enb_support_forwarding.LW14b
p147
aVtc_326_216_Intra_TAU_Recovery_combined_type_Location_Update_Reject.LW14b
p148
aVtc_256_382_Sv_Path_Mgt__available_MSC_disable_Sv.LW14b
p149
aVtc_103_1106_fallback_to_imsins_resend_success.LW14b
p150
aVtc_275_068_tau_inter_new_active_flag_new_sgw_changed_ULI_within_flow_check_uli.LW14b
p151
aVtc_11_237_context_modification_with_aace_mtz.LWG
p152
aVtc_283_042_GW_Deactivate_Bearer__Default_bearer_Delete_Interrupt_Dedicated_Bearer_Delete_NotLastPdn_wf_mbr_resp.LWG
p153
aVtc_326_207_Intra_TAU_Recovery_with_1xrtt_cs_registration_then_CSFB_to_1xrtt.LWG
p154
aVtc_304_206_isc_control_mode_threshold_exceeded_reject_eps_service_not_allowed.LWG
p155
aVtc_97_035_inter_sgsn_psho_mf_with_lawful_intercept.LWG
p156
aVtc_357_023_gsm_iterator_move_ra_from_one_area_to_another.LWG
p157
aVtc_324_239_ef_nas_ignore_update_loc_received_wf_modify_bearer_response.LWG
p158
aVtc_368_220_csfb__pgw_reselection_dbr_wf_extended_service_request.LWG
p159
aVtc_231_281_activate_pdp_request_ignore_during_s4_pdp_deactivating.LWG
p160
aVtc_318_266_sgw_restart_af_relocation_triggered_by_DDN_modify_bearer_request_failure.LWG
p161
aVtc_244_049_mt_lr_cancel_location_with_subscription_withdraw_received_wf_location_report.LWG
p162
aVtc_230_115_sgw_create_bearer_request_s4.LWG
p163
aVtc_367_310_pgw_reselection_intra_tau_without_sgw_change_srvcc_back_from_geran_reactivate_requested.LWG
p164
aVtc_367_343_pgw_reselection_service_request_back_to_eutran_initial_context_setup_response_timeout_no_reattach_required.L15acp01
p165
aVtc_275_711_tau_inter_without_SGW_Change_receive_TZCR_flag_set_in_context_response_SN_change.L15acp01
p166
aVtc_256_367_srvcc_ho_source_cs_only_gsm_2_msc_available.L15acp01
p167
aVtc_44_860_mme_assoc_reestablish__sctp_fe_restart_s1_mme.L15acp01
p168
aVtc_211_025_streamed_cell_trace_mapping_alarm_cease_ipv6.L15acp01
p169
aVtc_273_700_tau_intra__volte_bearer_gauge_sgw_relocation_create_session_response_with_new_qci.LWG
p170
aVtc_665_1_dp_reboot_init_cm_restart_with_traffic.LWG
p171
aVtc_291_40_action_ue_trace.LWG
p172
aVtc_316_260_No_MME_Status_Available__No_UE_Backup.LWG
p173
aVtc_262_050_guti_attach_roaming_restriction.LWG
p174
aVtc_226_061_Intra_ISC_L2G_reject_measurement_only_exceed_threshold.LWG
p175
aVtc_181_01_multiple_ip_deconf_gngtp_traffic_g.LWG
p176
aVtc_251_010_rau_w_to_g_after_hss_reset_storm.LWG
p177
aVtc_239_506_intra_rau_detach_poweroff_waiting_creat_session_response_from_sgw_s4.LWG
p178
aVtc_103_1004_secondary_dpl_used_when_all_peers_in_dpl_unavailable_no_sls.LWG
p179
aVtc_103_1155_sx_retransmit__Small_restart_terminate_request.LWG
p180
aVtc_318_266_sgw_restart_af_relocation_triggered_by_DDN_modify_bearer_request_failure.LWG
p181
aVtc_241_435_israu_new_s4_to_s4_illegal_me_in_imei_after_israu.LWG
p182
aVtc_314_049_sgsn_init_qos_modification_handover_l_to_w_interrupt_by_reset_paging_succ.LW14b
p183
aVtc_11_671_rab_release_new_qos_from_ggsn_streaming.LW14b
p184
aVtc_103_800_device_watchdog_request_to_SGSN_MME.LW14b
p185
aVtc_327_010_recovery_intra_TAU__uplink_Attach_Request_while_waiting_for_TAU_Complete.LW14b
p186
aVtc_327_167_recovery_intra_TAU_SGSN_Context_Request_while_waiting_for_Update_Location_Answer.LW14b
p187
aVtc_327_038_recovery_intra_TAU_active_off_sgw_unchanged__downlink_A21_AIS_wf_CSR_due_to_S11_linkdown.LW14b
p188
aVtc_346_493_Small_Local_Restart__Terminate_when_UE_S1_release.LW14b
p189
aVtc_274_441_Intra_TAU_Detach_Request_while_waiting_for_Create_Session_Response_2PDNs_partially_failure_sgw_unavailable.L15acp01
p190
aVtc_44_850_mme_assoc_reestablish__board_restart_s1_mme.L15acp01
p191
aVtc_44_860_mme_assoc_reestablish__sctp_fe_restart_s1_mme.L15acp01
p192
aVtc_367_310_pgw_reselection_intra_tau_without_sgw_change_srvcc_back_from_geran_reactivate_requested.L15acp01
p193
aVtc_194_1570_HSS_initiated_DSD_in_Connected_mode_when_all_CSG_Id_removed__S1_Handover.L15acp01
p194
aVtc_256_367_srvcc_ho_source_cs_only_gsm_2_msc_available.L15acp01
p195
aVtc_357_003_gsm_iterator_add_rai_into_ip_alloc_area_with_ipAddressReset_true_irrEnabled_nrrEnabled_false.WG14b
p196
aVtc_348_460_pra_intra_relocation__CCR_U_lrc_lr.W15acp01
p197
aVtc_367_310_pgw_reselection_intra_tau_without_sgw_change_srvcc_back_from_geran_reactivate_requested.LWG
p198
aVtc_260_272_receive_sm_stop_req_while_wf_setup_iteration.LWG
p199
aVtc_204_154_inter_s1ho_target_HeNB_emergency_type_d_csg_id.LWG
p200
aVtc_665_1_dp_reboot_init_cm_restart_with_traffic.LWG
p201
aVtc_327_037_recovery_intra_TAU_active_off_sgw_unchanged__RAR_wf_CSR_due_to_S11_linkdown.LWG
p202
aVtc_213_074_nrspca_ms_resend_activate_sec_request.LWG
p203
aVtc_324_239_ef_nas_ignore_update_loc_received_wf_modify_bearer_response.LWG
p204
aVtc_166_334_activate_fail_interrupted_by_deactivate_req_when_updating_in_GGSN.LWG
p205
aVtc_236_181_hard_ho_intra_rau_with_3gdt_wf_release_access_bearer_resp_si_cancel_location_update.LWG
p206
aVtc_266_112_service_request_modify_bearer_failed.LWG
p207
aVtc_183_011_itc_trace_file_wrap.LWG
p208
aVtc_241_157_israu_old_wait_for_context_ack_interfere_by_reset.LWG
p209
aVtc_157_7_snmp_v3_com_consistent.LWG
p210
aVtc_367_343_pgw_reselection_service_request_back_to_eutran_initial_context_setup_response_timeout_no_reattach_required.LW14b
p211
aVtc_43_015_mme_relative_capacity_changed_s1ap_setup_get_new_value.LW14b
p212
aVtc_12_181_wcdma_repeat_paging_step_60_worker_parks.LW14b
p213
aVtc_264_004_detach_delete_pdn_connection_no_response.LW14b
p214
aVtc_367_310_pgw_reselection_intra_tau_without_sgw_change_srvcc_back_from_geran_reactivate_requested.LWG
p215
aVtc_292_050_x2_handover_with_sgw_relocation_visiting_ue.LWG
p216
aVtc_665_1_dp_reboot_init_cm_restart_with_traffic.LWG
p217
aVtc_288_101_pgw_init_bearer_mod_one_bad_one_good_one_unknown_one_not_responding_bearer.LWG
p218
aVtc_357_023_gsm_iterator_move_ra_from_one_area_to_another.LWG
p219
aVtc_297_402_move_at_attach_roaming_cs_ps_cor.LWG
p220
aVtc_231_281_activate_pdp_request_ignore_during_s4_pdp_deactivating.LWG
p221
aVtc_260_247_cli_trigger_stop_ssrm_true_while_wf_m3_stop_resp.LWG
p222
aVtc_259_21_provide_subscriber_information_w_to_g_irat.LWG
p223
aVtc_367_343_pgw_reselection_service_request_back_to_eutran_initial_context_setup_response_timeout_no_reattach_required.LW14b
p224
aVtc_326_684_tau_intra_SGW_unavailable_active_flag_off_after_MME_large_restart__create_session_partition_fail.LW14b
p225
aVtc_342_918_x2_inter_rau_new_with_camel.LW14b
p226
aVtc_284_342_pdn_connectivity_request_emergency_too_high_subscribed_qos.LW14b
p227
aVtc_368_276_slg_location_report_control__pgw_reselection_erab_rel_wf_eNB_location_report.LW14b
p228
aVtc_220_403_csfb_to_1xrtt_in_ecm_connected_path_switch_request_HO_success.LW14b
p229
aVtc_367_310_pgw_reselection_intra_tau_without_sgw_change_srvcc_back_from_geran_reactivate_requested.L15acp01
p230
aVtc_44_850_mme_assoc_reestablish__board_restart_s1_mme.L15acp01
p231
aVtc_203_008_mme_eps_handover_source_inter_2_dedicated_bearers_with_bitrate_above_256M.L15acp01
p232
aVtc_288_222_pgw_init_bearer_mod_QoS_paging_partly_fail_modification_fails_for_default.L15acp01
p233
aVtc_266_423_DDN_service_request__two_pdn_one_MBR_timeout_one_success.L15acp01
p234
aVtc_318_120_sgw_restart_mf_both_s5_and_s8_interface.L15acp01
p235
aVtc_53_56_inter_new_srns_reloc_rab_not_allocated_interrupt_by_reset.W15acp01
p236
aVtc_326_207_Intra_TAU_Recovery_with_1xrtt_cs_registration_then_CSFB_to_1xrtt.LW14b
p237
aVtc_367_310_pgw_reselection_intra_tau_without_sgw_change_srvcc_back_from_geran_reactivate_requested.LW14b
p238
aVtc_367_345_pgw_reselection_service_request_back_to_eutran_modify_bearer_response_partial_ok_reactivate_requested.LW14b
p239
aVtc_103_1133_sx_resend__CCR_I_diameter_too_busy_no_more_peers_failed_only_realm.LW14b
p240
aVtc_103_1008_create_peer__system_set_prio__same_prio_loadsharing.LW14b
p241
aVtc_260_272_receive_sm_stop_req_while_wf_setup_iteration.LW14b
p242
aVtc_324_388_ef_mo_sms_wf_ula.LW14b
p243
aVtc_304_236_isc_active_flag_on_control_mode_threshold_exceeded_ignore_replace_s1_wf_initial_context_setup_response.LW14b
p244
aVtc_368_220_csfb__pgw_reselection_dbr_wf_extended_service_request.LW14b
p245
aVtc_236_288_Relocation_3gdt_switchback_iu_release_request_none_user_inactivity_received_wf_modify_bearer_response.LW14b
p246
aVtc_209_70_israu_new_sgsn_one_pdp_context_wrong_pdp_type.LW14b
p247
aVtc_244_055_mt_lr_cancel_location_with_update_procedure_received_wf_location_report.LWG
p248
aVtc_204_409_mme_eps_ho_target_type_b_roaming_restriction_same_profile_emc_sup_sim_only.LWG
p249
aVtc_28_007_mo_sms_sms_command.LWG
p250
aVtc_340_23_validation_move_w_af_frr_with_service_not_supported_no_move_indicator.LWG
p251
aVtc_327_304_recovery_service_request__uplink_Attach_Request_while_waiting_for_Sub_Procedure__Auth_Response.LWG
p252
aVtc_327_552_Recovery_for_DDN__Service_Request_while_waiting_for_Ue_Backup_Response.LWG
p253
aVtc_326_651_tau_intra_periodic_SGW_unavailable_after_MME_large_restart__with_emergency_PDN.LWG
p254
aVtc_11_241_rab_release_request_interrupted_by_iu_release.W15acp01
p255
aVtc_199_120_s11_path_management_small_restarted.L15acp01
p256
aVtc_273_642_tau_intra_SGW_unavailable_active_flag_off__two_pdn_one_fail.L15acp01
p257
aVtc_103_602_georedundant_realm_routing.L15acp01
p258
aVtc_197_563_pgw_selection_modification_of_ip_address.L15acp01
p259
aVtc_357_023_gsm_iterator_move_ra_from_one_area_to_another.G15acp01
p260
aVtc_213_005_irat_ps_handover_from_w_to_g_with_nrspca_on.G15acp01
p261
aVtc_213_006_irat_ps_handover_from_w_to_g_with_nrspca_off.G15acp01
p262
aVtc_230_038_activate_reject_sgw_conditional_ie_pgw_fteidc_missing.G15acp01
p263
aVtc_230_572_dualstack_apn_redirect_requested_ipv4v6_subscribed_ipv4v6.G15acp01
p264
aVtc_348_050_large_restart.W15acp01
p265
aVtc_204_120_inter_s1ho_target_HeNB_format_targetid_direct_connected_target_HeNB.LWG
p266
aVtc_326_354_Service_Request_with_unknown_STMSI_otherSubPool_MME_old_MME_in_diff_SubPool.LWG
p267
aVtc_180_02_test_multiple_ip_w.LWG
p268
aVtc_364_204_af_delete_trigger_where_resulting_ue_trace_session_exists.LWG
p269
aVtc_262_901_attach_apnredirectformultipleapn_reject_no_apn.LWG
p270
aVtc_110_005_inbound_outbound_pf_rule_cli_ip.LWG
p271
aVtc_358_017_lte_iterator_ipAllocEnabled_modify_to_false_ipAddressReset_modify_to_true_while_one_pdn_in_unrestricted_ip_area.LWG
p272
aVtc_219_131_s3_handover_w_to_l_with_cl_two_pdns_one_failed_sgw_relocation.LWG
p273
aVtc_665_1_dp_reboot_init_cm_restart_with_traffic.LWG
p274
aVtc_28_014_mt_sms_paging.LWG
p275
aVtc_324_350_ef_relocation_required_reject.LWG
p276
aVtc_289_010_Modify_Bearer__Delete_Bearer_Req_HO_non_3gpp_while_wf_UE_cxt_modification_resp.L15acp01
p277
aVtc_44_004_small_restart__sctp_fe_restart.L15acp01
p278
aVtc_262_050_guti_attach_roaming_restriction.L15acp01
p279
aVtc_262_315_attach__apn_based_qos_policy_profile_for_imsins_no_ApnAMBR_downgrade_visitor_remote.L15acp01
p280
aVtc_194_614_DSD__Subscribed_Charging_Characteristics_Withdrawal_With_Context_Identifier_AVP.L15acp01
p281
aVtc_298_826_NRSPCA_S4_nsapi_collision_receiving_detach_request_while_waiting_for_delete_bearer_request.LW14b
p282
aVtc_304_265_tau_from_gnsgsn_2g_control_mode_wf_delete_all_bearers_response_exception_case_reject_PS_service_not_allowed.LW14b
p283
aVtc_262_199_old_mme_identification_procedure_gn_gtpv0.LW14b
p284
aVtc_11_091_activate_secondary_pdp_context_wrong_LinkedTI.LW14b
p285
aVtc_273_101_tau_intra_wrong_guti_2.LW14b
p286
aVtc_273_032_tau_intra_normal_idle_authentication_mac_failure.LW14b
p287
aVtc_273_160_tau_intra_periodic_idle_not_active.LW14b
p288
aVtc_277_002_tau_inter_old_sgw_changed_two_pdn_connections.LW14b
p289
aVtc_327_203_recovery_service_request__Cancel_Location_udpate_procedure_while_waiting_for_Guti_Reallocation_Complete.LW14b
p290
aVtc_274_615_combined_TAU_two_CS_Call_Paging_request_while_waiting_for_AIA_tamr_false.LW14b
p291
aVtc_78_058_intra_rau_intra_plmn_forced_csps_coord_accept_foreign_ms.LW14b
p292
aVtc_266_403_service_request_modify_bearer_partial_no_response.L15acp01
p293
aVtc_237_010_mme_eps_irat_ho_source__without_sgw_relocation_pdn_missing_in_response.L15acp01
p294
aVtc_275_206_tau_inter_new_emergency_type_b_restricted_no_rrc_or_active_flag.L15acp01
p295
aVtc_195_506_mme_logging_hss_initiated_QoS_modification_procedure.L15acp01
p296
aVtc_260_247_cli_trigger_stop_ssrm_true_while_wf_m3_stop_resp.L15acp01
p297
aVtc_260_272_receive_sm_stop_req_while_wf_setup_iteration.LW14b
p298
aVtc_327_027_recovery_intra_TAU___Attach_Request_while_waiting_for_CSR_due_to_S11_linkdown.LW14b
p299
aVtc_28_037_mo_sms_fallback_v2_ok_previous_higher.LW14b
p300
aVtc_313_238_inter_new_srns_reloc_s16_with_sgw_change_iu_release_request_none_user_inactivity_received_wf_forward_reloc_complete_ack.LW14b
p301
aVtc_266_015_paging_2_dedicated_bearers_integrity_protection_nok.LW14b
p302
aVtc_348_424_pra_israu__follow_on_back_in_20s_l_and_w.LW14b
p303
aVtc_24_81_comb_att_hlr_reset_peridic_rau.G15acp01
p304
aVtc_11_150_rab_reestablish_on_service_request_data_multiple_contexts.W15acp01
p305
aVtc_85_12_mo_sms.W15acp01
p306
aVtc_348_101_israu_mf__new_sgsn_multiple_pdp_with_sx.W15acp01
p307
aVtc_284_361_pdn_connectivity_handover_indication_no_override_after_timeout.LWG
p308
aVtc_334_292_service_req_relocation_rab_release_request_3gdt_when_wf_create_session_resp.LWG
p309
aVtc_314_049_sgsn_init_qos_modification_handover_l_to_w_interrupt_by_reset_paging_succ.LWG
p310
aVtc_306_1333_ef_seamless_move_target_receive_cli_delete_subscriber_wf_ula.LWG
p311
aVtc_665_1_dp_reboot_init_cm_restart_with_traffic.LWG
p312
aVtc_219_131_s3_handover_w_to_l_with_cl_two_pdns_one_failed_sgw_relocation.LWG
p313
aVtc_274_441_Intra_TAU_Detach_Request_while_waiting_for_Create_Session_Response_2PDNs_partially_failure_sgw_unavailable.LWG
p314
aVtc_214_910_combined_tau_intra_insert_subscriber_data_interference.LWG
p315
aVtc_39_613_mas_no_cancel_loc_source.LWG
p316
aVtc_348_424_pra_israu__follow_on_back_in_20s_l_and_w.LW14b
p317
aVtc_262_084_emergency_imsi_attach_unauthentication_fails_in_hss.LW14b
p318
aVtc_284_552_pdn_connectity_apn_resolution_ext_with_configure_changed.LW14b
p319
aVtc_103_830_preserve_proxy_info_order.LW14b
p320
aVtc_103_904_relay_node_S6a_S13.LW14b
p321
aVtc_260_272_receive_sm_stop_req_while_wf_setup_iteration.LW14b
p322
aVtc_39_422_mas_one_pdp_srv_req_b4_fwd_ack_upd_loc_ack_after_rab_assign_rsp_target.LW14b
p323
aVtc_326_242_Intra_TAU_Recovery_Initial_Context_Setup_timeout.LW14b
p324
aVtc_342_950_3gdt_one_tunnel_to_two_tunnel.LW14b
p325
aVtc_348_203_smooth_move_mf__old_sgsn_multiple_pdp_no_cl_with_sx.W15acp01
p326
aVtc_367_310_pgw_reselection_intra_tau_without_sgw_change_srvcc_back_from_geran_reactivate_requested.LWG
p327
aVtc_357_023_gsm_iterator_move_ra_from_one_area_to_another.LWG
p328
aVtc_665_1_dp_reboot_init_cm_restart_with_traffic.LWG
p329
aVtc_99_170_intra_g_to_w_old_EF1_psho_required_when_not_in_ready_state.LWG
p330
aVtc_327_037_recovery_intra_TAU_active_off_sgw_unchanged__RAR_wf_CSR_due_to_S11_linkdown.LWG
p331
aVtc_27_015_mt_sms_access_restriced_mt_sms.LWG
p332
aVtc_368_220_csfb__pgw_reselection_dbr_wf_extended_service_request.LWG
p333
aVtc_260_272_receive_sm_stop_req_while_wf_setup_iteration.LWG
p334
aVtc_165_12_check_resource_alarms_dp.LWG
p335
aVtc_316_238_Inter_RAT_Gn_HO_SUT_As_Target__Backup_UE.L15acp01
p336
aVtc_327_022_recovery_intra_TAU__initial_Detach_Request_while_waiting_for_Ue_Backup_Response.L15acp01
p337
aVtc_103_701_MME_restarts.L15acp01
p338
aVtc_285_002_PDN_Connectivity_Pb__Attach_request_while_wf_activate_default_EPS_bearer_context_accept.L15acp01
p339
aVtc_295_025_Intra_S1_HO__Attach_request_while_wf_TAU_request.L15acp01
p340
aVtc_324_328_ef_service_req_data_direct_transfer_ingore_wf_update_location.LW14b
p341
aVtc_195_527_mme_logging_combined_attach_eps_detach.LW14b
p342
aVtc_103_1007_secondary_dpl_set_and_then_emptied.LW14b
p343
aVtc_348_170_israu_af__new_sgsn_partial_apn_with_3gdt_prefix.LW14b
p344
aVtc_304_236_isc_active_flag_on_control_mode_threshold_exceeded_ignore_replace_s1_wf_initial_context_setup_response.LW14b
p345
aVtc_214_028_combined_attach_interfering_s1_reset.L15acp01
p346
aVtc_346_493_Small_Local_Restart__Terminate_when_UE_S1_release.L15acp01
p347
aVtc_326_845_Geo_Service_Request_node_restart_Modify_Bearer_timeout_rollback_GUTI_reallocation_no_response.L15acp01
p348
aVtc_367_310_pgw_reselection_intra_tau_without_sgw_change_srvcc_back_from_geran_reactivate_requested.L15acp01
p349
aVtc_256_180_mme_eps_srvcc_ho_source_cs_only_s1_reset_wf_srvcc_ps_to_cs_response.L15acp01
p350
aVtc_203_433_mme_eps_ho_home_enodeb_id_emergency_type_a_not_allowed_in_csg.L15acp01
p351
aVtc_103_1002_no_loadsharing_different_prio.L15acp01
p352
aVtc_31_064_activate_loc_not_confirmed_ul_fails_network_failure.W15acp01
p353
aVtc_247_116_inter_w_to_l_old_wf_reloc_cancel_resp_interrupted_by_rnc_reset.W15acp01
p354
aVtc_327_172_recovery_intra_TAU_SGSN_Context_Request_while_waiting_for_Location_Update_Response.LWG
p355
aVtc_217_802_rau_to_gn_sgsn_tranfer_attach_when_wf_sgsn_context_ack.LWG
p356
aVtc_30_072_cli_delete_subscriber_msisdn.LWG
p357
aVtc_30_112_payload_ul_fails_access_restricted_diff_plmn.LWG
p358
aVtc_665_1_dp_reboot_init_cm_restart_with_traffic.LWG
p359
aVtc_103_602_georedundant_realm_routing.LWG
p360
aVtc_367_310_pgw_reselection_intra_tau_without_sgw_change_srvcc_back_from_geran_reactivate_requested.LWG
p361
aVtc_38_65_israu_old_sgsn_interfering_after_acknowledge.LWG
p362
aVtc_216_008_icmpv6_inPacketTooBig.LWG
p363
aVtc_216_005_icmpv6_inParmProbs.LWG
p364
aVtc_665_1_dp_reboot_init_cm_restart_with_traffic.LWG
p365
aVtc_260_272_receive_sm_stop_req_while_wf_setup_iteration.LWG
p366
aVtc_262_534_imsi_attach_private_extension_of_lzone_for_roamer.LWG
p367
aVtc_183_009_itc_sctp_trace.LWG
p368
aVtc_363_011_cli_get_ra.LWG
p369
aVtc_275_310_tau_inter_new_active_flag_keep_two_pdns_one_default_bearer_fail_in_eNB.LWG
p370
aVtc_284_313_mme_initiated_deactivate_bearer_on_def_with_4_ded_of_2_def_different_qcis.LWG
p371
aVtc_324_327_ef_service_req_data_direct_transfer_ingore.LWG
p372
aVtc_291_40_action_ue_trace.LWG
p373
aVtc_292_096_x2_handover_with_csg_id_and_ta_change.LWG
p374
aVtc_103_1006_secondary_dpl_used_when_all_peers_in_dpl_unavailable_no_sls_peers_same_prio.LWG
p375
aVtc_43_015_mme_relative_capacity_changed_s1ap_setup_get_new_value.LW14b
p376
aVtc_43_042_eNB_configuration_update_af_configuration_update_failure_twice.LW14b
p377
aVtc_335_33_wifi_to_mobility_in_ecm_idle_af__cells_from_eNB_totally_diff_with_from_WIC.LW14b
p378
aVtc_335_152_Locator_Restart__HO_GA_Change.LW14b
p379
aVtc_324_368_ef_cancel_location_with_updateProcedure_wf_modify_bearer_response_after_ula_hss.W15acp01
p380
aVtc_324_402_ef_gr_delete_subscriber_data_during_modify_bearer_after_ulr.W15acp01
p381
aVtc_22_025_wcdma_rau_during_context_activation_two_rncs.W15acp01
p382
aVtc_39_242_attach_prau_intrarau_triggers_imsi_profile.W15acp01
p383
aVtc_230_176_pgw_init_deletion_af_paging_failed.G15acp01
p384
aVtc_43_042_eNB_configuration_update_af_configuration_update_failure_twice.L15acp01
p385
aVtc_195_213_mme_logging_maximum_csfb_to_1xrtt_extended_service_request.L15acp01
p386
aVtc_103_1004_secondary_dpl_used_when_all_peers_in_dpl_unavailable_no_sls.L15acp01
p387
aVtc_297_009_inter_new_psho_w_to_g_switch_on_mocn.LWG
p388
aVtc_313_293_inter_new_srns_reloc_s16_without_sgw_change_two_pdns_tzcr_false_sncr_change_one_pdn.LWG
p389
aVtc_327_151_recovery_intra_TAU_Create_Bearer_Request_while_waiting_for_Modify_Bearer_Response.LWG
p390
aVtc_327_037_recovery_intra_TAU_active_off_sgw_unchanged__RAR_wf_CSR_due_to_S11_linkdown.LWG
p391
aVtc_301_015_activate_ipv4_visitor_requested_ipv4_subscribed_ipv4v6_aifav_false_aifv_false.LWG
p392
aVtc_357_023_gsm_iterator_move_ra_from_one_area_to_another.LWG
p393
aVtc_244_055_mt_lr_cancel_location_with_update_procedure_received_wf_location_report.LWG
p394
aVtc_103_602_georedundant_realm_routing.LWG
p395
aVtc_666_02_reboot_ss7_board.LWG
p396
aVtc_214_701_msc_pool_combined_attach_one_msc_unreachable.LWG
p397
aVtc_326_302_Service_Request_with_unknown_STMSI_max_bearers_PDN_Type_IPv6.LWG
p398
aVtc_326_400_Inter_TAU_Recovery_Unknown_GUTI_Old_MME_Unavailable.LWG
p399
aVtc_59_12_sequence_on_demand_indexbased_replica_values_during_takeover.LWG
p400
aVtc_348_416_pra_israu__update_pdp_timeout_then_service_request.LWG
p401
aVtc_178_691_action_sctp_sys_assoc_move_reconfig.LWG
p402
aVtc_280_036_create_dedicated_bearers_qci_counters__qci254_and_qci255.L15acp01
p403
aVtc_367_310_pgw_reselection_intra_tau_without_sgw_change_srvcc_back_from_geran_reactivate_requested.L15acp01
p404
aVtc_260_272_receive_sm_stop_req_while_wf_setup_iteration.L15acp01
p405
aVtc_44_860_mme_assoc_reestablish__sctp_fe_restart_s1_mme.L15acp01
p406
aVtc_348_167_israu_af__new_sgsn_camel_release.W15acp01
p407
aVtc_51_097_reloc_wf_update_location_response_interfered_by_rau_on_new_iu.W15acp01
p408
aVtc_297_401_move_at_attach_home_with_imsi_accept.G15acp01
p409
aVtc_327_037_recovery_intra_TAU_active_off_sgw_unchanged__RAR_wf_CSR_due_to_S11_linkdown.LW14b
p410
aVtc_260_272_receive_sm_stop_req_while_wf_setup_iteration.LW14b
p411
aVtc_241_157_israu_old_wait_for_context_ack_interfere_by_reset.LW14b
p412
aVtc_304_236_isc_active_flag_on_control_mode_threshold_exceeded_ignore_replace_s1_wf_initial_context_setup_response.L15acp01
p413
aVtc_103_603_georedundant_modify_diameter_peer.L15acp01
p414
aVtc_266_026_DownlinkDataFailureInd_repeat_paging_timer_small_local_restart.L15acp01
p415
aVtc_43_042_eNB_configuration_update_af_configuration_update_failure_twice.L15acp01
p416
aVtc_326_251_Intra_TAU_with_unknown_GUTI_with_active_flag_then_s1_Intra_HO.L15acp01
p417
aVtc_281_084_Activate_bearer__ERAB_Rel_Ind_Default_Dedicated_Bearers_diff_pdns_while_wf_create_bearer_response.L15acp01
p418
aVtc_103_830_preserve_proxy_info_order.LW14b
p419
aVtc_103_1103_fallback_to_imsins_resend_no_more_peers.LW14b
p420
aVtc_293_369_X2_Based_HO__equipment_blacklisted_while_wf_ue_context_modification_response_hybrid_csg.LW14b
p421
aVtc_327_037_recovery_intra_TAU_active_off_sgw_unchanged__RAR_wf_CSR_due_to_S11_linkdown.LW14b
p422
aVtc_208_202_s4_start_of_interception_pdp_active.LWG
p423
aVtc_294_370_s1_intra_handover_emc_type_a_hss_reset_update_loc_fail.LWG
p424
aVtc_665_1_dp_reboot_init_cm_restart_with_traffic.LWG
p425
aVtc_327_037_recovery_intra_TAU_active_off_sgw_unchanged__RAR_wf_CSR_due_to_S11_linkdown.LWG
p426
aVtc_214_220_mo_sms_idle_interfering_secondary_sms.LWG
p427
aVtc_245_127_inter_rau_old_wo_sgw_reloc_wf_Cancel_Location_interfere_by_attach_req.LWG
p428
aVtc_578_63_uetrace2pcap_deactivate_eps_bearer_check_warning.LWG
p429
aVtc_357_023_gsm_iterator_move_ra_from_one_area_to_another.G15acp01
p430
aVtc_334_211_path_failure_intra_rau_af_invaild_context.W15acp01
p431
aVtc_157_4_1_snmp_consistent_filter.LWG
p432
aVtc_259_131_ef_provide_subscriber_information_psho_inter_new_w_to_g.LWG
p433
aVtc_259_52_isd_tads_s4_w_pmmidle_inter_rau_l_to_w.LWG
p434
aVtc_361_510_rau_l_to_w_S4SGSN_check_old_qos_failed_node_function_deactivate_pdp_after_rau_on.LWG
p435
aVtc_363_021_gbip_feature_off_nses_bscconfirmed_trun_to_false.LWG
p436
a.