(lp0
Vtc_284_323_deactivate_1_def_2_ded_and_1_ded_different_pdns_in_parallel.L15acp01
p1
aVtc_244_043_mt_lr_create_bearer_request_received_wf_location_report.L15acp01
p2
aVtc_358_017_lte_iterator_ipAllocEnabled_modify_to_false_ipAddressReset_modify_to_true_while_one_pdn_in_unrestricted_ip_area.L15acp01
p3
aVtc_263_040_Attach_Flow__PDN_Connectivity_Request_with_same_pti_while_waiting_for_Modify_Bearer_Response.L15acp01
p4
aVtc_266_424_intra_tau_after_DDN_service_request_MBR_timeout.L15acp01
p5
aVtc_202_460_af_seamless_move_source_no_ue_context_release_complete.L15acp01
p6
aVtc_329_661_irat_s4_ho_inter_target_rs_restricted_emergency_allowed.L15acp01
p7
aVtc_322_096_smooth_move_ef_reset_wf_frr_idle.W15acp01
p8
aVtc_210_044_attach_reject_imsi_cc_96.LW14b
p9
aVtc_236_292_3gdt_swichback_detach_request_received_wf_modify_bearer_response.LW14b
p10
aVtc_103_853_error_code_DIAMETER_INVALID_HDR_BITS.LW14b
p11
aVtc_318_263_sgw_restart_af_relocation_triggered_by_DDN_initial_context_setup_timeout.LW14b
p12
aVtc_23_10_transfer_to_primary_and_change_vip_addr_from_gn_to_gom.LW14b
p13
aVtc_275_711_tau_inter_without_SGW_Change_receive_TZCR_flag_set_in_context_response_SN_change.LW14b
p14
aVtc_256_064_mme_eps_srvcc_ho_source_to_geran_cs_only_mf_after_tau_from_gn_sgsn_without_dtm_msc_pool_without_sgs.LW14b
p15
aVtc_293_270_X2_Based_HO__Path_Switch_Request_same_TA__wf_Location_Update_Accept.LW14b
p16
aVtc_297_016_inter_new_psho_w_to_g_target_bsc_not_support_mocn.LWG
p17
aVtc_219_131_s3_handover_w_to_l_with_cl_two_pdns_one_failed_sgw_relocation.LWG
p18
aVtc_665_1_dp_reboot_init_cm_restart_with_traffic.LWG
p19
aVtc_665_55_repeated_cm_restart.LWG
p20
aVtc_260_272_receive_sm_stop_req_while_wf_setup_iteration.LWG
p21
aVtc_295_386_Intra_S1_HO_With_TAU__delete_bearer_req_ho_to_non_3gpp_while_wf_ue_context_modification_response_hybrid_csg.LW14b
p22
aVtc_214_1141_la_selection_mf_oldmscpreferred_prau_during_ue_restoration.LW14b
p23
aVtc_103_1103_fallback_to_imsins_resend_no_more_peers.LW14b
p24
aVtc_26_176_handover_mme_to_s4_sgsn_with_higher_pec_and_pev_than_policy_map.LW14b
p25
aVtc_19_252_pool_move_by_ues_3gsm_2sgsn.G15acp01
p26
aVtc_359_142_handover_from_3gpp_pgw_init_deletion_ef_ms_deact_Notify_ue_false.W15acp01
p27
aVtc_28_001_mo_sms.W15acp01
p28
aVtc_103_702_CEA_timeout.L15acp01
p29
aVtc_103_705_delete_peer_send_DPR_timeout_on_DPA.L15acp01
p30
aVtc_293_270_X2_Based_HO__Path_Switch_Request_same_TA__wf_Location_Update_Accept.L15acp01
p31
aVtc_43_042_eNB_configuration_update_af_configuration_update_failure_twice.L15acp01
p32
aVtc_202_102_small_restart.L15acp01
p33
aVtc_257_00_pws_etws_main_flow_write_replace_warning_request_without_ta_list.L15acp01
p34
aVtc_257_02_pws_etws_main_flow_stop_warning_request_without_ta_list.L15acp01
p35
aVtc_257_02_pws_etws_main_flow_stop_warning_request_without_ta_list.LWG
p36
aVtc_26_190_service_request_after_ISRAU_complete_with_subscriber_data_changed_update_pdp_failed.LWG
p37
aVtc_103_830_preserve_proxy_info_order.LWG
p38
aVtc_103_855_error_code_DIAMETER_CONTRADICTING_AVPS.LWG
p39
aVtc_219_131_s3_handover_w_to_l_with_cl_two_pdns_one_failed_sgw_relocation.LWG
p40
aVtc_665_1_dp_reboot_init_cm_restart_with_traffic.LWG
p41
aVtc_327_211_recovery_service_request_emergency__Cancel_Location_subscription_withdrawal_while_waiting_for_Guti_Reallocation_Complete.LWG
p42
aVtc_334_292_service_req_relocation_rab_release_request_3gdt_when_wf_create_session_resp.LWG
p43
aVtc_165_10_check_resource_alarms_ap.LWG
p44
aVtc_103_840_error_code_UNRECOGNIZED_CLASS_in_answer_Result_Code.LWG
p45
aVtc_208_160_payload_msisdn_imsi_imei_tcp_udp_tcp_v3.LWG
p46
aVtc_244_051_mt_lr_delete_bearer_request_received_wf_location_report.LWG
p47
aVtc_26_142_inter_g_to_w_new_VPLMN_ARP.LWG
p48
aVtc_165_10_check_resource_alarms_ap.LWG
p49
aVtc_304_013_guti_attach_reject__control_mode_threshold_exceeded.LWG
p50
aVtc_304_104_intra_tau_success__control_mode_threshold_exceeded.LWG
p51
aVtc_326_223_Intra_TAU_Recovery_fail_Identity_Response_timeout_then_Recover_successful.LWG
p52
aVtc_257_01_pws_etws_main_flow_write_replace_warning_request_with_ta_list.LWG
p53
aVtc_357_023_gsm_iterator_move_ra_from_one_area_to_another.WG14b
p54
aVtc_324_388_ef_mo_sms_wf_ula.WG14b
p55
aVtc_218_216_1_TAU_from_SGSN__create_bearer_request_while_waiting_for_TAU_Complete.L15acp01
p56
aVtc_214_028_combined_attach_interfering_s1_reset.L15acp01
p57
aVtc_103_903_primary_or_secondary_realm_routing_own_realm.L15acp01
p58
aVtc_103_1004_secondary_dpl_used_when_all_peers_in_dpl_unavailable_no_sls.L15acp01
p59
aVtc_347_038_Inter_HO_Target__RAR_while_waiting_for_UE_Context_Modification_Response.L15acp01
p60
aVtc_316_221_TAU_Timezone_Change__Backup_UE.L15acp01
p61
aVtc_335_33_wifi_to_mobility_in_ecm_idle_af__cells_from_eNB_totally_diff_with_from_WIC.L15acp01
p62
aVtc_213_005_irat_ps_handover_from_w_to_g_with_nrspca_on.G15acp01
p63
aVtc_298_826_NRSPCA_S4_nsapi_collision_receiving_detach_request_while_waiting_for_delete_bearer_request.W15acp01
p64
aVtc_324_083_af_sec_modify_bearer_response_dedicated_bearer_fail.W15acp01
p65
aVtc_236_302_HO_over_S3_3GDT_switchback_ef_iu_release_wf_modify_bearer_response.W15acp01
p66
aVtc_194_1016_normal_attach_insert_odb_detach_with_cause_of_reattach_not_required_with_not_allowed_apn_in_odb_free_apn_list_for_roamer__odb_bit0.LW14b
p67
aVtc_293_270_X2_Based_HO__Path_Switch_Request_same_TA__wf_Location_Update_Accept.LW14b
p68
aVtc_103_702_CEA_timeout.LW14b
p69
aVtc_313_227_inter_new_srns_reloc_s16_with_sgw_change_rau_request_initial_ue_received_wf_update_location_ack.LW14b
p70
aVtc_282_108_mme_initiated_deactivate_bearer_failure_indication_some_bearers_from_sgw.LW14b
p71
aVtc_327_037_recovery_intra_TAU_active_off_sgw_unchanged__RAR_wf_CSR_due_to_S11_linkdown.LW14b
p72
aVtc_166_334_activate_fail_interrupted_by_deactivate_req_when_updating_in_GGSN.WG14b
p73
aVtc_260_272_receive_sm_stop_req_while_wf_setup_iteration.LWG
p74
aVtc_245_301_inter_rau_insert_entry_into_interface_cache.LWG
p75
aVtc_257_00_pws_etws_main_flow_write_replace_warning_request_without_ta_list.LWG
p76
aVtc_103_1004_secondary_dpl_used_when_all_peers_in_dpl_unavailable_no_sls.LWG
p77
aVtc_302_215_1xrtt_srvcc_s1_release_other_cause.LWG
p78
aVtc_357_023_gsm_iterator_move_ra_from_one_area_to_another.G15acp01
p79
aVtc_11_057_activate_interrupted_by_detach_ggsn_rejected.LW14b
p80
aVtc_11_322_serv_req_data_uplink_data_status_two_serv_req.LW14b
p81
aVtc_304_117_initial_ue_intra_tau_control_mode_threshold_exceeded_usc_detach_intruder_wf_release_request_response.LW14b
p82
aVtc_275_765_tau_inter_new_sgw_unavailable_emergency_type_b_hybrid_csg.L15acp01
p83
aVtc_268_102_UE_Release_Flow__Downlink_Data_Notification_while_wf_Delete_Bearer_Request.L15acp01
p84
aVtc_202_61_3gpp_move_mt_sms_wf_release_access_bearer_response.L15acp01
p85
aVtc_214_060_combined_attach_combined_detach_interfering_combined_attach.LWG
p86
aVtc_274_041_Intra_and_pTAU__Intra_TAU_same_ies_while_waiting_for_Authentication_Response.LWG
p87
aVtc_234_017_update_unknown_case.LWG
p88
aVtc_291_40_action_ue_trace.LWG
p89
aVtc_326_910_Intra_TAU_Recovery_large_restart_emergency_type_b_active_flag_on_old_sgw_unavailable_closed_csg.LWG
p90
aVtc_346_702_pra_cn_predefined_lrc_optimization_all_TAs_supported_by_enb_in_pra.LWG
p91
aVtc_665_1_dp_reboot_init_cm_restart_with_traffic.LWG
p92
aVtc_213_006_irat_ps_handover_from_w_to_g_with_nrspca_off.G15acp01
p93
aVtc_346_495_Small_Local_Restart__No_Terminate_when_UE1_Attach_waiting_for_CCA_Initial_UE2_Attach_waiting_for_MBR.LW14b
p94
aVtc_257_00_pws_etws_main_flow_write_replace_warning_request_without_ta_list.LW14b
p95
aVtc_275_206_tau_inter_new_emergency_type_b_restricted_no_rrc_or_active_flag.LW14b
p96
aVtc_341_511_x2_activity_event_attached_user_notification.LW14b
p97
aVtc_327_010_recovery_intra_TAU__uplink_Attach_Request_while_waiting_for_TAU_Complete.LW14b
p98
aVtc_290_013_Timer_Based_GBR_Deact__TAU_request_wf_release_access_bearer_response_before_timer_expires.LW14b
p99
aVtc_194_1630_hss_reset_emergency_pdn_connectivity_hybrid_csg.LW14b
p100
aVtc_44_850_mme_assoc_reestablish__board_restart_s1_mme.L15acp01
p101
aVtc_44_860_mme_assoc_reestablish__sctp_fe_restart_s1_mme.L15acp01
p102
aVtc_318_302_sgw_restart_relocation_triggered_by_periodic_intra_tau_closed_csg.L15acp01
p103
aVtc_43_042_eNB_configuration_update_af_configuration_update_failure_twice.L15acp01
p104
aVtc_214_608_msc_pool_inter_tau_msc_selection_all_candidate_offloading.L15acp01
p105
aVtc_103_903_primary_or_secondary_realm_routing_own_realm.L15acp01
p106
aVtc_347_250_UE_initiated_detach__location_report_while_waiting_for_delete_session_response_ue_context_release_complete.L15acp01
p107
aVtc_310_335_ef_dbr_non_voice_bearer_wf_forward_relocation_complete_and_forward_relocation_complete_ack.L15acp01
p108
aVtc_358_016_lte_remove_ra_from_ip_area_with_ipAddressReset_irrEnabled_nrrEnabled_false_while_one_pdn_in_unrestricted_ip_area.L15acp01
p109
aVtc_314_049_sgsn_init_qos_modification_handover_l_to_w_interrupt_by_reset_paging_succ.LW14b
p110
aVtc_103_904_relay_node_S6a_S13.LW14b
p111
aVtc_209_157_ul_payload_msisdn_imsi_imei_udp.LW14b
p112
aVtc_265_160_Detach_Flow_NW_init__Ue_moved_to_non_3gpp_while_imsi_detach.LW14b
p113
aVtc_242_061_rau_to_sgsn_s3_with_dedicated_bearers_new_sgw.LW14b
p114
aVtc_273_290_tau_intra_imei_check_on_selective_auth_change_imei_no_imei_check.LW14b
p115
aVtc_327_037_recovery_intra_TAU_active_off_sgw_unchanged__RAR_wf_CSR_due_to_S11_linkdown.LW14b
p116
aVtc_241_761_israu_new_gn_to_s4_subscription_data_not_supported_no_rau_complete.W15acp01
p117
aVtc_241_705_intra_rau_with_sgw_change_isd_with_odb_bit_15_EF_interfer_by_update_bearer_req.W15acp01
p118
aVtc_287_006_PDN_Disconnect__Insert_subscription_data_with_odb_bit0_while_wf_erab_release_resp.LWG
p119
aVtc_183_101_itc_ipv6_no_pkts_captured_check.LWG
p120
aVtc_665_1_dp_reboot_init_cm_restart_with_traffic.LWG
p121
aVtc_357_023_gsm_iterator_move_ra_from_one_area_to_another.LWG
p122
aVtc_194_1618_ISD_in_Idle_mode_current_CSG_Id_added_Hybrid_CSG_then_service_request.LWG
p123
aVtc_220_203_csfb_to_1xrtt_delete_bearer_wf_delete_gbr_bearer_response.L15acp01
p124
aVtc_220_597_csfb_to_1xrtt_hss_reset_during_extended_service_request.L15acp01
p125
aVtc_44_860_mme_assoc_reestablish__sctp_fe_restart_s1_mme.L15acp01
p126
aVtc_266_026_DownlinkDataFailureInd_repeat_paging_timer_small_local_restart.L15acp01
p127
aVtc_248_122_inter_l_to_w_new_detach_request_direct_transfer_received_wf_forward_relocation_complete_ack.W15acp01
p128
aVtc_51_114_reloc_wf_rau_complete_interrupted_by_new_rau_with_invalid_ptmsi_signature.W15acp01
p129
aVtc_166_334_activate_fail_interrupted_by_deactivate_req_when_updating_in_GGSN.WG14b
p130
aVtc_309_108_modify_event_job_notification.LWG
p131
aVtc_26_160_activate_secondary_with_qos_upgrade_by_ggsn_with_override.LWG
p132
aVtc_665_1_dp_reboot_init_cm_restart_with_traffic.LWG
p133
aVtc_103_701_MME_restarts.LWG
p134
aVtc_208_30_pdp_context_reject_imsi.LWG
p135
aVtc_304_029_guti_attach_reject__control_mode_threshold_exceeded_then_action_stop.LWG
p136
aVtc_286_122_pdn_disconnect_delete_session_failure_invalid_peer.LWG
p137
aVtc_324_002_mf_ser_req_signaling_instead_of_ack.LWG
p138
aVtc_326_678_tau_intra_SGW_unavailable_active_flag_off_after_MME_large_restart__create_session_fail_reselect_SGW.LWG
p139
aVtc_348_435_pra_inter_relocation_update_pdp_failure.LW14b
p140
aVtc_348_424_pra_israu__follow_on_back_in_20s_l_and_w.LW14b
p141
aVtc_327_162_recovery_intra_TAU_Downlink_A21_AIS_while_waiting_for_Main_Procedure_and_Sub_Procedure.LW14b
p142
aVtc_257_02_pws_etws_main_flow_stop_warning_request_without_ta_list.LW14b
p143
aVtc_304_302_Emergency_PDN_connectivity__control_mode_threshold_exceeded.LW14b
p144
aVtc_322_053_smooth_move_ef_attach_request_wf_service_request.LW14b
p145
aVtc_262_117_emergency_type_d_attach_guti_attach_emergency.LW14b
p146
aVtc_217_055_rau_to_sgsn_ue_context_release_when_wf_sgsn_context_ack.L15acp01
p147
aVtc_199_90_attach_S11_echo_2_UE_1_no_response_alarm.L15acp01
p148
aVtc_358_011_lte_iterator_ipAllocEnabled_modify_to_false_irrEnabled_modify_to_true_with_ipAddressReset_true_nrrEnabled_false.L15acp01
p149
aVtc_260_151_mbms_session_stop_af_all_mce_no_session_stop_response.L15acp01
p150
aVtc_44_056_s1ap_mdholpap_attach_request_exceeds_allowed_rate.L15acp01
p151
aVtc_44_850_mme_assoc_reestablish__board_restart_s1_mme.L15acp01
p152
aVtc_44_860_mme_assoc_reestablish__sctp_fe_restart_s1_mme.L15acp01
p153
aVtc_295_386_Intra_S1_HO_With_TAU__delete_bearer_req_ho_to_non_3gpp_while_wf_ue_context_modification_response_hybrid_csg.L15acp01
p154
aVtc_43_042_eNB_configuration_update_af_configuration_update_failure_twice.L15acp01
p155
aVtc_346_578_AF__HO_X2_2PDN_MBR_failure_for_1PDN_terminate_sx.L15acp01
p156
aVtc_346_493_Small_Local_Restart__Terminate_when_UE_S1_release.L15acp01
p157
aVtc_257_01_pws_etws_main_flow_write_replace_warning_request_with_ta_list.LWG
p158
aVtc_39_771_mas_rnc_reset_when_wf_ptmsi_realloc_cmpl_source.LWG
p159
aVtc_327_016_recovery_intra_TAU__uplink_Detach_Request_while_waiting_for_Identity_Response.LWG
p160
aVtc_665_1_dp_reboot_init_cm_restart_with_traffic.LWG
p161
aVtc_363_021_gbip_feature_off_nses_bscconfirmed_trun_to_false.LWG
p162
aVtc_304_266_tau_from_gnsgsn_2g_control_mode_wf_delete_all_bearers_response_exception_case_reject_congestion_subscriber_cancelled.LWG
p163
aVtc_248_09_inter_l_to_w_new_3gdt.LWG
p164
aVtc_347_038_Inter_HO_Target__RAR_while_waiting_for_UE_Context_Modification_Response.LWG
p165
aVtc_208_108_dual_stack_legacy_versions_ipv4.LWG
p166
aVtc_29_015_activate_w_rau_g_dsd_during_ul.WG14b
p167
aVtc_324_083_af_sec_modify_bearer_response_dedicated_bearer_fail.W15acp01
p168
aVtc_214_710_combined_tau_intra_eps_attach_interfering_mt_sms_paging_wf_tau_complete_then_ddn.LW14b
p169
aVtc_347_038_Inter_HO_Target__RAR_while_waiting_for_UE_Context_Modification_Response.LW14b
p170
aVtc_43_015_mme_relative_capacity_changed_s1ap_setup_get_new_value.LW14b
p171
aVtc_304_275_tau_from_gnsgsn_3g_combined_node_control_mode_reject_congestion.LW14b
p172
aVtc_15_121_inter_old_sgsn_interupted_by_returning_ms.G15acp01
p173
aVtc_44_850_mme_assoc_reestablish__board_restart_s1_mme.L15acp01
p174
aVtc_266_026_DownlinkDataFailureInd_repeat_paging_timer_small_local_restart.L15acp01
p175
aVtc_214_148_combined_tau_intra_interfering_mo_sms_s1_reset.L15acp01
p176
aVtc_103_701_MME_restarts.L15acp01
p177
aVtc_103_1103_fallback_to_imsins_resend_no_more_peers.L15acp01
p178
aVtc_256_099_mme_eps_srvcc_ho_source_cs_only_handover_cancel_emergency_call_sti_true.L15acp01
p179
aVtc_194_063_hss_reset.L15acp01
p180
aVtc_290_068_Timer_Based_GBR_Deact__delete_bearer_request_ecm_idle_before_timer_expires.L15acp01
p181
aVtc_217_047_rau_to_sgsn_context_request_when_wf_20s_timeout.LW14b
p182
aVtc_298_531_sgsn_init_pdn_deact_ef_deact_req_ti_dedicated_bearer_wf_delete_session_resp.LW14b
p183
aVtc_263_021_Attach_Flow__Attach_Request_Different_IEs_IP_OK_while_waiting_for_Create_Session_Response.LW14b
p184
aVtc_202_03_emm_deregistered_no_s1_release.L15acp01
p185
aVtc_197_841_sgw_prioritized_gw_selection_x2_handover_with_sgw_change.L15acp01
p186
aVtc_103_903_primary_or_secondary_realm_routing_own_realm.L15acp01
p187
aVtc_346_576_AF__HO_X2_2PDN_CSR_failure_for_1PDN_terminate_sx.L15acp01
p188
aVtc_280_160_activated_dedicated_bearer_after_configured_max_bearers_setup.L15acp01
p189
aVtc_43_042_eNB_configuration_update_af_configuration_update_failure_twice.L15acp01
p190
aVtc_232_403_bfd__ipv4ipv6_alarm.LWG
p191
aVtc_326_280_Intra_TAU_with_unknown_GUTI_SGW_not_change_SGW_unavailable.LWG
p192
aVtc_327_022_recovery_intra_TAU__initial_Detach_Request_while_waiting_for_Ue_Backup_Response.LWG
p193
aVtc_245_301_inter_rau_insert_entry_into_interface_cache.LWG
p194
aVtc_245_410_inter_rau_old_s4_sgsn_with_partial_tzcr_all_sncr.LWG
p195
aVtc_183_009_itc_sctp_trace.LWG
p196
aVtc_321_022_s4_logging_inter_handover_cancel_w2l_source.LWG
p197
aVtc_337_005_validation_move_manually_stopped_between_two_pool_moves_smooth_move.LWG
p198
aVtc_194_406_service_request_ai_fails_roaming_not_allowed_remap_on_without_err_diag.LWG
p199
aVtc_267_780_HSS_based_PCSCF_restoration__downlink_data_notification_wf_service_request.LWG
p200
aVtc_665_1_dp_reboot_init_cm_restart_with_traffic.LWG
p201
aVtc_316_300_GUTI_Attach_UnKnown_GUTI_In_Pool_Broadcast_Force_Delete_Among_Pool.LWG
p202
aVtc_237_315_mme_eps_irat_Gn_ho_source_visitor_with_local_rfsp.LWG
p203
aVtc_357_023_gsm_iterator_move_ra_from_one_area_to_another.LWG
p204
aVtc_160_004_reset_sgsn_initiated_ret.W15acp01
p205
aVtc_578_63_uetrace2pcap_deactivate_eps_bearer_check_warning.LWG
p206
aVtc_43_015_mme_relative_capacity_changed_s1ap_setup_get_new_value.LWG
p207
aVtc_347_038_Inter_HO_Target__RAR_while_waiting_for_UE_Context_Modification_Response.LWG
p208
aVtc_298_724_service_request_ef_ms_deact_ti_dedicated_wf_rab_assignment_response.LWG
p209
aVtc_665_1_dp_reboot_init_cm_restart_with_traffic.LWG
p210
aVtc_220_579_csfb_to_1xrtt_in_ecm_connected_detach_request_wf_ue_context_release_complete.LWG
p211
aVtc_103_1102_fallback_to_imsins_success.LWG
p212
aVtc_219_131_s3_handover_w_to_l_with_cl_two_pdns_one_failed_sgw_relocation.LWG
p213
aVtc_273_363_tau_intra_normal_between_ipv4_and_ipv6.LWG
p214
aVtc_195_519_mme_logging_downlinkdataNotification_paging_failure_ue_not_responding.L15acp01
p215
aVtc_326_822_IRAT_Tau_as_response_to_recovery_paging.L15acp01
p216
aVtc_44_860_mme_assoc_reestablish__sctp_fe_restart_s1_mme.L15acp01
p217
aVtc_267_227_Service_Request__Handover_Required_Inter_Mme_while_waiting_for_Modify_Bearer_Response.L15acp01
p218
aVtc_346_493_Small_Local_Restart__Terminate_when_UE_S1_release.L15acp01
p219
aVtc_260_092_one_mbms_session_started_one_mce_add_one_session_not_send_to_new_mce.L15acp01
p220
aVtc_103_903_primary_or_secondary_realm_routing_own_realm.L15acp01
p221
aVtc_238_178_mme_eps_irat_Gn_ho_target__type_c_emc_cancel.L15acp01
p222
aVtc_204_419_mme_eps_ho_target_type_c_no_tau_received.L15acp01
p223
aVtc_103_855_error_code_DIAMETER_CONTRADICTING_AVPS.LW14b
p224
aVtc_342_084_x3_maximum_payload.LW14b
p225
aVtc_324_043_af_mbr_higher_than_policymap.WG14b
p226
aVtc_357_023_gsm_iterator_move_ra_from_one_area_to_another.G15acp01
p227
aVtc_103_1001_no_loadsharing_same_prio.LW14b
p228
aVtc_12_130_service_request_transfer_to_attached_ms_fraud.LW14b
p229
aVtc_324_327_ef_service_req_data_direct_transfer_ingore.LW14b
p230
aVtc_327_530_recovery_service_request__Imsi_Page_while_waiting_for_Initial_Context_Setup_Response.LW14b
p231
aVtc_322_022_smooth_move_af_frr_with_service_not_supported_no_moveIndicator.LW14b
p232
aVtc_313_238_inter_new_srns_reloc_s16_with_sgw_change_iu_release_request_none_user_inactivity_received_wf_forward_reloc_complete_ack.LW14b
p233
aVtc_85_12_mo_sms.W15acp01
p234
aVtc_324_368_ef_cancel_location_with_updateProcedure_wf_modify_bearer_response_after_ula_hss.W15acp01
p235
aVtc_348_031_deactivation__ggsn_restart_detectd.W15acp01
p236
aVtc_357_001_gsm_iterator_caused_by_config_creation_with_ipAddressReset_true_irrEnabled_nrrEnabled_false.WG14b
p237
aVtc_340_04_validation_move_g_filter_GA_RA_ptmsi_attach_trigger.WG14b
p238
aVtc_103_1130_sx_resend__CCR_I_timeout_another_pdn_diameter_unable_to_deliver_only_realm.LWG
p239
aVtc_103_1155_sx_retransmit__Small_restart_terminate_request.LWG
p240
aVtc_244_055_mt_lr_cancel_location_with_update_procedure_received_wf_location_report.LWG
p241
aVtc_183_015_itc_sctp_trace_packets.LWG
p242
aVtc_197_723_apn_oi_replacement_pdn_connectivity_succ_first_local_breakout_fail_then_try_apn_oi_replacement.LWG
p243
aVtc_110_005_inbound_outbound_pf_rule_cli_ip.LWG
p244
aVtc_259_21_provide_subscriber_information_w_to_g_irat.LWG
p245
aVtc_259_94_ef_provide_subscriber_information_psho_intra_w_to_g.LWG
p246
aVtc_284_002_pdn_connectivity.LWG
p247
aVtc_193_221_replayed_attach_request_allowed.LWG
p248
aVtc_665_1_dp_reboot_init_cm_restart_with_traffic.LWG
p249
aVtc_225_050_csfb_to_wg_in_ecm_idle_with_gbr_bears.L15acp01
p250
aVtc_103_101_destination_host_is_peer.L15acp01
p251
aVtc_578_32_check_ebm_para_statistics_ue_return_duration.L15acp01
p252
aVtc_346_494_Small_Local_Restart__Terminate_when_UE1_PDN_Connectivity_waiting_for_CCAI_UE2_Location_Report_waiting_for_CCAU.L15acp01
p253
aVtc_141_021_eth_v6_conf_novlan.LWG
p254
aVtc_363_021_gbip_feature_off_nses_bscconfirmed_trun_to_false.LWG
p255
aVtc_165_12_check_resource_alarms_dp.LWG
p256
aVtc_322_023_smooth_move_af_frr_with_request_rejected.LWG
p257
aVtc_309_108_modify_event_job_notification.LWG
p258
aVtc_666_03_block_ss7_board.LWG
p259
aVtc_665_1_dp_reboot_init_cm_restart_with_traffic.LWG
p260
aVtc_257_01_pws_etws_main_flow_write_replace_warning_request_with_ta_list.LWG
p261
aVtc_342_112_set_target_with_same_addr_diff_ccoutput_iri.W15acp01
p262
aVtc_342_930_x2_eventsn_continuous_after_x2_reconnect.W15acp01
p263
aVtc_324_328_ef_service_req_data_direct_transfer_ingore_wf_update_location.W15acp01
p264
aVtc_202_311_mf_seamless_move_by_mme_ue_ecm_idle_service_req_int_not_ok.L15acp01
p265
aVtc_257_03_pws_etws_main_flow_stop_warning_request_with_ta_list.LW14b
p266
aVtc_257_01_pws_etws_main_flow_write_replace_warning_request_with_ta_list.LW14b
p267
aVtc_103_701_MME_restarts.LW14b
p268
aVtc_326_243_Intra_TAU_Recovery_fail_default_bearer_fail_to_setup_SGW_Change.LW14b
p269
aVtc_26_227_downlink_paging_interfered_by_insert_subscriber_data_rab_assignment_response_with_decreased_qos.LW14b
p270
aVtc_275_206_tau_inter_new_emergency_type_b_restricted_no_rrc_or_active_flag.LW14b
p271
aVtc_193_215_intruder_auth_rej_MAC_fail.L15acp01
p272
aVtc_195_537_mme_logging_tau_inter_old_s10_s3_the_same_address.L15acp01
p273
aVtc_257_00_pws_etws_main_flow_write_replace_warning_request_without_ta_list.L15acp01
p274
aVtc_307_001_HSS_Init_QoS_Modification__APNAMBR_RFSP_and_ARP_Changed_2PDN_CONNECTED.L15acp01
p275
aVtc_304_236_isc_active_flag_on_control_mode_threshold_exceeded_ignore_replace_s1_wf_initial_context_setup_response.L15acp01
p276
aVtc_318_157_sgw_restart_af_relocation_triggered_by_service_request_fail.L15acp01
p277
aVtc_103_1103_fallback_to_imsins_resend_no_more_peers.L15acp01
p278
aVtc_346_494_Small_Local_Restart__Terminate_when_UE1_PDN_Connectivity_waiting_for_CCAI_UE2_Location_Report_waiting_for_CCAU.L15acp01
p279
aVtc_257_03_pws_etws_main_flow_stop_warning_request_with_ta_list.LW14b
p280
aVtc_327_037_recovery_intra_TAU_active_off_sgw_unchanged__RAR_wf_CSR_due_to_S11_linkdown.LW14b
p281
aVtc_250_152_attach_activate_with_inconsistent_odb_data.LW14b
p282
aVtc_82_020_rab_modify_followed_by_israu.LW14b
p283
aVtc_310_335_ef_dbr_non_voice_bearer_wf_forward_relocation_complete_and_forward_relocation_complete_ack.LW14b
p284
aVtc_28_65_mt_sms_allow_unknown_mtbs_true.LW14b
p285
aVtc_271_004_sctp_paging_olp_verify_olp_paging_counter.LW14b
p286
aVtc_318_302_sgw_restart_relocation_triggered_by_periodic_intra_tau_closed_csg.LW14b
p287
aVtc_12_33_attach_ptmsi_new_sgsn_ptmsi_signature_mismatch.LWG
p288
aVtc_194_808_isd_private_extension_of_wi_denied_during_intra_mme_tau_with_sgw_change.LWG
p289
aVtc_208_159_payload_msisdn_imsi_imei_tcp_udp_tcp_v4.LWG
p290
aVtc_58_2_dyn_to_dyn.LWG
p291
aVtc_220_628_extended_service_request_interrupted_by_ue_context_release_complete_while_wf_ue_release_request.LWG
p292
aVtc_363_021_gbip_feature_off_nses_bscconfirmed_trun_to_false.LWG
p293
aVtc_298_826_NRSPCA_S4_nsapi_collision_receiving_detach_request_while_waiting_for_delete_bearer_request.LWG
p294
aVtc_260_272_receive_sm_stop_req_while_wf_setup_iteration.LWG
p295
aVtc_12_181_wcdma_repeat_paging_step_60_worker_parks.W15acp01
p296
aVtc_348_050_large_restart.W15acp01
p297
aVtc_214_210_mo_sms_idle_sgs_link_broken.LWG
p298
aVtc_232_511_static_routes__bfd_supervision_of_static_route_v6_on_Gom.LWG
p299
aVtc_665_1_dp_reboot_init_cm_restart_with_traffic.LWG
p300
aVtc_27_026_mo_sms_old_cdr_format_r6.LWG
p301
aVtc_103_854_error_code_DIAMETER_INVALID_AVP_VALUE.LWG
p302
aVtc_103_701_MME_restarts.LWG
p303
aVtc_243_721_tau_from_sgsn_s3_without_SGW_Change_SGW_unavailable_no_other_SGW.LWG
p304
aVtc_326_223_Intra_TAU_Recovery_fail_Identity_Response_timeout_then_Recover_successful.LWG
p305
aVtc_259_21_provide_subscriber_information_w_to_g_irat.LWG
p306
aVtc_259_133_ef_provide_subscriber_information_psho_inter_old_g_to_w.LWG
p307
aVtc_225_561_mo_call_in_idle_mode_emergency_service_type_hybrid_csg.LWG
p308
aVtc_357_023_gsm_iterator_move_ra_from_one_area_to_another.WG14b
p309
aVtc_304_236_isc_active_flag_on_control_mode_threshold_exceeded_ignore_replace_s1_wf_initial_context_setup_response.LW14b
p310
aVtc_293_203_X2_Based_HO__Path_Switch_Request_with_old_TA_while_waiting_for_TAU_Complete.LW14b
p311
aVtc_306_1333_ef_seamless_move_target_receive_cli_delete_subscriber_wf_ula.LW14b
p312
aVtc_23_10_transfer_to_primary_and_change_vip_addr_from_gn_to_gom.W15acp01
p313
aVtc_327_400_recovery_service_request__Handover_Required_while_waiting_for_Sub_Procedure.L15acp01
p314
aVtc_44_850_mme_assoc_reestablish__board_restart_s1_mme.L15acp01
p315
aVtc_103_206_sticky_hss_host_name.L15acp01
p316
aVtc_103_1100_resending_AIR_dpl_changed.L15acp01
p317
aVtc_103_860_ue_trace_retransmit.L15acp01
p318
aVtc_195_532_mme_logging_ue_unrechable.L15acp01
p319
aVtc_257_00_pws_etws_main_flow_write_replace_warning_request_without_ta_list.L15acp01
p320
aVtc_257_01_pws_etws_main_flow_write_replace_warning_request_with_ta_list.L15acp01
p321
aVtc_257_02_pws_etws_main_flow_stop_warning_request_without_ta_list.L15acp01
p322
aVtc_292_133_x2_ho_s1_release_while_cleanup.L15acp01
p323
aVtc_44_850_mme_assoc_reestablish__board_restart_s1_mme.L15acp01
p324
aVtc_326_872_Service_Request_with_unknown_STMSI_emergency_type_a_closed_csg.L15acp01
p325
aVtc_43_042_eNB_configuration_update_af_configuration_update_failure_twice.L15acp01
p326
aVtc_306_1278_ef_seamless_move_target_receive_context_request_wf_mbr.L15acp01
p327
aVtc_210_044_attach_reject_imsi_cc_96.LWG
p328
aVtc_260_272_receive_sm_stop_req_while_wf_setup_iteration.LWG
p329
aVtc_259_133_ef_provide_subscriber_information_psho_inter_old_g_to_w.LWG
p330
aVtc_328_108_Backup_MME__MaximumNumberOfUeBackups_reached_replace_oldest_ue_backups.LWG
p331
aVtc_665_1_dp_reboot_init_cm_restart_with_traffic.LWG
p332
aVtc_363_021_gbip_feature_off_nses_bscconfirmed_trun_to_false.LWG
p333
aVtc_103_602_georedundant_realm_routing.LWG
p334
aVtc_165_10_check_resource_alarms_ap.LWG
p335
aVtc_85_12_mo_sms.LW14b
p336
aVtc_327_037_recovery_intra_TAU_active_off_sgw_unchanged__RAR_wf_CSR_due_to_S11_linkdown.LW14b
p337
aVtc_43_022_mme_id_changed.LW14b
p338
aVtc_310_321_af_timeout_wf_relocation_cancel_response_from_Gn_SGSN.LW14b
p339
aVtc_578_52_check_uetracer_parser.LW14b
p340
aVtc_293_377_X2_Based_HO__provide_location_request_while_wf_ue_context_modification_response_hybrid_csg.LW14b
p341
aVtc_273_203_tau_intra_periodic_roaming_restricted_ta_after_reconf.LW14b
p342
aVtc_348_251_3gpp_move__new_sgsn_with_sx.W15acp01
p343
aVtc_241_318_israu_new_gn_to_s4_two_pdp_to_bearer_3gdt_off_to_on.W15acp01
p344
aVtc_359_142_handover_from_3gpp_pgw_init_deletion_ef_ms_deact_Notify_ue_false.W15acp01
p345
aVtc_280_012_activate_dedicated_bearers_ecm_idle_tau_request_as_paging_answer.L15acp01
p346
aVtc_346_361_rau_to_gn_sgsn_terminate_sx_session.L15acp01
p347
aVtc_358_009_lte_iterator_turn_on_feature_with_irrEnabled_false_ipAddressReset_nrrEnabled_true.L15acp01
p348
aVtc_103_1000_modify_diameter_peer_prio.L15acp01
p349
aVtc_278_100_Inter_TAU_Old_MME__Subscription_Withdrawn_while_waiting_for_Context_Ack.L15acp01
p350
aVtc_195_554_mme_logging_eps_handover_target_over_gn_inter_relocation_cancel_Request_received.L15acp01
p351
aVtc_44_860_mme_assoc_reestablish__sctp_fe_restart_s1_mme.L15acp01
p352
aVtc_257_03_pws_etws_main_flow_stop_warning_request_with_ta_list.LWG
p353
aVtc_103_903_primary_or_secondary_realm_routing_own_realm.LWG
p354
aVtc_316_299_GUTI_Attach_UnKnown_GUTI_Not_In_Pool_No_Broadcast_Force_Delete_Among_Pool.LWG
p355
aVtc_214_210_mo_sms_idle_sgs_link_broken.LWG
p356
aVtc_214_1041_la_selection_af_combined_attach_access_restriction_for_wcdma.LWG
p357
aVtc_368_251_mme_eps_ho_source__pgw_reselection_dbr_wf_forward_relocation_response.LWG
p358
aVtc_327_037_recovery_intra_TAU_active_off_sgw_unchanged__RAR_wf_CSR_due_to_S11_linkdown.LWG
p359
aVtc_244_055_mt_lr_cancel_location_with_update_procedure_received_wf_location_report.LWG
p360
aVtc_260_272_receive_sm_stop_req_while_wf_setup_iteration.LWG
p361
aVtc_234_012_activate_update_deactivate_all.LWG
p362
aVtc_363_021_gbip_feature_off_nses_bscconfirmed_trun_to_false.LWG
p363
aVtc_326_242_Intra_TAU_Recovery_Initial_Context_Setup_timeout.LWG
p364
aVtc_327_224_recovery_service_request__Delete_Subscriber_Data_while_waiting_for_Ue_Backup_Response.LW14b
p365
aVtc_295_010_Intra_S1_HO__Attach_req_from_target_eNB_while_wf_handover_notify.LW14b
p366
aVtc_260_272_receive_sm_stop_req_while_wf_setup_iteration.LW14b
p367
aVtc_348_041_sapc_restarted__different_ms.W15acp01
p368
aVtc_348_363_inter_srns_reloc_af__new_sgsn_relocation_failure_received.W15acp01
p369
aVtc_348_410_pra_israu__sai_list__CCA_U_before_iu_release.W15acp01
p370
aVtc_275_302_tau_inter_new_keep_old_sgw_too_high_QoS_for_one_default_and_one_dedicated_bearer.LW14b
p371
aVtc_326_486_Inter_TAU_Recovery_Unknown_GUTI__Then_ISD_UE_AMBR_Change.LW14b
p372
aVtc_257_00_pws_etws_main_flow_write_replace_warning_request_without_ta_list.LW14b
p373
aVtc_342_033_x2_connection_heartbeat.LW14b
p374
aVtc_194_1644_hss_reset_x2_handover_ta_change_from_hybrid_to_hybrid_with_different_csg_id_emergency_type_b_sgw_relocation_no_UCMResponse.LW14b
p375
aVtc_318_132_sgw_restart_mf_relocation_triggered_by_service_request_multi_pdn.LW14b
p376
aVtc_11_147_rab_reestablish_on_service_request_data_pmm_connected.W15acp01
p377
aVtc_213_006_irat_ps_handover_from_w_to_g_with_nrspca_off.G15acp01
p378
aVtc_260_272_receive_sm_stop_req_while_wf_setup_iteration.LWG
p379
aVtc_103_701_MME_restarts.LWG
p380
aVtc_43_015_mme_relative_capacity_changed_s1ap_setup_get_new_value.LWG
p381
aVtc_363_021_gbip_feature_off_nses_bscconfirmed_trun_to_false.LWG
p382
aVtc_327_704_recovery_service_request__pdn_req_fail_while_wf_ULA_fail.L15acp01
p383
aVtc_260_218_receive_m3_reset_req_while_wf_m3_start_resp_with_resp.L15acp01
p384
aVtc_43_042_eNB_configuration_update_af_configuration_update_failure_twice.L15acp01
p385
aVtc_220_626_Extended_Service_request__in_Emm_Deregistered.L15acp01
p386
aVtc_329_300_s1_inter_ho_target_rs_allowed.L15acp01
p387
aVtc_25_33_israu_qos_req_0kbps.LWG
p388
aVtc_665_1_dp_reboot_init_cm_restart_with_traffic.LWG
p389
aVtc_157_4_1_snmp_consistent_filter.LWG
p390
aVtc_103_850_error_code_DIAMETER_REALM_NOT_SERVED.LWG
p391
aVtc_304_266_tau_from_gnsgsn_2g_control_mode_wf_delete_all_bearers_response_exception_case_reject_congestion_subscriber_cancelled.LWG
p392
aVtc_208_204_s4_payload.LWG
p393
aVtc_358_035_lte_iterator_explicit_detach_wf_detach_accept_timeout.LWG
p394
aVtc_260_272_receive_sm_stop_req_while_wf_setup_iteration.LWG
p395
aVtc_220_508_csfb_to_1xrtt_in_ecm_idle_service_request_wf_ue_context_release_complete.LWG
p396
aVtc_234_012_activate_update_deactivate_all.LWG
p397
aVtc_306_201_ef_seamless_move_source_receive_me_identity_check_answer_wf_frr_ecm_idle.L15acp01
p398
aVtc_204_003_mme_eps_handover_target_inter_dedicated_bearer.L15acp01
p399
aVtc_103_603_georedundant_modify_diameter_peer.L15acp01
p400
aVtc_346_494_Small_Local_Restart__Terminate_when_UE1_PDN_Connectivity_waiting_for_CCAI_UE2_Location_Report_waiting_for_CCAU.L15acp01
p401
aVtc_194_1644_hss_reset_x2_handover_ta_change_from_hybrid_to_hybrid_with_different_csg_id_emergency_type_b_sgw_relocation_no_UCMResponse.L15acp01
p402
aVtc_266_026_DownlinkDataFailureInd_repeat_paging_timer_small_local_restart.L15acp01
p403
aVtc_348_025_deactivation__hlr_init_isd_with_odb.W15acp01
p404
aVtc_313_238_inter_new_srns_reloc_s16_with_sgw_change_iu_release_request_none_user_inactivity_received_wf_forward_reloc_complete_ack.W15acp01
p405
aVtc_321_079_gn_logging_gtpv0_error_indication_from_ggsn.LW14b
p406
aVtc_26_056_ms_initiated_pdp_context_modification_ms_wants_conversational_1.LW14b
p407
aVtc_214_1141_la_selection_mf_oldmscpreferred_prau_during_ue_restoration.LW14b
p408
aVtc_257_03_pws_etws_main_flow_stop_warning_request_with_ta_list.LW14b
p409
aVtc_578_52_check_uetracer_parser.LW14b
p410
aVtc_103_1103_fallback_to_imsins_resend_no_more_peers.LW14b
p411
aVtc_103_1143_sx_resend__timeout_timeout_duplicate_CCA_I.LW14b
p412
aVtc_220_605_csfb_to_1xrtt_in_ecm_connected_extended_service_request_during_downlink_data_notification.LW14b
p413
aVtc_194_152_notify_non_3gpp_not_allowed.LW14b
p414
aVtc_313_238_inter_new_srns_reloc_s16_with_sgw_change_iu_release_request_none_user_inactivity_received_wf_forward_reloc_complete_ack.LW14b
p415
aVtc_103_1004_secondary_dpl_used_when_all_peers_in_dpl_unavailable_no_sls.LW14b
p416
aVtc_329_1009_test_cli_overlapping_ga.LW14b
p417
aVtc_203_011_mme_eps_handover_source_inter_main_flow_with_sgw_relocation.LW14b
p418
aVtc_257_02_pws_etws_main_flow_stop_warning_request_without_ta_list.LW14b
p419
aVtc_348_424_pra_israu__follow_on_back_in_20s_l_and_w.LW14b
p420
aVtc_28_039_mo_sms_fallback_v1_ok_previous_higher.W15acp01
p421
aVtc_324_043_af_mbr_higher_than_policymap.W15acp01
p422
aVtc_665_1_dp_reboot_init_cm_restart_with_traffic.LWG
p423
aVtc_346_619_handover_inter_target_establish_sx_session_rfsp_in_tau_accept.LWG
p424
aVtc_11_091_activate_secondary_pdp_context_wrong_LinkedTI.LWG
p425
aVtc_306_1335_ef_seamless_move_target_receive_cli_delete_subscriber_wf_service_request.LWG
p426
aVtc_103_850_error_code_DIAMETER_REALM_NOT_SERVED.LWG
p427
aVtc_103_1005_secondary_dpl_used_when_all_peers_in_dpl_unavailable_with_sls.LWG
p428
aVtc_321_050_s4_logging_israu_identity_response_with_imeisv.LWG
p429
aVtc_326_836_Intra_TAU_Recovery_after_Node_Restart_SGW_Change_active_flag_on_no_modify_bearer_response.LWG
p430
aVtc_256_382_Sv_Path_Mgt__available_MSC_disable_Sv.LWG
p431
aVtc_357_023_gsm_iterator_move_ra_from_one_area_to_another.WG14b
p432
aVtc_103_1102_fallback_to_imsins_success.L15acp01
p433
aVtc_211_024_streamed_cell_trace_mapping_alarm_ipv6.L15acp01
p434
aVtc_206_021_ebm_server_crashes_and_recovers_while_attached.L15acp01
p435
aVtc_335_31_wifi_to_mobility_in_ecm_idle_af__cells_from_eNB_more_than_from_WIC.L15acp01
p436
aVtc_256_050_mme_eps_srvcc_ho_source_cs_only_invalid_ho_type_target_id_mapping.L15acp01
p437
aVts_336_002_access_request__estimate_request_while_waiting_for_eab_wifi_decision_response.L15acp01
p438
aVtc_364_202_af_trigger_hits_when_max_ue_trace_sessions_reached.LW14b
p439
aVtc_260_272_receive_sm_stop_req_while_wf_setup_iteration.LW14b
p440
aVtc_257_02_pws_etws_main_flow_stop_warning_request_without_ta_list.LW14b
p441
aVtc_197_061_s1_handover_sgw_reselection_emc_ims_allpdn_dns_first_sgw_fails.LW14b
p442
aVtc_290_011_Timer_Based_GBR_Deact__detach_request_initial_ue_wf_release_access_bearer_response_before_timer_expires.L15acp01
p443
aVtc_266_026_DownlinkDataFailureInd_repeat_paging_timer_small_local_restart.L15acp01
p444
aVtc_304_016_attach_reject__remove_config_during_control_period.L15acp01
p445
aVtc_43_042_eNB_configuration_update_af_configuration_update_failure_twice.L15acp01
p446
aVtc_306_1117_ef_seamless_move_target_receive_detach_request_without_switchoff_wf_lua_without_service.L15acp01
p447
aVtc_194_1581_delete_bearer_request_change_to_non3GPP_during_HSS_initiated_ISD_in_Connected_mode_when_current_CSG_Id_removed.L15acp01
p448
aVtc_194_1633_hss_reset_pgw_initiated_bearer_mod_ecm_connected_hybrid_csg_feature_on_to_off.L15acp01
p449
aVtc_665_1_dp_reboot_init_cm_restart_with_traffic.LWG
p450
aVtc_260_272_receive_sm_stop_req_while_wf_setup_iteration.LWG
p451
aVtc_260_184_mce_reset_mandatory_ie_missing.LWG
p452
aVtc_284_307_create_bearer_pdn_disconnect_in_parallell.LWG
p453
aVtc_61_11_lr_suspend_and_crash.LWG
p454
aVtc_208_70_inter_sgsn_new_psho_two_pdp_one_deactivated_due_to_wrong_pdp_type.LWG
p455
aVtc_214_820_SGW_unavailable_Combined_Inter_TAU.LWG
p456
aVtc_251_010_rau_w_to_g_after_hss_reset_storm.LWG
p457
aVtc_183_009_itc_sctp_trace.LWG
p458
aVtc_183_011_itc_trace_file_wrap.LWG
p459
aVtc_262_095_emergency_imsi_attach_authentication_failure.LWG
p460
aVtc_165_10_check_resource_alarms_ap.LWG
p461
aVtc_103_701_MME_restarts.LWG
p462
aVtc_318_273_sgw_restart_af_relocation_triggered_by_DDN_create_session_dedicated_bearer_failed.LWG
p463
aVtc_166_111_periodic_rau_no_follow_on_direct_transfer_active_pdp_ptmsi_reallocated.LWG
p464
aVtc_166_130_israu_new_3gdt_apn_not_in_hlr.WG14b
p465
aVtc_348_263_smooth_move_af__new_sgsn_ggsn_timeout.W15acp01
p466
aVtc_327_160_recovery_intra_TAU_DDN_with_IMSI_while_waiting_for_Modify_Bearer_Response.LWG
p467
aVtc_52_44_inter_old_srns_reloc_main_flow_interfered_by_insert_subscr.LWG
p468
aVtc_665_1_dp_reboot_init_cm_restart_with_traffic.LWG
p469
aVtc_363_011_cli_get_ra.LWG
p470
aVtc_357_023_gsm_iterator_move_ra_from_one_area_to_another.LWG
p471
aVtc_369_091_downlink_A21_AIS_during_waiting_location_report__idr_flags_ef.LWG
p472
aVtc_166_451_rab_release_interfered_by_detach.LWG
p473
aVtc_103_1007_secondary_dpl_set_and_then_emptied.L15acp01
p474
aVtc_103_406_diameterConnectionDown_no_alarm_raised_due_to_bad_ip_addrs_in_CEA.L15acp01
p475
aVtc_43_042_eNB_configuration_update_af_configuration_update_failure_twice.L15acp01
p476
aVtc_194_1644_hss_reset_x2_handover_ta_change_from_hybrid_to_hybrid_with_different_csg_id_emergency_type_b_sgw_relocation_no_UCMResponse.L15acp01
p477
aVtc_44_850_mme_assoc_reestablish__board_restart_s1_mme.L15acp01
p478
aVtc_266_026_DownlinkDataFailureInd_repeat_paging_timer_small_local_restart.L15acp01
p479
aVtc_334_280_path_failure_service_req_af_create_session_no_resp.W15acp01
p480
aVtc_321_076_gn_logging_inter_srns_relocation_cancel_source.W15acp01
p481
aVtc_292_132_x2_ho_all_default_bearers_failed.LW14b
p482
aVtc_327_037_recovery_intra_TAU_active_off_sgw_unchanged__RAR_wf_CSR_due_to_S11_linkdown.LW14b
p483
aVtc_327_224_recovery_service_request__Delete_Subscriber_Data_while_waiting_for_Ue_Backup_Response.LW14b
p484
aVtc_202_311_mf_seamless_move_by_mme_ue_ecm_idle_service_req_int_not_ok.LW14b
p485
aVtc_368_092_intra_tau_with_sgw_change__pgw_reselection_dbr_wf_release_access_bearer_response.LW14b
p486
aVtc_31_014_attach_ul_fails_plmn_not_allowed.LW14b
p487
aVtc_103_852_error_code_DIAMETER_COMMAND_UNSUPPORTED.LW14b
p488
aVtc_260_272_receive_sm_stop_req_while_wf_setup_iteration.LW14b
p489
aVtc_348_424_pra_israu__follow_on_back_in_20s_l_and_w.LW14b
p490
aVtc_12_512_pmm_undefined_attach_when_updating_location_interfered_by_rnc_reset.LW14b
p491
a.