(lp0
Vtc_298_007_S4_Network_Request_Secondary_PDP_Activation_UE_no_Response_5_times.LW
p1
aVtc_194_617_DSD__PDN_subscription_contexts_Withdrawal_All_PDN_Disconnect__Suspended.LW
p2
aVtc_250_105_ignore_IDR_when_EPS_sub_downgrade_GPRS_sub.LW
p3
aVtc_103_831_DPR_cause_BUSY.LW
p4
aVtc_43_101__removal_of_disconnected_eNodeBs__CLI_removal.LW
p5
aVtc_44_071_attach_long_imsi.LW
p6
aVtc_324_220_ef_detach_request_ignore_wf_forward_relocation_complete_notification.LW
p7
aVtc_274_042_Intra_and_pTAU__Intra_TAU_other_ta_while_waiting_for_Ue_Release_Complete.LW
p8
aVtc_78_119_israu_old_with_selected_plmn.LW
p9
aVtc_78_005_imsi_attach_redirection_cause_14.LW
p10
aVtc_262_110_emergency_type_d_attach_verify_replay_check_ignored.LW
p11
aVtc_28_008_mo_sms_sm_delivery_failure.W14b
p12
aVtc_250_105_ignore_IDR_when_EPS_sub_downgrade_GPRS_sub.W14b
p13
aVtc_175_007_activate_interrupted_by_suspend_before_create_ack.G14b
p14
aVtc_23_09_transfer_to_primary_and_change_vip_addr.LWG
p15
aVtc_208_43_interception_after_small_restart.LWG
p16
aVtc_318_006_pgw_restart_notification_mf_one_of_pdns_reactivate.LWG
p17
aVtc_04_01_normal_gprs_imsi_ptmsi_attach.LWG
p18
aVtc_180_04_test_multiple_ip_w_2contexts.LWG
p19
aVtc_263_022_Attach_Flow__Attach_Request_Different_IEs_IP_OK_while_waiting_for_Attach_Complete.LWG
p20
aVtc_322_124_smooth_move_ef_cancel_location_wf_frcn.LWG
p21
aVtc_259_102_ef_tads_s4_interfere_inter_rau_old_g.LWG
p22
aVtc_196_172_nrspca_during_t3385_when_receive_sgsn_context_ack_not_accepted.LWG
p23
aVtc_44_871_mme_assoc_reestablish__board_block_sbc.LWG
p24
aVtc_181_04_multiple_ip_deconf_iugtp_w.LWG
p25
aVtc_306_1033_ef_seamless_move_target_handle_initial_tau_request_sr_ongoing_wf_icsr_move_going.LWG
p26
aVtc_293_035_tau_after_ho_tz_change_emm_information_meanwhile_path_switch_request_HO_success_emm_information_fail.LWG
p27
aVtc_666_02_reboot_ss7_board.LWG
p28
aVtc_666_06_block_rt_board.LWG
p29
aVtc_52_42_inter_old_srns_reloc_main_flow_interfered_by_mt_sms.LWG
p30
aVtc_52_48_inter_old_srns_reloc_main_flow_interfered_by_ms_deactivate.LWG
p31
aVtc_52_54_reloc_wf_forw_rel_resp_interrupted_by_iu_release.LWG
p32
aVtc_220_564_csfb_to_1xrtt_in_ecm_idle_detach_request_wf_ue_context_release_complete.LWG
p33
aVtc_265_102_Detach_Flow_NW_init__Reattach_Required_Attach_Request_while_waiting_for_Context_Release_Complete.LWG
p34
aVtc_205_71_03_ss7_M3UA_ASP_counters.LWG
p35
aVtc_183_005_itc_folder_file_names.LWG
p36
aVtc_250_67_s6d_activation_with_EPS_data_s4_license_off.LWG
p37
aVtc_39_601_mas_unsucc_fwd_reloc_resp_mandatory_ie_missing_stop_source.LWG
p38
aVtc_298_132_EF_NRSPCA_S4_Activate_TiFlag.LWG
p39
aVtc_53_20_inter_new_srns_reloc_ggsn_update_failed.LWG
p40
aVtc_53_140_inter_new_invalid_qos_profile.LWG
p41
aVts_53_149_inter_new_srns_reloc_inter_old_srns_reloc.LWG
p42
aVtc_73_21_itc_gtpu_s4_sgsn_send_echo_request_w.LWG
p43
aVtc_73_41_gtpu_sgsn_dont_send_gpu_echo_request_w.LWG
p44
aVtc_329_203_inter_tau_new_rs_restricted_emergency.LWG
p45
aVtc_60_1_hlr_reset.LWG
p46
aVtc_159_200_check_ctum_log.LWG
p47
aVtc_218_311_tau_from_sgsn_preserved_gbr_bearer_buffer_1_ubr_1_cbr.LWG
p48
aVtc_103_208_hostname_in_conf_unavail.L14b
p49
aVtc_103_010_modify_diameter_peer.L14b
p50
aVtc_304_266_tau_from_gnsgsn_2g_control_mode_wf_delete_all_bearers_response_exception_case_reject_congestion_subscriber_cancelled.L14b
p51
aVtc_266_026_DownlinkDataFailureInd_repeat_paging_timer_small_local_restart.L14b
p52
aVtc_214_806_mo_sms_active_donwlink_nas_transport_meanwhile_handover_required_HO_success.L14b
p53
aVtc_43_101__removal_of_disconnected_eNodeBs__CLI_removal.L14b
p54
aVtc_256_176_mme_eps_srvcc_ho_source_cs_only_ue_release_request_wf_srvcc_ps_to_cs_complete_notification.L14b
p55
aVtc_225_321_mt_call_active_mode_nas_non_delivery__cs_service_notification__handover_required_meanwhile_CBR_received.L14b
p56
aVtc_26_168_irat_g_to_w_after_RAU_complete_with_subscriber_data_changed.W14b
p57
aVtc_298_073_s4_nrspca_activate_same_nsapi_of_dedicated_bearer_rab_released.W14b
p58
aVtc_578_02_check_parse_ebm_and_ci_eci_w.W14b
p59
aVtc_248_128_inter_l_to_w_new_rau_request_intial_ue_received_wf_update_location_resp.W14b
p60
aVtc_248_430_inter_l_to_w_new_two_pdns_one_dedicated_failed_to_create_in_sgw_one_default_failed_to_setup_rab.W14b
p61
aVtc_236_039_s4_3gdt_detach_during_waiting_for_modify_bearer_rsp_in_active_procedure.W14b
p62
aVtc_236_040_s4_3gdt_detach_during_waiting_for_modify_bearer_rsp_in_service_request_procedure.W14b
p63
aVtc_39_006_attach_move_attach_in_target.W14b
p64
aVtc_322_161_smooth_move_ef_nas_after_paging_response_ignore.WG14a
p65
aVtc_266_011_DownlinkDataNotification_interfering_ISD_sgsn00026976.L14b
p66
aVtc_103_004_destination_realm_is_realm_of_a_peer.L14b
p67
aVtc_43_040_eNB_configuration_update_mf.L14b
p68
aVtc_276_045_Inter_TAU_New_MME__S1_Reset_while_waiting_for_Identity_Response__enhanced_imei_check.L14b
p69
aVtc_47_004_mobile_reachble_timer_ap_loss.L14b
p70
aVtc_194_506_Notification_during_Intra_MME_TAU_without_SGW_Relocation_Procedure.L14b
p71
aVtc_194_991_downlink_A21_AIS_during_waiting_location_report__idr_flags_ef.L14b
p72
aVtc_274_042_Intra_and_pTAU__Intra_TAU_other_ta_while_waiting_for_Ue_Release_Complete.L14b
p73
aVtc_205_71_03_ss7_M3UA_ASP_counters.LWG
p74
aVtc_231_173_ms_init_detach_interfered_by_cancel_location_withdraw.LWG
p75
aVtc_204_256_mme_eps_ho_target_imei_check_no_imei_in_forward_relocation_request_ok.LWG
p76
aVtc_180_04_test_multiple_ip_w_2contexts.LWG
p77
aVtc_327_017_recovery_intra_TAU__uplink_Detach_Request_while_waiting_for_Ue_Backup_Response.LWG
p78
aVtc_327_552_Recovery_for_DDN__Service_Request_while_waiting_for_Ue_Backup_Response.LWG
p79
aVtc_65_008_sndcp_pm_counters.LWG
p80
aVtc_318_116_sgw_restart_mf_one_pdn_with_relocate_by_ReleaseAccessBearersResponse.LWG
p81
aVtc_318_022_pgw_restart_notification_ef_pdn_disconn_wf_paging_interfer_by_tau.LWG
p82
aVtc_262_1055_imsi_attach_with_csg_id_is_rejected.LWG
p83
aVtc_23_09_transfer_to_primary_and_change_vip_addr.LWG
p84
aVtc_181_04_multiple_ip_deconf_iugtp_w.LWG
p85
aVtc_181_02_multiple_ip_deconf_iuandgngtp_traffic_w.LWG
p86
aVtc_85_12_mo_sms.LWG
p87
aVtc_261_15_tau_intra_home_voip_none_plmn_support.LWG
p88
aVtc_261_10_isd_tads_intra_tau_vistor_voip_restricted_by_ga_cc90_imsins_cc91.LWG
p89
aVtc_298_145_EF_NRSPCA_interfere_Activation.LWG
p90
aVtc_159_200_check_ctum_log.LWG
p91
aVtc_241_068_israu_new_s4_to_s4_illegal_me_in_imei_check_after_israu_with_paging.LWG
p92
aVtc_241_420_israu_new_sgw_change_4_pdn_buffer_ubr_s6d_on.LWG
p93
aVtc_241_801_israu_interfering_context_request_no_cancel_location_s4.LWG
p94
aVtc_76_027_deactivate_ggsn_initiated_ms_detach_request.LWG
p95
aVtc_267_511_Service_Request_SGW_unavailable__IDR_with_QoS_modification_while_wf_Create_Session_Response.LWG
p96
aVtc_54_125_inter_ran_information_g_to_l_through_gn_wrong_incoming_message.LWG
p97
aVtc_54_211_rim_inter_sgsn_mme_w_to_l_through_s3_HeNB_format_targetid_HeNB_GW_table_not_matched.LWG
p98
aVtc_225_415_emergency_attach_while_waiting_extended_service_request.LWG
p99
aVtc_216_012_icmpv6_inNeighborAds.LWG
p100
aVtc_216_105_icmpv6_outNeighborAds.LWG
p101
aVtc_326_213_Intra_TAU_Recovery_multiple_retrieval_responses_with_different_revision_number.LWG
p102
aVtc_666_02_reboot_ss7_board.LWG
p103
aVtc_666_06_block_rt_board.LWG
p104
aVtc_289_061_Modify_bearer__UE_context_modification_request_meanwhile_path_switch_request_HO_all_bearers_fail.LWG
p105
aVtc_289_101_multi_pdn_pgw_init_bearer_mod_wf_service_interrupted_by_dbr_with_lbi.LWG
p106
aVtc_53_53_inter_new_srns_reloc_ef_ggsn_update_2_pdp_timeout_1_delete_req_resent.LW
p107
aVtc_268_073_Timer_Based_GBR_Deact__receive_DDN_with_default_bearer_before_UE_context_release_complete.LW
p108
aVtc_324_042_af_gbr_higher_than_policymap.LW
p109
aVtc_324_113_af_no_frca_service_request_data_rab_partially_setup_3gdt.LW
p110
aVtc_225_315_mt_call_active_mode_nas_non_delivery__cs_service_notification_meanwhile_handover_required.LW
p111
aVtc_78_006_imsi_attach_redirection_cause_15.LW
p112
aVtc_78_245_own_ra_nri_query_fail_imsi_fetch_from_ms_new_sgsn_have_no_sgsn_context_reject_with_cause_code_9.LW
p113
aVtc_248_303_inter_l_to_w_new_ms_connected_handover_from_mme.LW
p114
aVtc_103_701_MME_restarts.LW
p115
aVtc_276_045_Inter_TAU_New_MME__S1_Reset_while_waiting_for_Identity_Response__enhanced_imei_check.LW
p116
aVtc_311_204_intra_srns_reloc_s4_sgw_change_wf_reloc_req_ack_interrupted_by_cancel_loc_subscrip_withdrawn.LW
p117
aVtc_91_002_auth_fail_undefined_imsi_series.LW
p118
aVtc_241_801_israu_interfering_context_request_no_cancel_location_s4.LW
p119
aVtc_76_015_linked_pdps_ggsn_init_deactivate_ms_replies_with_sm_status.LW
p120
aVtc_194_063_hss_reset.LW
p121
aVtc_194_991_downlink_A21_AIS_during_waiting_location_report__idr_flags_ef.LW
p122
aVtc_44_004_small_restart__sctp_fe_restart.LW
p123
aVtc_304_102_emergency_intra_tau_success__control_mode_threshold_exceeded.LW
p124
aVtc_97_035_inter_sgsn_psho_mf_with_lawful_intercept.G14b
p125
aVtc_297_407_move_at_periodic_rau.G14b
p126
aVtc_236_254_IRAT_HO_for_S4_over_S3_target_DtSelMode_5_APN_not_in_APN_list_TAC_in_TAC_list.LW
p127
aVtc_50_061_activate_interactive_32Mbit_downgraded_by_rnc.LW
p128
aVtc_50_088_activate_interactive_84Mbit_downgraded_by_rnc.LW
p129
aVtc_44_871_mme_assoc_reestablish__board_block_sbc.LW
p130
aVtc_275_037_tau_inter_new_bearer_status_mismatch.LW
p131
aVtc_51_004_intra_srns_reloc_target_nrr_restricted.LW
p132
aVtc_51_017_intra_srns_reloc_update_location_failed_network_failure.LW
p133
aVtc_51_035_reloc_wf_reloc_comp_interrupted_by_normal_detach_on_target_iu.LW
p134
aVtc_51_054_reloc_wf_reloc_complete_interrupted_by_attach_on_new_iu.LW
p135
aVtc_51_068_reloc_interfered_by_rau.LW
p136
aVtc_51_058_reloc_wf_reloc_complete_interfered_by_attach_on_new_iu_wrong_rai.LW
p137
aVtc_51_090_intra_srns_reloc_wf_rau_req_interrupted_by_instert_subsc.LW
p138
aVtc_214_1028_la_selection_af_oldlapreferred_combined_intra_tau_without_old_la.LW
p139
aVtc_203_220_TR_SGSN00022533.LW
p140
aVtc_101_030_mbms.LW
p141
aVtc_009_015_cancel_location_after_restart.LW
p142
aVtc_220_624_Extended_Service_Request__Create_Bearer_Request_while_waiting_for_Initial_Context_Setup_Response.LW
p143
aVtc_52_11_inter_old_neg_forwSRNScont_ack.LW
p144
aVtc_52_54_reloc_wf_forw_rel_resp_interrupted_by_iu_release.LW
p145
aVtc_52_12_inter_old_relocation_cancel_no_response.LW
p146
aVtc_194_991_downlink_A21_AIS_during_waiting_location_report__idr_flags_ef.LW
p147
aVtc_257_10_pws_etws_write_replace_warning_request_feature_off.LW
p148
aVtc_23_13_israu_out.LW
p149
aVtc_103_1101_resending_AIR_interfering_CLR.LW
p150
aVtc_38_65_israu_old_sgsn_interfering_after_acknowledge.LW
p151
aVtc_53_03_inter_new_srns_reloc_no_license.LWG
p152
aVtc_225_616_exp_flow_handover_required_intra_while_wf_modification_context_response.LWG
p153
aVtc_180_02_test_multiple_ip_w.LWG
p154
aVtc_180_03_test_multiple_ip_g_2contexts.LWG
p155
aVtc_244_049_mt_lr_cancel_location_with_subscription_withdraw_received_wf_location_report.LWG
p156
aVtc_39_199_detach_trigger_iu_release_during_reattach.LWG
p157
aVtc_39_601_mas_unsucc_fwd_reloc_resp_mandatory_ie_missing_stop_source.LWG
p158
aVtc_103_1004_secondary_dpl_used_when_all_peers_in_dpl_unavailable_no_sls.LWG
p159
aVtc_51_015_intra_srns_reloc_rau_request_with_invalid_mandatory_info.LWG
p160
aVtc_51_052_reloc_wf_reloc_req_ack_interrupted_by_service_request_signalling_old_rai_new_iu.LWG
p161
aVtc_51_100_intra_srns_reloc_camel.LWG
p162
aVtc_51_014_intra_srns_reloc_t_reloc_rau_timeout.LWG
p163
aVtc_51_019_intra_srns_reloc_no_rau_complete.LWG
p164
aVtc_51_094_reloc_wf_reloc_request_ack_interrupted_by_transfered_attach.LWG
p165
aVtc_52_38_reloc_wf_canc_loc_interrupted_by_rau_on_new_iu_wrong_rai.LWG
p166
aVtc_205_71_03_ss7_M3UA_ASP_counters.LWG
p167
aVtc_205_71_06_ss7_M3UA_SCTP_status.LWG
p168
aVtc_73_41_gtpu_sgsn_dont_send_gpu_echo_request_w.LWG
p169
aVtc_159_200_check_ctum_log.LWG
p170
aVtc_88_001_attach_after_restart.LWG
p171
aVtc_306_255_ef_seamless_move_source_receive_identification_request_v1.LWG
p172
aVtc_44_871_mme_assoc_reestablish__board_block_sbc.LWG
p173
aVtc_181_04_multiple_ip_deconf_iugtp_w.LWG
p174
aVtc_181_01_multiple_ip_deconf_gngtp_traffic_g.LWG
p175
aVtc_304_121_initial_ue_intra_tau_control_mode_threshold_exceeded_usc_detach_wf_release_request_response.LWG
p176
aVtc_50_073_israu_new_sgsn_one_background_pdp_context_48mbit.LWG
p177
aVtc_23_13_israu_out.LWG
p178
aVtc_23_09_transfer_to_primary_and_change_vip_addr.LWG
p179
aVtc_298_317_EF_SIBD_S4_Create_Bearer_Request.LWG
p180
aVtc_11_517_apn_resolution_base_on_imsi_apn_main_flow_by_imsins_req_apn_not_matched.LWG
p181
aVtc_11_383_no_deactivation_by_sdm_after_israu_vplmn_not_allowed.W14b
p182
aVtc_50_002_activate_interactive_16oct_16mbit_fls_and_policy_limit_8mbit.W14b
p183
aVtc_50_022_activate_background_16oct_16mbit_sub_limit_14oct.W14b
p184
aVtc_50_072_activate_interactive_16oct_256mbit_get_16oct_48mbit.W14b
p185
aVtc_298_301_EF_SIBD_S4_Activate_From_MS_TI_Flag.W14b
p186
aVtc_359_030_handover_from_non3gpp_af_feature_off_no_notify_request.W14b
p187
aVtc_359_108_PGW_init_deletion_legacy_with_Notify_UE_false.W14b
p188
aVtc_359_153_handover_to_non3gpp_pgw_change_no_deactivation_then_back_3gpp_same_context.W14b
p189
aVtc_26_066_activate_interactive_2048kbps.W14b
p190
aVtc_26_104_activate_pri_2nd_QosDowngrade_ARP_GGSN_not_support.W14b
p191
aVtc_26_126_paging_ARP.W14b
p192
aVtc_26_200_GGSN_init_PDP_modify_ARP_when_iu_released.W14b
p193
aVtc_314_075_hss_init_qos_mod_ms_init_default_bearer_deac_tdi_false_before_mbfi.W14b
p194
aVtc_314_110_hss_init_qos_modification_apn_ambr_interrupt_by_reset.W14b
p195
aVtc_231_720_apn_resolution_ext_imsins_based_with_ga.W14b
p196
aVtc_334_107_sgw_restart_mf_restoration_trigger_by_ReleaseAccessBearerResponse.W14b
p197
aVtc_313_104_inter_new_srns_reloc_s16_pool_move_in_progress.W14b
p198
aVtc_318_150_sgw_restart_af_invalid_restart_counter.L14b
p199
aVtc_346_374_tau_inter_new_emergency_pdn_type_a.L14b
p200
aVtc_346_449_AF__Intra_TAU_CCA_Update_unknown_session_id_5002.L14b
p201
aVtc_266_210_downlink_data_default_bearer_fails_in_enodeB.L14b
p202
aVtc_43_040_eNB_configuration_update_mf.L14b
p203
aVtc_103_603_georedundant_modify_diameter_peer.L14b
p204
aVtc_44_071_attach_long_imsi.L14b
p205
aVtc_44_871_mme_assoc_reestablish__board_block_sbc.L14b
p206
aVtc_47_001_imsi_attach_ap_loss.L14b
p207
aVtc_47_004_mobile_reachble_timer_ap_loss.L14b
p208
aVtc_202_02_ecm_idle_s1_release.L14b
p209
aVtc_202_420_af_seamless_move_target_initialCtxSetupResponse_noSuccDefaultBearer.L14b
p210
aVtc_202_102_small_restart.L14b
p211
aVtc_326_345_Service_Request_with_unknown_STMSI_GUTI_Reallocation_timeout.L14b
p212
aVtc_262_1055_imsi_attach_with_csg_id_is_rejected.L14b
p213
aVtc_239_620_inter_rau_new_with_bearer_sgw_not_change_isd_odb_bit0_wf_rau_compl_deactivation.WG14a
p214
aVtc_195_416_ue_trace_deactivate_trace_s1_intra_system_handover_triggered.L14b
p215
aVtc_275_206_tau_inter_new_emergency_type_b_restricted_no_rrc_or_active_flag.L14b
p216
aVtc_327_604_Inter_TAU_Recovery__TAU_Request_while_waiting_for_Ue_Backup_Retrieval_Response.L14b
p217
aVtc_203_004_mme_eps_handover_source_inter__no_cancel_location.L14b
p218
aVtc_194_180_hss_reset_with_user_id_list_no_subscriber_impacted.L14b
p219
aVtc_194_991_downlink_A21_AIS_during_waiting_location_report__idr_flags_ef.L14b
p220
aVtc_304_236_isc_active_flag_on_control_mode_threshold_exceeded_ignore_replace_s1_wf_initial_context_setup_response.L14b
p221
aVtc_44_840_mme_assoc_reestablish__device_restart_s1_mme.L14b
p222
aVtc_44_898_mme_assoc_reestablish__downlink_data_on_reestablished_sctp_association.L14b
p223
aVtc_44_890_mme_assoc_reestablish__service_request_on_reestablished_sctp_association.L14b
p224
aVtc_276_045_Inter_TAU_New_MME__S1_Reset_while_waiting_for_Identity_Response__enhanced_imei_check.L14b
p225
aVtc_346_498_Small_Restart__rollback_gauge.L14b
p226
aVtc_346_1014_AF__seamless_move_target_ula_time_out.L14b
p227
aVtc_47_001_imsi_attach_ap_loss.L14b
p228
aVtc_225_616_exp_flow_handover_required_intra_while_wf_modification_context_response.L14b
p229
aVtc_208_43_interception_after_small_restart.G14b
p230
aVtc_297_407_move_at_periodic_rau.G14b
p231
aVtc_84_80_provide_subscriber_locaiton_ef_paging_interrupted_by_attach.G14b
p232
aVtc_26_055_activate_primary_remove_referenced_policy_map.W14b
p233
aVtc_239_620_inter_rau_new_with_bearer_sgw_not_change_isd_odb_bit0_wf_rau_compl_deactivation.WG14a
p234
aVtc_205_71_03_ss7_M3UA_ASP_counters.LWG
p235
aVtc_181_04_multiple_ip_deconf_iugtp_w.LWG
p236
aVtc_181_02_multiple_ip_deconf_iuandgngtp_traffic_w.LWG
p237
aVtc_297_123_inter_rau_new_with_imsi_transfered_s4_roaming_accept.LWG
p238
aVtc_293_040_X2_Based_HO__Downlink_A21_AIS_while_wf_Modify_Bearer_Response.LWG
p239
aVtc_51_025_reloc_wf_reloc_req_ack_interrupted_by_cancel_loc_subscrip_withdrawn.LWG
p240
aVtc_51_002_reloc_attempt_no_licence.LWG
p241
aVtc_51_065_reloc_wf_rau_interrupted_by_target_iu_release.LWG
p242
aVtc_159_200_check_ctum_log.LWG
p243
aVtc_208_500_df3_addr_update_after_invalid_addr.LWG
p244
aVtc_52_24_reloc_wf_canc_loc_interrupted_by_attach_on_new_iu_wrong_rai.LWG
p245
aVtc_305_040_oms_mmi.LWG
p246
aVtc_256_069_mme_eps_srvcc_ho_source_to_geran_cs_only_mf_without_DTM_after_combined_attach_then_combined_tau.LWG
p247
aVtc_326_226_Intra_TAU_Recovery_fail_Authentication_Reject_from_HSS.LWG
p248
aVtc_326_437_Inter_TAU_Recovery_Fail__SGW_Relocation_Create_Session_Fail.LWG
p249
aVtc_44_871_mme_assoc_reestablish__board_block_sbc.LWG
p250
aVtc_50_085_israu_new_sgsn_one_background_pdp_context_84mbit_neg_from_old_128mbit_req.LWG
p251
aVtc_180_03_test_multiple_ip_g_2contexts.LWG
p252
aVtc_180_04_test_multiple_ip_w_2contexts.LWG
p253
aVtc_180_02_test_multiple_ip_w.LWG
p254
aVtc_262_063_attach_tai_not_supported.LWG
p255
aVtc_23_09_transfer_to_primary_and_change_vip_addr.LWG
p256
aVtc_347_103_Inter_HO_Source_to_gn__RAR_while_waiting_for_timer_out.LWG
p257
aVtc_183_005_itc_folder_file_names.LWG
p258
aVtc_179_318_Ccheck_TraceCollectionIpv6server.LWG
p259
aVtc_52_49_inter_old_srns_reloc_main_flow_interfered_by_ggsn_delete.LW
p260
aVtc_51_047_reloc_wf_rau_comp_interrupted_by_service_request_old_rai_new_iu.LW
p261
aVtc_51_069_reloc_wf_reloc_complete_interfered_by_rau_from_target.LW
p262
aVtc_51_090_intra_srns_reloc_wf_rau_req_interrupted_by_instert_subsc.LW
p263
aVtc_51_106_intra_srns_reloc_mocn_enabled_mocn_relocation_allowed_enabled.LW
p264
aVtc_51_107_intra_srns_reloc_ipv4v6_daf_on.LW
p265
aVtc_53_14_inter_new_srns_reloc_t_reloc_rau_timeout1.LW
p266
aVtc_53_102_inter_new_srns_reloc_interfere_service_request_data_new_iu_1.LW
p267
aVtc_12_20_attach_ptmsi_retransmit_security_command.LW
p268
aVtc_44_071_attach_long_imsi.LW
p269
aVtc_44_871_mme_assoc_reestablish__board_block_sbc.LW
p270
aVtc_103_831_DPR_cause_BUSY.LW
p271
aVtc_273_020_tau_intra_normal_idle_active_guti_timestamp_reset.LW
p272
aVtc_324_006_mf_ser_req_signaling_after_ack_3gdt.LW
p273
aVtc_324_239_ef_nas_ignore_update_loc_received_wf_modify_bearer_response.LW
p274
aVtc_262_084_emergency_imsi_attach_unauthentication_fails_in_hss.LW
p275
aVtc_23_09_transfer_to_primary_and_change_vip_addr.LW
p276
aVtc_76_001_deactivate_ggsn_initiated_teardown_I.LW
p277
aVtc_22_036_restart.LW
p278
aVtc_346_360_tau_inter_old_sgw_unchanged_terminate_sx_session.LW
p279
aVtc_32_75_test_transfer_2.LW
p280
aVtc_250_105_ignore_IDR_when_EPS_sub_downgrade_GPRS_sub.LW
p281
aVtc_78_240_not_own_ra_dns_rai_query_success_rau_request_to_new_sgsn_undefined_imsi_reject_with_cause_code_9.LW
p282
aVtc_214_1126_la_selection_mf_oldlapreferred_combined_intra_tau_after_imsi_detach_triggered_by_sgs_paging.LW
p283
aVtc_281_071_conclude_dedicated_bearer_activation_for_interfered_x2_intra_handover.LW
p284
aVtc_196_172_nrspca_during_t3385_when_receive_sgsn_context_ack_not_accepted.LW
p285
aVtc_52_33_reloc_wf_forw_rel_compl_interrupted_by_normal_detach.LW
p286
aVtc_76_015_linked_pdps_ggsn_init_deactivate_ms_replies_with_sm_status.LW
p287
aVtc_241_752_W2W_GnSGSN_to_S4SGSN_one_pdp_arp_higher_than_policymap_sysprop_deactivate_pdp_after_tau_on.LW
p288
aVtc_276_045_Inter_TAU_New_MME__S1_Reset_while_waiting_for_Identity_Response__enhanced_imei_check.LW
p289
aVtc_12_181_wcdma_repeat_paging_step_60_worker_parks.LW
p290
aVtc_194_081_cl_subscription_withdrawn_during_auth.LW
p291
aVtc_44_071_attach_long_imsi.LW
p292
aVtc_44_871_mme_assoc_reestablish__board_block_sbc.LW
p293
aVtc_53_42_inter_new_srns_reloc_ef_reset2.LW
p294
aVtc_53_70_inter_new_srns_reloc_interfere_rau_request_same_req_same_iu.LW
p295
aVtc_53_144_sm_status_during_relocation.LW
p296
aVtc_53_54_inter_new_srns_reloc_ef_reset_1_pdp_wf_rab_delete_response.LW
p297
aVtc_342_910_six_x3_address.LW
p298
aVtc_260_272_receive_sm_stop_req_while_wf_setup_iteration.LW
p299
aVtc_306_1213_ef_seamless_move_target_receive_s1_setup_wf_icsr_and_ulr.LW
p300
aVtc_214_1028_la_selection_af_oldlapreferred_combined_intra_tau_without_old_la.L14b
p301
aVtc_347_135_Seamless_Move_Target__Identification_Request_v1_while_waiting_for_CCA_initial.L14b
p302
aVtc_194_187_hss_reset_after_large_restart_with_full_imsi.L14b
p303
aVtc_194_991_downlink_A21_AIS_during_waiting_location_report__idr_flags_ef.L14b
p304
aVtc_43_040_eNB_configuration_update_mf.L14b
p305
aVtc_202_01_ecm_connected_s1_release.L14b
p306
aVtc_244_806_mt_lr_donwlink_generic_nas_transport_meanwhile_handover_required_HO_success.L14b
p307
aVtc_103_1101_resending_AIR_interfering_CLR.L14b
p308
aVtc_44_898_mme_assoc_reestablish__downlink_data_on_reestablished_sctp_association.L14b
p309
aVtc_44_871_mme_assoc_reestablish__board_block_sbc.L14b
p310
aVtc_44_881_mme_assoc_reestablish_unsuccessful__abort_sbc.L14b
p311
aVtc_276_045_Inter_TAU_New_MME__S1_Reset_while_waiting_for_Identity_Response__enhanced_imei_check.L14b
p312
aVtc_326_622_S6a_Throttling_Service_Request_recovery_UL_successful_and_Emergency_Attach_not_throttled.L14b
p313
aVtc_166_154_israu_rau_new_rnc_non_3gdt_compliant.WG14a
p314
aVtc_166_334_activate_fail_interrupted_by_deactivate_req_when_updating_in_GGSN.WG14a
p315
aVtc_204_154_inter_s1ho_target_HeNB_emergency_type_d_csg_id.LWG
p316
aVtc_205_71_03_ss7_M3UA_ASP_counters.LWG
p317
aVtc_329_003_attach_rs_allowed_emergency_plmn_change_ula_fails.LWG
p318
aVtc_208_43_interception_after_small_restart.LWG
p319
aVtc_78_053_intra_rau_intra_plmn_accept_home_ms.LWG
p320
aVtc_322_170_smooth_move_ef_gr_cli_delete_subscriber_data_wf_frr.LWG
p321
aVtc_61_14_ongoing_hanging_in_155.LWG
p322
aVtc_61_10_two_sr_and_suspend.LWG
p323
aVtc_180_01_test_multiple_ip_g.LWG
p324
aVtc_180_03_test_multiple_ip_g_2contexts.LWG
p325
aVtc_180_04_test_multiple_ip_w_2contexts.LWG
p326
aVtc_180_02_test_multiple_ip_w.LWG
p327
aVtc_262_123_emergency_attach_type_d_imei_check_answer_unknown_before_accept_ire_false.LWG
p328
aVtc_196_172_nrspca_during_t3385_when_receive_sgsn_context_ack_not_accepted.LWG
p329
aVtc_159_200_check_ctum_log.LWG
p330
aVtc_241_431_intra_rau_with_bearer_sgw_unchange_2_pdns_with_one_modify_no_response.LWG
p331
aVtc_241_801_israu_interfering_context_request_no_cancel_location_s4.LWG
p332
aVtc_73_21_itc_gtpu_s4_sgsn_send_echo_request_w.LWG
p333
aVtc_44_871_mme_assoc_reestablish__board_block_sbc.LWG
p334
aVtc_243_120_tau_from_sgsn_s3_modify_bearer_response_partially_accepted.LWG
p335
aVtc_53_143_inter_new_srns_reloc_background_rab_not_allocated_in_target_rnc.LWG
p336
aVtc_298_145_EF_NRSPCA_interfere_Activation.LWG
p337
aVtc_324_424_ef_payload_buffered_wf_security_mode_complete_payload_different_contextId.LWG
p338
aVtc_74_018_oms_mmi.LWG
p339
aVtc_271_004_sctp_paging_olp_verify_olp_paging_counter.LWG
p340
aVtc_63_8_stop_timer_when_timeout_received.LWG
p341
aVtc_263_321_Attach_Flow__Attach_Request_Different_IEs_IP_OK_while__waiting_for_combined_attach_response.LWG
p342
aVtc_220_601_csfb_to_1xrtt_initial_ue_message_interfere_tau_intra.LWG
p343
aVtc_181_02_multiple_ip_deconf_iuandgngtp_traffic_w.LWG
p344
aVtc_181_01_multiple_ip_deconf_gngtp_traffic_g.LWG
p345
aVtc_62_2_call_in_startphase_continue.LWG
p346
aVtc_12_512_pmm_undefined_attach_when_updating_location_interfered_by_rnc_reset.W14b
p347
aVtc_322_161_smooth_move_ef_nas_after_paging_response_ignore.W14b
p348
aVtc_31_064_activate_loc_not_confirmed_ul_fails_network_failure.W14b
p349
aVtc_39_187_detach_trigger_re_attach_new_iu.W14b
p350
aVtc_245_301_inter_rau_insert_entry_into_interface_cache.W14b
p351
aVtc_103_701_MME_restarts.LW
p352
aVtc_51_004_intra_srns_reloc_target_nrr_restricted.LW
p353
aVtc_51_025_reloc_wf_reloc_req_ack_interrupted_by_cancel_loc_subscrip_withdrawn.LW
p354
aVtc_51_042_reloc_wf_reloc_comp_interrupted_by_target_rnc_reset.LW
p355
aVtc_51_057_reloc_wf_reloc_request_ack_interfered_by_attach_on_new_iu_wrong_rai.LW
p356
aVtc_51_075_intra_srns_reloc_wf_reloc_req_ack_interrupted_by_activate_req.LW
p357
aVtc_51_083_intra_srns_reloc_wf_rau_req_interrupted_by_update_req.LW
p358
aVtc_51_044_reloc_wf_rau_compl_interrupted_by_target_rnc_reset.LW
p359
aVtc_44_004_small_restart__sctp_fe_restart.LW
p360
aVtc_44_871_mme_assoc_reestablish__board_block_sbc.LW
p361
aVtc_214_1099_la_selection_mf_reselection_combined_tau_with_imsi_attach_after_mme_triggered_imsi_detach_when_handling_sgs_paging.LW
p362
aVtc_307_010_HSS_Init_QoS_Modification__UEAMBR_Changed_When_2PDN_CONNECTED.LW
p363
aVtc_194_991_downlink_A21_AIS_during_waiting_location_report__idr_flags_ef.LW
p364
aVtc_195_208_mme_logging_maximum_modify_eps_bearer_context.LW
p365
aVtc_195_532_mme_logging_ue_unrechable.LW
p366
aVtc_53_12_inter_new_srns_reloc_gtp_failure.LW
p367
aVtc_53_125_inter_new_srns_reloc_interfere_identification_response_same_iu.LW
p368
aVts_53_149_inter_new_srns_reloc_inter_old_srns_reloc.LW
p369
aVtc_76_008_ms_init_deactivation_tdi_ggsn_deactivate_other_nsapi.LW
p370
aVtc_52_10_inter_old_relocation_cancel_later.LW
p371
aVtc_52_42_inter_old_srns_reloc_main_flow_interfered_by_mt_sms.LW
p372
aVtc_52_36_reloc_wf_forw_rel_resp_interrupted_by_rau_on_new_iu_wrong_rai.LW
p373
aVtc_218_311_tau_from_sgsn_preserved_gbr_bearer_buffer_1_ubr_1_cbr.LW
p374
aVtc_203_108_S1_Based_HO_Source_MME_TAU_Request_while_waiting_for_Forward_Relocation_Complete_Notification.LW
p375
aVtc_311_204_intra_srns_reloc_s4_sgw_change_wf_reloc_req_ack_interrupted_by_cancel_loc_subscrip_withdrawn.W14b
p376
aVtc_248_122_inter_l_to_w_new_detach_request_direct_transfer_received_wf_forward_relocation_complete_ack.W14b
p377
aVtc_12_4_attach_ptmsi_signalling_connection_release.W14b
p378
aVtc_12_512_pmm_undefined_attach_when_updating_location_interfered_by_rnc_reset.W14b
p379
aVtc_180_03_test_multiple_ip_g_2contexts.LWG
p380
aVtc_180_01_test_multiple_ip_g.LWG
p381
aVtc_180_04_test_multiple_ip_w_2contexts.LWG
p382
aVtc_326_217_Intra_TAU_Recovery_with_active_flag_two_PDN_partial_fail.LWG
p383
aVtc_326_242_Intra_TAU_Recovery_Initial_Context_Setup_timeout.LWG
p384
aVtc_326_218_Intra_TAU_Recovery_two_PDN_partial_fail.LWG
p385
aVtc_326_267_Intra_TAU_with_unknown_GUTI_Restriction_2_pdn_SAU_license_limit_reached.LWG
p386
aVtc_326_219_Intra_TAU_Recovery_then_rim_source_mme_gn_sgsn_selection_table_not_matched_dns_query_success.LWG
p387
aVtc_257_13_pws_etws_write_replace_warning_request_license_off.LWG
p388
aVtc_262_904_attach_apnredirectforsingleapn_reject_no_apn.LWG
p389
aVtc_220_594_csfb_to_1xrtt_subscription_cancelled_during_ecm_idle_extended_service_request.LWG
p390
aVtc_289_017_Modify_bearer__ERAB_modify_request_meanwhile_path_switch_request_HO_success.LWG
p391
aVtc_289_031_Modify_bearer__Downlink_nas_transport_meanwhile_path_switch_request_HO_success.LWG
p392
aVtc_52_04_inter_old_srns_reloc_one_unstable_context.LWG
p393
aVtc_52_41_reloc_wf_canc_loc_interfered_by_rau_on_new_iu.LWG
p394
aVtc_183_005_itc_folder_file_names.LWG
p395
aVtc_179_010_Ccheck_router_instance.LWG
p396
aVtc_179_028_Ccheck_ipsec_sa.LWG
p397
aVtc_179_020_Ccheck_ip_network_subnet.LWG
p398
aVtc_179_072_Ccheck_route_export_source.LWG
p399
aVtc_179_054_Ccheck_inbound_pf_rule.LWG
p400
aVtc_179_112_Ccheck_inbound_pf_rule.LWG
p401
aVtc_179_156_Ccheck_router_instance.LWG
p402
aVtc_179_196_Ccheck_ip_interface.LWG
p403
aVtc_179_274_Ccheck_dns_server.LWG
p404
aVtc_23_09_transfer_to_primary_and_change_vip_addr.LWG
p405
aVtc_51_013_intra_srns_reloc_t_reloc_complete_intra_timeout.LWG
p406
aVtc_51_015_intra_srns_reloc_rau_request_with_invalid_mandatory_info.LWG
p407
aVtc_51_043_reloc_wf_rau_req_interrupted_by_target_rnc_reset.LWG
p408
aVtc_51_068_reloc_interfered_by_rau.LWG
p409
aVtc_51_097_reloc_wf_update_location_response_interfered_by_rau_on_new_iu.LWG
p410
aVtc_51_016_intra_srns_reloc_update_location_failed_service_not_allowed.LWG
p411
aVtc_51_028_reloc_wf_reloc_compl_interrupted_by_cancel_loc_update_procedure.LWG
p412
aVtc_51_085_intra_srns_reloc_wf_reloc_req_ack_interrupted_by_sm_status.LWG
p413
aVtc_194_084_hss_reset_after_large_restart.LWG
p414
aVtc_60_4_small_restart_during_hlr_reset.LWG
p415
aVtc_209_18_target_info_query.LWG
p416
aVtc_209_106_dual_stack_not_supported_ipv4_ipv4v6.LWG
p417
aVtc_666_06_block_rt_board.LWG
p418
aVtc_214_1140_la_selection_mf_oldlapreferred_prau_during_ue_restoration.LWG
p419
aVtc_327_009_recovery_intra_TAU__uplink_Attach_Request_while_waiting_for_Modify_Bearer_Response.LWG
p420
aVtc_327_016_recovery_intra_TAU__uplink_Detach_Request_while_waiting_for_Identity_Response.LWG
p421
aVtc_236_041_s4_3gdt_detach_modify_bearer_response_reject_in_active_procedure.LWG
p422
aVtc_236_181_hard_ho_intra_rau_with_3gdt_wf_release_access_bearer_resp_si_cancel_location_update.LWG
p423
aVtc_181_02_multiple_ip_deconf_iuandgngtp_traffic_w.LWG
p424
aVtc_329_055_attach_rs_restricted_unknown_guti.LWG
p425
aVtc_159_200_check_ctum_log.LWG
p426
aVtc_53_30_inter_new_srns_reloc_wf_rau_req_interrupted_by_sm_status.LWG
p427
aVtc_205_71_03_ss7_M3UA_ASP_counters.LWG
p428
aVtc_205_71_08_SCTP_OctetsChunksSent.LWG
p429
aVtc_05_012_gprs_imsi_attach_ms97_usim_gea2.LWG
p430
aVtc_273_506_TAU_intra_SGW_unavailable__DNS_no_response.LWG
p431
aVtc_103_301_diameter_peer_change_ip.L14b
p432
aVtc_329_310_s1_inter_ho_target_rs_restricted.L14b
p433
aVtc_346_351_SAPC_Restart_Detected_in_CCA_Initial_PDN_Connectivity_same_UE.L14b
p434
aVtc_327_600_Inter_TAU_Recovery__Attach_Request_IMSI_while_waiting_for_ue_backup_retrieval_Response.L14b
p435
aVtc_304_114_initial_ue_intra_tau_control_mode_threshold_exceeded_usc_ignore_replace_s1.L14b
p436
aVtc_256_147_mme_eps_srvcc_ho_source_cs_only_emergency_downlink_data_notification_wf_delete_bearer_request.L14b
p437
aVtc_43_040_eNB_configuration_update_mf.L14b
p438
aVtc_204_252_mme_eps_ho_target_imei_check_answer_unknown_equipment_before_tau_accept.L14b
p439
aVtc_44_841_mme_assoc_reestablish__device_restart_sbc.L14b
p440
aVtc_44_850_mme_assoc_reestablish__board_restart_s1_mme.L14b
p441
aVtc_44_871_mme_assoc_reestablish__board_block_sbc.L14b
p442
aVtc_194_815_isd_private_extension_of_lzone_from_lzone_to_none_followed_by_pdn_connectivity_request.L14b
p443
aVtc_194_991_downlink_A21_AIS_during_waiting_location_report__idr_flags_ef.L14b
p444
a.