(lp0
Vtc_194_084_hss_reset_after_large_restart.L14b
p1
aVtc_194_144_attach_ul_fails_unable_to_comply.L14b
p2
aVtc_194_172_hss_reset_ue_activity_pdn_connectivity_request.L14b
p3
aVtc_194_182_hss_reset_ue_activity_tau_request_after_handover.L14b
p4
aVtc_194_991_downlink_A21_AIS_during_waiting_location_report__idr_flags_ef.L14b
p5
aVtc_266_026_DownlinkDataFailureInd_repeat_paging_timer_small_local_restart.L14b
p6
aVtc_276_045_Inter_TAU_New_MME__S1_Reset_while_waiting_for_Identity_Response__enhanced_imei_check.L14b
p7
aVtc_214_048_combined_tau_inter_new_interfering_s1_reset.L14b
p8
aVtc_214_806_mo_sms_active_donwlink_nas_transport_meanwhile_handover_required_HO_success.L14b
p9
aVtc_214_1080_la_selection_af_oldmscpreferred_combined_intra_tau_la_with_old_msc_not_available.L14b
p10
aVtc_237_032_mme_eps_irat_ho_source__service_request_after_cancel_location_req.L14b
p11
aVtc_103_831_DPR_cause_BUSY.L14b
p12
aVtc_103_009_prioritized_peer_realm_routing_rule_not_handled_by_peer.L14b
p13
aVtc_295_124_tau_after_ho_tz_change_emm_information_meanwhile_handover_required_HO_success.L14b
p14
aVtc_295_136_mo_call_during_s1_ho_tau_request_when_wf_handover_notify.L14b
p15
aVtc_193_404_auth_vectors_answer_from_hss_with_0_vectors.L14b
p16
aVtc_284_351_pdn_connectivity_pb_activate_1_dedicated_bearer_interrupted_by_path_switch_request.L14b
p17
aVtc_225_312_mt_call_active_mode_nas_non_delivery__s1_intra_system_handover_triggered_resend_2_times.L14b
p18
aVtc_43_040_eNB_configuration_update_mf.L14b
p19
aVtc_47_003_unstable_ue_ap_loss.L14b
p20
aVtc_329_310_s1_inter_ho_target_rs_restricted.L14b
p21
aVtc_273_684_tau_intra_SGW_unavailable_active_flag_off_after_MME_large_restart__create_session_partition_fail.LWG
p22
aVtc_67_006_ms_initiated_xid_negotiation_of_ack_mode_parameters.LWG
p23
aVtc_193_188_Ciphering__IMSI_Attach_UE_Supports_EIA1__MME_Supports_EIA2.LWG
p24
aVtc_78_003_imsi_attach_redirection_cause_11.LWG
p25
aVtc_231_173_ms_init_detach_interfered_by_cancel_location_withdraw.LWG
p26
aVtc_58_3_stat_to_dyn_1.LWG
p27
aVtc_23_09_transfer_to_primary_and_change_vip_addr.LWG
p28
aVtc_181_04_multiple_ip_deconf_iugtp_w.LWG
p29
aVtc_181_01_multiple_ip_deconf_gngtp_traffic_g.LWG
p30
aVtc_181_02_multiple_ip_deconf_iuandgngtp_traffic_w.LWG
p31
aVtc_159_200_check_ctum_log.LWG
p32
aVtc_194_080_cl_update_procedure_during_auth.LWG
p33
aVtc_194_124_cli_delete_subscriber_msisdn_reattach_required.LWG
p34
aVtc_213_065_nrspca_with_limit_of_pdp_context_is_exceeded_uplink.LWG
p35
aVtc_208_43_interception_after_small_restart.LWG
p36
aVtc_73_14_itc_paging_and_store_of_dl_packets_gtp99.LWG
p37
aVtc_73_19_itc_gtpu_s4_sgsn_send_error_indication_w.LWG
p38
aVtc_326_219_Intra_TAU_Recovery_then_rim_source_mme_gn_sgsn_selection_table_not_matched_dns_query_success.LWG
p39
aVtc_326_311_Service_Request_with_unknown_STMSI_large_restart_sgs_then_csfb_to_UTRAN.LWG
p40
aVtc_666_06_block_rt_board.LWG
p41
aVtc_294_352_intra_handover_with_sgw_relocation_2_pdns_one_fail_in_modify.LWG
p42
aVtc_313_012_inter_new_srns_reloc_s16_with_sgw_change_two_pdns_with_dedicate_bearer_setup_rabs_one_pdn_failed.LWG
p43
aVtc_65_009_sndcp_pm_counters_comp_decomp.LWG
p44
aVtc_260_213_receive_sm_stop_req_while_wf_m3_start_resp.LWG
p45
aVtc_192_005_oms_start_own_nri.LWG
p46
aVtc_324_386_ef_mt_sms_wf_frcn_wf_frca_wf_ula.LWG
p47
aVtc_195_416_ue_trace_deactivate_trace_s1_intra_system_handover_triggered.LWG
p48
aVtc_99_103_inter_g_to_w_new_reloc_cancel_req1.LWG
p49
aVtc_318_156_sgw_restart_af_no_createSessionResponse.LWG
p50
aVtc_63_6_timeout_during_SR.LWG
p51
aVtc_44_871_mme_assoc_reestablish__board_block_sbc.LWG
p52
aVtc_205_71_03_ss7_M3UA_ASP_counters.LWG
p53
aVtc_15_115_inter_old_sgsn_interupted_by_returning_ms.LWG
p54
aVtc_238_216_mme_eps_irat_ho_target__tz_not_set_sz_set_report_para_off.LWG
p55
aVtc_76_032_sgsn_initiated_modification_ggsn_delete_during_rnc_modify.LWG
p56
aVtc_180_04_test_multiple_ip_w_2contexts.LWG
p57
aVtc_180_02_test_multiple_ip_w.LWG
p58
aVtc_180_03_test_multiple_ip_g_2contexts.LWG
p59
aVtc_180_01_test_multiple_ip_g.LWG
p60
aVtc_06_093_apnresolving_default_apn_foreign_vplmn_no.LWG
p61
aVtc_202_41_type_a_emergency_pdn_ecm_idle.LWG
p62
aVtc_218_311_tau_from_sgsn_preserved_gbr_bearer_buffer_1_ubr_1_cbr.LWG
p63
aVtc_327_013_recovery_intra_TAU__initial_Attach_Request_while_waiting_for_Create_Session_Response.LWG
p64
aVtc_327_113_recovery_intra_TAU__Insert_Subscriber_Data_while_waiting_for_Identity_Response.LWG
p65
aVtc_327_165_recovery_intra_TAU_Context_Request_while_waiting_for_Initial_Context_Setup_Response.LWG
p66
aVtc_179_314_Ccheck_bfd_ipv6neighbor.LWG
p67
aVtc_179_344_Ccheck_itc_filter.LWG
p68
aVtc_179_403_Ccheck_ipsec_ipv6sa.LWG
p69
aVtc_232_401_bfd__ipv4_alarm.LWG
p70
aVtc_231_217_PGW_Init_Modification_AF_Receive_Negative_RabAssignmentResponse.W14b
p71
aVtc_39_187_detach_trigger_re_attach_new_iu.W14b
p72
aVtc_31_038_attach_ul_fails_semantic_error_when_data_not_confirmed.W14b
p73
aVtc_76_022_deactivate_ggsn_initiated_rab_released_ms_detach_request.LW
p74
aVtc_275_118_tau_inter_new_emergency_erroneous_ie_authenticated_no_imsi.LW
p75
aVtc_39_601_mas_unsucc_fwd_reloc_resp_mandatory_ie_missing_stop_source.LW
p76
aVtc_52_25_reloc_wf_forw_rel_resp_interrupted_by_attach_on_source_iu.LW
p77
aVtc_52_61_reloc_wf_forw_rel_resp_interrupted_by_sgsn_context_request.LW
p78
aVtc_326_800_Service_Request_with_unknown_STMSI_default_bearer_fail_to_setup_Spontaneous_UL_failed_skip_SubData.LW
p79
aVtc_304_263_tau_from_gnsgsn_when_wf_tau_complete_control_mode_reject_congestion.LW
p80
aVtc_289_047_Modify_bearer__ERAB_modify_response_s1_intra_system_handover_triggered_activate_dedicated_bearer_one_pdn_multiple_bearer.LW
p81
aVtc_289_101_multi_pdn_pgw_init_bearer_mod_wf_service_interrupted_by_dbr_with_lbi.LW
p82
aVtc_324_239_ef_nas_ignore_update_loc_received_wf_modify_bearer_response.LW
p83
aVtc_44_071_attach_long_imsi.LW
p84
aVtc_316_298_GUTI_Attach_Known_Large_Restart_Broadcast_Force_Delete_Among_Pool.LW
p85
aVtc_53_24_inter_new_srns_reloc_dp_release.LW
p86
aVtc_53_135_inter_new_ggsn_increase_qos.LW
p87
aVts_53_149_inter_new_srns_reloc_inter_old_srns_reloc.LW
p88
aVtc_53_151_inter_new_srns_reloc_camel.LW
p89
aVtc_53_20_inter_new_srns_reloc_ggsn_update_failed.LW
p90
aVtc_194_079_cl_subscription_withdrawn_during_ul.LW
p91
aVtc_194_991_downlink_A21_AIS_during_waiting_location_report__idr_flags_ef.LW
p92
aVtc_26_155_activate_secondary_pdp_with_upgradeAllowed.W14b
p93
aVtc_38_81_intra_rau_new_rnc_with_authentication_no_ptmsi_signature.W14b
p94
aVtc_11_091_activate_secondary_pdp_context_wrong_LinkedTI.W14b
p95
aVtc_11_195_ms_initiated_modification_nonexisting_context_sm_status.W14b
p96
aVtc_06_232_ggsn_init_deactivation_prim_tdi_undef.G14b
p97
aVtc_218_311_tau_from_sgsn_preserved_gbr_bearer_buffer_1_ubr_1_cbr.LW
p98
aVtc_53_02_inter_new_srns_reloc_main_flow_min.LW
p99
aVtc_52_04_inter_old_srns_reloc_one_unstable_context.LW
p100
aVtc_52_28_inter_old_srns_reloc_main_flow_canc_loc_sub_withd.LW
p101
aVtc_52_34_reloc_wf_forw_rel_resp_interrupted_by_detach_power_off.LW
p102
aVtc_52_64_inter_old_srns_target_rai_unknown.LW
p103
aVtc_202_40_emergency_pdn_ecm_connected.LW
p104
aVtc_202_102_small_restart.LW
p105
aVtc_241_801_israu_interfering_context_request_no_cancel_location_s4.LW
p106
aVtc_28_050_mo_sms_homer_no_block_redirection.LW
p107
aVtc_281_072_conclude_dedicated_bearer_activation_for_interfered_s1_intra_handover_multiple_erabs.LW
p108
aVtc_51_049_reloc_wf_rau_comp_interrupted_by_service_request_new_rai.LW
p109
aVtc_51_075_intra_srns_reloc_wf_reloc_req_ack_interrupted_by_activate_req.LW
p110
aVtc_51_076_intra_srns_reloc_wf_reloc_req_ack_interrupted_by_modify_req.LW
p111
aVtc_51_112_intra_srns_reloc_2_plmn_2.LW
p112
aVtc_51_106_intra_srns_reloc_mocn_enabled_mocn_relocation_allowed_enabled.LW
p113
aVtc_304_236_isc_active_flag_on_control_mode_threshold_exceeded_ignore_replace_s1_wf_initial_context_setup_response.LW
p114
aVtc_293_040_X2_Based_HO__Downlink_A21_AIS_while_wf_Modify_Bearer_Response.LW
p115
aVtc_250_105_ignore_IDR_when_EPS_sub_downgrade_GPRS_sub.LW
p116
aVts_336_005_access_request__detach_request_while_waiting_for_eab_wifi_decision_response.LW
p117
aVtc_276_045_Inter_TAU_New_MME__S1_Reset_while_waiting_for_Identity_Response__enhanced_imei_check.LW
p118
aVtc_44_850_mme_assoc_reestablish__board_restart_s1_mme.LW
p119
aVtc_273_005_tau_intra_deregistered.LW
p120
aVtc_39_601_mas_unsucc_fwd_reloc_resp_mandatory_ie_missing_stop_source.LW
p121
aVtc_197_723_apn_oi_replacement_pdn_connectivity_succ_first_local_breakout_fail_then_try_apn_oi_replacement.LW
p122
aVtc_205_71_03_ss7_M3UA_ASP_counters.LWG
p123
aVtc_273_671_tau_intra_SGW_unavailable_active_flag_off_after_MME_large_restart__with_emergency_PDN.LWG
p124
aVtc_273_681_tau_intra_SGW_unavailable_active_flag_off_after_MME_large_restart__two_pdn_one_timeout.LWG
p125
aVtc_180_01_test_multiple_ip_g.LWG
p126
aVtc_180_04_test_multiple_ip_w_2contexts.LWG
p127
aVtc_180_02_test_multiple_ip_w.LWG
p128
aVtc_53_402_inter_new_rau_after_2nd_srns_reloc_when_wf_20s_timeout.LWG
p129
aVtc_76_017_deactivate_ggsn_initiated.LWG
p130
aVtc_166_428_rnc_initiated_rab_release_interfered_by_rnc_initiated_iu_release_request.LWG
p131
aVtc_322_126_smooth_move_ef_cancel_location_initialAttach_wf_cancel_location.LWG
p132
aVtc_666_02_reboot_ss7_board.LWG
p133
aVtc_666_06_block_rt_board.LWG
p134
aVtc_179_054_Ccheck_inbound_pf_rule.LWG
p135
aVtc_179_067_Ccheck_route_export_destination.LWG
p136
aVtc_179_143_Ccheck_static_route.LWG
p137
aVtc_179_089_Ccheck_dns.LWG
p138
aVtc_179_133_Ccheck_ipsec_sa.LWG
p139
aVtc_179_157_Ccheck_ip_interface.LWG
p140
aVtc_179_163_Ccheck_eth_port.LWG
p141
aVtc_179_312_Ccheck_ntp_ipv6server.LWG
p142
aVtc_179_315_Ccheck_bfd_ipv6neighbor.LWG
p143
aVtc_179_307_Ccheck_static_ipv6route.LWG
p144
aVtc_183_005_itc_folder_file_names.LWG
p145
aVtc_324_006_mf_ser_req_signaling_after_ack_3gdt.LWG
p146
aVtc_260_001_m3_setup_request_no_mce_name.LWG
p147
aVtc_44_871_mme_assoc_reestablish__board_block_sbc.LWG
p148
aVtc_12_134_attach_with_extended_mmumoc_iu_inactivity_timer.LWG
p149
aVtc_08_021_fragment_gn_gb_packet.LWG
p150
aVtc_59_1_ptmsi_allocate_release.LWG
p151
aVtc_59_4_ntmis_allocate_release_storm.LWG
p152
aVtc_69_006_bssgp_pm_counters_bss_pfc.LWG
p153
aVtc_256_011_mme_eps_srvcc_ho_source_cs_only_mf_with_rau_to_gn_sgsn_for_multi_voice_bearers_in_multi_pdns.LWG
p154
aVtc_250_67_s6d_activation_with_EPS_data_s4_license_off.LWG
p155
aVtc_327_164_recovery_intra_TAU_Context_Request_while_waiting_for_Modify_Bearer_Response.LWG
p156
aVtc_327_153_recovery_intra_TAU_Delete_Bearer_Request_while_waiting_for_Modify_Bearer_Response.LWG
p157
aVtc_103_831_DPR_cause_BUSY.LWG
p158
aVtc_103_1102_fallback_to_imsins_success.LWG
p159
aVtc_65_006_negotiation_of_header_and_data_compression.LWG
p160
aVtc_159_200_check_ctum_log.LWG
p161
aVtc_220_213_csfb_to_1xrtt_in_ecm_connected_tau_request_wf_suspend_response.LWG
p162
aVtc_220_593_csfb_to_1xrtt_context_request_during_extended_service_request.LWG
p163
aVtc_193_029_auth_failure_non_consecutive_synch_failures.LWG
p164
aVtc_231_173_ms_init_detach_interfered_by_cancel_location_withdraw.LWG
p165
aVtc_236_234_Inter_RAU_S4_over_S3_target_DtSelMode_3_APN_not_in_APN_list_TAC_in_TAC_list.LWG
p166
aVtc_326_216_Intra_TAU_Recovery_combined_type_Location_Update_Reject.LWG
p167
aVtc_326_217_Intra_TAU_Recovery_with_active_flag_two_PDN_partial_fail.LWG
p168
aVtc_326_241_Intra_TAU_Recovery_Initial_Context_Setup_fail.LWG
p169
aVtc_326_267_Intra_TAU_with_unknown_GUTI_Restriction_2_pdn_SAU_license_limit_reached.LWG
p170
aVtc_05_016_gprs_imsi_attach_gea4_supported_by_ms_gea3_choosen.LWG
p171
aVtc_23_09_transfer_to_primary_and_change_vip_addr.LWG
p172
aVtc_38_177_own_ra_nri_query_fail_imsi_defined_having_context.LWG
p173
aVtc_194_506_Notification_during_Intra_MME_TAU_without_SGW_Relocation_Procedure.LWG
p174
aVtc_27_013_mt_sms_update_location_after_large_restart.LWG
p175
aVtc_259_53_isd_s4_umts_pmmidl_act_deact_service_req.LWG
p176
aVtc_195_208_mme_logging_maximum_modify_eps_bearer_context.LWG
p177
aVtc_257_13_pws_etws_write_replace_warning_request_license_off.L14b
p178
aVtc_262_203_guti_attach_when_unauthenticated_attached.L14b
p179
aVtc_265_160_Detach_Flow_NW_init__Ue_moved_to_non_3gpp_while_imsi_detach.L14b
p180
aVtc_276_045_Inter_TAU_New_MME__S1_Reset_while_waiting_for_Identity_Response__enhanced_imei_check.L14b
p181
aVtc_43_040_eNB_configuration_update_mf.L14b
p182
aVtc_273_167_tau_intra_periodic_connected.L14b
p183
aVtc_194_506_Notification_during_Intra_MME_TAU_without_SGW_Relocation_Procedure.L14b
p184
aVtc_318_150_sgw_restart_af_invalid_restart_counter.L14b
p185
aVtc_44_841_mme_assoc_reestablish__device_restart_sbc.L14b
p186
aVtc_44_850_mme_assoc_reestablish__board_restart_s1_mme.L14b
p187
aVtc_44_880_mme_assoc_reestablish_unsuccessful__abort_s1_mme.L14b
p188
aVtc_326_252_Intra_TAU_Recovery_after_node_restart_then_pool_move.L14b
p189
aVtc_220_413_csfb_to_1xrtt_in_ecm_connected_handover_required_meanwhile_CBR_received.L14b
p190
aVtc_103_003_destination_host_is_not_peer_and_not_in_same_realm.L14b
p191
aVtc_329_310_s1_inter_ho_target_rs_restricted.L14b
p192
aVtc_327_012_recovery_intra_TAU__initial_Attach_Request_while_waiting_for_Ue_Backup_Response.L14b
p193
aVtc_225_315_mt_call_active_mode_nas_non_delivery__cs_service_notification_meanwhile_handover_required.L14b
p194
aVtc_225_416_recv_service_while_waiting_extended_service_request.L14b
p195
aVtc_273_651_tau_intra_periodic_SGW_unavailable_after_MME_large_restart__with_emergency_PDN.LWG
p196
aVtc_273_682_tau_intra_SGW_unavailable_active_flag_off_after_MME_large_restart__two_pdn_one_fail.LWG
p197
aVtc_220_212_csfb_to_1xrtt_in_ecm_connected_tau_request_wf_delete_gbr_bearer_response.LWG
p198
aVtc_220_420_csfb_to_1xrtt_ue_return_with_service_request_SGW_unavailable.LWG
p199
aVtc_23_09_transfer_to_primary_and_change_vip_addr.LWG
p200
aVtc_05_023_gprs_imsi_attach_rejected_due_to_imsi_not_known.LWG
p201
aVtc_88_001_attach_after_restart.LWG
p202
aVtc_159_200_check_ctum_log.LWG
p203
aVtc_39_601_mas_unsucc_fwd_reloc_resp_mandatory_ie_missing_stop_source.LWG
p204
aVtc_214_1141_la_selection_mf_oldmscpreferred_prau_during_ue_restoration.LWG
p205
aVtc_346_1011_AF__seamless_move_target_2pdn_one_receive_diameter_cause_5003.LWG
p206
aVtc_210_043_attach_reject_imsi_cc_17.LWG
p207
aVtc_193_064_attach_plain_nas.LWG
p208
aVtc_193_144_service_req_detachnormal_during_auth_ue.LWG
p209
aVtc_193_188_Ciphering__IMSI_Attach_UE_Supports_EIA1__MME_Supports_EIA2.LWG
p210
aVtc_232_403_bfd__ipv4ipv6_alarm.LWG
p211
aVtc_180_03_test_multiple_ip_g_2contexts.LWG
p212
aVtc_180_01_test_multiple_ip_g.LWG
p213
aVtc_208_43_interception_after_small_restart.LWG
p214
aVtc_326_207_Intra_TAU_Recovery_with_1xrtt_cs_registration_then_CSFB_to_1xrtt.LWG
p215
aVtc_326_241_Intra_TAU_Recovery_Initial_Context_Setup_fail.LWG
p216
aVtc_183_005_itc_folder_file_names.LWG
p217
aVtc_197_702_apn_oi_replacement_attach_apn_level_only_local_breakout.LWG
p218
aVtc_43_101__removal_of_disconnected_eNodeBs__CLI_removal.LWG
p219
aVtc_97_035_inter_sgsn_psho_mf_with_lawful_intercept.LWG
p220
aVtc_302_015_cdma_tunneling_uplink_message_sector_id_out_of_range.LWG
p221
aVtc_289_031_Modify_bearer__Downlink_nas_transport_meanwhile_path_switch_request_HO_success.LWG
p222
aVtc_52_04_inter_old_srns_reloc_one_unstable_context.LWG
p223
aVtc_53_03_inter_new_srns_reloc_no_license.LWG
p224
aVtc_53_13_inter_new_srns_reloc_reloc_cancel_req2.LWG
p225
aVtc_44_004_small_restart__sctp_fe_restart.LWG
p226
aVtc_266_522_DDN_Service_Request_SGW_unavailable__create_session_two_PDN_one_failed.LWG
p227
aVtc_179_130_Ccheck_ipsec_sa.LWG
p228
aVtc_179_087_Ccheck_ospf_interface.LWG
p229
aVtc_179_123_Ccheck_route_export_destination.LWG
p230
aVtc_179_083_Ccheck_bgp_peer.LWG
p231
aVtc_179_125_Ccheck_route_export_source.LWG
p232
aVtc_179_128_Ccheck_bgp_peer.LWG
p233
aVtc_179_134_Ccheck_ipsec_sa.LWG
p234
aVtc_179_165_Ccheck_eth_port.LWG
p235
aVtc_179_185_Ccheck_ip_interface_ipv6address.LWG
p236
aVtc_179_181_Ccheck_ip_interface_ipv6address.LWG
p237
aVtc_179_182_Ccheck_ip_interface_ipv6address.LWG
p238
aVtc_179_139_Ccheck_dns_server.LWG
p239
aVtc_179_312_Ccheck_ntp_ipv6server.LWG
p240
aVtc_179_307_Ccheck_static_ipv6route.LWG
p241
aVtc_179_320_Ccheck_ipsec_sa.LWG
p242
aVtc_179_329_Ccheck_ipsec_sa.LWG
p243
aVtc_179_330_Ccheck_ipsec_sa.LWG
p244
aVtc_179_418_Ccheck_ipsec_ipv6sa.LWG
p245
aVtc_298_317_EF_SIBD_S4_Create_Bearer_Request.LWG
p246
aVtc_298_783_S4_3GDT_downlink_data_notification_wait_MBR_ef_detach.LWG
p247
aVtc_06_177_apnresolving_apnopid_hplmn_present_apn_redirect_no_default_apn.LWG
p248
aVtc_249_66_s6d_attach_IDR_eps_sub_visitor.LWG
p249
aVtc_209_52_df2_alarm_buffer_on.LWG
p250
aVtc_666_06_block_rt_board.LWG
p251
aVtc_11_645_downlink_gtpu_wf_paging_resp_ef_transfer_service_req_data.LWG
p252
aVtc_347_130_Seamless_Move_Target__Extended_Service_Request_while_waiting_for_CCA_initial.LWG
p253
aVtc_76_031_ms_initiated_modification_interrupted_by_delete_no_rnc_response.LWG
p254
aVtc_54_102_intra_isc_ran_information_g_to_l.LWG
p255
aVtc_205_71_03_ss7_M3UA_ASP_counters.LWG
p256
aVtc_237_060_mme_eps_irat_ho_source__equipement_blacklisted_wwf_FR_Response.LWG
p257
aVtc_273_167_tau_intra_periodic_connected.L14b
p258
aVtc_195_207_mme_logging_maximum_deactivate_eps_bearer_context.L14b
p259
aVtc_295_124_tau_after_ho_tz_change_emm_information_meanwhile_handover_required_HO_success.L14b
p260
aVtc_43_040_eNB_configuration_update_mf.L14b
p261
aVtc_225_315_mt_call_active_mode_nas_non_delivery__cs_service_notification_meanwhile_handover_required.L14b
p262
aVtc_225_312_mt_call_active_mode_nas_non_delivery__s1_intra_system_handover_triggered_resend_2_times.L14b
p263
aVtc_202_570_seamless_move_target_idle_Update_location_failed_paging_failed.L14b
p264
aVtc_44_071_attach_long_imsi.L14b
p265
aVtc_44_841_mme_assoc_reestablish__device_restart_sbc.L14b
p266
aVtc_44_880_mme_assoc_reestablish_unsuccessful__abort_s1_mme.L14b
p267
aVtc_44_881_mme_assoc_reestablish_unsuccessful__abort_sbc.L14b
p268
aVtc_44_870_mme_assoc_reestablish__board_block_s1_mme.L14b
p269
aVtc_263_241_Attach_Flow__Attach_Request_with_diff_IE_while_waiting_for_identification_response.L14b
p270
aVtc_298_301_EF_SIBD_S4_Activate_From_MS_TI_Flag.LW
p271
aVtc_218_311_tau_from_sgsn_preserved_gbr_bearer_buffer_1_ubr_1_cbr.LW
p272
aVtc_241_640_intra_rau_with_bearer_sgw_change_with_3gdt_wait_release_access_resp_interfer_by_update_bearer_req.LW
p273
aVtc_241_801_israu_interfering_context_request_no_cancel_location_s4.LW
p274
aVtc_256_140_mme_eps_srvcc_ho_source_cs_only_initial_ue_tau_request_wf_delete_bearer_request.LW
p275
aVtc_47_005_implict_detach_timer_ap_loss.LW
p276
aVtc_195_208_mme_logging_maximum_modify_eps_bearer_context.LW
p277
aVtc_44_004_small_restart__sctp_fe_restart.LW
p278
aVtc_51_073_reloc_wf_rau_complete_interrupted_by_rau_on_new_iu.LW
p279
aVtc_52_05_inter_old_srns_reloc_rab_setup_failed.LW
p280
aVtc_52_33_reloc_wf_forw_rel_compl_interrupted_by_normal_detach.LW
p281
aVtc_52_64_inter_old_srns_target_rai_unknown.LW
p282
aVtc_52_51_inter_old_srns_reloc_main_flow_interfered_by_service_request_data.LW
p283
aVtc_304_263_tau_from_gnsgsn_when_wf_tau_complete_control_mode_reject_congestion.LW
p284
aVtc_329_203_inter_tau_new_rs_restricted_emergency.LW
p285
aVtc_248_09_inter_l_to_w_new_3gdt.LW
p286
aVtc_53_32_inter_new_srns_reloc_wf_rau_req_interrupted_by_deactivate_req.LW
p287
aVtc_53_94_inter_new_srns_reloc_interfere_rau_request_new_ptmsi_new_iu_1.LW
p288
aVtc_246_061_israu_new_l_to_g_sgw_change_one_pdn_ubr_before_rau_complete_interfered_by_inter_rau_request.G14b
p289
aVtc_208_43_interception_after_small_restart.G14b
p290
aVtc_297_407_move_at_periodic_rau.G14b
p291
aVtc_04_103_imsi_attach_tlli_black_listed.G14b
p292
aVtc_06_174_apnresolving_vplmn_not_allowed_subscribed_apn_hplmn_apn_criteria_si.G14b
p293
aVtc_06_194_apn_redirect_subscription_visitor.G14b
p294
aVtc_26_012_activate_primary_requested_qos_zero_subscribed_interactive.W14b
p295
aVtc_313_209_inter_new_srns_reloc_s16_without_sgw_change_transfered_attach_request_received_bf_relocaiton_req_sent.W14b
p296
aVtc_39_187_detach_trigger_re_attach_new_iu.W14b
p297
aVtc_231_023_service_reject_umts_authentication_no_response_S4.W14b
p298
aVtc_262_203_guti_attach_when_unauthenticated_attached.L14b
p299
aVtc_262_1031_emergency_imsi_attach_multiple_pgw_try_next_pgw_fqdn_error.L14b
p300
aVtc_327_600_Inter_TAU_Recovery__Attach_Request_IMSI_while_waiting_for_ue_backup_retrieval_Response.L14b
p301
aVtc_43_040_eNB_configuration_update_mf.L14b
p302
aVtc_194_505_Notification_during_Intra_TAU_without_SGW_Relocation_HSS_Reset_Before_TAU.L14b
p303
aVtc_220_413_csfb_to_1xrtt_in_ecm_connected_handover_required_meanwhile_CBR_received.L14b
p304
aVtc_225_321_mt_call_active_mode_nas_non_delivery__cs_service_notification__handover_required_meanwhile_CBR_received.L14b
p305
aVtc_273_167_tau_intra_periodic_connected.L14b
p306
aVtc_318_150_sgw_restart_af_invalid_restart_counter.L14b
p307
aVtc_47_003_unstable_ue_ap_loss.L14b
p308
aVtc_47_005_implict_detach_timer_ap_loss.L14b
p309
aVtc_322_146_smooth_move_ef_provide_location_request_with_pp_true_plr_true.W14b
p310
aVtc_26_149_inter_sgsn_back_before_20s_with_qos_upgradeAllowed.W14b
p311
aVtc_26_160_activate_secondary_with_qos_upgrade_by_ggsn_with_override.W14b
p312
aVtc_334_250_path_failure_service_req_rab_released_mf.W14b
p313
aVtc_39_187_detach_trigger_re_attach_new_iu.W14b
p314
aVtc_179_024_Ccheck_ip_service.LWG
p315
aVtc_179_025_Ccheck_ip_service_address.LWG
p316
aVtc_179_038_Ccheck_ipsec_sa.LWG
p317
aVtc_179_049_Ccheck_gre_ta.LWG
p318
aVtc_179_054_Ccheck_inbound_pf_rule.LWG
p319
aVtc_179_048_Ccheck_gre_ta.LWG
p320
aVtc_179_028_Ccheck_ipsec_sa.LWG
p321
aVtc_179_063_Ccheck_inbound_pf_rule.LWG
p322
aVtc_179_056_Ccheck_inbound_pf_rule.LWG
p323
aVtc_179_074_Ccheck_route_export_source.LWG
p324
aVtc_179_076_Ccheck_route_import_source.LWG
p325
aVtc_179_089_Ccheck_dns.LWG
p326
aVtc_179_126_Ccheck_route_import_source.LWG
p327
aVtc_179_165_Ccheck_eth_port.LWG
p328
aVtc_179_132_Ccheck_ipsec_sa.LWG
p329
aVtc_179_146_Ccheck_atm_port.LWG
p330
aVtc_179_156_Ccheck_router_instance.LWG
p331
aVtc_179_185_Ccheck_ip_interface_ipv6address.LWG
p332
aVtc_179_241_Ccheck_static_route.LWG
p333
aVtc_179_318_Ccheck_bfd_ipv6neighbor.LWG
p334
aVtc_179_317_Ccheck_bfd_ipv6neighbor.LWG
p335
aVtc_179_327_Ccheck_ipsec_sa.LWG
p336
aVtc_179_342_Ccheck_ip_service_address.LWG
p337
aVtc_179_420_Ccheck_sx_ip_service_check_license.LWG
p338
aVtc_209_155_ul_payload_imsi_udp.LWG
p339
aVtc_273_661_tau_intra_periodic_SGW_unavailable_after_MME_large_restart__two_pdn_one_timeout.LWG
p340
aVtc_159_200_check_ctum_log.LWG
p341
aVtc_231_173_ms_init_detach_interfered_by_cancel_location_withdraw.LWG
p342
aVtc_257_37_pws_etws_write_replace_warning_request_feature_off_when_olp_rshl_false.LWG
p343
aVtc_183_005_itc_folder_file_names.LWG
p344
aVtc_06_175_apnresolving_apnopid_hplmn_present_apn_redirect_log_cc33.LWG
p345
aVtc_06_190_apn_redirect_subscription_log_cc33.LWG
p346
aVtc_05_024_gprs_ptmsi_attach_in_new_sgsn_reject_due_to_imsi_unknown.LWG
p347
aVtc_214_1080_la_selection_af_oldmscpreferred_combined_intra_tau_la_with_old_msc_not_available.LWG
p348
aVtc_214_1139_la_selection_mf_reselection_ptau_during_ue_restoration.LWG
p349
aVtc_194_989_downlink_unitdata_during_waiting_location_report__idr_flags_ef.LWG
p350
aVtc_51_094_reloc_wf_reloc_request_ack_interrupted_by_transfered_attach.LWG
p351
aVtc_324_386_ef_mt_sms_wf_frcn_wf_frca_wf_ula.LWG
p352
aVtc_44_004_small_restart__sctp_fe_restart.LWG
p353
aVtc_205_71_03_ss7_M3UA_ASP_counters.LWG
p354
aVtc_342_864_online_change_LI_U.LWG
p355
aVtc_181_02_multiple_ip_deconf_iuandgngtp_traffic_w.LWG
p356
aVtc_180_03_test_multiple_ip_g_2contexts.LWG
p357
aVtc_180_01_test_multiple_ip_g.LWG
p358
aVtc_192_017_oms_comb_own_nri_feature.LWG
p359
aVtc_23_09_transfer_to_primary_and_change_vip_addr.LWG
p360
aVtc_53_145_ms_not_reachable_during_relocation.LWG
p361
aVtc_52_42_inter_old_srns_reloc_main_flow_interfered_by_mt_sms.LWG
p362
aVtc_52_51_inter_old_srns_reloc_main_flow_interfered_by_service_request_data.LWG
p363
aVtc_52_50_inter_old_srns_reloc_main_flow_interfered_by_downlink_packet.LWG
p364
aVtc_74_026_oms_mmi.LWG
p365
aVtc_666_06_block_rt_board.LWG
p366
aVtc_208_501_df2_call_timeout.LWG
p367
aVtc_232_403_bfd__ipv4ipv6_alarm.LWG
p368
aVtc_12_134_attach_with_extended_mmumoc_iu_inactivity_timer.LWG
p369
aVtc_297_407_move_at_periodic_rau.G14b
p370
aVtc_208_43_interception_after_small_restart.G14b
p371
aVtc_06_181_apnresolving_vplmn_allowed_subscribed_apn_hplmn_apn_criteria_si.G14b
p372
aVtc_06_218_activate_reject_secondary_ril3_decode_failed.G14b
p373
aVtc_166_425_ggsn_initiated_deactivation_flow.WG14a
p374
aVtc_76_003_deactivate_ggsn_initiated_teardown_III.LW
p375
aVtc_76_032_sgsn_initiated_modification_ggsn_delete_during_rnc_modify.LW
p376
aVtc_76_020_deactivate_ggsn_initiated_wrong_service_type.LW
p377
aVtc_194_135_cl_update_procedure_during_ms_auth.LW
p378
aVtc_322_173_smooth_move_ef_cli_s6d_delete_subscriber_data_wf_ptmsi_relocation_complete.LW
p379
aVtc_52_42_inter_old_srns_reloc_main_flow_interfered_by_mt_sms.LW
p380
aVtc_329_003_attach_rs_allowed_emergency_plmn_change_ula_fails.LW
p381
aVtc_276_045_Inter_TAU_New_MME__S1_Reset_while_waiting_for_Identity_Response__enhanced_imei_check.LW
p382
aVtc_39_401_non_mas_pmm_idle_one_pdp_detach_source.LW
p383
aVtc_78_035_move_ms_target_sgsn_no_redirection.LW
p384
aVtc_78_102_imsi_attach_with_selected_plmn.LW
p385
aVtc_241_801_israu_interfering_context_request_no_cancel_location_s4.LW
p386
aVtc_23_09_transfer_to_primary_and_change_vip_addr.LW
p387
aVtc_273_611_tau_intra_periodic_SGW_unavailable__two_pdn_one_timeout.LW
p388
aVtc_53_20_inter_new_srns_reloc_ggsn_update_failed.LW
p389
aVtc_53_18_inter_new_srns_reloc_mf_2_ctx.LW
p390
aVtc_53_133_inter_new_mbr_set_to_zero_interactive.LW
p391
aVtc_53_138_inter_new_ggsn_decrease_qos_rab_setup_fault.LW
p392
aVtc_53_148_inter_new_srns_reloc_move_job_ongoing.LW
p393
aVtc_53_410_inter_new_srns_reloc_subscription_restriction_odb_bit_15.LW
p394
aVtc_103_701_MME_restarts.LW
p395
aVtc_103_603_georedundant_modify_diameter_peer.LW
p396
aVtc_44_004_small_restart__sctp_fe_restart.LW
p397
aVtc_44_871_mme_assoc_reestablish__board_block_sbc.LW
p398
aVtc_236_071_hard_ho_intra_rau_with_3gdt_bearer_sgw_change_without_seq.LW
p399
aVtc_293_111_X2_Based_HO_One_Bearer_Failure__Create_Bearer_Request_while_wf_Tau_Request.LW
p400
aVtc_209_23_attach_detach_msisdn.LWG
p401
aVtc_209_155_ul_payload_imsi_udp.LWG
p402
aVtc_06_171_apnresolving_apnopid_hplmn_present_apn_criteria_si.LWG
p403
aVtc_06_176_apnresolving_apnopid_hplmn_present_apn_redirect_dont_log_cc33.LWG
p404
aVtc_318_267_sgw_restart_af_relocation_triggered_by_DDN_emergency_PDN.LWG
p405
aVtc_666_02_reboot_ss7_board.LWG
p406
aVtc_666_06_block_rt_board.LWG
p407
aVtc_52_23_reloc_wf_forw_rel_resp_interrupted_by_attach_on_new_iu_wrong_rai.LWG
p408
aVtc_56_1_creation.LWG
p409
aVtc_183_005_itc_folder_file_names.LWG
p410
aVtc_217_850_rau_to_sgsn_and_tau_back_to_mme_check_detach_register_table.LWG
p411
aVtc_178_950_check_state_sctp_all_assoc.LWG
p412
aVtc_178_960_sccp_req_stat_for_spc.LWG
p413
aVtc_178_990_sctp_max_profile_number.LWG
p414
aVtc_178_1001_action_icmp_traceroute.LWG
p415
aVtc_230_060_activate_reject_sgw_cause_not_16_19_paa_missing.LWG
p416
aVtc_306_1308_ef_seamless_move_target_buffer_update_bearer_request.LWG
p417
aVtc_54_121_inter_ran_information_l_to_g_through_s3_and_back.LWG
p418
aVtc_236_046_s4_3gdt_rab_release_during_waiting_for_modify_beaer_rsp_in_service_request_procedure.LWG
p419
aVtc_159_200_check_ctum_log.LWG
p420
aVtc_23_09_transfer_to_primary_and_change_vip_addr.LWG
p421
aVtc_578_32_check_ebm_para_statistics_ue_return_duration.LWG
p422
aVtc_297_306_inter_rau_new_unknow_old_sgsn_fetch_imsi_cc13.LWG
p423
aVtc_250_74_s6d_EF_hss_reset_waiting_delete_session_response.LWG
p424
aVtc_250_67_s6d_activation_with_EPS_data_s4_license_off.LWG
p425
aVtc_342_925_x2_multiple_pdp_with_different_x2_address.LWG
p426
aVtc_244_049_mt_lr_cancel_location_with_subscription_withdraw_received_wf_location_report.LWG
p427
aVtc_244_055_mt_lr_cancel_location_with_update_procedure_received_wf_location_report.LWG
p428
aVtc_241_801_israu_interfering_context_request_no_cancel_location_s4.LWG
p429
aVtc_51_049_reloc_wf_rau_comp_interrupted_by_service_request_new_rai.LWG
p430
aVtc_51_048_reloc_wf_rau_comp_interrupted_by_service_request_new_rai_new_iu.LWG
p431
aVtc_51_053_reloc_wf_reloc_request_ack_interrupted_by_attach_on_new_iu.LWG
p432
aVtc_05_013_gprs_imsi_attach_ms99_usim_gea2.LWG
p433
aVtc_180_01_test_multiple_ip_g.LWG
p434
aVtc_180_03_test_multiple_ip_g_2contexts.LWG
p435
aVtc_180_04_test_multiple_ip_w_2contexts.LWG
p436
aVtc_214_1126_la_selection_mf_oldlapreferred_combined_intra_tau_after_imsi_detach_triggered_by_sgs_paging.LWG
p437
aVtc_289_047_Modify_bearer__ERAB_modify_response_s1_intra_system_handover_triggered_activate_dedicated_bearer_one_pdn_multiple_bearer.LWG
p438
aVtc_262_1055_imsi_attach_with_csg_id_is_rejected.LWG
p439
aVtc_103_1101_resending_AIR_interfering_CLR.LWG
p440
aVtc_181_01_multiple_ip_deconf_gngtp_traffic_g.LWG
p441
aVtc_179_002_Ccheck_ip_interface.LWG
p442
aVtc_179_005_Ccheck_ip_interface.LWG
p443
aVtc_179_006_Ccheck_ip_interface.LWG
p444
aVtc_179_022_Ccheck_ip_service.LWG
p445
aVtc_179_001_Ccheck_eth_port.LWG
p446
aVtc_179_011_Ccheck_eth_port.LWG
p447
aVtc_179_007_Ccheck_ip_interface.LWG
p448
aVtc_179_013_Ccheck_static_route.LWG
p449
aVtc_179_015_Ccheck_static_route.LWG
p450
aVtc_179_016_Ccheck_static_route.LWG
p451
aVtc_179_018_Ccheck_ip_network_subnet.LWG
p452
aVtc_179_037_Ccheck_ipsec_sa.LWG
p453
aVtc_179_047_Ccheck_gre_ta.LWG
p454
aVtc_179_029_Ccheck_ipsec_sa.LWG
p455
aVtc_179_049_Ccheck_gre_ta.LWG
p456
aVtc_179_070_Ccheck_route_export_destination.LWG
p457
aVtc_179_113_Ccheck_outbound_pf_rule.LWG
p458
aVtc_179_114_Ccheck_inbound_pf_rule.LWG
p459
aVtc_179_127_Ccheck_route_import_source.LWG
p460
aVtc_179_146_Ccheck_atm_port.LWG
p461
aVtc_179_312_Ccheck_ntp_ipv6server.LWG
p462
aVtc_179_316_Ccheck_bfd_ipv6neighbor.LWG
p463
aVtc_237_004_mme_eps_irat_ho_source__forw_rel_resp_not_accepted.LWG
p464
aVtc_237_010_mme_eps_irat_ho_source__without_sgw_relocation_pdn_missing_in_response.LWG
p465
aVtc_219_131_s3_handover_w_to_l_with_cl_two_pdns_one_failed_sgw_relocation.LW
p466
aVtc_273_680_tau_intra_SGW_unavailable_active_flag_off_after_MME_large_restart__two_pdn.LW
p467
aVtc_241_618_intra_rau_with_dedicated_bearer_sgw_change_wait_rau_complete_handle_dbr.LW
p468
aVtc_225_312_mt_call_active_mode_nas_non_delivery__s1_intra_system_handover_triggered_resend_2_times.LW
p469
aVtc_275_037_tau_inter_new_bearer_status_mismatch.LW
p470
aVtc_50_016_activate_interactive_16oct_16mbit_policy_limit_14mbit.LW
p471
aVtc_50_088_activate_interactive_84Mbit_downgraded_by_rnc.LW
p472
aVtc_50_027_activate_background_camel_subscriber.LW
p473
aVtc_220_151_csfb_to_1xrtt_emergency_in_ecm_connected.LW
p474
aVtc_43_101__removal_of_disconnected_eNodeBs__CLI_removal.LW
p475
aVtc_304_313_PDN_connectivity__control_mode_threshold_exceeded_action_reject_while_same_pdn_connectivity_ongoing_wf_nas_default_bearer_activation_accept.LW
p476
aVtc_103_1101_resending_AIR_interfering_CLR.LW
p477
aVtc_23_09_transfer_to_primary_and_change_vip_addr.LW
p478
aVtc_23_13_israu_out.LW
p479
aVtc_306_071_ef_seamless_move_source_receive_extended_service_request_wf_service_request.LW
p480
aVtc_332_038_mf__1xrtt_srvcc_main_flow.LW
p481
aVtc_332_051_3_mf__paging_due_to_CBR_during_paging_due_to_DBR_latest_with_high_prio.LW
p482
aVtc_51_045_reloc_wf_update_location_resp_interrupted_by_service_request_old_rai.LW
p483
aVtc_276_045_Inter_TAU_New_MME__S1_Reset_while_waiting_for_Identity_Response__enhanced_imei_check.LW
p484
aVtc_214_1092_la_selection_mf_oldmscpreferred_combined_intra_tau_with_imsi_attach_after_ue_initiated_imsi_detach.LW
p485
aVtc_39_920_ef_seamless_move_interrupted_by_transferred_attach.LW
p486
aVtc_44_871_mme_assoc_reestablish__board_block_sbc.LW
p487
aVtc_250_182_s6d_inter_new_rau_ul_rejected_roaming_not_allowed_remap_on_with_err_diag.LW
p488
aVtc_276_045_Inter_TAU_New_MME__S1_Reset_while_waiting_for_Identity_Response__enhanced_imei_check.L14b
p489
aVtc_44_071_attach_long_imsi.L14b
p490
aVtc_44_871_mme_assoc_reestablish__board_block_sbc.L14b
p491
aVtc_44_881_mme_assoc_reestablish_unsuccessful__abort_sbc.L14b
p492
aVtc_44_895_mme_assoc_reestablish__s1_setup_when_iterator_started_finished.L14b
p493
aVtc_44_898_mme_assoc_reestablish__downlink_data_on_reestablished_sctp_association.L14b
p494
aVtc_44_880_mme_assoc_reestablish_unsuccessful__abort_s1_mme.L14b
p495
aVtc_262_203_guti_attach_when_unauthenticated_attached.L14b
p496
aVtc_103_831_DPR_cause_BUSY.L14b
p497
aVtc_214_1092_la_selection_mf_oldmscpreferred_combined_intra_tau_with_imsi_attach_after_ue_initiated_imsi_detach.L14b
p498
aVtc_194_991_downlink_A21_AIS_during_waiting_location_report__idr_flags_ef.L14b
p499
aVtc_243_331_tau_from_sgsn_s3_emergency_type_d_no_restriction.L14b
p500
aVtc_43_040_eNB_configuration_update_mf.L14b
p501
aVtc_260_351_sctp_disconnect_mce_reestablish_m3_setup.L14b
p502
aVtc_244_806_mt_lr_donwlink_generic_nas_transport_meanwhile_handover_required_HO_success.L14b
p503
aVtc_202_03_emm_deregistered_no_s1_release.L14b
p504
aVtc_202_102_small_restart.L14b
p505
aVtc_06_173_apnresolving_default_apn_hplmn_apn_criteria.G14b
p506
aVtc_06_186_apnresolving_vplmn_allowed_subscribed_apn_hplmn_apn_criteria_cc.G14b
p507
aVtc_05_026_gprs_ptmsi_attach_identification_req_resp_97.G14b
p508
aVtc_297_407_move_at_periodic_rau.G14b
p509
aVtc_311_223_intra_srns_reloc_s4_sgw_change_wf_rau_complete_interrupted_by_downlink_data_notification_with_cause.WG14a
p510
aVtc_26_064_israu_upgrade_negotiated_to_requested.W14b
p511
aVtc_334_311_pgw_restart_after_s4_move_3gdt.W14b
p512
aVtc_194_079_cl_subscription_withdrawn_during_ul.LW
p513
aVtc_194_135_cl_update_procedure_during_ms_auth.LW
p514
aVtc_194_173_hss_reset_ue_activity_bearer_modification.LW
p515
aVtc_194_991_downlink_A21_AIS_during_waiting_location_report__idr_flags_ef.LW
p516
aVtc_316_203_IMSI_Attach_Emergency_Authentication_Fail__Backup_UE.LW
p517
aVtc_220_593_csfb_to_1xrtt_context_request_during_extended_service_request.LW
p518
aVtc_322_172_smooth_move_ef_gr_cli_delete_subscriber_data_wf_security_mode_complete.LW
p519
aVtc_265_160_Detach_Flow_NW_init__Ue_moved_to_non_3gpp_while_imsi_detach.LW
p520
aVtc_196_254_nrspca_reject_cause26_high_load.LW
p521
aVtc_241_148_intra_rau_wait_for_modify_bearer_resp_interfere_by_normal_detach.LW
p522
aVtc_241_301_israu_new_create_session_failed_and_paging_timeout.LW
p523
aVtc_76_007_ms_init_deactivation_tdi_ggsn_deactivate_same_nsapi.LW
p524
aVtc_44_871_mme_assoc_reestablish__board_block_sbc.LW
p525
aVtc_298_317_EF_SIBD_S4_Create_Bearer_Request.LW
p526
aVtc_53_12_inter_new_srns_reloc_gtp_failure.LW
p527
aVtc_53_53_inter_new_srns_reloc_ef_ggsn_update_2_pdp_timeout_1_delete_req_resent.LW
p528
aVtc_53_45_inter_new_srns_reloc_ef_reset5.LW
p529
aVts_53_150_inter_new_srns_reloc_intra_srns_reloc.LW
p530
aVtc_53_16_inter_new_srns_reloc_t_reloc_rau_timeout3.LW
p531
aVtc_203_108_S1_Based_HO_Source_MME_TAU_Request_while_waiting_for_Forward_Relocation_Complete_Notification.LW
p532
aVtc_202_41_type_a_emergency_pdn_ecm_idle.LW
p533
aVtc_256_176_mme_eps_srvcc_ho_source_cs_only_ue_release_request_wf_srvcc_ps_to_cs_complete_notification.LW
p534
aVtc_238_151_mme_eps_irat_Gn_ho_target__native_eps_security_context_exists.LW
p535
aVtc_324_006_mf_ser_req_signaling_after_ack_3gdt.LW
p536
aVtc_52_23_reloc_wf_forw_rel_resp_interrupted_by_attach_on_new_iu_wrong_rai.LW
p537
aVtc_52_58_inter_old_wf_reloc_cancel_response_interrupted_by_iu_release.LW
p538
aVtc_284_156_pdn_connectivity_pb_activate_dedicated_bearer_for_other_pdn.LW
p539
aVtc_78_241_own_ra_nri_query_success_rau_request_accept.LW
p540
aVtc_217_850_rau_to_sgsn_and_tau_back_to_mme_check_detach_register_table.L14b
p541
aVtc_47_003_unstable_ue_ap_loss.L14b
p542
aVtc_103_006_load_sharing_between_peers.L14b
p543
aVtc_266_011_DownlinkDataNotification_interfering_ISD_sgsn00026976.L14b
p544
aVtc_266_026_DownlinkDataFailureInd_repeat_paging_timer_small_local_restart.L14b
p545
aVtc_220_413_csfb_to_1xrtt_in_ecm_connected_handover_required_meanwhile_CBR_received.L14b
p546
aVtc_260_098_two_mbms_session_starting_one_mce_add_two_session_send_to_new_mce.L14b
p547
aVtc_44_071_attach_long_imsi.L14b
p548
aVtc_318_150_sgw_restart_af_invalid_restart_counter.L14b
p549
aVtc_346_445_AF__Intra_TAU_CCA_Update_timeout.L14b
p550
aVtc_257_30_pws_sctp_device_failure.L14b
p551
aVtc_208_43_interception_after_small_restart.G14b
p552
aVtc_06_179_apnresolving_apnopid_hplmn_present_apn_redirect_feature_off.G14b
p553
aVtc_05_100_xid_reset_at_looping_intra_rau.G14b
p554
aVtc_334_312_pgw_restart_after_srns_relocation_s16.W14b
p555
aVtc_241_500_israu_new_gn_to_s4_pdp_to_bearer_one_pdp_conversational_mbr_0.W14b
p556
aVtc_241_1636_israu_new_modify_bearer_response_timeout_followed_by_ms_init_deac.W14b
p557
aVtc_248_122_inter_l_to_w_new_detach_request_direct_transfer_received_wf_forward_relocation_complete_ack.W14b
p558
aVtc_28_032_mt_sms_multiple_iu_released_between_two_sms.W14b
p559
aVtc_324_006_mf_ser_req_signaling_after_ack_3gdt.WG14a
p560
aVtc_239_620_inter_rau_new_with_bearer_sgw_not_change_isd_odb_bit0_wf_rau_compl_deactivation.WG14a
p561
aVtc_29_032_attach_w_rau_g_get_subscriber_during_ul.WG14a
p562
aVtc_322_161_smooth_move_ef_nas_after_paging_response_ignore.WG14a
p563
aVtc_273_671_tau_intra_SGW_unavailable_active_flag_off_after_MME_large_restart__with_emergency_PDN.LWG
p564
aVtc_273_672_tau_intra_SGW_unavailable_active_flag_off_after_MME_large_restart__with_static_SGW.LWG
p565
aVtc_273_663_tau_intra_periodic_SGW_unavailable_after_MME_large_restart__two_pdn_one_bearer_status_0.LWG
p566
aVtc_256_175_mme_eps_srvcc_ho_source_cs_only_ue_release_request_wf_srvcc_ps_to_cs_response.LWG
p567
aVtc_214_1141_la_selection_mf_oldmscpreferred_prau_during_ue_restoration.LWG
p568
aVtc_212_006_Ccheck_qos_policymap_w.LWG
p569
aVtc_196_172_nrspca_during_t3385_when_receive_sgsn_context_ack_not_accepted.LWG
p570
aVtc_276_372_Inter_TAU_New_MME__TAU_Request_while_waiting_for_Create_Session_Response_3PDNs_partially_failure_sgw_unavailable.LWG
p571
aVtc_326_210_Intra_TAU_combined_after_large_restart_after_EPS_attach.LWG
p572
aVtc_326_218_Intra_TAU_Recovery_two_PDN_partial_fail.LWG
p573
aVtc_209_180_handover_w_to_l_source_s4_sgsn.LWG
p574
aVtc_67_002_ms_trying_to_establish_llc_ack_mode.LWG
p575
aVtc_78_009_imsi_attach_not_allowed_imsi.LWG
p576
aVtc_78_056_intra_rau_intra_plmn_accept_foreign_ms.LWG
p577
aVtc_179_116_Ccheck_route_rule.LWG
p578
aVtc_179_154_Ccheck_pf_log_server.LWG
p579
aVtc_179_185_Ccheck_ip_interface_ipv6address.LWG
p580
aVtc_179_186_Ccheck_ip_interface_ipv6address.LWG
p581
aVtc_179_190_Ccheck_ip_interface_ipv6address.LWG
p582
aVtc_179_313_Ccheck_ntp_ipv6server.LWG
p583
aVtc_179_319_Ccheck_ipsec_sa.LWG
p584
aVtc_179_320_Ccheck_TraceCollectionServer.LWG
p585
aVtc_179_400_Ccheck_ipsec_ipv6sa.LWG
p586
aVtc_179_404_Ccheck_ipsec_ipv6sa.LWG
p587
aVtc_181_01_multiple_ip_deconf_gngtp_traffic_g.LWG
p588
aVtc_335_141_Geo_Recovery_upon_Intra_TAU.LWG
p589
aVtc_54_210_rim_inter_sgsn_mme_w_to_l_through_s3_HeNB_format_targetid_direct_connected_target_HeNB.LWG
p590
aVtc_76_001_deactivate_ggsn_initiated_teardown_I.LWG
p591
aVtc_159_200_check_ctum_log.LWG
p592
aVtc_194_151_notify_pgw_changed.LWG
p593
aVtc_194_624_DSD_EF__Receive_DSDR_when_Waiting_for_Delete_Session_Response_during_PDN_Disconnect_Procedure.LWG
p594
aVtc_194_1555_HSS_initiated_ISD_in_Connected_mode_when_current_CSG_Id_removed_feature_off.LWG
p595
aVtc_666_02_reboot_ss7_board.LWG
p596
aVtc_110_005_inbound_outbound_pf_rule_cli_ip.LWG
p597
aVtc_197_327_visiting_non_ims_apn_in_allowed_apn_list_and_lbo_mode_restricted.LWG
p598
aVtc_197_547_inter_gnsgsn_handover_table_not_matched_snaptr.LWG
p599
aVtc_193_021_auth_failure_sync.LWG
p600
aVtc_193_061_attach_attach_S1_SelAuthFreq.LWG
p601
aVtc_183_005_itc_folder_file_names.LWG
p602
aVtc_251_010_rau_w_to_g_after_hss_reset_storm.LWG
p603
aVtc_316_233_MME_Pool_Old_BMME_Removed_New_BMME_Selected_Add_Old_BMME_Delete_Old_Backup.LWG
p604
aVtc_180_02_test_multiple_ip_w.LWG
p605
aVtc_180_01_test_multiple_ip_g.LWG
p606
aVtc_180_03_test_multiple_ip_g_2contexts.LWG
p607
aVtc_60_4_small_restart_during_hlr_reset.LWG
p608
aVtc_56_5_restart_during_SR.LWG
p609
aVtc_53_135_inter_new_ggsn_increase_qos.LWG
p610
aVtc_204_036_mme_eps_ho_target__forward_relocation_request_without_sgw_node_name.LWG
p611
aVtc_205_71_01_ss7_SCCP_CR_DT1_RLSD.LWG
p612
aVtc_205_71_08_SCTP_OctetsChunksSent.LWG
p613
aVtc_63_7_stop_timer_timeout_clash.LWG
p614
aVtc_06_182_apnresolving_apn_redirect_new_apn_not_subscribed.G14b
p615
aVtc_05_102_gsm_paging_changed_default.G14b
p616
aVtc_208_43_interception_after_small_restart.G14b
p617
aVtc_231_113_rnc_reset_during_ms_act_si_ms_deact_rnc_contact.W14b
p618
aVtc_39_187_detach_trigger_re_attach_new_iu.W14b
p619
aVtc_26_093_isd_ggsn_change_to_0kbps.W14b
p620
aVtc_12_4_attach_ptmsi_signalling_connection_release.W14b
p621
aVtc_250_114_act_ipv4v6_pdp_ctx_idr_pdp_type_dual_to_single_eps.W14b
p622
aVtc_263_241_Attach_Flow__Attach_Request_with_diff_IE_while_waiting_for_identification_response.L14b
p623
aVtc_276_045_Inter_TAU_New_MME__S1_Reset_while_waiting_for_Identity_Response__enhanced_imei_check.L14b
p624
aVtc_256_382_Sv_Path_Mgt__available_MSC_disable_Sv.L14b
p625
aVtc_225_321_mt_call_active_mode_nas_non_delivery__cs_service_notification__handover_required_meanwhile_CBR_received.L14b
p626
aVtc_194_505_Notification_during_Intra_TAU_without_SGW_Relocation_HSS_Reset_Before_TAU.L14b
p627
aVtc_44_841_mme_assoc_reestablish__device_restart_sbc.L14b
p628
aVtc_202_01_ecm_connected_s1_release.L14b
p629
aVtc_202_431_mf_seamless_move_target_service_request_modifyBearerReq_onePdnMultiBearer_oneBearerFail.L14b
p630
aVtc_266_011_DownlinkDataNotification_interfering_ISD_sgsn00026976.L14b
p631
aVtc_266_026_DownlinkDataFailureInd_repeat_paging_timer_small_local_restart.L14b
p632
aVtc_578_32_check_ebm_para_statistics_ue_return_duration.L14b
p633
aVtc_257_18_pws_etws_stop_warning_request_rejected_when_olp.L14b
p634
aVtc_304_117_initial_ue_intra_tau_control_mode_threshold_exceeded_usc_detach_intruder_wf_release_request_response.L14b
p635
aVtc_304_114_initial_ue_intra_tau_control_mode_threshold_exceeded_usc_ignore_replace_s1.L14b
p636
aVtc_43_040_eNB_configuration_update_mf.L14b
p637
aVtc_103_004_destination_realm_is_realm_of_a_peer.L14b
p638
aVtc_103_005_destination_realm_is_not_realm_of_a_peer.L14b
p639
aVtc_231_008_activate_reject_policy_map.LWG
p640
aVtc_196_172_nrspca_during_t3385_when_receive_sgsn_context_ack_not_accepted.LWG
p641
aVtc_324_426_ef_payload_buffered_wf_security_mode_complete_payload_different_pdn_non_3gdt.LWG
p642
aVtc_220_594_csfb_to_1xrtt_subscription_cancelled_during_ecm_idle_extended_service_request.LWG
p643
aVtc_220_604_csfb_to_1xrtt_in_ecm_connected_extended_service_request_during_create_bearer.LWG
p644
aVtc_53_125_inter_new_srns_reloc_interfere_identification_response_same_iu.LWG
p645
aVtc_53_131_inter_new_conversational_node_limit.LWG
p646
aVtc_179_133_Ccheck_ipsec_sa.LWG
p647
aVtc_179_149_Ccheck_ip_interface.LWG
p648
aVtc_179_154_Ccheck_pf_log_server.LWG
p649
aVtc_179_166_Ccheck_eth_port.LWG
p650
aVtc_179_307_Ccheck_static_ipv6route.LWG
p651
aVtc_179_272_Ccheck_ip_service.LWG
p652
aVtc_179_271_Ccheck_ip_service.LWG
p653
aVtc_179_320_Ccheck_ipsec_sa.LWG
p654
aVtc_179_326_Ccheck_ipsec_sa.LWG
p655
aVtc_179_327_Ccheck_ipsec_sa.LWG
p656
aVtc_179_336_Ccheck_ipsec_sa.LWG
p657
aVtc_179_348_Ccheck_itc_filter.LWG
p658
aVtc_179_402_Ccheck_ipsec_ipv6sa.LWG
p659
aVtc_179_407_Ccheck_ipsec_ipv6sa.LWG
p660
aVtc_05_023_gprs_imsi_attach_rejected_due_to_imsi_not_known.LWG
p661
aVtc_06_179_apnresolving_apnopid_hplmn_present_apn_redirect_feature_off.LWG
p662
aVtc_06_197_handling_of_faulty_apn_from_ms.LWG
p663
aVtc_262_751_attach_handover_indication_no_override_after_timeout.LWG
p664
aVtc_197_610_mme_eps_handover_sgw_reselection_where_tai_naptr_response_has_s11_in_concatenated_service_field.LWG
p665
aVtc_159_200_check_ctum_log.LWG
p666
aVtc_257_38_pws_etws_stop_warning_request_license_off_when_olp_rshl_false.LWG
p667
aVtc_61_3_restart_request_with_base_lr_and_stat_worker_crash.LWG
p668
aVtc_318_263_sgw_restart_af_relocation_triggered_by_DDN_initial_context_setup_timeout.LWG
p669
aVtc_73_41_gtpu_sgsn_dont_send_gpu_echo_request_w.LWG
p670
aVtc_210_024_target_info_query_msisdn.LWG
p671
aVtc_208_43_interception_after_small_restart.LWG
p672
aVtc_194_083_hss_reset_detached_subscribers.LWG
p673
aVtc_194_082_consecutive_hss_resets.LWG
p674
aVtc_194_173_hss_reset_ue_activity_bearer_modification.LWG
p675
aVtc_194_406_service_request_ai_fails_roaming_not_allowed_remap_on_without_err_diag.LWG
p676
aVtc_326_210_Intra_TAU_combined_after_large_restart_after_EPS_attach.LWG
p677
aVtc_326_407_Inter_TAU_Recovery_With_Active_Flag__No_Modify_Bearer_Response_After_TAU.LWG
p678
aVtc_259_77_ef_isd_paging_s4_w.LWG
p679
aVtc_192_008_oms_transition_states_trigger.LWG
p680
aVtc_192_037_oms_change_nri_length_5_to_4.LWG
p681
aVtc_30_139_hlr_reset_dp_unavailable.LWG
p682
aVtc_193_042_attach_faulty_ksi.LWG
p683
aVtc_193_184_Ciphering__IMSI_Attach_UE_Supports_EIA0_And_EIA1__MME_Has_EIA0_As_Prio_1.LWG
p684
aVtc_182_213_sns_size_resetflag_zero_nsvc_too_low.LWG
p685
aVtc_298_317_EF_SIBD_S4_Create_Bearer_Request.LWG
p686
aVtc_204_422_mme_eps_ho_target_type_b_update_location_fails.LWG
p687
aVtc_313_022_inter_new_srns_reloc_s16_with_sgw_change_3gdt_flow.LWG
p688
aVtc_218_311_tau_from_sgsn_preserved_gbr_bearer_buffer_1_ubr_1_cbr.LWG
p689
aVtc_267_509_Service_Request_SGW_unavailable__Context_Request_while_wf_Create_Session_Response.LWG
p690
aVtc_241_016_intra_rau_with_bearer_sgw_unchange_mf_s4_with_all_fTeid_undefined_service_request_data.LWG
p691
aVtc_241_754_intra_rau_with_multi_bearer_sgw_change_one_context_failed_node_function_deactivate_pdp_after_rau_on.LWG
p692
aVtc_241_646_intra_rau_with_bearer_sgw_change_with_3gdt_interfer_by_iu_release_req.LWG
p693
aVtc_241_801_israu_interfering_context_request_no_cancel_location_s4.LWG
p694
aVtc_58_4_stat_to_dyn_2.LWG
p695
aVtc_289_047_Modify_bearer__ERAB_modify_response_s1_intra_system_handover_triggered_activate_dedicated_bearer_one_pdn_multiple_bearer.LWG
p696
aVtc_44_071_attach_long_imsi.LWG
p697
aVtc_236_311_HO_over_S3_3GDT_switchback_ef_delete_bearer_request_received_wf_rab_assignment_response.LWG
p698
aVtc_225_103_csfb_stand_alone_ue_context_release_active_mode.LWG
p699
aVtc_78_113_intra_rau_with_selected_plmn.LWG
p700
aVtc_183_005_itc_folder_file_names.LWG
p701
aVtc_183_001_itc_jobs.LWG
p702
aVtc_327_113_recovery_intra_TAU__Insert_Subscriber_Data_while_waiting_for_Identity_Response.LWG
p703
aVtc_327_211_recovery_service_request_emergency__Cancel_Location_subscription_withdrawal_while_waiting_for_Guti_Reallocation_Complete.LWG
p704
aVtc_241_801_israu_interfering_context_request_no_cancel_location_s4.LW
p705
aVtc_51_034_reloc_wf_reloc_req_ack_interrupted_by_normal_detach_on_source_iu.LW
p706
aVtc_51_057_reloc_wf_reloc_request_ack_interfered_by_attach_on_new_iu_wrong_rai.LW
p707
aVtc_51_072_reloc_wf_rau_interrupted_by_rau_on_new_iu.LW
p708
aVtc_51_024_reloc_attempt_mocn_on.LW
p709
aVtc_51_111_intra_srns_reloc_2_plmn.LW
p710
aVtc_51_046_reloc_wf_rau_comp_interrupted_by_service_request_old_rai.LW
p711
aVtc_298_783_S4_3GDT_downlink_data_notification_wait_MBR_ef_detach.LW
p712
aVtc_288_262_pgw_init_bearer_mod_QoS_from_GBR_to_non_GBR_idle_mode.LW
p713
aVtc_202_431_mf_seamless_move_target_service_request_modifyBearerReq_onePdnMultiBearer_oneBearerFail.LW
p714
aVtc_44_252_sctp_assoc_config__modify_rt_SGsAP.LW
p715
aVtc_324_006_mf_ser_req_signaling_after_ack_3gdt.LW
p716
aVtc_50_084_israu_new_sgsn_one_interactive_pdp_context_84mbit.LW
p717
aVtc_250_105_ignore_IDR_when_EPS_sub_downgrade_GPRS_sub.LW
p718
aVtc_280_114_activate_dedicated_bearer_ue_nas_cause_31_reject.LW
p719
aVtc_276_045_Inter_TAU_New_MME__S1_Reset_while_waiting_for_Identity_Response__enhanced_imei_check.LW
p720
aVtc_318_021_pgw_restart_notification_ef_detach_wf_paging_interfer_by_attach.LW
p721
aVtc_47_005_implict_detach_timer_ap_loss.LW
p722
aVtc_194_963_ue_release_request_other_than_user_inactivity_during_waiting_for_location_report__idr_flags_ef.LW
p723
aVtc_39_601_mas_unsucc_fwd_reloc_resp_mandatory_ie_missing_stop_source.LW
p724
aVtc_06_176_apnresolving_apnopid_hplmn_present_apn_redirect_dont_log_cc33.G14b
p725
aVtc_321_076_gn_logging_inter_srns_relocation_cancel_source.W14b
p726
aVtc_28_043_mt_sms_ms_is_not_sms_over_ps_capable.W14b
p727
aVtc_28_055_mo_sms_no_block_redirection_sms_feature_off.W14b
p728
aVtc_297_407_move_at_periodic_rau.LWG
p729
aVtc_260_031_mbms_session_start_mf.LWG
p730
aVtc_220_046_csfb_to_1xrtt_initial_ue_message_over_new_s1_connection.LWG
p731
aVtc_181_01_multiple_ip_deconf_gngtp_traffic_g.LWG
p732
aVtc_181_02_multiple_ip_deconf_iuandgngtp_traffic_w.LWG
p733
aVtc_181_04_multiple_ip_deconf_iugtp_w.LWG
p734
aVtc_178_950_check_state_sctp_all_assoc.LWG
p735
aVtc_178_970_m3_ietf_set_prim_ip_path.LWG
p736
aVtc_178_990_sctp_max_profile_number.LWG
p737
aVtc_178_1000_action_icmp_ping.LWG
p738
aVtc_178_1001_action_icmp_traceroute.LWG
p739
aVtc_241_801_israu_interfering_context_request_no_cancel_location_s4.LWG
p740
aVtc_324_386_ef_mt_sms_wf_frcn_wf_frca_wf_ula.LWG
p741
aVtc_179_003_Ccheck_ip_interface.LWG
p742
aVtc_179_007_Ccheck_ip_interface.LWG
p743
aVtc_179_001_Ccheck_eth_port.LWG
p744
aVtc_179_010_Ccheck_router_instance.LWG
p745
aVtc_179_014_Ccheck_static_route.LWG
p746
aVtc_179_013_Ccheck_static_route.LWG
p747
aVtc_179_023_Ccheck_ip_service.LWG
p748
aVtc_179_024_Ccheck_ip_service.LWG
p749
aVtc_179_038_Ccheck_ipsec_sa.LWG
p750
aVtc_179_036_Ccheck_ipsec_sa.LWG
p751
aVtc_179_051_Ccheck_outbound_pf_rule.LWG
p752
aVtc_179_066_Ccheck_route_export_destination.LWG
p753
aVtc_179_070_Ccheck_route_export_destination.LWG
p754
aVtc_179_078_Ccheck_route_import_source.LWG
p755
aVtc_179_084_Ccheck_bgp_peer.LWG
p756
aVtc_179_137_Ccheck_bfd_neighbor.LWG
p757
aVtc_179_133_Ccheck_ipsec_sa.LWG
p758
aVtc_179_150_Ccheck_ip_interface.LWG
p759
aVtc_179_154_Ccheck_pf_log_server.LWG
p760
aVtc_103_1101_resending_AIR_interfering_CLR.LWG
p761
aVtc_44_840_mme_assoc_reestablish__device_restart_s1_mme.LWG
p762
aVtc_44_871_mme_assoc_reestablish__board_block_sbc.LWG
p763
aVtc_326_407_Inter_TAU_Recovery_With_Active_Flag__No_Modify_Bearer_Response_After_TAU.LWG
p764
aVtc_73_41_gtpu_sgsn_dont_send_gpu_echo_request_w.LWG
p765
aVtc_259_83_isd_tads_s4_gsm_act_deact_pdp_context.LWG
p766
aVtc_318_113_sgw_restart_mf_one_pdn_with_relocate_by_echoResponse.LWG
p767
aVtc_578_32_check_ebm_para_statistics_ue_return_duration.LWG
p768
aVtc_281_042_Activate_bearer__Create_Bearer_Request_while_service_request_then_page_timeout.LWG
p769
aVtc_193_212_intruder_auth_rej_synch_fail_no_auts.LWG
p770
aVtc_316_275_Inter_MME_TAU_Old_MME_Then_Inter_MME_TAU_New_MME__No_Delete.LWG
p771
aVtc_218_311_tau_from_sgsn_preserved_gbr_bearer_buffer_1_ubr_1_cbr.LWG
p772
aVtc_666_06_block_rt_board.LWG
p773
aVtc_289_031_Modify_bearer__Downlink_nas_transport_meanwhile_path_switch_request_HO_success.LWG
p774
aVtc_53_36_inter_new_srns_reloc_interfering_signal_cancel_location_wf_update_location_answer.LWG
p775
aVtc_53_53_inter_new_srns_reloc_ef_ggsn_update_2_pdp_timeout_1_delete_req_resent.LWG
p776
aVtc_06_176_apnresolving_apnopid_hplmn_present_apn_redirect_dont_log_cc33.LWG
p777
aVtc_06_195_apn_redirect_subscription_feature_off.LWG
p778
aVtc_51_025_reloc_wf_reloc_req_ack_interrupted_by_cancel_loc_subscrip_withdrawn.LWG
p779
aVtc_51_058_reloc_wf_reloc_complete_interfered_by_attach_on_new_iu_wrong_rai.LWG
p780
aVtc_51_071_reloc_wf_reloc_complete_interrupted_by_rau_on_new_iu.LWG
p781
aVtc_51_072_reloc_wf_rau_interrupted_by_rau_on_new_iu.LWG
p782
aVtc_180_01_test_multiple_ip_g.LWG
p783
aVtc_180_03_test_multiple_ip_g_2contexts.LWG
p784
aVtc_180_02_test_multiple_ip_w.LWG
p785
aVtc_159_200_check_ctum_log.LWG
p786
aVtc_327_220_recovery_service_request__Insert_Subscriber_Data_while_waiting_for_Create_Session_Response.LWG
p787
aVtc_23_09_transfer_to_primary_and_change_vip_addr.LWG
p788
aVtc_05_017_gprs_imsi_attach_all_cipher_algorithms_supported_by_ms.LWG
p789
aVtc_52_36_reloc_wf_forw_rel_resp_interrupted_by_rau_on_new_iu_wrong_rai.LWG
p790
aVtc_52_38_reloc_wf_canc_loc_interrupted_by_rau_on_new_iu_wrong_rai.LWG
p791
aVtc_194_084_hss_reset_after_large_restart.LWG
p792
aVtc_194_991_downlink_A21_AIS_during_waiting_location_report__idr_flags_ef.LWG
p793
aVtc_11_584_israu_new_only_one_old_pdp_with_fqdn_then_activate_one_pdp_under_preferPgwForLteUe_with_systemprop_on.LWG
p794
aVtc_298_685_S4_3GDT_Iu_release_wait_RABR_ef_delete_bearer_request_ebi.LW
p795
aVtc_204_901_mme_eps_ho_target_insert_subscriber_data_with_odb_bit0_during_wf_tau_complete.LW
p796
aVtc_195_406_ue_trace_start_meanwhile_handover_required.LW
p797
aVtc_284_553_multi_pdn_connectity_apn_resolution_ext_with_different_apn_resolution_criteria.LW
p798
aVtc_194_078_cl_update_procedure_during_ul.LW
p799
aVtc_103_603_georedundant_modify_diameter_peer.LW
p800
aVtc_236_048_s4_3gdt_deactivation_during_waiting_for_modify_bearer_rsp_in_activation_procedure_no_context.LW
p801
aVtc_206_023_ebm_server_connection_failed.LW
p802
aVtc_23_09_transfer_to_primary_and_change_vip_addr.LW
p803
aVtc_273_266_tau_intra__sgw_relocation_active_enb_fails_default.LW
p804
aVtc_53_160_inter_new_srns_reloc_SGSN_mocn_enabled_PLMN_mocn_disabled.LW
p805
aVtc_53_14_inter_new_srns_reloc_t_reloc_rau_timeout1.LW
p806
aVtc_12_512_pmm_undefined_attach_when_updating_location_interfered_by_rnc_reset.LW
p807
aVtc_39_601_mas_unsucc_fwd_reloc_resp_mandatory_ie_missing_stop_source.LW
p808
aVtc_43_101__removal_of_disconnected_eNodeBs__CLI_removal.LW
p809
aVtc_308_010_HSS_Init_QoS_Modification__IDR_during_s1_reset_PDN_disconnected.LW
p810
aVtc_231_173_ms_init_detach_interfered_by_cancel_location_withdraw.LW
p811
aVtc_326_407_Inter_TAU_Recovery_With_Active_Flag__No_Modify_Bearer_Response_After_TAU.L14b
p812
aVtc_329_203_inter_tau_new_rs_restricted_emergency.L14b
p813
aVtc_225_321_mt_call_active_mode_nas_non_delivery__cs_service_notification__handover_required_meanwhile_CBR_received.L14b
p814
aVtc_225_407_mt_call_idle_mode_license_off.L14b
p815
aVtc_202_42_type_c_emergency_pdn_ecm_idle.L14b
p816
aVtc_243_334_tau_from_sgsn_s3_emergency_type_c_ptmsi_sign_mismatch.L14b
p817
aVtc_304_114_initial_ue_intra_tau_control_mode_threshold_exceeded_usc_ignore_replace_s1.L14b
p818
aVtc_304_121_initial_ue_intra_tau_control_mode_threshold_exceeded_usc_detach_wf_release_request_response.L14b
p819
aVtc_44_850_mme_assoc_reestablish__board_restart_s1_mme.L14b
p820
aVtc_103_006_load_sharing_between_peers.L14b
p821
aVtc_103_205_app_specific_realm_routing.L14b
p822
aVtc_103_831_DPR_cause_BUSY.L14b
p823
aVtc_220_413_csfb_to_1xrtt_in_ecm_connected_handover_required_meanwhile_CBR_received.L14b
p824
aVtc_266_026_DownlinkDataFailureInd_repeat_paging_timer_small_local_restart.L14b
p825
aVtc_204_048_inter_mme_handover_with_ta_change_before_handover_notify.L14b
p826
aVtc_214_1028_la_selection_af_oldlapreferred_combined_intra_tau_without_old_la.L14b
p827
aVtc_214_1099_la_selection_mf_reselection_combined_tau_with_imsi_attach_after_mme_triggered_imsi_detach_when_handling_sgs_paging.L14b
p828
aVtc_284_351_pdn_connectivity_pb_activate_1_dedicated_bearer_interrupted_by_path_switch_request.L14b
p829
aVtc_46_142_Ccheck_Apn_Oi_Replacement.L14b
p830
aVtc_295_136_mo_call_during_s1_ho_tau_request_when_wf_handover_notify.L14b
p831
aVtc_217_850_rau_to_sgsn_and_tau_back_to_mme_check_detach_register_table.L14b
p832
aVtc_100_67_intra_w_to_g_mf_with_lawful_intercept.WG14a
p833
aVtc_324_368_ef_cancel_location_with_updateProcedure_wf_modify_bearer_response_after_ula_hss.WG14a
p834
aVtc_304_029_guti_attach_reject__control_mode_threshold_exceeded_then_action_stop.LW
p835
aVtc_326_213_Intra_TAU_Recovery_multiple_retrieval_responses_with_different_revision_number.LW
p836
aVtc_326_407_Inter_TAU_Recovery_With_Active_Flag__No_Modify_Bearer_Response_After_TAU.LW
p837
aVtc_250_182_s6d_inter_new_rau_ul_rejected_roaming_not_allowed_remap_on_with_err_diag.LW
p838
aVtc_250_150_isd_with_odb_init_deactivation.LW
p839
aVtc_52_42_inter_old_srns_reloc_main_flow_interfered_by_mt_sms.LW
p840
aVtc_196_172_nrspca_during_t3385_when_receive_sgsn_context_ack_not_accepted.LW
p841
aVtc_51_006_intra_srns_reloc_no_response_from_target_rnc.LW
p842
aVtc_51_031_reloc_wf_reloc_req_ack_interrupted_by_identification_req.LW
p843
aVtc_51_061_reloc_wf_reloc_request_ack_interrupted_by_source_iu_release.LW
p844
aVtc_51_046_reloc_wf_rau_comp_interrupted_by_service_request_old_rai.LW
p845
aVtc_51_084_intra_srns_reloc_wf_rau_req_interrupted_by_delete_req.LW
p846
aVtc_51_048_reloc_wf_rau_comp_interrupted_by_service_request_new_rai_new_iu.LW
p847
aVtc_298_074_s4_nrspca_activate_same_nsapi_of_dedicated_bearer_apn_failed.LW
p848
aVtc_44_871_mme_assoc_reestablish__board_block_sbc.LW
p849
aVtc_194_505_Notification_during_Intra_TAU_without_SGW_Relocation_HSS_Reset_Before_TAU.LW
p850
aVtc_218_311_tau_from_sgsn_preserved_gbr_bearer_buffer_1_ubr_1_cbr.LW
p851
aVtc_244_602_delete_eslmc.LW
p852
aVtc_103_702_CEA_timeout.LW
p853
aVtc_262_164_new_mme_identification_procedure_missing_IE_imsi.LW
p854
aVtc_263_241_Attach_Flow__Attach_Request_with_diff_IE_while_waiting_for_identification_response.LW
p855
aVtc_53_55_inter_new_srns_reloc_interrupt_by_reset.LW
p856
aVtc_53_411_inter_new_srns_reloc_odb_bit_15_not_support.LW
p857
aVtc_236_049_s4_3gdt_rnc_reset_during_waiting_for_modify_beaer_rsp_in_service_request_procedure.W14b
p858
aVtc_12_512_pmm_undefined_attach_when_updating_location_interfered_by_rnc_reset.W14b
p859
aVtc_314_009_hss_init_qos_modification_gprs_data_earp_no_mbc.W14b
p860
aVtc_322_161_smooth_move_ef_nas_after_paging_response_ignore.W14b
p861
aVtc_275_037_tau_inter_new_bearer_status_mismatch.LWG
p862
aVtc_183_005_itc_folder_file_names.LWG
p863
aVtc_202_42_type_c_emergency_pdn_ecm_idle.LWG
p864
aVtc_220_031_csfb_to_1xrtt_in_ecm_idle_no_initial_context_setup_response.LWG
p865
aVtc_220_618_Extended_Service_Request__Attach_Request_while_waiting_for_Initial_Context_Setup_Response.LWG
p866
aVtc_53_30_inter_new_srns_reloc_wf_rau_req_interrupted_by_sm_status.LWG
p867
aVtc_11_112_deactivate_interrupted_by_detach.LWG
p868
aVtc_244_051_mt_lr_delete_bearer_request_received_wf_location_report.LWG
p869
aVtc_298_317_EF_SIBD_S4_Create_Bearer_Request.LWG
p870
aVtc_298_783_S4_3GDT_downlink_data_notification_wait_MBR_ef_detach.LWG
p871
aVtc_316_404_Periodic_Backup_subsequent_backup_triggered_by_Service_Request.LWG
p872
aVtc_05_012_gprs_imsi_attach_ms97_usim_gea2.LWG
p873
aVtc_196_172_nrspca_during_t3385_when_receive_sgsn_context_ack_not_accepted.LWG
p874
aVtc_52_15_inter_old_canc_loc_timeout.LWG
p875
aVtc_52_50_inter_old_srns_reloc_main_flow_interfered_by_downlink_packet.LWG
p876
aVtc_52_35_inter_old_srns_reloc_main_flow_interfered_by_rau.LWG
p877
aVtc_52_46_inter_old_srns_reloc_main_flow_interfered_by_activate_secondary.LWG
p878
aVtc_52_52_reloc_wf_forw_rel_resp_interrupted_by_rnc_reset.LWG
p879
aVtc_666_02_reboot_ss7_board.LWG
p880
aVtc_666_06_block_rt_board.LWG
p881
aVtc_180_03_test_multiple_ip_g_2contexts.LWG
p882
aVtc_73_44_ue_init_service_request_buffer_packets_with_3gdt.LWG
p883
aVtc_194_187_hss_reset_after_large_restart_with_full_imsi.LWG
p884
aVtc_44_004_small_restart__sctp_fe_restart.LWG
p885
aVtc_276_265_Inter_TAU_New_MME__Update_Bearer_Request_while_waiting_for_second_Modify_Bearer_Response.LWG
p886
aVtc_165_10_check_resource_alarms_ap.LWG
p887
aVtc_259_93_ef_provide_subscriber_information_service_request_w.LWG
p888
aVtc_179_022_Ccheck_ip_service.LWG
p889
aVtc_179_028_Ccheck_ipsec_sa.LWG
p890
aVtc_179_062_Ccheck_inbound_pf_rule.LWG
p891
aVtc_179_075_Ccheck_route_import_source.LWG
p892
aVtc_179_124_Ccheck_route_export_source.LWG
p893
aVtc_179_033_Ccheck_ipsec_sa.LWG
p894
aVtc_179_312_Ccheck_ntp_ipv6server.LWG
p895
aVtc_179_244_Ccheck_static_route.LWG
p896
aVtc_179_129_Ccheck_atm_vc.LWG
p897
aVtc_179_331_Ccheck_ipsec_sa.LWG
p898
aVtc_327_022_recovery_intra_TAU__initial_Detach_Request_while_waiting_for_Ue_Backup_Response.LWG
p899
aVtc_327_116_recovery_intra_TAU__Delete_Subscriber_Data_while_waiting_for_Identity_Response.LWG
p900
aVtc_327_225_recovery_service_request__Delete_Subscriber_Data_while_waiting_for_Create_Session_Response.LWG
p901
aVtc_327_604_Inter_TAU_Recovery__TAU_Request_while_waiting_for_Ue_Backup_Retrieval_Response.LWG
p902
aVtc_64_13_idle_connection_sgsn00013321.LWG
p903
aVtc_241_245_israu_new_with_bearer_3gdt_service_request_modify_bear_timeout.LWG
p904
aVtc_273_593_TAU_intra__active_flag_on_no_modify_bearer_response_sgw_change_two_pdn.LWG
p905
aVtc_273_594_TAU_intra__MME_Restart_active_flag_on_no_modify_bearer_response_sgw_change.LWG
p906
aVtc_273_664_tau_intra_periodic_SGW_unavailable_after_MME_large_restart__create_session_partition_fail.LWG
p907
aVtc_273_652_tau_intra_periodic_SGW_unavailable_after_MME_large_restart__with_static_SGW.LWG
p908
aVtc_273_651_tau_intra_periodic_SGW_unavailable_after_MME_large_restart__with_emergency_PDN.LWG
p909
aVtc_273_681_tau_intra_SGW_unavailable_active_flag_off_after_MME_large_restart__two_pdn_one_timeout.LWG
p910
aVtc_103_1101_resending_AIR_interfering_CLR.LWG
p911
aVtc_324_386_ef_mt_sms_wf_frcn_wf_frca_wf_ula.LWG
p912
aVtc_284_351_pdn_connectivity_pb_activate_1_dedicated_bearer_interrupted_by_path_switch_request.LWG
p913
aVtc_284_350_pdn_connectivity_interrupted_by_path_switch_request.LWG
p914
aVtc_06_182_apnresolving_apn_redirect_new_apn_not_subscribed.LWG
p915
aVtc_214_1139_la_selection_mf_reselection_ptau_during_ue_restoration.LWG
p916
aVtc_51_086_intra_srns_reloc_wf_rau_req_interrupted_by_sm_status.LWG
p917
aVtc_326_217_Intra_TAU_Recovery_with_active_flag_two_PDN_partial_fail.LWG
p918
aVtc_326_210_Intra_TAU_combined_after_large_restart_after_EPS_attach.LWG
p919
aVtc_326_216_Intra_TAU_Recovery_combined_type_Location_Update_Reject.LWG
p920
aVtc_326_263_Intra_TAU_with_unknown_GUTI_Restriction_2_pdn_roaming_restriction_emergency_pdn_recovered.LWG
p921
aVtc_326_218_Intra_TAU_Recovery_two_PDN_partial_fail.LWG
p922
aVtc_326_219_Intra_TAU_Recovery_then_rim_source_mme_gn_sgsn_selection_table_not_matched_dns_query_success.LWG
p923
aVtc_326_247_Intra_TAU_Recovery_fail_Modify_Bearer_timeout_active_flag.LWG
p924
aVtc_24_32_request_for_ms_information_not_known_in_sgsn.LWG
p925
aVtc_181_01_multiple_ip_deconf_gngtp_traffic_g.LWG
p926
aVtc_159_200_check_ctum_log.LWG
p927
aVtc_216_105_icmpv6_outNeighborAds.LWG
p928
aVtc_15_017_normal_rau_accept_timed_out_followed_by_new_normal_rau_new_ptmsi.G14b
p929
aVtc_24_55_combined_attach_when_nam_2.G14b
p930
aVtc_24_167_msc_pool_gs_null_combined_attach_lu_reject_only_one_msc_in_pool.G14b
p931
aVtc_80_004_activate_conversational_sub_streaming.G14b
p932
aVtc_80_067_ms_modify_ggsn_upgrades_to_stream_no_lic.G14b
p933
aVtc_80_120_activate_ggsn_downgrade_to_stream_and_upgrade_gbr_no_new_resources.G14b
p934
aVtc_90_024_activate_unspecified_traffic_class_QoS99.G14b
p935
aVtc_05_038_gprs_ptmsi_attach_identity_response_not_sent.G14b
p936
aVtc_05_055_gprs_imsi_attach_cell_re_selection_ordered.G14b
p937
aVtc_05_034_gprs_ptmsi_attach_identity_request.G14b
p938
aVtc_249_226_attach_activate_insert_inconsistent_odb_data.G14b
p939
aVtc_208_43_interception_after_small_restart.G14b
p940
aVtc_25_07_activate_ms99_req_subsc_qos_streaming_highest_background.G14b
p941
aVtc_30_009_cl_subscription_withdrawn.G14b
p942
aVtc_30_096_standalone_isd_with_extension.G14b
p943
aVtc_16_044_modify_context_tz_changed_paging_required_no_gmm_info.G14b
p944
aVtc_230_179_pgw_init_deletion_ef_update_bearer_at_ms.G14b
p945
aVtc_84_44_provide_subscriber_location_when_idle_status.G14b
p946
aVtc_04_108_gprs_imsi_attach_detach_before_attach_complete.G14b
p947
aVtc_88_004_attach_after_cl.G14b
p948
aVtc_21_44_gsm_activate_collission_intra_ra_update_with_context.G14b
p949
aVtc_27_013_mt_sms_update_location_after_large_restart.G14b
p950
aVtc_06_002_activate_deactivate_ms_97_gtp_97.G14b
p951
aVtc_06_043_ms_init_modification_ms97_gtp99.G14b
p952
aVtc_06_203_apnresolving_apnopid_hplmn_present_apn_criteria_si_ga.G14b
p953
aVtc_06_177_apnresolving_apnopid_hplmn_present_apn_redirect_no_default_apn.G14b
p954
aVtc_19_6_attach_periodic_move_initiated_attach_in_target.G14b
p955
aVtc_19_41_attach_move_initiated_detach_req_after_attach_complete_ignored.G14b
p956
aVtc_97_007_inter_sgsn_psho_reject_due_to_unknown_ra.G14b
p957
aVtc_17_62_inter_rau_new_one_context_old_99_wrong_ti.G14b
p958
aVtc_17_79_intra_rau_hz_to_g_bss.G14b
p959
aVtc_17_212_inter_rau_new_with_pdp_wf_context_resp_timeout_interfered_by_attach.G14b
p960
aVtc_297_001_intra_sgsn_intra_ra_psho_switch_on_mocn.G14b
p961
aVtc_297_513_intra_rau_roaming_auth_info_failed_with_cause_data_missing.G14b
p962
aVtc_316_202_IMSI_Attach_Emergency__Backup_UE.L14b
p963
aVtc_202_16_paging_timeout_with_gbr_bearers.L14b
p964
aVtc_275_206_tau_inter_new_emergency_type_b_restricted_no_rrc_or_active_flag.L14b
p965
aVtc_194_611_DSD__PDN_subscription_contexts_Withdrawal_All_PDN_Disconnect.L14b
p966
aVtc_194_1015_normal_attach_insert_odb_with_both_allowed_apn_and_not_allowed_apn_in_odb_free_apn_list_for_roamer__odb_bit0.L14b
p967
aVtc_43_040_eNB_configuration_update_mf.L14b
p968
aVtc_103_831_DPR_cause_BUSY.L14b
p969
aVtc_103_1101_resending_AIR_interfering_CLR.L14b
p970
aVtc_103_004_destination_realm_is_realm_of_a_peer.L14b
p971
aVtc_276_045_Inter_TAU_New_MME__S1_Reset_while_waiting_for_Identity_Response__enhanced_imei_check.L14b
p972
aVtc_214_1073_la_selection_mf_oldmscpreferred_combined_intra_tau_la_with_old_msc_not_ue_capable.L14b
p973
a.