(lp0
ccopy_reg
_reconstructor
p1
(c__main__
BuildResult
p2
c__builtin__
object
p3
Ntp4
Rp5
(dp6
S'id'
p7
V105558
p8
sS'number'
p9
I40
sbag1
(g2
g3
Ntp10
Rp11
(dp12
g7
V105588
p13
sg9
I41
sbag1
(g2
g3
Ntp14
Rp15
(dp16
g7
V105676
p17
sg9
I46
sbag1
(g2
g3
Ntp18
Rp19
(dp20
g7
V105757
p21
sg9
I44
sbag1
(g2
g3
Ntp22
Rp23
(dp24
g7
V105829
p25
sg9
I46
sbag1
(g2
g3
Ntp26
Rp27
(dp28
g7
V105847
p29
sg9
I41
sbag1
(g2
g3
Ntp30
Rp31
(dp32
g7
V105854
p33
sg9
I42
sbag1
(g2
g3
Ntp34
Rp35
(dp36
g7
V105984
p37
sg9
I31
sbag1
(g2
g3
Ntp38
Rp39
(dp40
g7
V106027
p41
sg9
I39
sbag1
(g2
g3
Ntp42
Rp43
(dp44
g7
V106180
p45
sg9
I44
sbag1
(g2
g3
Ntp46
Rp47
(dp48
g7
V106244
p49
sg9
I32
sbag1
(g2
g3
Ntp50
Rp51
(dp52
g7
V106341
p53
sg9
I35
sbag1
(g2
g3
Ntp54
Rp55
(dp56
g7
V106372
p57
sg9
I30
sbag1
(g2
g3
Ntp58
Rp59
(dp60
S'id'
p61
V106180
p62
sS'number'
p63
I44
sbag1
(g2
g3
Ntp64
Rp65
(dp66
g61
V106244
p67
sg63
I32
sbag1
(g2
g3
Ntp68
Rp69
(dp70
g61
V106341
p71
sg63
I35
sbag1
(g2
g3
Ntp72
Rp73
(dp74
g61
V106372
p75
sg63
I30
sba.