(lp0
ccopy_reg
_reconstructor
p1
(c__main__
BuildResult
p2
c__builtin__
object
p3
Ntp4
Rp5
(dp6
S'id'
p7
V105558
p8
sS'number'
p9
I40
sbag1
(g2
g3
Ntp10
Rp11
(dp12
g7
V105588
p13
sg9
I41
sbag1
(g2
g3
Ntp14
Rp15
(dp16
g7
V105676
p17
sg9
I46
sbag1
(g2
g3
Ntp18
Rp19
(dp20
g7
V105757
p21
sg9
I44
sbag1
(g2
g3
Ntp22
Rp23
(dp24
g7
V105829
p25
sg9
I46
sbag1
(g2
g3
Ntp26
Rp27
(dp28
g7
V105847
p29
sg9
I41
sbag1
(g2
g3
Ntp30
Rp31
(dp32
g7
V105854
p33
sg9
I42
sbag1
(g2
g3
Ntp34
Rp35
(dp36
g7
V105984
p37
sg9
I31
sbag1
(g2
g3
Ntp38
Rp39
(dp40
g7
V106027
p41
sg9
I39
sbag1
(g2
g3
Ntp42
Rp43
(dp44
g7
V106180
p45
sg9
I44
sbag1
(g2
g3
Ntp46
Rp47
(dp48
g7
V106244
p49
sg9
I32
sbag1
(g2
g3
Ntp50
Rp51
(dp52
g7
V106341
p53
sg9
I35
sbag1
(g2
g3
Ntp54
Rp55
(dp56
g7
V106372
p57
sg9
I30
sbag1
(g2
g3
Ntp58
Rp59
(dp60
g7
V106401
p61
sg9
I28
sbag1
(g2
g3
Ntp62
Rp63
(dp64
g7
V106429
p65
sg9
I37
sbag1
(g2
g3
Ntp66
Rp67
(dp68
g7
V106509
p69
sg9
I32
sbag1
(g2
g3
Ntp70
Rp71
(dp72
g7
V106567
p73
sg9
I24
sbag1
(g2
g3
Ntp74
Rp75
(dp76
g7
V106581
p77
sg9
I36
sbag1
(g2
g3
Ntp78
Rp79
(dp80
g7
V106658
p81
sg9
I27
sbag1
(g2
g3
Ntp82
Rp83
(dp84
g7
V106690
p85
sg9
I30
sbag1
(g2
g3
Ntp86
Rp87
(dp88
g7
V106711
p89
sg9
I33
sbag1
(g2
g3
Ntp90
Rp91
(dp92
g7
V106736
p93
sg9
I34
sbag1
(g2
g3
Ntp94
Rp95
(dp96
g7
V106802
p97
sg9
I42
sbag1
(g2
g3
Ntp98
Rp99
(dp100
g7
V106833
p101
sg9
I37
sbag1
(g2
g3
Ntp102
Rp103
(dp104
g7
V107229
p105
sg9
I60
sbag1
(g2
g3
Ntp106
Rp107
(dp108
g7
V107313
p109
sg9
I50
sbag1
(g2
g3
Ntp110
Rp111
(dp112
g7
V107392
p113
sg9
I35
sbag1
(g2
g3
Ntp114
Rp115
(dp116
g7
V107434
p117
sg9
I52
sbag1
(g2
g3
Ntp118
Rp119
(dp120
g7
V107454
p121
sg9
I50
sbag1
(g2
g3
Ntp122
Rp123
(dp124
g7
V107634
p125
sg9
I41
sbag1
(g2
g3
Ntp126
Rp127
(dp128
g7
V107647
p129
sg9
I73
sbag1
(g2
g3
Ntp130
Rp131
(dp132
g7
V107660
p133
sg9
I69
sbag1
(g2
g3
Ntp134
Rp135
(dp136
g7
V107670
p137
sg9
I100
sbag1
(g2
g3
Ntp138
Rp139
(dp140
g7
V107774
p141
sg9
I40
sbag1
(g2
g3
Ntp142
Rp143
(dp144
g7
V107911
p145
sg9
I54
sbag1
(g2
g3
Ntp146
Rp147
(dp148
g7
V108012
p149
sg9
I42
sbag1
(g2
g3
Ntp150
Rp151
(dp152
g7
V108215
p153
sg9
I45
sbag1
(g2
g3
Ntp154
Rp155
(dp156
g7
V108227
p157
sg9
I53
sbag1
(g2
g3
Ntp158
Rp159
(dp160
g7
V108327
p161
sg9
I48
sba.