(lp0
Vtc_308_030_IRAT_Mobility__HSS_Init_QoS_Modification_TAU_from_W_GnSGSN_MT_call_while_wf_SR.LWG
p1
aVtc_39_618_no_upd_pdp_ctx_resp_move_success_target_sgsn.LWG
p2
aVtc_666_02_reboot_ss7_board.LWG
p3
aVtc_666_06_block_rt_board.LWG
p4
aVtc_298_145_EF_NRSPCA_interfere_Activation.LWG
p5
aVtc_289_015_Modify_bearer__ERAB_modify_response_s1_intra_system_handover_triggered_resend_2_times.LWG
p6
aVtc_327_013_recovery_intra_TAU__initial_Attach_Request_while_waiting_for_Create_Session_Response.LWG
p7
aVtc_107_101_eth_vlan_cli.LWG
p8
aVtc_301_013_activate_ipv4v6_visitor_requested_ipv4v6_subscribed_ipv4v6_aifav_true_aifv_true_ipv6up_off.LWG
p9
aVtc_361_222_s3_handover_l_to_w_wf_20s_timerout_delete_session_failed.LWG
p10
aVtc_361_125_s3_handover_l_to_w_rau_request_wf_relocation_complete.LWG
p11
aVtc_51_020_intra_srns_reloc_all_ctx_not_stable.LWG
p12
aVtc_178_938_sctp_setprofile.LWG
p13
aVtc_132_002_create_ip_interface_eth.LWG
p14
aVtc_324_386_ef_mt_sms_wf_frcn_wf_frca_wf_ula.LWG
p15
aVtc_311_175_intra_srns_reloc_s4_with_sgw_change_wf_rau_complete_interrupted_by_direct_rau.LWG
p16
aVtc_209_21_attach_detach_imsi.LWG
p17
aVtc_193_061_attach_attach_S1_SelAuthFreq.LWG
p18
aVtc_309_200_sw_inventory_notification.LWG
p19
aVtc_309_121_replayComplete_notification.LWG
p20
aVtc_309_102_create_notification.LWG
p21
aVtc_309_123_two_sessions_notification.LWG
p22
aVtc_309_107_moref_notification.LWG
p23
aVtc_11_495_activate_ipv4_visitor_requested_ipv4v6_subscribed_ipv4v6_aifav_true_aifv_true_daf_off.LWG
p24
aVtc_11_594_activate_pdp_request_type_ipv4v6_subscribed_ipv6_daf_off_gst_nevertrypgw.LWG
p25
aVtc_242_620_rau_sgsn_s3_context_request_when_wf_timeout.LWG
p26
aVtc_275_209_tau_inter_new_emergency_type_d_auth_only.LWG
p27
aVtc_202_320_mf_seamless_move_by_mme_ue_ecm_idle_s1_sel_freq_1.LWG
p28
aVtc_23_532_eul11m_cdr_format_13a.LWG
p29
aVtc_30_139_hlr_reset_dp_unavailable.LWG
p30
aVtc_110_003_inbound_outbound_pf_rule_cli_icmp.LWG
p31
aVtc_110_005_inbound_outbound_pf_rule_cli_ip.LWG
p32
aVtc_110_004_inbound_outbound_pf_rule_cli_udp_sctp_tcp.LWG
p33
aVtc_578_01_check_pdc.LWG
p34
aVtc_266_300_Service_Request_SGW_unavailable__two_pdn.LWG
p35
aVtc_225_315_mt_call_active_mode_nas_non_delivery__cs_service_notification_meanwhile_handover_required.LWG
p36
aVtc_236_311_HO_over_S3_3GDT_switchback_ef_delete_bearer_request_received_wf_rab_assignment_response.LWG
p37
aVtc_304_004_attach_success__only_measurement_mode_threshold_reached.LWG
p38
aVtc_59_9_mtmsi_restart_counter.LWG
p39
aVtc_119_101_ospf_area_cli.LWG
p40
aVtc_100_67_intra_w_to_g_mf_with_lawful_intercept.LWG
p41
aVtc_321_082_gn_logging_error_indication_from_rnc.LWG
p42
aVtc_241_619_intra_rau_with_dedicated_bearer_sgw_change_wait_security_mode_complete_handle_dbr.LWG
p43
aVtc_241_801_israu_interfering_context_request_no_cancel_location_s4.LWG
p44
aVtc_59_11_sequence_check_replica_values.LWG
p45
aVtc_59_9_mtmsi_restart_counter.LWG
p46
aVtc_309_200_sw_inventory_notification.LWG
p47
aVtc_309_121_replayComplete_notification.LWG
p48
aVtc_309_102_create_notification.LWG
p49
aVtc_309_123_two_sessions_notification.LWG
p50
aVtc_309_107_moref_notification.LWG
p51
aVtc_73_21_itc_gtpu_s4_sgsn_send_echo_request_w.LWG
p52
aVtc_73_41_gtpu_sgsn_dont_send_gpu_echo_request_w.LWG
p53
aVtc_359_142_handover_from_3gpp_pgw_init_deletion_ef_ms_deact_Notify_ue_false.LWG
p54
aVtc_666_06_block_rt_board.LWG
p55
aVtc_284_330_delete_bearer_interfere_handover_to_non_3GPP_ecm_connected_multi_pdn.LWG
p56
aVtc_178_970_m3_ietf_set_prim_ip_path.LWG
p57
aVtc_208_43_interception_after_small_restart.LWG
p58
aVtc_297_407_move_at_periodic_rau.LWG
p59
aVtc_12_134_attach_with_extended_mmumoc_iu_inactivity_timer.LWG
p60
aVtc_257_18_pws_etws_stop_warning_request_rejected_when_olp.LWG
p61
aVtc_110_004_inbound_outbound_pf_rule_cli_udp_sctp_tcp.LWG
p62
aVtc_95_10_fingerprint.LWG
p63
aVtc_256_373_srvcc_ho_source_cs_only_failed_sv_pool_off_only_one_msc.LWG
p64
aVtc_256_365_srvcc_ho_source_cs_only_sv_pool_off_default_msc_offloading_other_unavailable.LWG
p65
aVtc_310_263__ef__Initial_UE_Service_Request_wf_PS_to_CS_Complete_and_FR_Complete.LWG
p66
aVtc_310_244_ef__S1_Reset_wf_FR_Complete_PS_to_CS_Complete_received.LWG
p67
aVtc_218_311_tau_from_sgsn_preserved_gbr_bearer_buffer_1_ubr_1_cbr.LWG
p68
aVtc_218_302_tau_inter_new_new_sgw_too_high_QoS_for_one_default_and_one_dedicated_bearer_gn_sgsn.LWG
p69
aVtc_289_040_Modify_bearer__ERAB_modify_request_meanwhile_handover_required_HO_success_SGW_change.LWG
p70
aVtc_361_221_s3_handover_l_to_w_with_cl_wf_20s_timerout.LWG
p71
aVtc_361_222_s3_handover_l_to_w_wf_20s_timerout_delete_session_failed.LWG
p72
aVtc_225_312_mt_call_active_mode_nas_non_delivery__s1_intra_system_handover_triggered_resend_2_times.LWG
p73
aVtc_578_01_check_pdc.LWG
p74
aVtc_308_030_IRAT_Mobility__HSS_Init_QoS_Modification_TAU_from_W_GnSGSN_MT_call_while_wf_SR.LWG
p75
aVtc_119_203_ospf_interface_cli_alg_vals.LWG
p76
aVtc_259_42_isd_tads_s4_gsm_intra_rau.LWG
p77
aVtc_132_002_create_ip_interface_eth.LWG
p78
aVtc_248_365_inter_l_to_w_new_iu_release_request_received_buffered_ubr_discarded.LWG
p79
aVtc_214_1059_la_selection_mf_oldlapreferred_combined_tau_dyn_tailist_without_old_la.LWG
p80
aVtc_341_609_x2_activity_event_isc_tau_from_gn_sgsn.LWG
p81
aVtc_239_011_israu_interfering_context_request_no_cancel_location_s4.LWG
p82
aVtc_267_509_Service_Request_SGW_unavailable__Context_Request_while_wf_Create_Session_Response.LWG
p83
aVtc_205_71_00_list_ss7_pm_types.LWG
p84
aVtc_205_40_ss7_M3ua.LWG
p85
aVtc_119_202_ospf_interface_opt_vals.LWG
p86
aVtc_232_402_bfd__ipv6_alarm.LWG
p87
aVtc_578_32_check_ebm_para_statistics_ue_return_duration.LWG
p88
aVtc_218_311_tau_from_sgsn_preserved_gbr_bearer_buffer_1_ubr_1_cbr.LWG
p89
aVtc_59_9_mtmsi_restart_counter.LWG
p90
aVtc_361_221_s3_handover_l_to_w_with_cl_wf_20s_timerout.LWG
p91
aVtc_361_003_rau_l_to_w_without_cl_dedicated_bearers_released.LWG
p92
aVtc_324_386_ef_mt_sms_wf_frcn_wf_frca_wf_ula.LWG
p93
aVtc_327_036_recovery_intra_TAU__initial_intra_TAU_Request_while_waiting_for_Modify_Bearer_Response.LWG
p94
aVtc_327_101_recovery_intra_TAU__Cancel_Location_update_procedure_while_waiting_for_Ue_Backup_Response.LWG
p95
aVtc_178_938_sctp_setprofile.LWG
p96
aVtc_178_970_m3_ietf_set_prim_ip_path.LWG
p97
aVtc_39_602_mas_unsucc_fwd_reloc_resp_srv_not_supportted_stop_source.LWG
p98
aVtc_259_99_ef_s6d_s4_attach_old_w.LWG
p99
aVtc_259_116_ef_s6d_tads_interfere_inter_rau_old_w.LWG
p100
aVtc_297_407_move_at_periodic_rau.LWG
p101
aVtc_309_200_sw_inventory_notification.LWG
p102
aVtc_309_121_replayComplete_notification.LWG
p103
aVtc_309_102_create_notification.LWG
p104
aVtc_309_107_moref_notification.LWG
p105
aVtc_309_123_two_sessions_notification.LWG
p106
aVtc_250_105_ignore_IDR_when_EPS_sub_downgrade_GPRS_sub.LWG
p107
aVtc_306_1130_ef_seamless_move_target_receive_detach_request_with_switchoff_wf_service_request.LWG
p108
aVtc_321_082_gn_logging_error_indication_from_rnc.LWG
p109
aVtc_196_058_nrspca_alloc_with_diff_ti.LWG
p110
aVtc_06_195_apn_redirect_subscription_feature_off.LWG
p111
aVtc_208_31_sms_mo.LWG
p112
aVtc_132_002_create_ip_interface_eth.LWG
p113
aVtc_666_06_block_rt_board.LWG
p114
aVtc_666_02_reboot_ss7_board.LWG
p115
aVtc_298_438_ms_init_deact_ef_delicated_bearer_deact_interfered_by_deactivate_pdp_request_pdn_level.LWG
p116
aVtc_311_216_intra_srns_reloc_s4_sgw_change_wf_rau_complete_interrupted_by_downlink_data_notification.WG14a
p117
aVtc_311_220_intra_srns_reloc_s4_wf_modify_bearer_rsp_interrupted_by_downlink_data_notification_with_cause.WG14a
p118
aVtc_311_214_intra_srns_reloc_s4_sgw_change_wf_delete_session_rsp_interrupted_by_downlink_data_notification.WG14a
p119
aVtc_311_211_intra_srns_reloc_s4_wf_reloc_req_ack_interrupted_by_downlink_data_notification.WG14a
p120
aVtc_73_31_isc_rau_g_to_w.WG14a
p121
aVtc_324_368_ef_cancel_location_with_updateProcedure_wf_modify_bearer_response_after_ula_hss.WG14a
p122
aVtc_275_037_tau_inter_new_bearer_status_mismatch.LW
p123
aVtc_275_051_tau_inter_new_active_flag_keep_old_sgw_two_pdn_connections_all_ok.LW
p124
aVtc_248_453_inter_l_to_w_new_partially_succ_interfering_attach_request_received_wf_rau_complete.LW
p125
aVtc_303_002_Service_Request__Downlink_A21_AIS_while_wf_Initial_Context_Setup_Response__Extended_Service_Request_while_wf_Initial_Context_Setup_Response.LW
p126
aVtc_39_780_smooth_move_service_request_wf_move_ms_finished.LW
p127
aVtc_318_201_idle_deactivate_dedicated_bearers_one_by_one_reactivate_req.LW
p128
aVtc_38_232_attach_then_ptmsi_attach_no_userdata_in_connection_request.LW
p129
aVtc_322_098_smooth_move_ef_reset_wf_service_request.LW
p130
aVtc_268_014_UE_Release_Flow__Downlink_A21_AIS_while_waiting_for_Relase_Access_Bearer_Response.LW
p131
aVtc_342_057_x2_isc_rau_g_to_w_with_one_pdp.LW
p132
aVtc_276_045_Inter_TAU_New_MME__S1_Reset_while_waiting_for_Identity_Response__enhanced_imei_check.LW
p133
aVtc_290_026_Timer_Based_GBR_Deact__delete_subscription_data_wf_release_access_bearer_response_before_timer_expires.LW
p134
aVtc_52_16_inter_old_relocation_cancel_even_later.LW
p135
aVtc_289_110_multi_pdns_S1_Reset_while_wf_ERAB_Modify_Resp.LW
p136
aVtc_326_380_Service_Request_with_unknown_STMSI_multiple_retrieve_responses.LW
p137
aVtc_326_252_Intra_TAU_Recovery_after_node_restart_then_pool_move.LW
p138
aVtc_193_103_service_req_no_answer_from_hss_emm_cause_17.LW
p139
aVtc_306_1332_ef_seamless_move_target_receive_delete_subscriber_PDN_Withdrawal.LW
p140
aVtc_298_145_EF_NRSPCA_interfere_Activation.LW
p141
aVtc_236_284_HO_over_S3_3GDT_switchback_ef_ms_deact_ti_dedicated_wf_rab_assignment_response.LW
p142
aVtc_327_151_recovery_intra_TAU_Create_Bearer_Request_while_waiting_for_Modify_Bearer_Response.LW
p143
aVtc_327_168_recovery_intra_TAU_SGSN_Context_Request_while_waiting_for_Retrieval_Response.LW
p144
aVtc_241_473_intra_rau_with_dedicated_bearer_create_session_response_all_bearers_failed.LW
p145
aVtc_324_114_af_all_gbr_dedicated_bearer_fail_3gdt.LW
p146
aVtc_324_420_ef_payload_buffered.LW
p147
aVtc_324_386_ef_mt_sms_wf_frcn_wf_frca_wf_ula.LW
p148
aVtc_324_426_ef_payload_buffered_wf_security_mode_complete_payload_different_pdn_non_3gdt.LW
p149
aVtc_274_276_Intra_and_pTAU__Handover_Required_with_old_TA_MSC_change_while_waiting_for_Location_Update_response_TAU_IMSI_Detach_TAU.LW
p150
aVtc_274_380_Intra_and_pTAU__Downlink_A21_AIS_while_waiting_for_Create_Session_Response.LW
p151
aVtc_274_381_Intra_and_pTAU__Downlink_A21_AIS_while_waiting_for_Authentication_Response.LW
p152
aVtc_12_86_service_request_pmmidle_data_no_context.LW
p153
aVtc_196_058_nrspca_alloc_with_diff_ti.LW
p154
aVtc_38_65_israu_old_sgsn_interfering_after_acknowledge.W14b
p155
aVtc_342_057_x2_isc_rau_g_to_w_with_one_pdp.W14b
p156
aVtc_342_064_x2_secondary_pdp_from_ms.W14b
p157
aVtc_209_44_sgsn_init_pdp_modification.W14b
p158
aVtc_11_271_operator_deactivation.W14b
p159
aVtc_231_113_rnc_reset_during_ms_act_si_ms_deact_rnc_contact.W14b
p160
aVtc_236_041_s4_3gdt_detach_modify_bearer_response_reject_in_active_procedure.W14b
p161
aVtc_236_045_s4_3gdt_iu_release_during_waiting_for_modify_bearer_rsp_in_service_request_procedure.W14b
p162
aVtc_236_091_service_request_si_iu_release_at_sgw_flow_si_cancel_location.W14b
p163
aVtc_298_132_EF_NRSPCA_S4_Activate_TiFlag.W14b
p164
aVtc_31_029_service_request_ul_fails_gprs_subscription_unknown.W14b
p165
aVtc_73_41_gtpu_sgsn_dont_send_gpu_echo_request_w.LWG
p166
aVtc_73_40_gtpu_sgsn_send_gpu_echo_request_w.LWG
p167
aVtc_306_1130_ef_seamless_move_target_receive_detach_request_with_switchoff_wf_service_request.LWG
p168
aVtc_306_1255_ef_seamless_move_target_receive_sgsn_context_request_wf_lua.LWG
p169
aVtc_274_276_Intra_and_pTAU__Handover_Required_with_old_TA_MSC_change_while_waiting_for_Location_Update_response_TAU_IMSI_Detach_TAU.LWG
p170
aVtc_273_360_tau_intra_normal_between_ipv4_and_ipv6.LWG
p171
aVtc_243_520_tau_from_sgsn_s3_change_to_non_3gpp_in_wf_session.LWG
p172
aVtc_243_210_tau_from_sgsn_s3_active_flag_get_new_sgw_two_pdn_connections_all_failed.LWG
p173
aVtc_12_32_attach_ptmsi_new_sgsn_system_failure.LWG
p174
aVtc_79_026_sgsn_init_modification_rnc_not_supporting_modify_II.LWG
p175
aVtc_198_011_UDPFragments.LWG
p176
aVtc_345_330_ef__mo_csfb_with_psho__service_request_while_wf_forward_relocation_complete.LWG
p177
aVtc_110_004_inbound_outbound_pf_rule_cli_udp_sctp_tcp.LWG
p178
aVtc_110_005_inbound_outbound_pf_rule_cli_ip.LWG
p179
aVtc_298_438_ms_init_deact_ef_delicated_bearer_deact_interfered_by_deactivate_pdp_request_pdn_level.LWG
p180
aVtc_119_202_ospf_interface_opt_vals.LWG
p181
aVtc_59_12_sequence_on_demand_indexbased_replica_values_during_takeover.LWG
p182
aVtc_59_9_mtmsi_restart_counter.LWG
p183
aVtc_294_067_s1_intra_handover_type_d_with_emergency_pdn_no_tau_after_ho.LWG
p184
aVtc_204_253_mme_eps_ho_target_imei_check_answer_whitelisted_after_tau_accept.LWG
p185
aVtc_56_10_cm_restart_during_SR.LWG
p186
aVtc_666_06_block_rt_board.LWG
p187
aVtc_666_02_reboot_ss7_board.LWG
p188
aVtc_06_050_sgsn_init_modification_ms_99_gtp_99_ggsn_timeout.LWG
p189
aVtc_241_647_intra_rau_with_bearer_sgw_change_with_3gdt_release_access_resp_interfer_by_ddn.LWG
p190
aVtc_241_619_intra_rau_with_dedicated_bearer_sgw_change_wait_security_mode_complete_handle_dbr.LWG
p191
aVtc_178_970_m3_ietf_set_prim_ip_path.LWG
p192
aVtc_03_1_gprs_ptmsi_attach_new_sgsn_identification_req_resp_gtp97.LWG
p193
aVtc_266_105_service_request_icsr_and_crc_timeout.LWG
p194
aVtc_346_538_AF__HO_Inter_Target__no_tau_req_terminate_sx.LWG
p195
aVtc_208_40_sgsn_init_pdp_modification.LWG
p196
aVtc_208_43_interception_after_small_restart.LWG
p197
aVtc_208_22_attach_detach_imsi.LWG
p198
aVtc_324_006_mf_ser_req_signaling_after_ack_3gdt.LWG
p199
aVtc_39_601_mas_unsucc_fwd_reloc_resp_mandatory_ie_missing_stop_source.LWG
p200
aVtc_95_3_load_lkf.LWG
p201
aVtc_231_173_ms_init_detach_interfered_by_cancel_location_withdraw.LWG
p202
aVtc_132_002_create_ip_interface_eth.LWG
p203
aVtc_309_200_sw_inventory_notification.LWG
p204
aVtc_309_121_replayComplete_notification.LWG
p205
aVtc_309_102_create_notification.LWG
p206
aVtc_309_107_moref_notification.LWG
p207
aVtc_309_123_two_sessions_notification.LWG
p208
aVtc_259_31_af_provide_subscriber_information_w_imsi_unknown.LWG
p209
aVtc_44_004_small_restart__sctp_fe_restart.LWG
p210
aVtc_78_117_intra_isc_l_to_w_with_selected_plmn.LWG
p211
aVtc_266_152_DownlinkDataNotification_with_max_CSG_Id_list_to_open_cell_below_HeNB_GW.L14b
p212
aVtc_242_001_rau_to_sgsn_s3_keep_sgw.L14b
p213
aVtc_273_407_tau_intra_normal_while_deactivate_gbr_bearer.L14b
p214
aVtc_257_21_pws_etws_write_replace_warning_request_with_unknown_tai.L14b
p215
aVtc_257_30_pws_sctp_device_failure.L14b
p216
aVtc_276_045_Inter_TAU_New_MME__S1_Reset_while_waiting_for_Identity_Response__enhanced_imei_check.L14b
p217
aVtc_304_266_tau_from_gnsgsn_2g_control_mode_wf_delete_all_bearers_response_exception_case_reject_congestion_subscriber_cancelled.L14b
p218
aVtc_304_004_attach_success__only_measurement_mode_threshold_reached.L14b
p219
aVtc_243_123_tau_from_sgsn_s3_modify_bearer_response_system_failure.L14b
p220
aVtc_243_291_tau_at_state_deregistered.L14b
p221
aVtc_327_026_recovery_intra_TAU__initial_Detach_Request_while_waiting_for_TAU_Complete.L14b
p222
aVtc_327_492_recovery_service_request__enb_configuration_update_while_waiting_for_sub_procedure.L14b
p223
aVtc_327_490_recovery_service_request__enb_configuration_update_while_waiting_for_identity_response.L14b
p224
aVtc_327_601_Inter_TAU_Recovery__Attach_Request_while_waiting_for_Ue_Backup_Retrieval_Response.L14b
p225
aVtc_332_070_mf__cs_paging_during_ps_paging_ps_is_mps_and_cs_not_mps.L14b
p226
aVtc_284_322_deactivate_3_of_3_default_bearers_in_parallel.L14b
p227
aVtc_284_311_mme_initiated_deactivate_bearer_2_ded_in_parallel.L14b
p228
aVtc_284_159_pdn_conn_successful_csr_piggybacked_with_cbr_qos_too_high_for_some_bearers.L14b
p229
aVtc_284_155_pdn_connectivity_pb_activate_dedicated_bearer_retransmission_from_ue.L14b
p230
aVtc_214_093_cc_La_Check_Ga.L14b
p231
aVtc_214_312_combined_tau_intra_la_change_new_msc_while_wf_tau_complete.L14b
p232
aVtc_214_211_mo_sms_interfering_location_update_timeout_during_inter_handover_new.L14b
p233
aVtc_44_071_attach_long_imsi.L14b
p234
aVtc_347_211_Attach__RAR_while_waiting_for_Attach_Complete.L14b
p235
aVtc_47_004_mobile_reachble_timer_ap_loss.L14b
p236
aVtc_221_052__Emergency_type_a_notification_on_emergency_lbi_id_3_default.L14b
p237
aVtc_221_030__Selection_Table_Matches_On_APN.L14b
p238
aVtc_221_125_Downlink_Data_Notification_2_EBI_1_QCI_higher_than_9.L14b
p239
aVtc_221_054__Emergency_type_a_notification_on_normal_ebi_id_3_default.L14b
p240
aVtc_277_004_tau_inter_old_sgw_changed.L14b
p241
aVtc_303_004_X2_Based_HO__Downlink_A21_AIS_while_wf_TAU_Request_and_Emm_Information_in_nas_nondeliver.L14b
p242
aVtc_260_065_mbms_session_start_af_one_mce_response_after_timeout.L14b
p243
aVtc_202_16_paging_timeout_with_gbr_bearers.L14b
p244
aVtc_202_41_type_a_emergency_pdn_ecm_idle.L14b
p245
aVtc_202_392_mf_seamless_move_target_service_request_before_ula_with_ddn_no_lur.L14b
p246
aVtc_280_136_activate_bearer_from_idle_paging_fail.L14b
p247
aVtc_326_485_Inter_TAU_Recovery_Unknown_GUTI__Then_SRVCC_One_Voice_Bearer.L14b
p248
aVtc_256_198_mme_eps_srvcc_ho_source_cs_only_cancel_location_normal_srvcc_with_emergency_pdn_wf_session_finished.L14b
p249
aVtc_256_200_mme_eps_srvcc_ho_source_cs_only_normal_pdn_srvcc_with_emergency_pdn.L14b
p250
aVtc_306_160_ef_seamless_move_source_receive_delete_subscriber_data_wf_frr_ecm_idle.L14b
p251
aVtc_306_236_ef_seamless_move_source_receive_update_bearer_request.L14b
p252
aVtc_306_113_ef_seamless_move_source_receive_sgsn_context_request_wf_source_guti_reallocation_complete.L14b
p253
aVtc_306_033_ef_seamless_move_source_receive_tau_request_wf_source_guti_reallocation_complete.L14b
p254
aVtc_261_42_isd_ef_mme_s1_ho_target_inter.L14b
p255
aVtc_226_034_PTMSI_Attach_reject_W_measurement_control_exceed_threshold_AP_transfer.WG14a
p256
aVtc_324_069_af_modify_bearer_dedicated_bearer_fail.WG14a
p257
aVtc_324_456_ef_detach_request_poweroff_abort_wf_modify_bearer_response_wf_update_location_hlr_ack_timeout.WG14a
p258
aVtc_322_161_smooth_move_ef_nas_after_paging_response_ignore.WG14a
p259
aVtc_33_17_isc_rau_authenticating_interrupted_by_subscription_withdrawn.WG14a
p260
aVtc_28_019_mt_sms_multiple.W14b
p261
aVtc_236_045_s4_3gdt_iu_release_during_waiting_for_modify_bearer_rsp_in_service_request_procedure.W14b
p262
aVtc_209_44_sgsn_init_pdp_modification.W14b
p263
aVtc_11_215_activate_one_primary_one_secondary_pdp_context_with_limitation.W14b
p264
aVtc_245_340_israu_new_l_to_w_with_GBR_dedicated_bearer_ipv6_3gdt.W14b
p265
aVtc_334_232_path_failure_intra_sgsn_ps_ho_no_sgw_change_tz_change.W14b
p266
aVtc_342_057_x2_isc_rau_g_to_w_with_one_pdp.W14b
p267
aVtc_231_117_rnc_reset_when_sgsn_initiated_del_all_session.W14b
p268
aVtc_98_112_inter_sgsn_new_psho_all_pdp_type_ipv4v6_daf_off.G14b
p269
aVtc_297_407_move_at_periodic_rau.G14b
p270
aVtc_107_101_eth_vlan_cli.LWG
p271
aVtc_103_1109_attach_resend_of_AIR_no_more_peers.LWG
p272
aVtc_292_130_x2_ho_with_sgw_relocation_1_pdn_fail_in_enb_1_pdn_fail_in_sgw_1_dedicated_failed.LWG
p273
aVtc_26_024_modification_interrupted_by_insert_subscriber_data_II.LWG
p274
aVtc_347_290_activate_dedicated_bearer__RAR_while_waiting_erab_setup_response.LWG
p275
aVtc_324_386_ef_mt_sms_wf_frcn_wf_frca_wf_ula.LWG
p276
aVtc_295_130_Intra_S1_HO__Sgw_reloc__Downlink_A21_AIS_while_waiting_for_Delete_Session_Response.LWG
p277
aVtc_666_02_reboot_ss7_board.LWG
p278
aVtc_39_602_mas_unsucc_fwd_reloc_resp_srv_not_supportted_stop_source.LWG
p279
aVtc_51_020_intra_srns_reloc_all_ctx_not_stable.LWG
p280
aVtc_294_012_intra_s1_ho_with_time_zone_change.LWG
p281
aVtc_220_204_csfb_to_1xrtt_delete_bearer_ho_to_no_3gpp_wf_delete_gbr_bearer_response.LWG
p282
aVtc_304_416_Service_Request_UE_Initiated__control_mode_threshold_exceeded_implicit_detach_int_prot_nok.LWG
p283
aVtc_327_021_recovery_intra_TAU__uplink_Detach_Request_while_waiting_for_Update_Location_Response.LWG
p284
aVtc_284_342_pdn_connectivity_request_emergency_too_high_subscribed_qos.LWG
p285
aVtc_306_1130_ef_seamless_move_target_receive_detach_request_with_switchoff_wf_service_request.LWG
p286
aVtc_53_45_inter_new_srns_reloc_ef_reset5.LWG
p287
aVtc_38_81_intra_rau_new_rnc_with_authentication_no_ptmsi_signature.LWG
p288
aVtc_165_10_check_resource_alarms_ap.LWG
p289
aVtc_259_30_af_provide_subscriber_information_g_imsi_unknown.LWG
p290
aVtc_241_688_israu_new_sgw_change_with_all_bearer_failed_si_delete_bearer_request.LWG
p291
aVtc_226_502_Inter_RAU_W2W_Gn_SGSN_ControlMode_On_reject_Congestion_wf_20s_delay.LWG
p292
aVtc_194_991_downlink_A21_AIS_during_waiting_location_report__idr_flags_ef.LWG
p293
aVtc_329_157_intra_tau_rs_restricted_tai_list_rs_config_change_range.LWG
p294
aVtc_64_2_max_transaction_size_open.LWG
p295
aVtc_243_205_tau_from_sgsn_s3_keep_old_sgw_two_pdn_connections_all_failed.LWG
p296
aVtc_293_009_X2_Based_HO__TAU_Request_in_uplink_NAS_from_source_while_wf_Modify_Bearer_Response.LWG
p297
aVtc_293_040_X2_Based_HO__Downlink_A21_AIS_while_wf_Modify_Bearer_Response.LWG
p298
aVtc_52_59_inter_old_relocation_cancel_radio_connection_lost.LWG
p299
aVtc_280_142_tz_change_create_bearer_intra_tau_active.LWG
p300
aVtc_44_001_large_restart.LWG
p301
aVtc_309_200_sw_inventory_notification.LWG
p302
aVtc_309_102_create_notification.LWG
p303
aVtc_309_121_replayComplete_notification.LWG
p304
aVtc_309_123_two_sessions_notification.LWG
p305
aVtc_309_107_moref_notification.LWG
p306
aVtc_19_26_moving_2_mss_to_different_targets.LWG
p307
aVtc_342_057_x2_isc_rau_g_to_w_with_one_pdp.LW
p308
aVtc_236_107_s4_3gdt_based_on_sr_change_DtThresholdNumber.LW
p309
aVtc_289_028_Modify_bearer__Downlink_nas_non_delivery_s1_intra_system_handover_triggered.LW
p310
aVtc_209_31_sms_mo.LW
p311
aVtc_103_701_MME_restarts.LW
p312
aVtc_103_1006_secondary_dpl_used_when_all_peers_in_dpl_unavailable_no_sls_peers_same_prio.LW
p313
aVtc_298_006_S4_Network_Request_Secondary_PDP_Activation_UE_no_Response_timeout.LW
p314
aVtc_298_438_ms_init_deact_ef_delicated_bearer_deact_interfered_by_deactivate_pdp_request_pdn_level.LW
p315
aVtc_218_311_tau_from_sgsn_preserved_gbr_bearer_buffer_1_ubr_1_cbr.LW
p316
aVtc_335_35_wifi_to_mobility_in_ecm_idle_af__no_estimation_response_from_eNB_timeout_max_3000.LW
p317
aVtc_276_045_Inter_TAU_New_MME__S1_Reset_while_waiting_for_Identity_Response__enhanced_imei_check.LW
p318
aVtc_211_015_streamed_cell_trace_mapping_alarm_cease.LW
p319
aVtc_306_1130_ef_seamless_move_target_receive_detach_request_with_switchoff_wf_service_request.LW
p320
aVtc_247_133_inter_w_to_l_old_handover_interrupted_by_create_bearer_request.LW
p321
aVtc_311_189_intra_srns_reloc_s4_sgw_change_wf_delete_session_rsp_interrupted_by_target_iu_release.LW
p322
aVtc_214_1103_la_selection_mf_reselection_combined_intra_tau_with_imsi_attach_after_csfb.LW
p323
aVtc_324_424_ef_payload_buffered_wf_security_mode_complete_payload_different_contextId.LW
p324
aVtc_79_072_activate_reject_rab_fail_qos_cause_115_fallback_streaming.LW
p325
aVtc_243_205_tau_from_sgsn_s3_keep_old_sgw_two_pdn_connections_all_failed.LW
p326
aVtc_275_629_tau_inter_new_sgw_unavailable_no_other_sgw_found.LW
p327
aVtc_44_032_config_ep_2.LW
p328
aVtc_44_004_small_restart__sctp_fe_restart.LW
p329
aVtc_44_044_config_ep_SLg.LW
p330
aVtc_327_316_recovery_service_request__initial_Attach_Request_while_waiting_for_Sub_Procedure__Create_Session_Response_Old_Sgw_Unavailable.L14b
p331
aVtc_103_850_error_code_DIAMETER_REALM_NOT_SERVED.L14b
p332
aVtc_306_135_ef_seamless_move_source_receive_s1_setup_wf_frcn.L14b
p333
aVtc_306_1335_ef_seamless_move_target_receive_cli_delete_subscriber_wf_service_request.L14b
p334
aVtc_257_19_pws_etws_resend_write_replace_warning_request_with_ta_list.L14b
p335
aVtc_257_30_pws_sctp_device_failure.L14b
p336
aVtc_197_571_sgw_selection_removal_of_sgw_infomation2.L14b
p337
aVtc_347_009_Inter_TAU_New_MME__RAR_while_waiting_for_Modify_Bearer_Response_after_ICSR.L14b
p338
aVtc_346_447_AF__Intra_TAU_CCA_Update_unable_to_comply_5012.L14b
p339
aVtc_346_550_AF__HO_Inter_Target_from_gn_CCR_Initial_no_CCA_received.L14b
p340
aVtc_277_004_tau_inter_old_sgw_changed.L14b
p341
aVtc_273_550_tau_intra__sgw_relocation_with_csg_id.L14b
p342
aVtc_244_701_mt_lr_LPPa_mobility_unstable_before_lr.L14b
p343
aVtc_202_523_seamless_move_target_sgw_unavailable_service_request_create_session_failure.L14b
p344
aVtc_204_046_inter_mme_handover_with_ta_change_tai_from_global_enodebid_s1ho.L14b
p345
aVtc_204_072_mme_eps_ho__ho_required_and_ho_cancel_during_tau.L14b
p346
aVtc_310_261__ef__Initial_UE_Service_Request_wf_PS_to_CS_Response.L14b
p347
aVtc_256_019_mme_eps_srvcc_ho_source_cs_only_emergency_mf_after_emergency_attach_no_imsi_with_msc_pool.L14b
p348
aVtc_256_036_mme_eps_srvcc_ho_source_cs_only_without_voice_bearer.L14b
p349
aVtc_256_187_mme_eps_srvcc_ho_source_cs_only_cancel_location_wf_delete_bearer_request.L14b
p350
aVtc_326_203_Intra_TAU_after_node_restart_with_two_retrieval_responses_with_SGW_change_with_emergency_PDN.L14b
p351
aVtc_217_850_rau_to_sgsn_and_tau_back_to_mme_check_detach_register_table.L14b
p352
aVtc_329_003_attach_rs_allowed_emergency_plmn_change_ula_fails.L14b
p353
aVtc_262_072_attach_second_attach_rejected_due_to_congestion.L14b
p354
aVtc_262_1055_imsi_attach_with_csg_id_is_rejected.L14b
p355
aVtc_316_258_Intra_TAU_Change_Supported_Codecs__Backup_UE.L14b
p356
aVtc_266_004_DownlinkDataNotification_PPF_Clear.L14b
p357
aVtc_265_004_Detach_Flow_UE_init__Service_Request_while_waiting_for_Delete_Session_Response.L14b
p358
aVtc_265_131_Detach_Flow_NW_init__Attach_Request_int_prot_nok_while_waiting_for_Delete_Session_Response.L14b
p359
aVtc_194_006_cl_update_procedure_coop_mme.L14b
p360
aVtc_293_222_X2_Based_HO_with_SGW_change__ue_release_request_then_back_to_old_eNodeB_with_SR_failed.L14b
p361
aVtc_263_400_Attach_Flow__Insert_Subcriber_data_ODB_bit0_waiting_for_update_location_response.L14b
p362
aVtc_203_100_S1_Based_HO_Source_MME_Attach_Request_while_waiting_for_Forward_Relocation_Response.L14b
p363
aVtc_214_093_cc_La_Check_Ga.L14b
p364
aVtc_214_099_large_and_sctp_restart.L14b
p365
aVtc_214_1073_la_selection_mf_oldmscpreferred_combined_intra_tau_la_with_old_msc_not_ue_capable.L14b
p366
aVtc_280_143_activate_dedicated_bearer_pvi_pci_downgraded.L14b
p367
aVtc_193_215_intruder_auth_rej_MAC_fail.L14b
p368
aVtc_332_053_2_mf__paging_due_to_cdma2000_signaling_during_paging_due_to_CBR_latest_with_prio.L14b
p369
aVtc_197_703_apn_oi_replacement_pdn_connectivity_with_ims_ue_level_only.LW
p370
aVtc_53_407_inter_new_mbr_set_to_zero_with_eps_subscription_data.LW
p371
aVtc_298_438_ms_init_deact_ef_delicated_bearer_deact_interfered_by_deactivate_pdp_request_pdn_level.LW
p372
aVtc_194_135_cl_update_procedure_during_ms_auth.LW
p373
aVtc_342_057_x2_isc_rau_g_to_w_with_one_pdp.LW
p374
aVtc_342_105_set_target_with_same_connection.LW
p375
aVtc_11_399_activation_with_same_NSAPI_interrupted_by_detach.LW
p376
aVtc_306_1130_ef_seamless_move_target_receive_detach_request_with_switchoff_wf_service_request.LW
p377
aVtc_306_133_ef_seamless_move_source_receive_s1_setup_wf_source_guti_reallocation_complete.LW
p378
aVtc_52_62_reloc_wf_forw_rel_compl_interrupted_by_sgsn_context_request.LW
p379
aVtc_243_202_tau_from_sgsn_s3_get_new_sgw_two_pdn_connections_first_ok_second_failed.LW
p380
aVtc_202_02_ecm_idle_s1_release.LW
p381
aVtc_47_003_unstable_ue_ap_loss.LW
p382
aVtc_282_131_deactivate_default_bearer.LW
p383
aVtc_103_1006_secondary_dpl_used_when_all_peers_in_dpl_unavailable_no_sls_peers_same_prio.LW
p384
aVtc_327_172_recovery_intra_TAU_SGSN_Context_Request_while_waiting_for_Location_Update_Response.LW
p385
aVtc_12_134_attach_with_extended_mmumoc_iu_inactivity_timer.LW
p386
aVtc_578_23_check_usc_report.LW
p387
aVtc_44_004_small_restart__sctp_fe_restart.LW
p388
aVtc_44_870_mme_assoc_reestablish__board_block_deblock_s1_mme.LW
p389
aVtc_245_018_inter_rau_new_mf_without_sgw_change_1_dedicated_bearer_no_upd.LW
p390
aVtc_236_311_HO_over_S3_3GDT_switchback_ef_delete_bearer_request_received_wf_rab_assignment_response.LW
p391
aVtc_241_544_israu_new_gn_to_s4_pdp_to_bearer_QoSsub_equal_to_QoSNeg_sgw_downgrade_higher_than_16M.LW
p392
aVtc_241_801_israu_interfering_context_request_no_cancel_location_s4.LW
p393
aVtc_218_007_tau_from_sgsn_no_pdp_context_from_old_sgsn.LW
p394
aVtc_303_004_X2_Based_HO__Downlink_A21_AIS_while_wf_TAU_Request_and_Emm_Information_in_nas_nondeliver.LW
p395
aVtc_289_017_Modify_bearer__ERAB_modify_request_meanwhile_path_switch_request_HO_success.LW
p396
aVtc_231_281_activate_pdp_request_ignore_during_s4_pdp_deactivating.LWG
p397
aVtc_298_654_pgw_init_modification_mf_3gdt_enable.LWG
p398
aVtc_236_301_HO_over_S3_3GDT_switchback_ef_service_request_direct_transfer.LWG
p399
aVtc_243_213_tau_from_sgsn_s3_active_flag_get_new_sgw_two_pdn_connections_service_not_supported_at_modify.LWG
p400
aVtc_346_546_AF__HO_Inter_Target__2PDN_BCM_Sx_only_one_CCA_U_cause_5003.LWG
p401
aVtc_219_401_s3_tau_w_to_l_then_rau_back_w_with_ambr_change.LWG
p402
aVtc_73_21_itc_gtpu_s4_sgsn_send_echo_request_w.LWG
p403
aVtc_666_06_block_rt_board.LWG
p404
aVtc_289_103_multi_pdns_pgw_init_bearer_mod_ecm_idle_interrupted_by_dbr_with_lbi.LWG
p405
aVtc_316_203_IMSI_Attach_Emergency_Authentication_Fail__Backup_UE.LWG
p406
aVtc_23_13_israu_out.LWG
p407
aVtc_208_22_attach_detach_imsi.LWG
p408
aVtc_178_970_m3_ietf_set_prim_ip_path.LWG
p409
aVtc_303_001_MT_CSFB_to_1xRTT_idle__S1_Reset_while_wf_Initial_Context_Setup_Response.LWG
p410
aVtc_40_007_mo_sms_camel_empty_connect_sms_and_fci.LWG
p411
aVtc_327_021_recovery_intra_TAU__uplink_Detach_Request_while_waiting_for_Update_Location_Response.LWG
p412
aVtc_327_024_recovery_intra_TAU__initial_Detach_Request_while_waiting_for_Modify_Bearer_Response.LWG
p413
aVtc_327_117_recovery_intra_TAU__Delete_Subscriber_Data_while_waiting_for_Ue_Backup_Response.LWG
p414
aVtc_59_9_mtmsi_restart_counter.LWG
p415
aVtc_195_029_get_traces_of_ue_imei.LWG
p416
aVtc_226_401_W__USC_Intra_RAU_ControlMode_On_Ignore_dgn.LWG
p417
aVtc_97_035_inter_sgsn_psho_mf_with_lawful_intercept.LWG
p418
aVtc_44_004_small_restart__sctp_fe_restart.LWG
p419
aVtc_306_071_ef_seamless_move_source_receive_extended_service_request_wf_service_request.LWG
p420
aVtc_306_1130_ef_seamless_move_target_receive_detach_request_with_switchoff_wf_service_request.LWG
p421
aVtc_172_09_get_latest_cause_codes_for_radio_status.LWG
p422
aVtc_39_602_mas_unsucc_fwd_reloc_resp_srv_not_supportted_stop_source.LWG
p423
aVtc_309_200_sw_inventory_notification.LWG
p424
aVtc_309_121_replayComplete_notification.LWG
p425
aVtc_309_102_create_notification.LWG
p426
aVtc_309_123_two_sessions_notification.LWG
p427
aVtc_309_107_moref_notification.LWG
p428
aVtc_209_44_sgsn_init_pdp_modification.LWG
p429
aVtc_275_211_tau_inter_new_emergency_type_d_sim_only.LWG
p430
aVtc_214_211_mo_sms_interfering_location_update_timeout_during_inter_handover_new.LWG
p431
aVtc_324_317_ef_gr_cli_delete_subscriber_data_wf_modify_bearer_response_wf_ula.WG14a
p432
aVtc_226_034_PTMSI_Attach_reject_W_measurement_control_exceed_threshold_AP_transfer.WG14a
p433
aVtc_311_253_intra_srns_reloc_s4_sgw_change_with_sgw_restart_and_wf_rau_complete_interrupted_by_context_request.WG14a
p434
aVtc_225_107_mo_call_active_mode_sms_only_attach.L14b
p435
aVtc_225_205_service_reject_integrity_failure.L14b
p436
aVtc_225_321_mt_call_active_mode_nas_non_delivery__cs_service_notification__handover_required_meanwhile_CBR_received.L14b
p437
aVtc_225_315_mt_call_active_mode_nas_non_delivery__cs_service_notification_meanwhile_handover_required.L14b
p438
aVtc_225_407_mt_call_idle_mode_license_off.L14b
p439
aVtc_225_615_exp_flow_handover_required_intra_while_wf_extended_service_request_mt_call.L14b
p440
aVtc_225_650_mt_call_active_mode_no_lai_in_paging_req_param_tamr_true.L14b
p441
aVtc_225_801_csfb_to_g_without_dtm_delete_bearer_wf_delete_gbr_bearer_response.L14b
p442
aVtc_217_017_rau_to_sgsn_hss_context_id_out_of_range_2_pdns_nodeprop_gtpv1.L14b
p443
aVtc_217_038_rau_to_sgsn_tau_request_idle_when_wf_20s_timeout.L14b
p444
aVtc_217_054_rau_to_sgsn_service_request_when_wf_session_response.L14b
p445
aVtc_217_068_rau_to_sgsn_pdn_connectivity_request_when_wf_session_response.L14b
p446
aVtc_217_095_rau_to_sgsn_s1_reset_when_wf_sgsn_context_ack_reject.L14b
p447
aVtc_217_071_rau_to_sgsn_pdn_disconnect_when_wf_session_response.L14b
p448
aVtc_217_111_rau_to_gn_sgsn_timeout_when_wf_delete_session_response_with_emergency_pdn.L14b
p449
aVtc_262_009_imsi_attach_equivalent_plmns.L14b
p450
aVtc_262_029_esm_information_pti_timeout.L14b
p451
aVtc_262_056_imsi_attach_imei_check_imei_missing_in_smc_ue_rejected.L14b
p452
aVtc_262_098_emergency_guti_attach_integrity_not_ok_authentication_fail.L14b
p453
aVtc_262_004_imsi_attach_attach_complete_timeout.L14b
p454
aVtc_262_126_emergency_attach_type_c_imei_check_answer_unknown_after_accept_registered_state_ire_true.L14b
p455
aVtc_262_003_imsi_attach_attach_complete_after_resending_attach_accept.L14b
p456
aVtc_262_193_old_mme_identification_procedure_nas_token_zero_in_ptmsi_signature.L14b
p457
aVtc_262_402_imsi_attach_initial_context_setup_failure_delete_session_resp_after_connection_release.L14b
p458
aVtc_262_846_normal_attach_rejected__empty_odb_free_apn_list__odb_bit0.L14b
p459
aVtc_262_1031_emergency_imsi_attach_multiple_pgw_try_next_pgw_fqdn_error.L14b
p460
aVtc_274_042_Intra_and_pTAU__Intra_TAU_other_ta_while_waiting_for_Ue_Release_Complete.L14b
p461
aVtc_274_140_Intra_and_pTAU__Imei_Check_Answer_Unknown_Equipment_while_waiting_for_TAU_Complete.L14b
p462
aVtc_274_450_tau_intra__sgw_relocation_with_csg_id_plmn_change_during_service_request_reject.L14b
p463
aVtc_274_381_Intra_and_pTAU__Downlink_A21_AIS_while_waiting_for_Authentication_Response.L14b
p464
aVtc_275_038_tau_inter_new_no_update_location_response.L14b
p465
aVtc_275_750_tau_inter_new_change_sgw_with_csg_id.L14b
p466
aVtc_244_042_mt_lr_path_switch_request_received_wf_location_report.L14b
p467
aVtc_244_501_SLg_Location_Request__Detach_Request_wwf_Location_Response_from_ESMLC.L14b
p468
aVtc_244_915_mt_lr_connected_oriented_info_LPP_wf_esmlc_response_and_paging_response_for_LPPa.L14b
p469
aVtc_242_081_rau_to_sgsn_s3_wrong_sequence_number.L14b
p470
aVtc_242_611_intra_tau_sn_not_reported__rau_sgsn_s3_sgw_unchange.L14b
p471
aVtc_202_13_context_request_during_paging.L14b
p472
aVtc_202_18_downlink_data_after_s1_release.L14b
p473
aVtc_202_42_type_c_emergency_pdn_ecm_idle.L14b
p474
aVtc_202_380_mf_seamless_move_target_idle.L14b
p475
aVtc_202_387_mf_seamless_move_target_service_request_before_lur_with_ddn.L14b
p476
aVtc_202_421_af_seamless_move_target_initialCtxSetupResponse_noSuccDefaultBearer_implicit_detach.L14b
p477
aVtc_202_452_af_seamless_move_source_unsuccessful_forward_relocation_response_service_not_supported.L14b
p478
aVtc_202_500_seamless_move_target_detach_odb_bit0.L14b
p479
aVtc_202_534_seamless_move_target_detach_with_cause_of_reattach_not_required_with_not_allowed_apn_in_odb_free_apn_list_for_roamer__odb_bit0.L14b
p480
aVtc_202_570_seamless_move_target_idle_Update_location_failed_paging_failed.L14b
p481
aVtc_202_552_ecm_idle_ms_move_paging_failed_due_to_OLP.L14b
p482
aVtc_44_004_small_restart__sctp_fe_restart.L14b
p483
aVtc_307_051_IRAT_Mobility__TAU_from_G_GnSGSN_buffered_UBR.L14b
p484
aVtc_329_155_intra_tau_rr_restricted.L14b
p485
aVtc_329_500_inter_tau_from_sgsn_rs_allowed_rr_restricted.L14b
p486
aVtc_329_156_intra_tau_rr_restricted_plmn_change.L14b
p487
aVtc_294_036_s1_intra_handover_type_b_new_plmn_roaming_restricted_emc_sup_auth_only_same_profile.L14b
p488
aVtc_294_302_timeout_in_request.L14b
p489
aVtc_294_329_intra_handover_sgw_relocation_request_ack_timer_expires.L14b
p490
aVtc_304_117_initial_ue_intra_tau_control_mode_threshold_exceeded_usc_detach_intruder_wf_release_request_response.L14b
p491
aVtc_304_211_inter_tau_control_mode_threshold_exceeded_ongoing_wf_smc_reject_congestion.L14b
p492
aVtc_47_003_unstable_ue_ap_loss.L14b
p493
aVtc_221_43_paging_double.L14b
p494
aVtc_221_126_Downlink_Data_Notification_max_EBI_known.L14b
p495
aVtc_326_428_Inter_TAU_Recovery_Fail__Modify_Bearer_Fail.L14b
p496
aVtc_326_485_Inter_TAU_Recovery_Unknown_GUTI__Then_SRVCC_One_Voice_Bearer.L14b
p497
aVtc_326_800_Service_Request_with_unknown_STMSI_default_bearer_fail_to_setup_Spontaneous_UL_failed_skip_SubData.L14b
p498
aVtc_203_004_mme_eps_handover_source_inter__no_cancel_location.L14b
p499
aVtc_203_015_mme_eps_handover_source_inter_main_flow_with_srvcc_parameter.L14b
p500
aVtc_203_102_S1_Based_HO_Source_MME_S1_Reset_while_waiting_for_Forward_Relocation_Complete_Notification.L14b
p501
aVtc_203_113_mme_eps_handover_source_inter__ue_release_wf_forw_rel_resp.L14b
p502
aVtc_203_143_mme_eps_handover_source_inter__other_guti_attach_wf_delete_session_resp.L14b
p503
aVtc_203_430_mme_eps_ho_home_enodeb_id_with_csg.L14b
p504
aVtc_220_004_csfb_to_1xrtt_ue_return_with_intra_tau_request.L14b
p505
aVtc_220_034_csfb_to_1xrtt_in_ecm_idle_no_ue_context_release_complete.L14b
p506
aVtc_220_204_csfb_to_1xrtt_delete_bearer_ho_to_no_3gpp_wf_delete_gbr_bearer_response.L14b
p507
aVtc_220_415_csfb_to_1xrtt_in_ecm_connected_ue_context_modification_failure_ISD_received_hold_two_procedures.L14b
p508
aVtc_220_571_csfb_to_1xrtt_in_ecm_connected_tau_request_wf_ue_context_release_complete.L14b
p509
aVtc_220_583_csfb_to_1xrtt_in_ecm_idle_extended_service_request_as_paging_response_create_bearer.L14b
p510
aVtc_220_623_Extended_Service_Request__HSS_Reset_while_waiting_for_Initial_Context_Setup_Response.L14b
p511
aVtc_258_106_location_report_error_cause_from_SGW_other_than_IMSI_unknown.L14b
p512
aVtc_258_101_location_report_no_answer_from_SGW.L14b
p513
aVtc_266_011_DownlinkDataNotification_interfering_ISD_sgsn00026976.L14b
p514
aVtc_266_106_service_request_wrong_ta.L14b
p515
aVtc_266_026_DownlinkDataFailureInd_repeat_paging_timer_small_local_restart.L14b
p516
aVtc_341_682_x2_activity_event_handover_inter_s1_new.L14b
p517
aVtc_340_65_validation_move_l_filter_GA_TA_range.L14b
p518
aVtc_271_005_sctp_paging_olp_stop_discarding_paging_under_pagingOlpStartDiscardCpuThreshold.L14b
p519
aVtc_238_085_mme_eps_irat_ho_target__handover_from_s4_sgsn_and_tau_to_another_mme.L14b
p520
aVtc_263_006_Attach_Flow__Attach_Request_Same_IEs_IP_OK_while_waiting_for_Attach_Complete.L14b
p521
aVtc_263_034_Attach_Flow__Detach_Request_while_waiting_for_Update_Location_Answer.L14b
p522
aVtc_263_070_Attach_Flow__Cancel_Location_Subscription_Withdrawal_while_waiting_for_Identity_Response.L14b
p523
aVtc_263_130_Attach_Flow__Guti_Detach_while_waiting_for_Attach_Complete.L14b
p524
aVtc_263_400_Attach_Flow__Insert_Subcriber_data_ODB_bit0_waiting_for_update_location_response.L14b
p525
aVtc_278_013_Inter_TAU_Old_MME__Intra_TAU_while_waiting_for_delete_session_response.L14b
p526
aVtc_278_202_Inter_TAU_Old_MME__Sgsn_Context_Request_while_wf_Context_Ack.L14b
p527
aVtc_197_307_visiting_attach_req_oi_hplmn_with_vplmn_not_allowed.L14b
p528
aVtc_197_318_visiting_multiple_pdn_connectivity_lbo_allowed_no_dns_then_hrs.L14b
p529
aVtc_197_411_attach_table_matched_standalone_pmip.L14b
p530
aVtc_197_445_pdn_connectivity_table_not_matched_type_a_vplmn_allowed.L14b
p531
aVtc_197_473_pdn_connectivity_table_not_matched_snaptr_failed_vplmn_not_allowed.L14b
p532
aVtc_197_497_tau_from_gnsgsn_ggsn_mapping_pgw_wrong.L14b
p533
aVtc_197_506_inter_tau_ipv4_in_table_receive_ipv6_select_ipv4.L14b
p534
aVtc_197_544_inter_s1_handover_without_sgw_relocation_table_not_matched_snaptr.L14b
p535
aVtc_197_543_inter_s1_handover_without_sgw_relocation_table_not_matched_type_a.L14b
p536
aVtc_197_582_tai_list_management1.L14b
p537
aVtc_197_713_apn_oi_replacement_pdn_connectivity_emergency_ue_level.L14b
p538
aVtc_197_744_apn_oi_replacement_pdn_connectivity_wildcard_fallback_to_default_apn.L14b
p539
aVtc_347_055_Intra_HO_S1__Location_Report_from_source_BCM_Sx_only_while_waiting_for_Handover_Request_Ack.L14b
p540
aVtc_347_206_Attach__Cancel_Location_Subscription_Update_Procedure_while_waiting_for_CCA_Initial.L14b
p541
aVtc_347_321_Bearer_Modification__RAR_while_waiting_modify_eps_bearer_context_accept.L14b
p542
aVtc_268_024_UE_Release_Flow__Downlink_Data_Notification_while_waiting_for_Release_Access_Bearers_Response.L14b
p543
aVtc_268_053_Timer_Based_GBR_Deact__TAU_Request_with_Active_Flag_Bearers_all_Active_before_Timer_Expires.L14b
p544
aVtc_346_130_Location_Based_Policies__User_Location_Change_Sx_Only_2_PDNs.L14b
p545
aVtc_346_364_handover_to_gn_sgsn_source_terminate_sx_session.L14b
p546
aVtc_346_401_AF__Attach_and_PDN__no_SAPC_configured__continue_without_sx_session.L14b
p547
aVtc_346_394_tau_inter_new_from_gn_sgsn_with_dedicated_bearer.L14b
p548
aVtc_346_509_AF__TAU_Inter_New__2PDN_one_receive_diameter_cause_5011.L14b
p549
aVtc_346_1011_AF__seamless_move_target_2pdn_one_receive_diameter_cause_5003.L14b
p550
aVtc_346_890_3gpp_move_source_ecm_connected_terminate_sx.L14b
p551
aVtc_204_010_mme_eps_handover_target_inter_main_flow_with_sgw_relocation.L14b
p552
aVtc_204_040_mme_eps_ho__no_update_location_answer.L14b
p553
aVtc_204_069_mme_eps_ho__inter_mme_handover_during_tau_complete.L14b
p554
aVtc_204_250_mme_eps_ho_target_imei_check_answer_blacklisted_before_tau_accept.L14b
p555
aVtc_204_422_mme_eps_ho_target_type_b_update_location_fails.L14b
p556
aVtc_256_009_mme_eps_srvcc_ho_source_cs_only_mf_after_tau_after_x2_ho_with_srvcc_parameters_changed.L14b
p557
aVtc_256_049_mme_eps_srvcc_ho_source_cs_only_normal_attach_emergency_delete_session_response_not_received.L14b
p558
aVtc_256_071_mme_eps_srvcc_ho_source_to_geran_cs_only_emergency_mf_without_DTM_with_GBR_bearers_in_emergency_pdn.L14b
p559
aVtc_256_100_mme_eps_srvcc_ho_source_cs_only_sgsn_context_request_wf_delete_bearer_request.L14b
p560
aVtc_256_132_mme_eps_srvcc_ho_source_cs_only_initial_ue_attach_request_wf_delete_bearer_request.L14b
p561
aVtc_256_160_mme_eps_srvcc_ho_source_cs_only_provide_location_request_wf_srvcc_ps_to_cs_response.L14b
p562
aVtc_256_186_mme_eps_srvcc_ho_source_cs_only_cancel_location_wf_srvcc_ps_to_cs_cancel_acknowledge.L14b
p563
aVtc_256_250_srvcc_ho_source_cs_only_emergency_mf_after_emergency_attach_authenticated_imsi_slr_handover.L14b
p564
aVtc_286_120_pdn_disconnect_delete_session_no_response_from_sgw.L14b
p565
aVtc_306_055_ef_seamless_move_source_receive_cancel_location_update_wf_frcn.L14b
p566
aVtc_306_035_ef_seamless_move_source_receive_tau_request_wf_frcn.L14b
p567
aVtc_306_051_ef_seamless_move_source_receive_cancel_location_update_wf_service_request.L14b
p568
aVtc_306_087_ef_seamless_move_source_receive_downlink_data_notification_wf_target_guti_reallocation_complete.L14b
p569
aVtc_306_161_ef_in_af_seamless_move_source_receive_delete_subscriber_data_wf_guti_reallocation_complete_af.L14b
p570
aVtc_306_210_ef_seamless_move_source_receive_uplink_generic_nas_transport_wf_frr_ecm_connected.L14b
p571
aVtc_306_281_ef_seamless_move_source_ignore_downlink_unitdata_in_ecm_idle.L14b
p572
aVtc_306_1006_ef_seamless_move_target_handle_ddn_wf_new_s1_mbr.L14b
p573
aVtc_306_1065_ef_seamless_move_target_handle_second_service_request_when_first_service_request_stopped.L14b
p574
aVtc_306_1200_ef_seamless_move_target_receive_hss_reset.L14b
p575
aVtc_306_1351_ef_seamless_move_target_buffer_provide_location_request_wf_release_old_s1_mbr_with_lpp.L14b
p576
aVtc_306_1335_ef_seamless_move_target_receive_cli_delete_subscriber_wf_service_request.L14b
p577
aVtc_211_025_streamed_cell_trace_mapping_alarm_cease_ipv6.L14b
p578
aVtc_332_005_mf__service_request_ue_initiated_high_prio_no_PDN_connectivity_request.L14b
p579
aVtc_332_053_3_mf__paging_due_to_cdma2000_signaling_during_paging_due_to_UBR_latest_with_prio.L14b
p580
aVtc_290_027_Timer_Based_GBR_Deact__sgsn_context_request_wf_release_access_bearer_response_before_timer_expires.L14b
p581
aVtc_290_066_Timer_Based_GBR_Deact__delete_subscription_data_ecm_idle_before_timer_expires.L14b
p582
aVtc_302_023_cdma_tunneling_downlink_message_unknown_imsi.L14b
p583
aVtc_302_085_mme_relocation_tau_old.L14b
p584
aVtc_302_015_cdma_tunneling_uplink_message_sector_id_out_of_range.L14b
p585
aVtc_302_233_Timer_Based_GBR_Deact__UE_Context_Release_Request_during_SRVCC_to_1xRTT_UE_Return_through_TAU_Request.L14b
p586
aVtc_302_216_1xrtt_srvcc_ue_release_request_timeout.L14b
p587
aVtc_293_024_X2_Based_HO__SGSN_Context_Request_while_waiting_for_Modify_Bearer_Response.L14b
p588
aVtc_293_221_X2_Based_HO_wo_SGW_change__ue_release_request_while_waiting_for_TAU_Request.L14b
p589
aVtc_279_014_tai_list_combined_attach_intra_tau_diff_la.L14b
p590
aVtc_199_03_message_too_short_for_header.L14b
p591
aVtc_199_84_echo_ping.L14b
p592
aVtc_273_045_tau_intra_on_ul_nas_transport_and_sec_exec_guti_realloc_no_tau_cmp.L14b
p593
aVtc_273_132_tau_intra_normal_idle_active_two_pdn_connections_all_ok.L14b
p594
aVtc_273_258_tau_intra__sgw_relocation_no_del_session_resp.L14b
p595
aVtc_273_306_tau_intra_emergency_ongoing_roaming_restricted_different_configuration.L14b
p596
aVtc_273_407_tau_intra_normal_while_deactivate_gbr_bearer.L14b
p597
aVtc_273_550_tau_intra__sgw_relocation_with_csg_id.L14b
p598
aVtc_273_254_tau_intra__sgw_relocation_no_resp_delete_bearer_command_mult_pdn.L14b
p599
aVtc_280_005_activate_1_then_1_dedicated_bearers.L14b
p600
aVtc_280_115_activate_dedicated_bearer_ue_nas_cause_sem_error_reject.L14b
p601
aVtc_237_060_mme_eps_irat_ho_source__equipement_blacklisted_wwf_FR_Response.L14b
p602
aVtc_237_304_mme_eps_irat_Gn_ho_source__no_cancel_location.L14b
p603
aVtc_237_351_mme_eps_irat_ho_source__cancel_location_after_s1rh_with_sgw_relocation.L14b
p604
aVtc_288_108_pgw_init_bearer_mod_default_bearer_not_existent_in_ue.L14b
p605
aVtc_288_116_pgw_init_bearer_mod_paging_authentication_failure.L14b
p606
aVtc_288_231_pgw_init_bearer_mod_QoS_UE_reject_default_cc_invalid_bearer_two_conns.L14b
p607
aVtc_265_108_Detach_Flow_NW_init__S1_Reset_while_waiting_for_Detach_Accept.L14b
p608
aVtc_265_160_Detach_Flow_NW_init__Ue_moved_to_non_3gpp_while_imsi_detach.L14b
p609
aVtc_281_009_Activate_bearer__Handover_Required_while_wf_eps_bearer_context_accept.L14b
p610
aVtc_281_024_Activate_bearer__ERAB_setup_request_s1_intra_system_handover_triggered_multiple_bearer.L14b
p611
aVtc_277_007_tau_inter_old_tau_req_as_plain_nas.L14b
p612
aVtc_103_409_diameterConnectionDown_alarm_raised_due_to_negative_CEA.L14b
p613
aVtc_103_703_duplicate_peer_ips.L14b
p614
aVtc_103_706_delete_peer_send_DPR_error_result_code_in_DPA.L14b
p615
aVtc_103_710_commlost_small_restart.L14b
p616
aVtc_103_831_DPR_cause_BUSY.L14b
p617
aVtc_103_800_device_watchdog_request_to_SGSN_MME.L14b
p618
aVtc_103_850_error_code_DIAMETER_REALM_NOT_SERVED.L14b
p619
aVtc_103_1004_secondary_dpl_used_when_all_peers_in_dpl_unavailable_no_sls.L14b
p620
aVtc_103_1006_secondary_dpl_used_when_all_peers_in_dpl_unavailable_no_sls_peers_same_prio.L14b
p621
aVtc_103_1008_create_peer__system_set_prio__same_prio_loadsharing.L14b
p622
aVtc_103_1102_fallback_to_imsins_success.L14b
p623
aVtc_103_1106_fallback_to_imsins_resend_success.L14b
p624
aVtc_103_1111_attach_ula_with_trace_data_avp.L14b
p625
aVtc_335_34_wifi_to_mobility_in_ecm_idle_af__feature_off_in_mme.L14b
p626
aVtc_335_110_Intra_TAU__GA_change.L14b
p627
aVtc_335_11_mobility_to_wifi_in_ecm_connected_af__without_wifi_throughput__in_access_request.L14b
p628
aVtc_195_025_attr_time_first_started_ok.L14b
p629
aVtc_195_041_idle_when_stop_ue_trace.L14b
p630
aVtc_195_213_mme_logging_medium_csfb_to_1xrtt_extended_service_request_emergency.L14b
p631
aVtc_195_300_mme_logging_generic_nas_transport.L14b
p632
aVtc_195_409_ue_trace_start_meanwhile_handover_required_HO_all_bearers_fail.L14b
p633
aVtc_195_419_ue_trace_deactivate_trace_x2_handover_triggered.L14b
p634
aVtc_195_513_mme_logging_old_identification_procedure_s3.L14b
p635
aVtc_195_537_mme_logging_tau_inter_old_s10_s3_the_same_address.L14b
p636
aVtc_289_007_Modify_Bearer__Update_Bearer_Request_while_wf_modify_eps_bearer_context_accept_Idle.L14b
p637
aVtc_289_039_Modify_bearer__ERAB_modify_request_meanwhile_path_switch_request_HO_success_SGW_change.L14b
p638
aVtc_289_070_GW_Init_Bearer_Modification_Flow_two_CBR_one_UBR_while_wf_modify_eps_bearer_context_accept.L14b
p639
aVtc_261_16_tau_inter_voip_restricted_by_ga_cc91_imsins_cc91.L14b
p640
aVtc_261_42_isd_ef_mme_s1_ho_target_inter.L14b
p641
aVtc_282_016_delete_bearer_request_at_handover_to_non_3GPP_ecm_connected.L14b
p642
aVtc_282_118_mme_initiated_deactivate_some_fails_in_sgw_message_pco_not_unique.L14b
p643
aVtc_264_029_detach_NOK_emm_registered_ecm_connected.L14b
p644
aVtc_264_070_pur__userstate_locationinfo.L14b
p645
aVtc_267_303_Service_Request__faulty_message_attach_type_while_waiting_for_Initial_Context_Setup_Response.L14b
p646
aVtc_267_512_Service_Request_SGW_unavailable__S1_Reset_while_wf_Create_Session_Response.L14b
p647
aVtc_267_507_Service_Request_SGW_unavailable__2_PDNs_Extended_Service_Request_while_wf_Create_Session_Response.L14b
p648
aVtc_295_015_Intra_S1_HO__Detach_request_while_wf_handover_request_acknowledge.L14b
p649
aVtc_295_096_Intra_S1_HO__Handover_Required_while_waiting_for_Handover_Notify.L14b
p650
aVtc_295_170_Intra_S1_HO__PDN_connectivity_request_while_wf_delete_session.L14b
p651
aVtc_194_003_tau_new_subscriber.L14b
p652
aVtc_194_017_attach_ul_fails_network_failure_timeout.L14b
p653
aVtc_194_075_cli_delete_subscriber_imsi_after_large_restart.L14b
p654
aVtc_194_085_hss_reset_after_subdata_read_from_cache.L14b
p655
aVtc_194_109_tau_ul_fails_all_3gpp_access_restricted.L14b
p656
aVtc_194_126_cli_delete_subscriber_imsi_reattach_required_idle_state.L14b
p657
aVtc_194_138_cl_subscription_withdrawn_idle.L14b
p658
aVtc_194_144_attach_ul_fails_unable_to_comply.L14b
p659
aVtc_194_162_emergency_attach_ul_fails_subscription_data_invalid.L14b
p660
aVtc_194_178_hss_reset_ue_activity_attach_request.L14b
p661
aVtc_194_184_hss_reset_ue_activity_s1_ho.L14b
p662
aVtc_194_187_hss_reset_after_large_restart_with_full_imsi.L14b
p663
aVtc_194_190_hss_reset_apn_ambr_changed_followed_by_service_request.L14b
p664
aVtc_194_203_isd_pdn_type_change_all_pdn_connections_impacted.L14b
p665
aVtc_194_400_attach_ul_fails_emm_deregistered.L14b
p666
aVtc_194_500_Notification_IMEI_change_during_Attach_Procedure.L14b
p667
aVtc_194_608_DSD__PDN_subscription_contexts_Withdrawal_Context_Identifier_Missing.L14b
p668
aVtc_194_615_DSD__Only_Unsupported_DSR_Flags.L14b
p669
aVtc_194_628_DSD__Subscribed_Periodic_Raut_Tau_Withdrawal.L14b
p670
aVtc_194_712_HSS_initiated_ISD_ue_context_modification_failure_interaction_with_other_procdure_HO_undetected_retry_counter_exceed.L14b
p671
aVtc_194_801_isd_private_extension_of_wi_denied_from_unknown_to_denied_followed_by_service_request.L14b
p672
aVtc_194_813_isd_private_extension_of_lzone_from_lzone_to_nolzone_followed_by_pdn_connectivity_request.L14b
p673
aVtc_194_822_normal_attach_insert_inconsistent_odb_data.L14b
p674
aVtc_194_912_ecm_connected__userstate_locationinfo_currentinfo__idr_flags.L14b
p675
aVtc_194_953_detach_request_without_switch_off_during_waitng_for_location_report__idr_flags_ef.L14b
p676
aVtc_194_960_ue_pdn_disconnect_request_during_waiting_for_location_report__idr_flags_ef.L14b
p677
aVtc_194_970_delete_subscription_data_from_hss_during_waiting_location_report__idr_flags_ef.L14b
p678
aVtc_194_982_gn_identification_request_during_waiting_location_report__idr_flags_ef.L14b
p679
aVtc_194_990_all_other_SGs_message_during_waiting_location_report__idr_flags_ef.L14b
p680
aVtc_194_1014_guti_attach_in_emm_deregistered__insert_odb_with_allowed_apn_in_odb_free_apn_list__odb_bit0.L14b
p681
aVtc_194_1507_dsd_apn_oi_replacement_remove_ue_level.L14b
p682
aVtc_194_1553_HSS_initiated_ISD_in_Connected_mode_when_current_CSG_Id_expired__UCMFailure.L14b
p683
aVtc_301_011_activate_reject_visitor_requested_ipv4v6_subscribed_ipv6_aifav_false_aifv_false.L14b
p684
aVtc_260_070_mbms_session_start_af_gw_resend_request_msg_diff_absolute_time.L14b
p685
aVtc_260_068_mbms_session_start_af_embms_feature_off.L14b
p686
aVtc_327_107_recovery_intra_TAU__Cancel_Location_subscription_withdrawal_while_waiting_for_Update_Location_Answer.L14b
p687
aVtc_327_172_recovery_intra_TAU_SGSN_Context_Request_while_waiting_for_Location_Update_Response.L14b
p688
aVtc_327_210_recovery_service_request__Cancel_Location_subscription_withdrawal_while_waiting_for_Location_Update_Response.L14b
p689
aVtc_327_216_recovery_service_request__HSS_Reset_while_waiting_for_Guti_Reallocation_Complete.L14b
p690
aVtc_327_331_recovery_service_request__initial_Detach_Request_while_waiting_for_Sub_Procedure__Initial_Context_Setup_Response.L14b
p691
aVtc_327_501_recovery_service_request__s1_reset_while_waiting_for_Sub_Procedure__Guti_Reallocation_Complete.L14b
p692
aVtc_327_220_recovery_service_request__Insert_Subscriber_Data_while_waiting_for_Create_Session_Response.L14b
p693
aVtc_327_491_recovery_service_request__enb_configuration_update_while_waiting_for_retrieval_response.L14b
p694
aVtc_327_558_Recovery_for_DDN__Cancel_Location_Update_Location_while_waiting_for_Paging_Response.L14b
p695
aVts_257_55_normal_paging_DPDP_true.L14b
p696
aVtc_257_30_pws_sctp_device_failure.L14b
p697
aVtc_292_069_x2_handover_type_a_new_plmn_no_emc_sup.L14b
p698
aVtc_292_154_x2_handover_type_b_no_tau_received.L14b
p699
aVtc_285_005_PDN_Connectivity_Pb__Delete_dedicated_bearer_request_while_wf_modify_bearer_response.L14b
p700
aVtc_310_010_mf__S3_new_SGW_1_voice_bearer_1_non_em_PDN_1_em_PDN_conf_dont_send_em_PDN.L14b
p701
aVtc_310_222_ef__Ue_Release_Request_wf_FR_Response.L14b
p702
aVtc_210_042_attach_detach_imei.L14b
p703
aVtc_210_060_mf_seamless_move_target_idle.L14b
p704
aVtc_283_038_1_GW_Deactivate_Bearer__Default_bearer_Delete_Interrupt_Dedicated_Bearer_Delete_no_response_from_ue_ecm_connected.L14b
p705
aVtc_296_035_ANR_Support__eNodeB_Configuration_Transfer_reply_flow_with_16_gtp_addresses.L14b
p706
aVtc_284_051_emergency_pdn_connectivity_emergency_attached_ue.L14b
p707
aVtc_284_133_emergency_pdn_connectivity_no_licence.L14b
p708
aVtc_284_504_mme_pdn_connection_dns_fail_apn_redirection_license_off_wild_card.L14b
p709
aVtc_284_040_pdn_connectivity_retransmission_from_ue.L14b
p710
aVtc_345_220_af__mo_csfb_with_psho__ecm_connected_sgw_relocation_no_cancel_location_from_hss.L14b
p711
aVtc_218_036_tau_from_sgsn_no_cc_list_in_sgsn_context_resp.L14b
p712
aVtc_218_044_tau_from_sgsn_s1_reset_when_wf_create_session_response.L14b
p713
aVtc_218_069_tau_from_sgsn_two_pdns_one_apn_not_subscribed_ubr_on_non_live_pdn_wf_tau_compete.L14b
p714
aVtc_218_112_tau_from_sgsn_ue_context_release_when_wf_modify_bearer_resp.L14b
p715
aVtc_218_008_tau_from_sgsn_security_procedure_failed.L14b
p716
aVtc_218_253_tau_from_sgsn_attach_wf_update_location_answer.L14b
p717
aVtc_218_406_TAU_from_SGSN__s1_reset_wf_tau_complete_active_flag_true_then_cbr.L14b
p718
aVtc_193_009_background_fetching_off.L14b
p719
aVtc_193_023_auth_failure_S6a_resync_counter.L14b
p720
aVtc_193_061_attach_attach_S1_SelAuthFreq.L14b
p721
aVtc_193_111_user_unknown_emm_cause_8.L14b
p722
aVtc_193_144_service_req_detachnormal_during_auth_ue.L14b
p723
aVtc_193_184_Ciphering__IMSI_Attach_UE_Supports_EIA0_And_EIA1__MME_Has_EIA0_As_Prio_1.L14b
p724
aVtc_193_212_intruder_auth_rej_synch_fail_no_auts.L14b
p725
aVtc_193_219_attach_on_new_s1_no_auth_vects_from_hss.L14b
p726
aVtc_193_406_auth_vectors_inter_handover_0_vectors.L14b
p727
aVtc_214_050_tau_inter_old.L14b
p728
aVtc_214_084_combined_attach_vlr_reset_combined_detach_timeout_during_detach_ind.L14b
p729
aVtc_214_093_cc_La_Check_Ga.L14b
p730
aVtc_214_130_neaf_alert_request_activity_indication.L14b
p731
aVtc_214_312_combined_tau_intra_la_change_new_msc_while_wf_tau_complete.L14b
p732
aVtc_214_301_mt_sms_idle_mode.L14b
p733
aVtc_214_1017_la_selection_mf_reselection_dyn_tailist_updated_with_ue_capability_profile_not_match_csfb_off.L14b
p734
aVtc_214_1048_la_selection_mf_oldlapreferred_combined_inter_tau_old_la_not_candidate.L14b
p735
aVtc_214_1139_la_selection_mf_reselection_ptau_during_ue_restoration.L14b
p736
aVtc_243_030_tau_from_sgsn_s3_ptmsi_signature_mismatch.L14b
p737
aVtc_243_101_tau_from_sgsn_s3_active_flag_tau_complete_before_ics_response.L14b
p738
aVtc_243_211_tau_from_sgsn_s3_active_flag_get_new_sgw_two_pdn_connections_first_ok_second_failed.L14b
p739
aVtc_243_337_tau_from_sgsn_s3_emergency_type_a_roaming_restricted.L14b
p740
aVtc_342_057_x2_isc_rau_g_to_w_with_one_pdp.W14b
p741
aVtc_11_237_context_modification_with_aace_mtz.W14b
p742
aVtc_241_460_israu_new_with_dedicated_bearer_sgw_not_change_non_gbr_bearer_inactive.W14b
p743
aVtc_322_302_smooth_move_3GDT_with_one_PDN_TZCR_set.W14b
p744
aVtc_231_117_rnc_reset_when_sgsn_initiated_del_all_session.W14b
p745
aVtc_31_044_rau_ul_fails_semantic_error_when_data_not_confirmed.W14b
p746
aVtc_04_02_gprs_imsi_attach_two_subscribers_sequential.G14b
p747
aVtc_04_09_gprs_imsi_attach_gea1.G14b
p748
aVtc_208_43_interception_after_small_restart.G14b
p749
aVtc_297_407_move_at_periodic_rau.G14b
p750
aVtc_32_75_test_transfer_2.LW
p751
aVtc_44_004_small_restart__sctp_fe_restart.LW
p752
aVtc_196_058_nrspca_alloc_with_diff_ti.LW
p753
aVtc_196_118_nrspca_with_bcm_is_invalid.LW
p754
aVtc_282_017_delete_bearer_request_at_handover_to_non_3GPP_ecm_idle.LW
p755
aVtc_298_438_ms_init_deact_ef_delicated_bearer_deact_interfered_by_deactivate_pdp_request_pdn_level.LW
p756
aVtc_298_783_S4_3GDT_downlink_data_notification_wait_MBR_ef_detach.LW
p757
aVtc_257_10_pws_etws_write_replace_warning_request_feature_off.LW
p758
aVtc_50_070_activate_interactive_16oct_48mbit_get_16oct_48mbit.LW
p759
aVtc_342_057_x2_isc_rau_g_to_w_with_one_pdp.LW
p760
aVtc_275_005_tau_inter_new_missing_ie_context_response.LW
p761
aVtc_241_752_W2W_GnSGSN_to_S4SGSN_one_pdp_arp_higher_than_policymap_sysprop_deactivate_pdp_after_tau_on.LW
p762
aVtc_241_801_israu_interfering_context_request_no_cancel_location_s4.LW
p763
aVtc_273_248_tau_intra__sgw_reloc_mult_pdn_dedicated_failure_1_pdn_active.LW
p764
aVtc_273_250_tau_intra__sgw_relocation_mult_pdn_all_pdn_failed.LW
p765
aVtc_273_307_tau_intra_indicating_emergency_emergency_ongoing_update_location_fails.LW
p766
aVtc_274_278_Intra_and_pTAU__Handover_Required_with_new_TA_while_waiting_for_TAU_Request_after_HO.LW
p767
aVtc_274_380_Intra_and_pTAU__Downlink_A21_AIS_while_waiting_for_Create_Session_Response.LW
p768
aVtc_39_181_detach_trigger_with_context_re_attach.LW
p769
aVtc_318_107_sgw_restart_mf_one_of_pdns_create_after_sgw_restart.LW
p770
aVtc_318_116_sgw_restart_mf_one_pdn_with_relocate_by_ReleaseAccessBearersResponse.LW
p771
aVtc_195_416_ue_trace_deactivate_trace_s1_intra_system_handover_triggered.LW
p772
aVtc_346_601_Location_Based_Policies__User_Location_Changes_Sx_Gx_RAR_comes_before_CCA_for_same_PDN.LW
p773
aVtc_256_135_mme_eps_srvcc_ho_source_cs_only_initial_ue_detach_request_wf_srvcc_ps_to_cs_complete_notification.LW
p774
aVtc_11_365_sgsn_initiated_ipv4v6_pdp_context_modification.LW
p775
aVtc_238_057_mme_eps_irat_ho_target__s1_reset_during_wf_forward_relocation_complete_ack.LW
p776
aVtc_326_251_Intra_TAU_with_unknown_GUTI_with_active_flag_then_s1_Intra_HO.LW
p777
aVtc_335_35_wifi_to_mobility_in_ecm_idle_af__no_estimation_response_from_eNB_timeout_max_3000.LW
p778
aVtc_322_161_smooth_move_ef_nas_after_paging_response_ignore.LW
p779
aVtc_245_340_israu_new_l_to_w_with_GBR_dedicated_bearer_ipv6_3gdt.W14b
p780
aVtc_342_057_x2_isc_rau_g_to_w_with_one_pdp.W14b
p781
aVtc_342_925_x2_multiple_pdp_with_different_x2_address.W14b
p782
aVtc_236_049_s4_3gdt_rnc_reset_during_waiting_for_modify_beaer_rsp_in_service_request_procedure.W14b
p783
aVtc_231_116_rnc_resetresource_when_ms_act_si_ms_deact_rab_est.W14b
p784
aVtc_231_117_rnc_reset_when_sgsn_initiated_del_all_session.W14b
p785
aVtc_26_101_ms_initiated_pdp_context_modification_MBR_not_zero.W14b
p786
aVtc_11_222_activate_primary_APN_test_IV.W14b
p787
aVtc_208_43_interception_after_small_restart.G14b
p788
aVtc_241_801_israu_interfering_context_request_no_cancel_location_s4.LWG
p789
aVtc_166_428_rnc_initiated_rab_release_interfered_by_rnc_initiated_iu_release_request.LWG
p790
aVtc_231_275_rab_release_si_deactivate_with_TDI_false_TI_dedicated_bearer.LWG
p791
aVtc_324_006_mf_ser_req_signaling_after_ack_3gdt.LWG
p792
aVtc_306_1130_ef_seamless_move_target_receive_detach_request_with_switchoff_wf_service_request.LWG
p793
aVtc_306_1213_ef_seamless_move_target_receive_s1_setup_wf_icsr_and_ulr.LWG
p794
aVtc_309_200_sw_inventory_notification.LWG
p795
aVtc_309_121_replayComplete_notification.LWG
p796
aVtc_309_102_create_notification.LWG
p797
aVtc_309_123_two_sessions_notification.LWG
p798
aVtc_309_107_moref_notification.LWG
p799
aVtc_262_1055_imsi_attach_with_csg_id_is_rejected.LWG
p800
aVtc_239_011_israu_interfering_context_request_no_cancel_location_s4.LWG
p801
aVtc_208_40_sgsn_init_pdp_modification.LWG
p802
aVtc_44_810_mme_assoc_reestablish__abort_s1_mme.LWG
p803
aVtc_79_014_activate_reject_rab_fail_qos_cause_114_no_fallback.LWG
p804
aVtc_284_350_pdn_connectivity_interrupted_by_path_switch_request.LWG
p805
aVtc_232_403_bfd__ipv4ipv6_alarm.LWG
p806
aVtc_326_244_Intra_TAU_Recovery_fail_default_bearer_fail_to_setup.LWG
p807
aVtc_326_404_Inter_TAU_Recovery_With_Active_Flag_SGW_Relocation__HO_To_UTRAN_Over_S3.LWG
p808
aVtc_263_241_Attach_Flow__Attach_Request_with_diff_IE_while_waiting_for_identification_response.LWG
p809
aVtc_56_2_restart.LWG
p810
aVtc_64_6_connection_release.LWG
p811
aVtc_178_970_m3_ietf_set_prim_ip_path.LWG
p812
aVts_99_175_intra_g_to_w_old_EF6_psho_cancel_after_relocation_complete.LWG
p813
aVtc_666_06_block_rt_board.LWG
p814
aVtc_666_02_reboot_ss7_board.LWG
p815
aVtc_341_697_x2_activity_event_irat_handover_source_l_to_gn_sgsn.LWG
p816
aVtc_297_407_move_at_periodic_rau.LWG
p817
aVtc_59_9_mtmsi_restart_counter.LWG
p818
aVtc_132_002_create_ip_interface_eth.LWG
p819
aVtc_23_13_israu_out.LWG
p820
aVtc_11_365_sgsn_initiated_ipv4v6_pdp_context_modification.LWG
p821
aVtc_361_127_s3_handover_l_to_w_s6d_two_pdn_connections_one_failed_in_rnc_with_sgw_change.LWG
p822
aVtc_243_330_tau_from_sgsn_s3_emergency_type_a_no_restriction.L14b
p823
aVtc_267_229_Service_Request__PDN_connectivity_request_while_wf_authentication_response.L14b
p824
aVtc_294_017_intra_handover_after_x2_handover_with_sgw_relocation_main_flow.L14b
p825
aVtc_294_420_handover_cancel_in_state_wf_create_session_response.L14b
p826
aVtc_326_331_Service_Request_with_unknown_STMSI_Security_Mode_Reject.L14b
p827
aVtc_326_335_Service_Request_with_unknown_STMSI_Initial_Context_Setup_timeout.L14b
p828
aVtc_326_304_Service_Request_with_unknown_STMSI_MBR_partial_success_IPv6_address.L14b
p829
aVtc_326_440_Inter_TAU_Recovery_Fail__Active_Flag_On_Modify_Bearer_Fail.L14b
p830
aVtc_306_004_ef_seamless_move_source_receive_attach_request_wf_source_guti_reallocation_complete.L14b
p831
aVtc_306_1214_ef_seamless_move_target_receive_s1_setup_wf_icsr_and_lur.L14b
p832
aVtc_257_30_pws_sctp_device_failure.L14b
p833
aVtc_225_321_mt_call_active_mode_nas_non_delivery__cs_service_notification__handover_required_meanwhile_CBR_received.L14b
p834
aVtc_225_692_mt_call_paging_req_no_lai_non_associated_msc_while_waiting_to_imsi_detach.L14b
p835
aVtc_289_011_Modify_bearer__ERAB_modify_response_s1_intra_system_handover_triggered.L14b
p836
aVtc_289_028_Modify_bearer__Downlink_nas_non_delivery_s1_intra_system_handover_triggered.L14b
p837
aVtc_260_222_cli_trigger_stop_ssrm_true_while_wf_m3_start_resp.L14b
p838
aVtc_329_003_attach_rs_allowed_emergency_plmn_change_ula_fails.L14b
p839
aVtc_346_454_AF__Intra_TAU_CCA_Update_with_out_of_range_RFSP.L14b
p840
aVtc_346_557_AF__HO_Inter_Target_from_gn_no_handover_notify_terminate_sx.L14b
p841
aVtc_346_561_AF__HO_Inter_Target_from_gn_ULR_ODB_bit0_detach_ue_terminate_sx.L14b
p842
aVtc_304_131_uplink_nas_intra_tau_control_mode_threshold_exceeded_usc_implicit_detach_wf_modify_bearer_response.L14b
p843
aVtc_304_223_inter_tau_control_mode_threshold_exceeded_reject_wf_update_location_response_intruder.L14b
p844
aVtc_304_203_emergency_inter_tau__control_mode_threshold_not_reached.L14b
p845
aVtc_256_012_mme_eps_srvcc_ho_source_cs_only_mf_with_rau_to_s4_sgsn_for_multi_voice_bearers_in_multi_pdns.L14b
p846
aVtc_256_029_mme_eps_srvcc_ho_source_cs_only_emergency_mf_after_service_request_keep_pdn.L14b
p847
aVtc_238_091_attach_type_handover_pdn_connection_failed_cause_code_mappings.L14b
p848
aVtc_194_170_hss_reset_ue_activity_service_request.L14b
p849
aVtc_194_705_HSS_initiated_ISD_ue_context_modification_failure_s1_intra_system_handover_triggered_HO_failure.L14b
p850
aVtc_341_534_x2_activity_event_attach_reject_cc_12_imei.L14b
p851
aVtc_347_251_UE_initiated_detach__RAR_while_waiting_for_delete_session_response.L14b
p852
aVtc_274_276_Intra_and_pTAU__Handover_Required_with_old_TA_MSC_change_while_waiting_for_Location_Update_response_TAU_IMSI_Detach_TAU.L14b
p853
aVtc_195_537_mme_logging_tau_inter_old_s10_s3_the_same_address.L14b
p854
aVtc_214_002_combined_attach_eps_detach.L14b
p855
aVtc_214_093_cc_La_Check_Ga.L14b
p856
aVtc_214_312_combined_tau_intra_la_change_new_msc_while_wf_tau_complete.L14b
p857
aVtc_214_513_combined_attach_after_paging_sms_indicate_no_lu.L14b
p858
aVtc_214_701_msc_pool_combined_attach_one_msc_unreachable.L14b
p859
aVtc_214_807_mo_sms_active_donwlink_nas_transport_meanwhile_handover_required_HO_success_TAU.L14b
p860
aVtc_214_710_combined_tau_intra_eps_attach_interfering_mt_sms_paging_wf_tau_complete_then_ddn.L14b
p861
aVtc_214_810_mo_sms_active_nas_non_delivery_interaction_with_other_procedure_HO_undetected_retry_counter_exceed.L14b
p862
aVtc_214_1008_la_selection_mf_csfb_off.L14b
p863
aVtc_214_1037_la_selection_af_combined_attach_after_mme_initiated_error_recovery_procedure.L14b
p864
aVtc_214_1084_la_selection_mf_oldlapreferred_combined_attach_dyn_tailist.L14b
p865
aVtc_214_1092_la_selection_mf_oldmscpreferred_combined_intra_tau_with_imsi_attach_after_ue_initiated_imsi_detach.L14b
p866
aVtc_214_1160_keep_msc_last_sent_paging_request_associated_even_offloading.L14b
p867
aVtc_202_551_af_seamless_move_target_mandatory_paging_failed_due_to_OLP.L14b
p868
aVtc_217_028_rau_to_sgsn_subscription_withdrawn_when_wf_session_response.L14b
p869
aVtc_166_269_israu_new_dt_apn_list_empty_mode_3.WG14a
p870
aVtc_33_17_isc_rau_authenticating_interrupted_by_subscription_withdrawn.WG14a
p871
aVtc_204_1111_mme_eps_ho_target_type_d_emc_new_plmn_sgw_relocation.LW
p872
aVtc_197_573_sgw_selection_modification_of_ip_address.LW
p873
aVtc_327_019_recovery_intra_TAU__uplink_Detach_Request_while_waiting_for_Create_Session_Response.LW
p874
aVtc_294_412_mme_handle_eps_handover_SGW_unavailable_DNS_query_failure.LW
p875
aVtc_241_045_intra_with_multi_bearer_sgw_change_try_next.LW
p876
aVtc_241_159_israu_old_wait_for_sgsn_context_ack_interfere_by_reset_and_detach.LW
p877
aVtc_241_801_israu_interfering_context_request_no_cancel_location_s4.LW
p878
aVtc_194_080_cl_update_procedure_during_auth.LW
p879
aVtc_346_376_tau_inter_new_activeFlag_off_from_gn_sgsn_service_request.LW
p880
aVtc_346_565_AF__HO_Inter_Target_from_gn_2PDN_BCM_Sx_only_one_CCA_U_timeout.LW
p881
aVtc_346_555_AF__HO_Inter_Target_from_gn_2PDN_MBR_failure_for_1PDN_terminate_1Sx.LW
p882
aVtc_342_057_x2_isc_rau_g_to_w_with_one_pdp.LW
p883
aVtc_324_425_ef_payload_buffered_wf_security_mode_complete_payload_different_pdn.LW
p884
aVtc_202_18_downlink_data_after_s1_release.LW
p885
aVtc_202_563_seamless_move_target_Connected_mode_Emergency_Type_A__service_request_with_CSG_Id_before_ULA.LW
p886
aVtc_231_173_ms_init_detach_interfered_by_cancel_location_withdraw.LW
p887
aVtc_231_113_rnc_reset_during_ms_act_si_ms_deact_rnc_contact.LW
p888
aVtc_326_272_Periodic_Intra_TAU_with_unknown_GUTI_after_combined_attach_then_MO_SMS.LW
p889
aVtc_243_213_tau_from_sgsn_s3_active_flag_get_new_sgw_two_pdn_connections_service_not_supported_at_modify.LW
p890
aVtc_290_034_Timer_Based_GBR_Deact__service_request_wf_ue_context_release_complete_before_timer_expires.LW
p891
aVtc_314_041_sgsn_init_qos_modification_intra_rau_l_to_w.LW
p892
aVtc_306_154_ef_in_af_seamless_move_source_receive_insert_subscription_data_wf_modify_bearer_response.LW
p893
aVtc_306_1255_ef_seamless_move_target_receive_sgsn_context_request_wf_lua.LW
p894
aVtc_12_92_paging_request_pmmidle_wrong_rai.LW
p895
aVtc_193_219_attach_on_new_s1_no_auth_vects_from_hss.LW
p896
aVtc_274_276_Intra_and_pTAU__Handover_Required_with_old_TA_MSC_change_while_waiting_for_Location_Update_response_TAU_IMSI_Detach_TAU.LW
p897
aVtc_256_095_mme_eps_srvcc_ho_source_cs_only_handover_cancel_wf_delete_bearer_request.LW
p898
aVtc_44_004_small_restart__sctp_fe_restart.LW
p899
aVtc_284_016_pdn_connectivity_with_static_pdn_address_paa_type_ipv4_addr_ipv6.LW
p900
aVtc_262_063_attach_tai_not_supported.LW
p901
aVtc_214_312_combined_tau_intra_la_change_new_msc_while_wf_tau_complete.LWG
p902
aVtc_289_101_multi_pdn_pgw_init_bearer_mod_wf_service_interrupted_by_dbr_with_lbi.LWG
p903
aVtc_289_103_multi_pdns_pgw_init_bearer_mod_ecm_idle_interrupted_by_dbr_with_lbi.LWG
p904
aVtc_239_011_israu_interfering_context_request_no_cancel_location_s4.LWG
p905
aVtc_119_202_ospf_interface_opt_vals.LWG
p906
aVtc_297_407_move_at_periodic_rau.LWG
p907
aVtc_257_36_pws_etws_stop_warning_request_when_olp_rshl_false.LWG
p908
aVtc_208_43_interception_after_small_restart.LWG
p909
aVtc_243_203_tau_from_sgsn_s3_get_new_sgw_two_pdn_connections_first_failed_second_ok.LWG
p910
aVtc_274_276_Intra_and_pTAU__Handover_Required_with_old_TA_MSC_change_while_waiting_for_Location_Update_response_TAU_IMSI_Detach_TAU.LWG
p911
aVtc_274_380_Intra_and_pTAU__Downlink_A21_AIS_while_waiting_for_Create_Session_Response.LWG
p912
aVtc_63_4_stop_timer.LWG
p913
aVtc_318_116_sgw_restart_mf_one_pdn_with_relocate_by_ReleaseAccessBearersResponse.LWG
p914
aVtc_06_076_activate_secondary_with_tft.LWG
p915
aVtc_246_301_inter_rau_insert_entry_into_interface_cache.LWG
p916
aVtc_578_32_check_ebm_para_statistics_ue_return_duration.LWG
p917
aVtc_76_023_deactivate_ms_ggsn_simultanously.LWG
p918
aVtc_178_938_sctp_setprofile.LWG
p919
aVtc_178_970_m3_ietf_set_prim_ip_path.LWG
p920
aVtc_23_13_israu_out.LWG
p921
aVtc_329_203_inter_tau_new_rs_restricted_emergency.LWG
p922
aVtc_95_10_fingerprint.LWG
p923
aVtc_95_7_negative_tests.LWG
p924
aVtc_324_006_mf_ser_req_signaling_after_ack_3gdt.LWG
p925
aVtc_324_386_ef_mt_sms_wf_frcn_wf_frca_wf_ula.LWG
p926
aVtc_259_93_ef_provide_subscriber_information_service_request_w.LWG
p927
aVtc_304_400_Service_Request_UE_Initiated__control_mode_threshold_exceeded.LWG
p928
aVtc_110_005_inbound_outbound_pf_rule_cli_ip.LWG
p929
aVtc_256_143_mme_eps_srvcc_ho_source_cs_only_initial_ue_extended_service_request_wf_srvcc_ps_to_cs_response.LWG
p930
aVtc_202_421_af_seamless_move_target_initialCtxSetupResponse_noSuccDefaultBearer_implicit_detach.LWG
p931
aVtc_305_040_oms_mmi.LWG
p932
aVtc_195_532_mme_logging_ue_unrechable.LWG
p933
aVtc_241_435_israu_new_s4_to_s4_illegal_me_in_imei_after_israu.LWG
p934
aVtc_241_801_israu_interfering_context_request_no_cancel_location_s4.LWG
p935
aVtc_276_240_Inter_TAU_New_MME__Create_Bearer_Request_while_waiting_for_Modify_Bearer_Response.LWG
p936
aVtc_276_270_Inter_TAU_New_MME__Update_Bearer_Request_while_waiting_for_tau_timeout_s1_reset.LWG
p937
aVtc_322_173_smooth_move_ef_cli_s6d_delete_subscriber_data_wf_ptmsi_relocation_complete.LWG
p938
aVtc_306_1500_ef_seamless_move_target_handle_ddn_with_imsi_wf_modify_bearer_resp.LWG
p939
aVtc_218_311_tau_from_sgsn_preserved_gbr_bearer_buffer_1_ubr_1_cbr.LWG
p940
aVtc_236_107_s4_3gdt_based_on_sr_change_DtThresholdNumber.LWG
p941
aVtc_316_219_DSD_Subscribed_Charging_Characteristics_Withdrawal__Backup_UE.LWG
p942
aVtc_309_200_sw_inventory_notification.LWG
p943
aVtc_309_102_create_notification.LWG
p944
aVtc_309_121_replayComplete_notification.LWG
p945
aVtc_309_123_two_sessions_notification.LWG
p946
aVtc_309_107_moref_notification.LWG
p947
aVtc_39_128_attach_move_same_attach_new_iu.LWG
p948
aVtc_298_438_ms_init_deact_ef_delicated_bearer_deact_interfered_by_deactivate_pdp_request_pdn_level.LWG
p949
aVtc_15_115_inter_old_sgsn_interupted_by_returning_ms.LWG
p950
aVtc_284_015_pdn_connectivity_with_static_pdn_address_paa_type_ipv4_addr_ipv4.L14b
p951
aVtc_306_135_ef_seamless_move_source_receive_s1_setup_wf_frcn.L14b
p952
aVtc_306_1088_ef_seamless_move_target_buffer_extended_service_request_wf_mbr.L14b
p953
aVtc_306_1310_ef_seamless_move_target_ignore_delete_bearer_request_sgw_reject_mbr.L14b
p954
aVtc_316_227_UE_Request_PDN_Disconnection__Backup_UE.L14b
p955
aVtc_346_361_rau_to_gn_sgsn_terminate_sx_session.L14b
p956
aVtc_346_383_handover_inter_target_from_gn_establish_sx_session_with_bearer_control_mode_sx_only.L14b
p957
aVtc_276_045_Inter_TAU_New_MME__S1_Reset_while_waiting_for_Identity_Response__enhanced_imei_check.L14b
p958
aVtc_266_026_DownlinkDataFailureInd_repeat_paging_timer_small_local_restart.L14b
p959
aVtc_304_231_inter_tau_control_mode_threshold_exceeded_ignore_replace_s1.L14b
p960
aVtc_303_001_MT_CSFB_to_1xRTT_idle__S1_Reset_while_wf_Initial_Context_Setup_Response.L14b
p961
aVtc_256_194_mme_eps_srvcc_ho_source_cs_only_delete_subscription_wf_release_access_bearers_request.L14b
p962
aVtc_289_028_Modify_bearer__Downlink_nas_non_delivery_s1_intra_system_handover_triggered.L14b
p963
aVtc_262_300_emergency_imsi_attach_no_initial_context_setup_response.L14b
p964
aVtc_194_703_HSS_initiated_ISD_ue_context_modification_failure_s1_intra_system_handover_triggered_sgw_change_create_session_failed.L14b
p965
aVtc_347_212_Attach__Location_Report_while_waiting_for_Attach_Complete.L14b
p966
aVtc_275_059_tau_inter_new_new_sgw_two_pdn_connections_first_ok_second_unknown_in_ue.L14b
p967
aVtc_257_30_pws_sctp_device_failure.L14b
p968
aVtc_285_016_PDN_Connectivity__Handover_Required_while_pdn_disconnectivity.L14b
p969
aVtc_242_001_rau_to_sgsn_s3_keep_sgw.L14b
p970
aVtc_214_093_cc_La_Check_Ga.L14b
p971
aVtc_277_004_tau_inter_old_sgw_changed.L14b
p972
aVtc_278_2000_9_Inter_TAU_Old_MME__Fwd_Reloc_Req_SGW_Changed_TransferTAU_Interfering.L14b
p973
aVtc_220_202_csfb_to_1xrtt_suspend_t3n3_expired.L14b
p974
aVtc_44_890_mme_assoc_reestablish__service_request_on_reestablished_sctp_association.L14b
p975
aVtc_279_027_tai_list_inter_tau_3_intra_tau_conf_change_tz.L14b
p976
aVtc_244_603_modify_eslmc_port.L14b
p977
aVtc_244_535_SLg_Location_Request__Downlink_A21_AIS_wwf_Location_Response_from_ESMLC.L14b
p978
aVtc_273_249_tau_intra__sgw_reloc_mult_pdn_bearerstatus_mismatch.L14b
p979
aVtc_273_307_tau_intra_indicating_emergency_emergency_ongoing_update_location_fails.L14b
p980
aVtc_345_330_ef__mo_csfb_with_psho__service_request_while_wf_forward_relocation_complete.L14b
p981
aVtc_345_131_af__mt_csfb_with_psho__ecm_idle_no_FR_response_from_target_sgsn.L14b
p982
aVtc_31_056_standalone_isd_segmented.W14b
p983
aVtc_209_21_attach_detach_imsi.W14b
p984
aVtc_342_057_x2_isc_rau_g_to_w_with_one_pdp.W14b
p985
aVtc_11_231_activate_primary_after_LR_II.W14b
p986
aVtc_11_303_context_modification_with_aace_mtz_gmm_info.W14b
p987
aVtc_322_161_smooth_move_ef_nas_after_paging_response_ignore.WG14a
p988
aVtc_324_456_ef_detach_request_poweroff_abort_wf_modify_bearer_response_wf_update_location_hlr_ack_timeout.WG14a
p989
aVtc_06_086_apnresolving_not_vplmnallowed_no_apn_requested.G14b
p990
aVtc_208_22_attach_detach_imsi.G14b
p991
aVtc_208_31_sms_mo.G14b
p992
aVtc_04_41_gprs_imsi_attach_detach_identification_req_with_invalid_ptmsi_sig.G14b
p993
aVtc_230_238_activate_ipv4_visitor_requested_ipv4v6_subscribed_ipv4v6_aifav_true_aifv_true_daf_off.G14b
p994
aVtc_297_407_move_at_periodic_rau.LWG
p995
aVtc_202_102_small_restart.LWG
p996
aVtc_282_006_mme_initiated_deactivate_bearer_2_of_2.LWG
p997
aVtc_236_033_s4_3gdt_service_request_modify_bearer_no_response.LWG
p998
aVtc_236_286_3gdt_swichback_delete_bearer_request_received_wf_modify_bearer_response.LWG
p999
aVtc_259_102_ef_tads_s4_interfere_inter_rau_old_g.LWG
p1000
aVtc_256_176_mme_eps_srvcc_ho_source_cs_only_ue_release_request_wf_srvcc_ps_to_cs_complete_notification.LWG
p1001
aVtc_225_321_mt_call_active_mode_nas_non_delivery__cs_service_notification__handover_required_meanwhile_CBR_received.LWG
p1002
aVtc_329_203_inter_tau_new_rs_restricted_emergency.LWG
p1003
aVtc_95_7_negative_tests.LWG
p1004
aVtc_263_203_Attach_Flow_Pb__Attach_Request_Same_IEs_while_waiting_for_Initial_Context_Setup_Response.LWG
p1005
aVtc_76_008_ms_init_deactivation_tdi_ggsn_deactivate_other_nsapi.LWG
p1006
aVtc_243_205_tau_from_sgsn_s3_keep_old_sgw_two_pdn_connections_all_failed.LWG
p1007
aVtc_276_312_Inter_TAU_New_MME__DDN_with_error_indication_while_waiting_for_Modify_Bearer_Response.LWG
p1008
aVtc_79_056_activate_reject_QoS_not_accepted_by_rnc.LWG
p1009
aVtc_44_201_sctp_endpoint_config__modify_rt_Diameter.LWG
p1010
aVtc_274_444_Intra_TAU__Different_TAU_Request_while_waiting_for_Create_Session_Response_sgw_unavailable.LWG
p1011
aVtc_166_408_israu_new_service_req_reestablish_streaming_dt_ggsn_address.LWG
p1012
aVtc_32_75_test_transfer_2.LWG
p1013
aVtc_298_317_EF_SIBD_S4_Create_Bearer_Request.LWG
p1014
aVtc_239_011_israu_interfering_context_request_no_cancel_location_s4.LWG
p1015
aVtc_39_617_mas_unsucc_fwd_reloc_cmpl_fail_target.LWG
p1016
aVtc_289_070_GW_Init_Bearer_Modification_Flow_two_CBR_one_UBR_while_wf_modify_eps_bearer_context_accept.LWG
p1017
aVtc_289_047_Modify_bearer__ERAB_modify_response_s1_intra_system_handover_triggered_activate_dedicated_bearer_one_pdn_multiple_bearer.LWG
p1018
aVtc_11_213_israu_old_is_v97_one_extended_one_short_ti.LWG
p1019
aVtc_28_006_mo_sms_no_cp_ack.LWG
p1020
aVtc_309_200_sw_inventory_notification.LWG
p1021
aVtc_309_102_create_notification.LWG
p1022
aVtc_309_121_replayComplete_notification.LWG
p1023
aVtc_309_123_two_sessions_notification.LWG
p1024
aVtc_309_107_moref_notification.LWG
p1025
aVtc_262_1055_imsi_attach_with_csg_id_is_rejected.LWG
p1026
aVtc_284_108_pdn_connectivity_connection_already_exists.LWG
p1027
aVtc_290_034_Timer_Based_GBR_Deact__service_request_wf_ue_context_release_complete_before_timer_expires.LWG
p1028
aVtc_208_22_attach_detach_imsi.LWG
p1029
aVtc_208_43_interception_after_small_restart.LWG
p1030
aVtc_245_211_inter_rau_new_s4_turning_back_from_mme_no_cancel_location_with_sgw_change.LWG
p1031
aVtc_178_938_sctp_setprofile.LWG
p1032
aVtc_178_970_m3_ietf_set_prim_ip_path.LWG
p1033
aVtc_197_573_sgw_selection_modification_of_ip_address.LWG
p1034
aVtc_208_22_attach_detach_imsi.G14b
p1035
aVtc_208_158_payload_df3_alarm.G14b
p1036
aVtc_19_26_moving_2_mss_to_different_targets.G14b
p1037
aVtc_04_28_gprs_imsi_attach_authentication_resp_not_sent.G14b
p1038
aVtc_257_30_pws_sctp_device_failure.L14b
p1039
aVtc_282_020_delete_bearer_request_handover_to_non_3GPP_ecm_connected_multi_pdn.L14b
p1040
aVtc_326_315_Service_Request_with_unknown_STMSI_location_update_reject.L14b
p1041
aVtc_204_901_mme_eps_ho_target_insert_subscriber_data_with_odb_bit0_during_wf_tau_complete.L14b
p1042
aVtc_264_031_detach_NOK_emm_registered_ecm_Idle.L14b
p1043
aVtc_264_023_MME_Initiated_Detach__Emergency_Attached_UE_ECM_Idle__Detach__Purge__Reattach_Not_Required.L14b
p1044
aVtc_264_009_MME_Initiated_Detach__Attach__MME_Detach__Detach_Request_Retransmission__Reattach_Required__Attach.L14b
p1045
aVtc_295_124_tau_after_ho_tz_change_emm_information_meanwhile_handover_required_HO_success.L14b
p1046
aVtc_292_067_x2_handover_type_b_new_plmn_same_emc_sup_same_profile.L14b
p1047
aVtc_292_071_x2_handover_type_a_new_plmn_emc_sup_different_profile.L14b
p1048
aVtc_220_008_csfb_to_1xrtt_in_ecm_idle_int_prot_nok_unknown_mtmsi.L14b
p1049
aVtc_266_026_DownlinkDataFailureInd_repeat_paging_timer_small_local_restart.L14b
p1050
aVtc_281_010_Activate_bearer__Insert_subscription_data_while_wf_ue_context_accept.L14b
p1051
aVtc_310_104_af__MSC_not_found.L14b
p1052
aVtc_316_01_MME_Status_Management__send_Echo_Request_receive_Echo_Response_in_N3T3.L14b
p1053
aVtc_277_004_tau_inter_old_sgw_changed.L14b
p1054
aVtc_214_093_cc_La_Check_Ga.L14b
p1055
aVtc_225_312_mt_call_active_mode_nas_non_delivery__s1_intra_system_handover_triggered_resend_2_times.L14b
p1056
aVtc_306_1377_ef_seamless_move_target_receive_downlink_unitdata_af_lua_wf_icsr.L14b
p1057
aVtc_256_108_mme_eps_srvcc_ho_source_cs_only_sgsn_context_request_received_wf_srvcc_ps_to_cs_response_timeout.L14b
p1058
aVtc_327_012_recovery_intra_TAU__initial_Attach_Request_while_waiting_for_Ue_Backup_Response.L14b
p1059
aVtc_242_001_rau_to_sgsn_s3_keep_sgw.L14b
p1060
aVtc_238_041_mme_eps_irat_ho_target__standalone_aks_and_smc_auth_response_timeout.L14b
p1061
aVtc_244_535_SLg_Location_Request__Downlink_A21_AIS_wwf_Location_Response_from_ESMLC.L14b
p1062
aVtc_194_1508_dsd_apn_oi_replacement_remove_ue_level_together_with_CC.L14b
p1063
aVtc_304_236_isc_active_flag_on_control_mode_threshold_exceeded_ignore_replace_s1_wf_initial_context_setup_response.L14b
p1064
aVtc_304_266_tau_from_gnsgsn_2g_control_mode_wf_delete_all_bearers_response_exception_case_reject_congestion_subscriber_cancelled.L14b
p1065
aVtc_304_136_initial_ue_intra_tau_control_mode_threshold_exceeded_usc_implicit_detach_wf_tau_complete_after_handover.L14b
p1066
aVtc_304_328_PDN_connectivity__control_mode_threshold_exceeded_action_reject_during_service_req.L14b
p1067
aVtc_346_378_handover_inter_target_establish_sx_session.L14b
p1068
aVtc_346_553_AF__HO_Inter_Target_from_gn_2PDN_one_fail_in_ho_request_ack.L14b
p1069
aVtc_346_550_AF__HO_Inter_Target_from_gn_CCR_Initial_no_CCA_received.L14b
p1070
aVtc_346_891_3gpp_move_source_ecm_idle_terminate_sx.L14b
p1071
aVtc_243_334_tau_from_sgsn_s3_emergency_type_c_ptmsi_sign_mismatch.L14b
p1072
aVtc_322_161_smooth_move_ef_nas_after_paging_response_ignore.WG14a
p1073
aVtc_324_371_ef_cancel_location_intialAttach_wf_modify_bearer_response_service_req_data.WG14a
p1074
aVtc_262_169_new_mme_identification_procedure_with_emergency_attach_type.LW
p1075
aVtc_306_1130_ef_seamless_move_target_receive_detach_request_with_switchoff_wf_service_request.LW
p1076
aVtc_306_1308_ef_seamless_move_target_buffer_update_bearer_request.LW
p1077
aVtc_283_050_GW_Delete_Bearer_Handover_to_non_3GPP__Ue_Release_while_wf_ERAB_Release_Response.LW
p1078
aVtc_265_102_Detach_Flow_NW_init__Reattach_Required_Attach_Request_while_waiting_for_Context_Release_Complete.LW
p1079
aVtc_326_203_Intra_TAU_after_node_restart_with_two_retrieval_responses_with_SGW_change_with_emergency_PDN.LW
p1080
aVtc_326_380_Service_Request_with_unknown_STMSI_multiple_retrieve_responses.LW
p1081
aVtc_009_003_attach_cache_full.LW
p1082
aVtc_335_35_wifi_to_mobility_in_ecm_idle_af__no_estimation_response_from_eNB_timeout_max_3000.LW
p1083
aVtc_243_213_tau_from_sgsn_s3_active_flag_get_new_sgw_two_pdn_connections_service_not_supported_at_modify.LW
p1084
aVtc_342_057_x2_isc_rau_g_to_w_with_one_pdp.LW
p1085
aVtc_11_335_apnresolving_cc27_check_session_log.LW
p1086
aVtc_11_427_ggsn_update_with_lower_qos_during_secondary_pdp_activation.LW
p1087
aVtc_292_055_X2_handover_followed_by_service_request_check_uli.LW
p1088
aVtc_241_447_israu_new_with_dedicated_bearer_create_session_response_default_bearer_failed.LW
p1089
aVtc_241_619_intra_rau_with_dedicated_bearer_sgw_change_wait_security_mode_complete_handle_dbr.LW
p1090
aVtc_209_44_sgsn_init_pdp_modification.LW
p1091
aVtc_324_422_ef_payload_buffered_wf_paging_reponse_payload.LW
p1092
aVtc_263_240_Attach_Flow__Attach_Request_with_same_IE_while_waiting_for_identification_response.LW
p1093
aVtc_289_047_Modify_bearer__ERAB_modify_response_s1_intra_system_handover_triggered_activate_dedicated_bearer_one_pdn_multiple_bearer.LW
p1094
aVtc_256_175_mme_eps_srvcc_ho_source_cs_only_ue_release_request_wf_srvcc_ps_to_cs_response.LW
p1095
aVtc_248_365_inter_l_to_w_new_iu_release_request_received_buffered_ubr_discarded.LW
p1096
aVtc_12_127_attach_imsi_imei_check_black_listed_after_detach.LW
p1097
aVtc_195_404_ue_trace_start_s1_intra_system_handover_triggered_HO_cancel.LW
p1098
aVtc_304_266_tau_from_gnsgsn_2g_control_mode_wf_delete_all_bearers_response_exception_case_reject_congestion_subscriber_cancelled.LW
p1099
aVtc_204_047_inter_mme_handover_with_ta_change_tai_different_from_selected_plmnid_and_global_enodebid_s1ho.LW
p1100
aVtc_53_138_inter_new_ggsn_decrease_qos_rab_setup_fault.LW
p1101
aVtc_578_23_check_usc_report.LW
p1102
aVtc_268_014_UE_Release_Flow__Downlink_A21_AIS_while_waiting_for_Relase_Access_Bearer_Response.LW
p1103
aVtc_26_146_SGSN_init_PDP_modify_GGSN_not_support_HLR_support_ARP.W14b
p1104
aVtc_342_057_x2_isc_rau_g_to_w_with_one_pdp.W14b
p1105
aVtc_236_288_Relocation_3gdt_switchback_iu_release_request_none_user_inactivity_received_wf_modify_bearer_response.W14b
p1106
aVtc_298_074_s4_nrspca_activate_same_nsapi_of_dedicated_bearer_apn_failed.W14b
p1107
aVtc_231_117_rnc_reset_when_sgsn_initiated_del_all_session.W14b
p1108
aVtc_245_340_israu_new_l_to_w_with_GBR_dedicated_bearer_ipv6_3gdt.W14b
p1109
aVtc_44_004_small_restart__sctp_fe_restart.L14b
p1110
aVtc_267_229_Service_Request__PDN_connectivity_request_while_wf_authentication_response.L14b
p1111
aVtc_304_027_imsi_attach_success__ecm_idle_control_mode_threshold_exceeded_usc_reject_with_congestion.L14b
p1112
aVtc_214_093_cc_La_Check_Ga.L14b
p1113
aVtc_214_1073_la_selection_mf_oldmscpreferred_combined_intra_tau_la_with_old_msc_not_ue_capable.L14b
p1114
aVtc_347_333_Intra_TAU_With_Active_Flag__RAR_while_waiting_ICS_Response.L14b
p1115
aVtc_347_341_SGW_Restart__RAR_while_waiting_Create_Session_Response.L14b
p1116
aVtc_103_860_ue_trace_retransmit.L14b
p1117
aVtc_103_1101_resending_AIR_interfering_CLR.L14b
p1118
aVtc_318_116_sgw_restart_mf_one_pdn_with_relocate_by_ReleaseAccessBearersResponse.L14b
p1119
aVtc_244_041_mt_lr_tau_request_received_wf_location_report.L14b
p1120
aVtc_244_701_mt_lr_LPPa_mobility_unstable_before_lr.L14b
p1121
aVtc_281_009_Activate_bearer__Handover_Required_while_wf_eps_bearer_context_accept.L14b
p1122
aVtc_225_502_get_subscriber_none.L14b
p1123
aVtc_225_616_exp_flow_handover_required_intra_while_wf_modification_context_response.L14b
p1124
aVtc_225_408_mt_call_idle_mode_cs_and_ps_paging_no_response.L14b
p1125
aVtc_279_014_tai_list_combined_attach_intra_tau_diff_la.L14b
p1126
aVtc_242_001_rau_to_sgsn_s3_keep_sgw.L14b
p1127
aVtc_346_357_SAPC_Restart_not_Detected_when_Origin_State_Id_decreased.L14b
p1128
aVtc_326_212_Intra_TAU_Recovery_after_node_restart_Update_Location_timeout_TAU_Complete_timeout.L14b
p1129
aVtc_326_223_Intra_TAU_Recovery_fail_Identity_Response_timeout_then_Recover_successful.L14b
p1130
aVtc_326_731_Inter_TAU_Recovery_subscription_check_ARD.L14b
p1131
aVtc_310_226_ef__Ue_Release_Request_wf_Delete_Bearer_Request.L14b
p1132
aVtc_310_229_ef__Ue_Release_Request_wf_Ue_Context_Release_Complete.L14b
p1133
aVtc_197_065_s1_handover_sgw_reselection_topoff_no_coll_pgws.L14b
p1134
aVtc_218_090_tau_from_sgsn_when_emm_registered.L14b
p1135
aVtc_284_025_pdn_connectivity_create_session_resend_sgw.L14b
p1136
aVtc_284_040_pdn_connectivity_retransmission_from_ue.L14b
p1137
aVtc_238_064_mme_eps_irat_ho_target__s1_reset_during_wf_delete_all_bearers_response.L14b
p1138
aVtc_238_052_mme_eps_irat_ho_target__tau_request_during_wf_handover_notify.L14b
p1139
aVtc_202_404_af_seamless_move_target_no_fwdRelocCmplAck_no_serReq_from_source_paging_success.L14b
p1140
aVtc_275_016_tau_inter_new_active_flag_no_tau_complete_paging_using_only_new_guti.L14b
p1141
aVtc_193_032_service_req_auth_failure_no_auts.L14b
p1142
aVtc_257_22_pws_etws_stop_warning_request_with_unknown_tai.L14b
p1143
aVtc_257_30_pws_sctp_device_failure.L14b
p1144
aVtc_287_005_PDN_Disconnect__Path_Switch_Request_while_wf_delete_session_response.L14b
p1145
aVtc_256_251_srvcc_ho_source_cs_only_emergency_mf_after_emergency_attach_authenticated_imsi_slr_handover_no_answ_gmlc1.L14b
p1146
aVtc_262_136_imsi_attach_piggybacking_not_supported.L14b
p1147
aVtc_311_253_intra_srns_reloc_s4_sgw_change_with_sgw_restart_and_wf_rau_complete_interrupted_by_context_request.LW
p1148
aVtc_218_311_tau_from_sgsn_preserved_gbr_bearer_buffer_1_ubr_1_cbr.LW
p1149
aVtc_306_1063_ef_seamless_move_target_handle_second_service_request_wf_icsr_no_ddn.LW
p1150
aVtc_306_1130_ef_seamless_move_target_receive_detach_request_with_switchoff_wf_service_request.LW
p1151
aVtc_238_260_mme_eps_irat_S3_ho_target__Create_Bearer_Request_while_wf_TAU_Accept.LW
p1152
aVtc_342_057_x2_isc_rau_g_to_w_with_one_pdp.LW
p1153
aVtc_12_134_attach_with_extended_mmumoc_iu_inactivity_timer.LW
p1154
aVtc_316_298_GUTI_Attach_Known_Large_Restart_Broadcast_Force_Delete_Among_Pool.LW
p1155
aVtc_346_546_AF__HO_Inter_Target__2PDN_BCM_Sx_only_one_CCA_U_cause_5003.LW
p1156
aVtc_236_284_HO_over_S3_3GDT_switchback_ef_ms_deact_ti_dedicated_wf_rab_assignment_response.LW
p1157
aVtc_214_312_combined_tau_intra_la_change_new_msc_while_wf_tau_complete.LW
p1158
aVtc_53_11_inter_new_srns_reloc_t_reloc_complete_timeout.LW
p1159
aVtc_53_54_inter_new_srns_reloc_ef_reset_1_pdp_wf_rab_delete_response.LW
p1160
aVtc_53_46_inter_new_srns_reloc_ef_iu_release_request2.LW
p1161
aVtc_241_801_israu_interfering_context_request_no_cancel_location_s4.LW
p1162
aVtc_209_44_sgsn_init_pdp_modification.LW
p1163
aVtc_103_1101_resending_AIR_interfering_CLR.LW
p1164
aVtc_44_004_small_restart__sctp_fe_restart.LW
p1165
aVtc_209_44_sgsn_init_pdp_modification.W14b
p1166
aVtc_298_438_ms_init_deact_ef_delicated_bearer_deact_interfered_by_deactivate_pdp_request_pdn_level.W14b
p1167
aVtc_11_264_apnresolving_vplmn_not_allowed_subscribed_apn_hplmn_apn_criteria_cc.W14b
p1168
aVtc_342_057_x2_isc_rau_g_to_w_with_one_pdp.W14b
p1169
aVtc_28_63_mt_sms_block_unknown_mtbs_notconfig.W14b
p1170
aVtc_231_117_rnc_reset_when_sgsn_initiated_del_all_session.W14b
p1171
aVtc_17_102_inter_rau_new_one_context_with_ipv4v6_type_daf_off.G14b
p1172
aVtc_208_43_interception_after_small_restart.G14b
p1173
aVtc_236_266_IRAT_HO_for_combined_node_DtSelMode_6_APN_in_APN_list.LWG
p1174
aVtc_194_150_notify_no_pgw.LWG
p1175
aVtc_194_987_uplink_ue_associated_LPPa_transport_during_waiting_location_report__idr_flags_ef.LWG
p1176
aVtc_241_801_israu_interfering_context_request_no_cancel_location_s4.LWG
p1177
aVtc_91_012_intra_rau_ul_req_while_spont_ul.LWG
p1178
aVtc_276_305_Inter_TAU_New_MME__Downlink_Data_Notification_while_waiting_for_failing_Modify_Bearer_Response.LWG
p1179
aVtc_76_020_deactivate_ggsn_initiated_wrong_service_type.LWG
p1180
aVtc_239_011_israu_interfering_context_request_no_cancel_location_s4.LWG
p1181
aVtc_39_601_mas_unsucc_fwd_reloc_resp_mandatory_ie_missing_stop_source.LWG
p1182
aVtc_304_404_Service_Request__control_mode_threshold_not_reached.LWG
p1183
aVtc_219_161_attach_g_to_l_s4_sgsn.LWG
p1184
aVtc_165_12_check_resource_alarms_dp.LWG
p1185
aVtc_214_1126_la_selection_mf_oldlapreferred_combined_intra_tau_after_imsi_detach_triggered_by_sgs_paging.LWG
p1186
aVtc_297_407_move_at_periodic_rau.LWG
p1187
aVtc_327_604_Inter_TAU_Recovery__TAU_Request_while_waiting_for_Ue_Backup_Retrieval_Response.LWG
p1188
aVtc_202_421_af_seamless_move_target_initialCtxSetupResponse_noSuccDefaultBearer_implicit_detach.LWG
p1189
aVtc_198_056_IPv4_route_selection.LWG
p1190
aVtc_346_160_Location_Based_Policies__User_Location_Change_Event_Trigger_only_in_2nd_PDN_Intra_TAU_ActiveFlag.LWG
p1191
aVtc_309_200_sw_inventory_notification.LWG
p1192
aVtc_309_102_create_notification.LWG
p1193
aVtc_309_121_replayComplete_notification.LWG
p1194
aVtc_309_123_two_sessions_notification.LWG
p1195
aVtc_309_107_moref_notification.LWG
p1196
aVtc_204_121_inter_s1ho_target_macro_eNB_format_targetid_HeNB_GW_table_empty.LWG
p1197
aVtc_329_820_geored_service_request_rr_restricted_after_update_location.LWG
p1198
aVtc_44_250_sctp_assoc_config__modify_rt_Diameter.LWG
p1199
aVtc_251_66_w_to_l_to_w_with_cl_type_initialAttach_cl_after_sgsn_con_req.LWG
p1200
aVtc_53_06_inter_new_srns_reloc_max_sau.LWG
p1201
aVtc_178_970_m3_ietf_set_prim_ip_path.LWG
p1202
aVtc_179_321_Ccheck_ipsec_sa.LWG
p1203
aVtc_25_14_modify_ms99_QoS_from_GGSN_higher_than_in_Update_PDP_Context_Request.G14b
p1204
aVtc_249_65_s6d_activation_with_GPRS_with_LteUE_selection_mode.G14b
p1205
aVtc_208_31_sms_mo.G14b
p1206
aVtc_33_17_isc_rau_authenticating_interrupted_by_subscription_withdrawn.WG14a
p1207
aVtc_310_116_af__HO_Cancel_before_Response_from_MSC_after_Response_from_SGSN.LW
p1208
aVtc_324_386_ef_mt_sms_wf_frcn_wf_frca_wf_ula.LW
p1209
aVtc_274_381_Intra_and_pTAU__Downlink_A21_AIS_while_waiting_for_Authentication_Response.LW
p1210
aVtc_243_200_tau_from_sgsn_s3_get_new_sgw_two_pdn_connections_all_ok.LW
p1211
aVtc_243_206_tau_from_sgsn_s3_keep_old_sgw_two_pdn_connections_first_ok_second_failed.LW
p1212
aVtc_293_040_X2_Based_HO__Downlink_A21_AIS_while_wf_Modify_Bearer_Response.LW
p1213
aVtc_294_371_s1_intra_handover_emc_type_b_hss_reset_update_loc_fail.LW
p1214
aVtc_44_004_small_restart__sctp_fe_restart.LW
p1215
aVtc_231_113_rnc_reset_during_ms_act_si_ms_deact_rnc_contact.LW
p1216
aVtc_306_076_ef_seamless_move_source_receive_extended_service_request_wf_cancel_location_request.LW
p1217
aVtc_306_1335_ef_seamless_move_target_receive_cli_delete_subscriber_wf_service_request.LW
p1218
aVtc_322_170_smooth_move_ef_gr_cli_delete_subscriber_data_wf_frr.LW
p1219
aVtc_326_245_Intra_TAU_Recovery_TAU_Complete_timeout.LW
p1220
aVtc_262_1055_imsi_attach_with_csg_id_is_rejected.LW
p1221
aVtc_214_1059_la_selection_mf_oldlapreferred_combined_tau_dyn_tailist_without_old_la.LW
p1222
aVtc_276_045_Inter_TAU_New_MME__S1_Reset_while_waiting_for_Identity_Response__enhanced_imei_check.LW
p1223
aVtc_335_35_wifi_to_mobility_in_ecm_idle_af__no_estimation_response_from_eNB_timeout_max_3000.LW
p1224
aVtc_342_057_x2_isc_rau_g_to_w_with_one_pdp.LW
p1225
aVtc_304_029_guti_attach_reject__control_mode_threshold_exceeded_then_action_stop.LW
p1226
aVtc_231_117_rnc_reset_when_sgsn_initiated_del_all_session.W14b
p1227
aVtc_342_057_x2_isc_rau_g_to_w_with_one_pdp.W14b
p1228
aVtc_342_125_delete_target_different_connection_three_targets.W14b
p1229
aVtc_31_039_attach_ul_fails_restricted_unsupp_feature.W14b
p1230
aVtc_241_301_israu_new_create_session_failed_and_paging_timeout.W14b
p1231
aVtc_39_187_detach_trigger_re_attach_new_iu.W14b
p1232
aVtc_11_560_activate_pdp_context_isd_odb_bit_15.LWG
p1233
aVtc_59_9_mtmsi_restart_counter.LWG
p1234
aVtc_132_002_create_ip_interface_eth.LWG
p1235
aVtc_119_202_ospf_interface_opt_vals.LWG
p1236
aVtc_95_10_fingerprint.LWG
p1237
aVtc_43_042_eNB_configuration_update_af_configuration_update_failure_twice.LWG
p1238
aVtc_309_200_sw_inventory_notification.LWG
p1239
aVtc_309_121_replayComplete_notification.LWG
p1240
aVtc_309_102_create_notification.LWG
p1241
aVtc_309_123_two_sessions_notification.LWG
p1242
aVtc_309_107_moref_notification.LWG
p1243
aVtc_245_301_inter_rau_insert_entry_into_interface_cache.LWG
p1244
aVtc_298_208_SIBD_S4_Service_Request_PDP_Context_Status_Connect.LWG
p1245
aVtc_303_004_X2_Based_HO__Downlink_A21_AIS_while_wf_TAU_Request_and_Emm_Information_in_nas_nondeliver.LWG
p1246
aVtc_346_578_AF__HO_X2_2PDN_MBR_failure_for_1PDN_terminate_sx.LWG
p1247
aVtc_316_206_TAU_From_S4_SGSN_Multiple_PDN_Connections_With_Max_Dedicated_Bearers__Backup_UE.LWG
p1248
aVtc_304_213_isc_control_mode_threshold_exceeded_wf_session_response_reject.LWG
p1249
aVtc_313_013_inter_new_srns_reloc_s16_with_sgw_change_two_pdns_with_dedicate_bearer_create_session_one_pdn_failed.LWG
p1250
aVtc_274_276_Intra_and_pTAU__Handover_Required_with_old_TA_MSC_change_while_waiting_for_Location_Update_response_TAU_IMSI_Detach_TAU.LWG
p1251
aVtc_202_421_af_seamless_move_target_initialCtxSetupResponse_noSuccDefaultBearer_implicit_detach.LWG
p1252
aVtc_239_105_inter_rau_new_unchanged_multi_pdn_connection_one_fail.LWG
p1253
aVtc_327_552_Recovery_for_DDN__Service_Request_while_waiting_for_Ue_Backup_Response.LWG
p1254
aVtc_578_32_check_ebm_para_statistics_ue_return_duration.LWG
p1255
aVtc_666_02_reboot_ss7_board.LWG
p1256
aVtc_262_063_attach_tai_not_supported.LWG
p1257
aVtc_39_601_mas_unsucc_fwd_reloc_resp_mandatory_ie_missing_stop_source.LWG
p1258
aVtc_208_22_attach_detach_imsi.LWG
p1259
aVtc_217_060_rau_to_sgsn_create_bearer_request_when_wf_sgsn_context_ack.LWG
p1260
aVtc_238_350_mme_eps_irat_ho_target__subscription_deleted__wf_handover_request_ack.LWG
p1261
aVtc_284_351_pdn_connectivity_pb_activate_1_dedicated_bearer_interrupted_by_path_switch_request.LWG
p1262
aVtc_284_575_emergency_pdn_connectivity_pb_activate_dedicated_bearer_after_configured_max_bearers_setup.LWG
p1263
aVtc_306_1130_ef_seamless_move_target_receive_detach_request_with_switchoff_wf_service_request.LWG
p1264
aVtc_209_21_attach_detach_imsi.LWG
p1265
aVtc_209_44_sgsn_init_pdp_modification.LWG
p1266
aVtc_218_311_tau_from_sgsn_preserved_gbr_bearer_buffer_1_ubr_1_cbr.LWG
p1267
aVtc_262_190_old_mme_identification_procedure_s3.L14b
p1268
aVtc_262_166_new_mme_identification_request_n3t3_timeout.L14b
p1269
aVtc_276_270_Inter_TAU_New_MME__Update_Bearer_Request_while_waiting_for_tau_timeout_s1_reset.L14b
p1270
aVtc_285_013_PDN_Connectivity__Delete_bearer_req_while_wf_erab_setup_response.L14b
p1271
aVtc_327_332_recovery_service_request__initial_Detach_Request_while_waiting_for_Sub_Procedure__Guti_Reallocation_Complete.L14b
p1272
aVtc_217_106_rau_to_sgsn_tau_request_when_wf_20s_timeout_delete_session_transaction_failed.L14b
p1273
aVtc_217_105_rau_to_sgsn_tau_request_when_wf_session_response.L14b
p1274
aVtc_329_203_inter_tau_new_rs_restricted_emergency.L14b
p1275
aVtc_214_026_new_combined_attach_reject_during_la_update.L14b
p1276
aVtc_214_028_combined_attach_interfering_s1_reset.L14b
p1277
aVtc_214_093_cc_La_Check_Ga.L14b
p1278
aVtc_214_312_combined_tau_intra_la_change_new_msc_while_wf_tau_complete.L14b
p1279
aVtc_214_1041_la_selection_af_combined_attach_access_restriction_for_wcdma.L14b
p1280
aVtc_214_1057_la_selection_mf_oldlapreferred_combined_tau_dyn_tailist_with_old_la_and_no_ue_capable_las_sms_only.L14b
p1281
aVtc_214_1103_la_selection_mf_reselection_combined_intra_tau_with_imsi_attach_after_csfb.L14b
p1282
aVtc_279_500_tai_list_current_tai_older_than_max_age.L14b
p1283
aVtc_194_963_ue_release_request_other_than_user_inactivity_during_waiting_for_location_report__idr_flags_ef.L14b
p1284
aVtc_44_004_small_restart__sctp_fe_restart.L14b
p1285
aVtc_44_805_sarFeatureSysPropToggle.L14b
p1286
aVtc_307_023_HSS_Init_QoS_Modification__ERAB_modify_response_with_failed_cause.L14b
p1287
aVtc_306_068_ef_seamless_move_source_receive_service_request_wf_cancel_location_request.L14b
p1288
aVtc_306_134_ef_seamless_move_source_receive_s1_setup_wf_modify_bearer_response.L14b
p1289
aVtc_306_073_ef_seamless_move_source_receive_extended_service_request_wf_source_guti_reallocation_complete.L14b
p1290
aVtc_306_1009_ef_seamless_move_target_handle_ddn_with_error_indication_when_s1_connected.L14b
p1291
aVtc_306_1062_ef_seamless_move_target_handle_second_service_request_wf_icsr.L14b
p1292
aVtc_306_1335_ef_seamless_move_target_receive_cli_delete_subscriber_wf_service_request.L14b
p1293
aVtc_266_026_DownlinkDataFailureInd_repeat_paging_timer_small_local_restart.L14b
p1294
aVtc_326_634_S6a_Throttling_ULR_Congestion_Subscriber_Data_Flush_caused_Detach_Timer_Stopped_and_UE_not_Detached.L14b
p1295
aVtc_273_201_tau_intra_roaming_restricted_plmn.L14b
p1296
aVtc_273_003_tau_intra_normal_idle_guti_realloc_no_tau_complete_old_guti_used.L14b
p1297
aVtc_273_309_tau_periodic_emergency_ongoing_multiple_pdn.L14b
p1298
aVtc_284_155_pdn_connectivity_pb_activate_dedicated_bearer_retransmission_from_ue.L14b
p1299
aVtc_303_003_Intra_S1_HO__Downlink_A21_AIS_while_wf_Handover_Request_Ack__Reset_from_source_eNB_while_wf_Handover_Notify.L14b
p1300
aVtc_244_603_modify_eslmc_port.L14b
p1301
aVtc_220_613_csfb_to_1xrtt_delete_gbr_bearers_no_answer_from_sgw.L14b
p1302
aVtc_288_247_pgw_init_bearer_mod_QoS_arp_too_high_ecm_idle.L14b
p1303
aVtc_257_12_pws_etws_write_replace_warning_request_enb_failure.L14b
p1304
aVtc_257_30_pws_sctp_device_failure.L14b
p1305
aVtc_316_402_Periodic_Backup_first_backup_triggered_by_Service_Request.L14b
p1306
aVtc_103_701_MME_restarts.L14b
p1307
aVtc_243_101_tau_from_sgsn_s3_active_flag_tau_complete_before_ics_response.L14b
p1308
aVtc_304_203_emergency_inter_tau__control_mode_threshold_not_reached.L14b
p1309
aVtc_347_251_UE_initiated_detach__RAR_while_waiting_for_delete_session_response.L14b
p1310
aVtc_256_083_mme_eps_srvcc_ho_source_to_geran_cs_only_af_without_dtm_srvcc_ps_to_cs_complete_notification_timeout.L14b
p1311
aVtc_280_132_activate_4_dedicated_bearers_timeout_nas_ok.L14b
p1312
aVtc_289_020_Modify_bearer__ERAB_modify_request_meanwhile_handover_required_HO_success_TAU.L14b
p1313
aVtc_289_032_Modify_bearer__Downlink_nas_transport_meanwhile_handover_required_HO_success.L14b
p1314
aVtc_282_132_deactivate_1_then_the_last_default_bearer.L14b
p1315
aVtc_346_386_tau_inter_new_activeFlag_off_from_gn_sgsn_extended_service_request.L14b
p1316
aVtc_346_463_AF__Service_Request_CCA_Update_Timeout.L14b
p1317
aVtc_274_276_Intra_and_pTAU__Handover_Required_with_old_TA_MSC_change_while_waiting_for_Location_Update_response_TAU_IMSI_Detach_TAU.L14b
p1318
aVtc_333_002_mf__OLP_Priority_at_emergency_attach.L14b
p1319
aVtc_33_17_isc_rau_authenticating_interrupted_by_subscription_withdrawn.WG14a
p1320
aVtc_231_173_ms_init_detach_interfered_by_cancel_location_withdraw.LW
p1321
aVtc_231_113_rnc_reset_during_ms_act_si_ms_deact_rnc_contact.LW
p1322
aVtc_11_089_activate_during_activation_ignored.LW
p1323
aVtc_346_600_Location_Based_Policies__User_Location_Changes_Sx_Only_2_CCR_for_same_PDN.LW
p1324
aVtc_274_380_Intra_and_pTAU__Downlink_A21_AIS_while_waiting_for_Create_Session_Response.LW
p1325
aVtc_298_145_EF_NRSPCA_interfere_Activation.LW
p1326
aVtc_298_317_EF_SIBD_S4_Create_Bearer_Request.LW
p1327
aVtc_209_44_sgsn_init_pdp_modification.LW
p1328
aVtc_256_175_mme_eps_srvcc_ho_source_cs_only_ue_release_request_wf_srvcc_ps_to_cs_response.LW
p1329
aVtc_196_058_nrspca_alloc_with_diff_ti.LW
p1330
aVtc_217_801_rau_to_gn_sgsn_tranfer_attach_when_wf_timeout.LW
p1331
aVtc_303_003_Intra_S1_HO__Downlink_A21_AIS_while_wf_Handover_Request_Ack__Reset_from_source_eNB_while_wf_Handover_Notify.LW
p1332
aVtc_39_404_mas_pmm_idle_one_pdp_imsi_profile_source.LW
p1333
aVtc_243_520_tau_from_sgsn_s3_change_to_non_3gpp_in_wf_session.LW
p1334
aVtc_243_213_tau_from_sgsn_s3_active_flag_get_new_sgw_two_pdn_connections_service_not_supported_at_modify.LW
p1335
aVtc_281_029_Activate_bearer__ERAB_setup_response_s1_inta_system_handover_triggered_resend_2_times.LW
p1336
aVtc_236_107_s4_3gdt_based_on_sr_change_DtThresholdNumber.LW
p1337
aVtc_324_114_af_all_gbr_dedicated_bearer_fail_3gdt.LW
p1338
aVtc_324_006_mf_ser_req_signaling_after_ack_3gdt.LW
p1339
aVtc_324_420_ef_payload_buffered.LW
p1340
aVtc_324_426_ef_payload_buffered_wf_security_mode_complete_payload_different_pdn_non_3gdt.LW
p1341
aVtc_326_203_Intra_TAU_after_node_restart_with_two_retrieval_responses_with_SGW_change_with_emergency_PDN.LW
p1342
aVtc_326_267_Intra_TAU_with_unknown_GUTI_Restriction_2_pdn_SAU_license_limit_reached.LW
p1343
aVtc_218_311_tau_from_sgsn_preserved_gbr_bearer_buffer_1_ubr_1_cbr.LW
p1344
aVtc_261_41_isd_ef_mme_pool_3gpp_move.LW
p1345
aVtc_194_116_hss_reset_many_subscribers.LW
p1346
aVtc_194_140_cl_subscription_withdraw_idle_paging_ue_not_responding_with_gbr_bearers.LW
p1347
aVtc_342_057_x2_isc_rau_g_to_w_with_one_pdp.LW
p1348
aVtc_78_084_imsi_attach_forced_cs_ps_coord_accept_foreign_ms_no_redirect_attempt_flag.LW
p1349
aVtc_12_90_paging_request_pmmidle_no_response.LW
p1350
aVtc_306_1130_ef_seamless_move_target_receive_detach_request_with_switchoff_wf_service_request.LW
p1351
aVtc_327_460_recovery_service_request__ERAB_release_indication_dedicated_bearer_while_waiting_for_Initial_Context_Setup_Response.LW
p1352
aVtc_236_182_hard_ho_intra_rau_with_3gdt_wf_release_access_bearer_resp_si_cancel_location_withdraw.W14b
p1353
aVtc_236_288_Relocation_3gdt_switchback_iu_release_request_none_user_inactivity_received_wf_modify_bearer_response.W14b
p1354
aVtc_342_057_x2_isc_rau_g_to_w_with_one_pdp.W14b
p1355
aVtc_231_117_rnc_reset_when_sgsn_initiated_del_all_session.W14b
p1356
aVtc_359_107_handover_from_3gpp_mf_Delete_Bearer_not_exist.W14b
p1357
aVtc_23_09_transfer_to_primary_and_change_vip_addr.W14b
p1358
aVtc_241_067_israu_new_s4_to_s4_illegal_me_in_imei_check_after_israu.W14b
p1359
aVtc_298_049_nrspca_s4_idle_no_paging_response_timeout_GBR.W14b
p1360
aVtc_11_335_apnresolving_cc27_check_session_log.W14b
p1361
aVtc_26_171_nrspca_s4_connected_mf_with_higher_pec_pev_than_policymap.W14b
p1362
aVtc_39_810_mas_pmm_idle_one_pdp_target_ipv4v6_v6notsupport.LWG
p1363
aVtc_313_013_inter_new_srns_reloc_s16_with_sgw_change_two_pdns_with_dedicate_bearer_create_session_one_pdn_failed.LWG
p1364
aVtc_334_141_sgw_restart_mf_one_pdn_3gdt_to_be_deactivated_idle.LWG
p1365
aVtc_178_938_sctp_setprofile.LWG
p1366
aVtc_238_350_mme_eps_irat_ho_target__subscription_deleted__wf_handover_request_ack.LWG
p1367
aVtc_250_160_s6d_IDR_IDA_Change_GPRS_to_eps_subscription.LWG
p1368
aVtc_265_160_Detach_Flow_NW_init__Ue_moved_to_non_3gpp_while_imsi_detach.LWG
p1369
aVtc_04_04_normal_gprs_imsi_attach_detach_imsi_attach_detach.LWG
p1370
aVtc_194_702_HSS_initiated_ISD_ue_context_modification_failure_s1_inter_system_handover_triggered_HO_undetected_retry_counter_exceed.LWG
p1371
aVtc_324_042_af_gbr_higher_than_policymap.LWG
p1372
aVtc_326_453_Inter_TAU_Recovery_Fail__No_Authentication_Vector_From_HSS.LWG
p1373
aVtc_202_10_downlink_data_during_paging.LWG
p1374
aVtc_256_175_mme_eps_srvcc_ho_source_cs_only_ue_release_request_wf_srvcc_ps_to_cs_response.LWG
p1375
aVtc_291_40_action_ue_trace.LWG
p1376
aVtc_218_092_tau_from_sgsn_isd_wf_tau_complete.LWG
p1377
aVtc_289_055_Modify_bearer__UE_context_modification_failure_s1_intra_system_handover_triggered_HO_cancel.LWG
p1378
aVtc_204_050_mme_eps_ho__no_modify_response_tau_req.LWG
p1379
aVtc_59_9_mtmsi_restart_counter.LWG
p1380
aVtc_318_107_sgw_restart_mf_one_of_pdns_create_after_sgw_restart.LWG
p1381
aVtc_209_39_inter_srns_old_sgsn.LWG
p1382
aVtc_95_3_load_lkf.LWG
p1383
aVtc_295_130_Intra_S1_HO__Sgw_reloc__Downlink_A21_AIS_while_waiting_for_Delete_Session_Response.LWG
p1384
aVtc_309_121_replayComplete_notification.LWG
p1385
aVtc_309_102_create_notification.LWG
p1386
aVtc_309_123_two_sessions_notification.LWG
p1387
aVtc_309_107_moref_notification.LWG
p1388
aVtc_197_062_s1_handover_sgw_reselection_topon_emc_ims_allpdn.LWG
p1389
aVtc_208_22_attach_detach_imsi.LWG
p1390
aVtc_208_40_sgsn_init_pdp_modification.LWG
p1391
aVtc_208_43_interception_after_small_restart.LWG
p1392
aVtc_259_99_ef_s6d_s4_attach_old_w.LWG
p1393
aVtc_304_400_Service_Request_UE_Initiated__control_mode_threshold_exceeded.LWG
p1394
aVtc_304_416_Service_Request_UE_Initiated__control_mode_threshold_exceeded_implicit_detach_int_prot_nok.LWG
p1395
aVtc_282_017_delete_bearer_request_at_handover_to_non_3GPP_ecm_idle.LWG
p1396
aVtc_79_003_deactivate_sgsn_initiated_rab_failure.LWG
p1397
aVtc_241_801_israu_interfering_context_request_no_cancel_location_s4.LWG
p1398
aVtc_162_0504_Ccheck_gtRule_nrof_es_gt_saps.LWG
p1399
aVtc_162_1424_Ccheck_sctp_profile.LWG
p1400
aVtc_73_33_gn_gsm_payload_97.LWG
p1401
aVtc_110_005_inbound_outbound_pf_rule_cli_ip.LWG
p1402
aVtc_318_107_sgw_restart_mf_one_of_pdns_create_after_sgw_restart.L14b
p1403
aVtc_202_102_small_restart.L14b
p1404
aVtc_306_150_ef_seamless_move_source_receive_insert_subscription_data_wf_frr_ecm_idle.L14b
p1405
aVtc_306_1335_ef_seamless_move_target_receive_cli_delete_subscriber_wf_service_request.L14b
p1406
aVtc_329_820_geored_service_request_rr_restricted_after_update_location.L14b
p1407
aVtc_326_331_Service_Request_with_unknown_STMSI_Security_Mode_Reject.L14b
p1408
aVtc_347_026_Inter_TAU_New_MME_from_gn__Subscription_withdrawn_while_waiting_for_CCA_initial.L14b
p1409
aVtc_347_036_Inter_HO_Target__Service_Request_while_waiting_for_TAU_Request.L14b
p1410
aVtc_273_566_tau_intra_tac_based_roaming_restriction_table_matched_whitelist_reject_by_imsi.L14b
p1411
aVtc_257_30_pws_sctp_device_failure.L14b
p1412
aVtc_242_001_rau_to_sgsn_s3_keep_sgw.L14b
p1413
aVtc_266_308_Service_Request_SGW_unavailable__GUTI_Reallocation_failure.L14b
p1414
aVtc_266_026_DownlinkDataFailureInd_repeat_paging_timer_small_local_restart.L14b
p1415
aVtc_238_091_attach_type_handover_pdn_connection_failed_cause_code_mappings.L14b
p1416
aVtc_345_211_af__mt_csfb_with_psho__ecm_idle_no_cancel_location_from_hss.L14b
p1417
aVtc_256_182_mme_eps_srvcc_ho_source_cs_only_s1_reset_wf_srvcc_ps_tp_cs_cancel_acknowledge.L14b
p1418
aVtc_281_009_Activate_bearer__Handover_Required_while_wf_eps_bearer_context_accept.L14b
p1419
aVtc_274_380_Intra_and_pTAU__Downlink_A21_AIS_while_waiting_for_Create_Session_Response.L14b
p1420
aVtc_195_537_mme_logging_tau_inter_old_s10_s3_the_same_address.L14b
p1421
aVtc_218_311_tau_from_sgsn_preserved_gbr_bearer_buffer_1_ubr_1_cbr.L14b
p1422
aVtc_278_080_Inter_TAU_Old_MME__S1_Reset_while_waiting_for_Context_Ack.L14b
p1423
aVtc_304_273_tau_from_gnsgsn_intruder_when_wf_update_location_response_control_mode_reject_ps_service_not_allowed.L14b
p1424
aVtc_346_152_Location_Based_Policies__User_Location_Change_Sx_Only_2nd_PDN__Service_Request_Changed_ECGI.L14b
p1425
aVtc_346_389_handover_intra_x2_2PDN_BCM_sx_only_and_no_armed_event_trigger_location_report.L14b
p1426
aVtc_346_546_AF__HO_Inter_Target__2PDN_BCM_Sx_only_one_CCA_U_cause_5003.L14b
p1427
aVtc_220_025_csfb_to_1xrtt_ue_suspended_hss_reset.L14b
p1428
aVtc_335_03_mobility_to_wifi_in_ecm_Connected_mf__decision_not_granted__cell_info_from_WIC_empty.L14b
p1429
aVtc_214_093_cc_La_Check_Ga.L14b
p1430
aVtc_214_410_combined_attach_vlr_reset_no_paging_imsi_detach_interferred_by_combined_tau_active.L14b
p1431
aVtc_276_045_Inter_TAU_New_MME__S1_Reset_while_waiting_for_Identity_Response__enhanced_imei_check.L14b
p1432
aVtc_292_110_x2_ho_1_pdn_fail_in_enb_1_pdn_fail_in_sgw_1_dedicated_failed.L14b
p1433
aVtc_210_044_attach_reject_imsi_cc_96.L14b
p1434
aVtc_44_071_attach_long_imsi.L14b
p1435
aVtc_44_201_sctp_endpoint_config__modify_rt_Diameter.L14b
p1436
aVtc_297_407_move_at_periodic_rau.G14b
p1437
aVtc_275_054_tau_inter_new_active_flag_get_new_sgw_two_pdn_connections_first_ok_second_failed.L14b
p1438
aVtc_275_050_tau_inter_new_keep_old_sgw_two_pdn_connections_first_failed_second_ok.L14b
p1439
aVtc_266_103_service_request_initial_context_setup_failure.L14b
p1440
aVtc_266_157_DownlinkDataNotification_with_CSG_Id_list_to_HeNB_GWs_in_TAI_list.L14b
p1441
aVtc_318_107_sgw_restart_mf_one_of_pdns_create_after_sgw_restart.L14b
p1442
aVtc_318_180_sgw_restart_ef_relocation_wf_create_session_response_interfer_by_attach.L14b
p1443
aVtc_318_116_sgw_restart_mf_one_pdn_with_relocate_by_ReleaseAccessBearersResponse.L14b
p1444
aVtc_316_242_MME_Pool_Seamless_Move_No_Forward_Relocation_Complete_Notification_GUTI_Reallocation__No_UE_Backup.L14b
p1445
aVtc_204_1222_mme_eps_ho_target_tau_ula_dia_resources_exceeded_severe_nw_failure.L14b
p1446
aVtc_257_30_pws_sctp_device_failure.L14b
p1447
aVtc_345_003_mf__mo_csfb_with_psho__ecm_idle_Gn.L14b
p1448
aVtc_345_101_af__mt_csfb_with_psho__ecm_idle_psho_feature_off.L14b
p1449
aVtc_244_021_mt_lr_paging_no_response.L14b
p1450
aVtc_44_004_small_restart__sctp_fe_restart.L14b
p1451
aVtc_243_191_tau_from_sgsn_s3_no_update_location_response_and_receive_s1_reset.L14b
p1452
aVtc_304_005_attach_reject__control_mode_log_status_off.L14b
p1453
aVtc_304_001_attach__control_mode_threshold_not_reached.L14b
p1454
aVtc_304_434_Service_Request_UE_Initiated__control_mode_threshold_exceeded_explicit_detach_int_prot_nok.L14b
p1455
aVtc_304_457_initial_ue_csfb_to_1xrtt_control_mode_threshold_exceeded_usc_reject_eps_service_not_allowed_in_ecm_connected_wf_ue_modifacation.L14b
p1456
aVtc_304_456_initial_ue_csfb_to_wg_control_mode_threshold_exceeded_usc_reject_illegal_ue_in_ecm_idle_wf_icsr.L14b
p1457
aVtc_256_012_mme_eps_srvcc_ho_source_cs_only_mf_with_rau_to_s4_sgsn_for_multi_voice_bearers_in_multi_pdns.L14b
p1458
aVtc_256_161_mme_eps_srvcc_ho_source_cs_only_provide_location_request_wf_release_access_bearers_response.L14b
p1459
aVtc_326_290_Intra_TAU_with_unknown_GUTI_with_SGW_Change.L14b
p1460
aVtc_280_132_activate_4_dedicated_bearers_timeout_nas_ok.L14b
p1461
aVtc_195_201_mme_logging_medium_attach_auth_ul_sec_esm_info_ue_detach.L14b
p1462
aVtc_195_417_ue_trace_deactivate_trace_s1_intra_system_handover_triggered_HO_ongoing_timeout.L14b
p1463
aVtc_276_045_Inter_TAU_New_MME__S1_Reset_while_waiting_for_Identity_Response__enhanced_imei_check.L14b
p1464
aVtc_242_001_rau_to_sgsn_s3_keep_sgw.L14b
p1465
aVtc_340_66_validation_move_l_filter_GA_TA_range_visited_TA_List.L14b
p1466
aVtc_340_68_validation_move_l_filter_all_TA.L14b
p1467
aVtc_294_017_intra_handover_after_x2_handover_with_sgw_relocation_main_flow.L14b
p1468
aVtc_294_357_intra_handover_sgw_relocation_sgw_not_respond_create_session_request.L14b
p1469
aVtc_214_093_cc_La_Check_Ga.L14b
p1470
aVtc_214_099_large_and_sctp_restart.L14b
p1471
aVtc_214_302_mt_sms_paging_failure.L14b
p1472
aVtc_346_516_AF__TAU_Inter_New_from_gn_2PDN_CSR_failure_for_1PDN_terminate_1Sx.L14b
p1473
aVtc_346_374_tau_inter_new_emergency_pdn_type_a.L14b
p1474
aVtc_346_901_small_restart_rollback_gauge.L14b
p1475
aVtc_274_276_Intra_and_pTAU__Handover_Required_with_old_TA_MSC_change_while_waiting_for_Location_Update_response_TAU_IMSI_Detach_TAU.L14b
p1476
aVtc_274_381_Intra_and_pTAU__Downlink_A21_AIS_while_waiting_for_Authentication_Response.L14b
p1477
aVtc_262_072_attach_second_attach_rejected_due_to_congestion.L14b
p1478
aVtc_273_563_tau_intra_tac_based_roaming_restriction_table_not_matched_blacklist.L14b
p1479
aVtc_327_166_recovery_intra_TAU_SGSN_Context_Request_while_waiting_for_Update_Location_Answer_sgw_change.L14b
p1480
aVtc_327_317_recovery_service_request__initial_Attach_Request_while_waiting_for_Sub_Procedure__Initial_Context_Setup_Response.L14b
p1481
aVtc_220_504_csfb_to_1xrtt_in_ecm_idle_tau_request_wf_ue_context_release_request.L14b
p1482
aVtc_220_613_csfb_to_1xrtt_delete_gbr_bearers_no_answer_from_sgw.L14b
p1483
aVtc_103_831_DPR_cause_BUSY.L14b
p1484
aVtc_103_603_georedundant_modify_diameter_peer.L14b
p1485
aVtc_197_411_attach_table_matched_standalone_pmip.L14b
p1486
aVtc_314_041_sgsn_init_qos_modification_intra_rau_l_to_w.LW
p1487
aVtc_103_602_georedundant_realm_routing.LW
p1488
aVtc_194_991_downlink_A21_AIS_during_waiting_location_report__idr_flags_ef.LW
p1489
aVtc_298_301_EF_SIBD_S4_Activate_From_MS_TI_Flag.LW
p1490
aVtc_327_211_recovery_service_request_emergency__Cancel_Location_subscription_withdrawal_while_waiting_for_Guti_Reallocation_Complete.LW
p1491
aVtc_324_424_ef_payload_buffered_wf_security_mode_complete_payload_different_contextId.LW
p1492
aVtc_306_1130_ef_seamless_move_target_receive_detach_request_with_switchoff_wf_service_request.LW
p1493
aVtc_306_1335_ef_seamless_move_target_receive_cli_delete_subscriber_wf_service_request.LW
p1494
aVtc_44_004_small_restart__sctp_fe_restart.LW
p1495
aVtc_304_200_inter_tau_reject__control_mode_threshold_exceeded.LW
p1496
aVtc_245_210_inter_rau_new_s4_turning_back_from_mme_no_cancel_location_without_sgw_change.LW
p1497
aVtc_294_016_mme_handle_eps_handover_main_flow_confirm_enb_ip.LW
p1498
aVtc_195_417_ue_trace_deactivate_trace_s1_intra_system_handover_triggered_HO_ongoing_timeout.LW
p1499
aVtc_268_014_UE_Release_Flow__Downlink_A21_AIS_while_waiting_for_Relase_Access_Bearer_Response.LW
p1500
aVtc_342_057_x2_isc_rau_g_to_w_with_one_pdp.LW
p1501
aVtc_231_173_ms_init_detach_interfered_by_cancel_location_withdraw.LW
p1502
aVtc_53_15_inter_new_srns_reloc_t_reloc_rau_timeout2.LW
p1503
aVtc_273_554_tau_intra__sgw_relocation_with_csg_id_plmn_change_reject.LW
p1504
aVtc_276_045_Inter_TAU_New_MME__S1_Reset_while_waiting_for_Identity_Response__enhanced_imei_check.LW
p1505
aVtc_275_550_inter_tau_new_detach_odb_bit0.LW
p1506
aVtc_275_044_tau_inter_new_get_new_sgw_two_pdn_connections_all_failed.LW
p1507
aVtc_12_92_paging_request_pmmidle_wrong_rai.LW
p1508
aVtc_241_801_israu_interfering_context_request_no_cancel_location_s4.LW
p1509
aVtc_289_101_multi_pdn_pgw_init_bearer_mod_wf_service_interrupted_by_dbr_with_lbi.LW
p1510
aVtc_218_311_tau_from_sgsn_preserved_gbr_bearer_buffer_1_ubr_1_cbr.LW
p1511
aVtc_297_407_move_at_periodic_rau.G14b
p1512
aVtc_98_112_inter_sgsn_new_psho_all_pdp_type_ipv4v6_daf_off.G14b
p1513
aVtc_06_047_ms_init_modification_bss_nack_10.G14b
p1514
aVtc_208_31_sms_mo.G14b
p1515
aVtc_322_126_smooth_move_ef_cancel_location_initialAttach_wf_cancel_location.WG14a
p1516
aVtc_242_511_rau_to_sgsn_s3_cancel_location_update_procedure_when_wf_session_response.LWG
p1517
aVtc_259_53_isd_s4_umts_pmmidl_act_deact_service_req.LWG
p1518
aVtc_259_52_isd_tads_s4_w_pmmidle_inter_rau_l_to_w.LWG
p1519
aVtc_265_160_Detach_Flow_NW_init__Ue_moved_to_non_3gpp_while_imsi_detach.LWG
p1520
aVtc_304_419_Geored_Service_Request_UE_Initiated__control_mode_threshold_exceeded_reject.LWG
p1521
aVtc_278_001_Inter_TAU_Old_MME__Attach_Request_while_waiting_for_Cancel_Location.LWG
p1522
aVtc_24_178_msc_pool_sgsn_pool_move_msc_from_old_sgsn_supported_keep_msc.LWG
p1523
aVtc_250_105_ignore_IDR_when_EPS_sub_downgrade_GPRS_sub.LWG
p1524
aVtc_218_311_tau_from_sgsn_preserved_gbr_bearer_buffer_1_ubr_1_cbr.LWG
p1525
aVtc_245_301_inter_rau_insert_entry_into_interface_cache.LWG
p1526
aVtc_225_310_mt_call_active_mode_nas_non_delivery__x2_ho_triggered.LWG
p1527
aVtc_225_639_exp_flow_handover_required_inter_while_wf_ue_context_release_complete.LWG
p1528
aVtc_327_552_Recovery_for_DDN__Service_Request_while_waiting_for_Ue_Backup_Response.LWG
p1529
aVtc_208_31_sms_mo.LWG
p1530
aVtc_326_380_Service_Request_with_unknown_STMSI_multiple_retrieve_responses.LWG
p1531
aVtc_95_3_load_lkf.LWG
p1532
aVtc_306_132_ef_seamless_move_source_receive_s1_setup_wf_target_guti_reallocation_complete.LWG
p1533
aVtc_306_1130_ef_seamless_move_target_receive_detach_request_with_switchoff_wf_service_request.LWG
p1534
aVtc_306_1335_ef_seamless_move_target_receive_cli_delete_subscriber_wf_service_request.LWG
p1535
aVtc_309_102_create_notification.LWG
p1536
aVtc_309_123_two_sessions_notification.LWG
p1537
aVtc_309_107_moref_notification.LWG
p1538
aVtc_309_121_replayComplete_notification.LWG
p1539
aVtc_241_754_intra_rau_with_multi_bearer_sgw_change_one_context_failed_node_function_deactivate_pdp_after_rau_on.LWG
p1540
aVtc_194_910_ecm_idle__notification_reachability_userstate_locationinfo_timezone__idr_flags.LWG
p1541
aVtc_236_311_HO_over_S3_3GDT_switchback_ef_delete_bearer_request_received_wf_rab_assignment_response.LWG
p1542
aVtc_178_970_m3_ietf_set_prim_ip_path.LWG
p1543
aVtc_666_02_reboot_ss7_board.LWG
p1544
aVtc_666_06_block_rt_board.LWG
p1545
aVtc_15_048_unsuccessful_inter_normal_rau_authentication_of_ms_fails_new_sgsn.LWG
p1546
aVtc_238_100_mme_eps_irat_ho_target_using_zuc_algorithm_eea3_eia3.LWG
p1547
aVtc_59_9_mtmsi_restart_counter.LWG
p1548
aVtc_262_040_imsi_attach_NOK_emm_registered_ecm_Idle.LWG
p1549
aVtc_313_219_inter_new_srns_reloc_s16_with_sgw_change_detach_request_direct_transfer_received_wf_rau_request.LWG
p1550
aVtc_211_025_streamed_cell_trace_mapping_alarm_cease_ipv6.LWG
p1551
aVtc_44_004_small_restart__sctp_fe_restart.LWG
p1552
aVtc_11_224_activate_primary_APN_test_VI.W14b
p1553
aVtc_241_405_israu_new_with_16m_flag_allowed_in_context_response_and_epc_cap_in_rau_req_transfer_to_new_tcw.W14b
p1554
aVtc_241_460_israu_new_with_dedicated_bearer_sgw_not_change_non_gbr_bearer_inactive.W14b
p1555
aVtc_31_007_cl_update_procedure_unknown_sgsn.W14b
p1556
aVtc_298_438_ms_init_deact_ef_delicated_bearer_deact_interfered_by_deactivate_pdp_request_pdn_level.W14b
p1557
aVtc_342_057_x2_isc_rau_g_to_w_with_one_pdp.W14b
p1558
a.