(lp0
Vtc_316_294_GUTI_Attach_UnKnown_IMSI_Broadcast_Force_Delete_Among_Pool.LWG
p1
aVtc_305_057_oms_mmi_hwm.LWG
p2
aVtc_261_49_isd_ef_tau_inter_new_from_gn_sgsn.LWG
p3
aVtc_283_042_GW_Deactivate_Bearer__Default_bearer_Delete_Interrupt_Dedicated_Bearer_Delete_NotLastPdn_wf_mbr_resp.LWG
p4
aVtc_64_6_connection_release.LWG
p5
aVtc_198_010_TCPUDPPortToNCB.LWG
p6
aVtc_666_06_block_rt_board.LWG
p7
aVtc_78_062_intra_rau_redirection_cause_13.LWG
p8
aVtc_329_055_attach_rs_restricted_unknown_guti.LWG
p9
aVtc_183_005_itc_folder_file_names.LWG
p10
aVtc_61_15_ongoing_wait_in_153.LWG
p11
aVtc_259_106_ef_tads_s4_interfere_inter_rau_old_w.LWG
p12
aVtc_293_040_X2_Based_HO__Downlink_A21_AIS_while_wf_Modify_Bearer_Response.LWG
p13
aVtc_179_038_Ccheck_ipsec_sa.LWG
p14
aVtc_179_050_Ccheck_inbound_pf_rule.LWG
p15
aVtc_179_068_Ccheck_route_export_destination.LWG
p16
aVtc_179_116_Ccheck_route_rule.LWG
p17
aVtc_179_128_Ccheck_bgp_peer.LWG
p18
aVtc_179_074_Ccheck_route_export_source.LWG
p19
aVtc_179_125_Ccheck_route_export_source.LWG
p20
aVtc_179_196_Ccheck_ip_interface.LWG
p21
aVtc_179_199_Ccheck_ip_network.LWG
p22
aVtc_179_133_Ccheck_ipsec_sa.LWG
p23
aVtc_179_142_Ccheck_static_route.LWG
p24
aVtc_250_67_s6d_activation_with_EPS_data_s4_license_off.LWG
p25
aVtc_181_01_multiple_ip_deconf_gngtp_traffic_g.LWG
p26
aVtc_181_02_multiple_ip_deconf_iuandgngtp_traffic_w.LWG
p27
aVtc_54_104_intra_isc_ran_information_w_to_l.LWG
p28
aVtc_54_125_inter_ran_information_g_to_l_through_gn_wrong_incoming_message.LWG
p29
aVtc_275_118_tau_inter_new_emergency_erroneous_ie_authenticated_no_imsi.LWG
p30
aVtc_289_031_Modify_bearer__Downlink_nas_transport_meanwhile_path_switch_request_HO_success.LWG
p31
aVtc_23_09_transfer_to_primary_and_change_vip_addr.LWG
p32
aVtc_77_5_attach_activate2_g_crash.LWG
p33
aVtc_195_547_mme_logging_two_ue_tau_inter_new_traced_by_same_imei.LWG
p34
aVtc_298_783_S4_3GDT_downlink_data_notification_wait_MBR_ef_detach.LWG
p35
aVtc_202_431_mf_seamless_move_target_service_request_modifyBearerReq_onePdnMultiBearer_oneBearerFail.LWG
p36
aVtc_202_565_seamless_move_target_Connected_mode_Emergency_Type_B__service_request_with_CSG_Id_before_ULA.LWG
p37
aVtc_194_172_hss_reset_ue_activity_pdn_connectivity_request.LWG
p38
aVtc_26_141_intra_g_to_w_VPLMN_ARP.LWG
p39
aVtc_280_123_activate_dedicated_bearer_sgw_reject_during_service_request.LWG
p40
aVtc_159_200_check_ctum_log.LWG
p41
aVtc_326_203_Intra_TAU_after_node_restart_with_two_retrieval_responses_with_SGW_change_with_emergency_PDN.LWG
p42
aVtc_326_211_Intra_TAU_with_unknown_GUTI_backup_no_vector_change_Replication_Option.LWG
p43
aVtc_326_272_Periodic_Intra_TAU_with_unknown_GUTI_after_combined_attach_then_MO_SMS.LWG
p44
aVtc_326_263_Intra_TAU_with_unknown_GUTI_Restriction_2_pdn_roaming_restriction_emergency_pdn_recovered.LWG
p45
aVtc_326_407_Inter_TAU_Recovery_With_Active_Flag__No_Modify_Bearer_Response_After_TAU.LWG
p46
aVtc_06_171_apnresolving_apnopid_hplmn_present_apn_criteria_si.LWG
p47
aVtc_238_052_mme_eps_irat_ho_target__tau_request_during_wf_handover_notify.LWG
p48
aVtc_193_420_service_request_aia_dia_realm_not_served.LWG
p49
aVtc_214_028_combined_attach_interfering_s1_reset.LWG
p50
aVtc_06_172_apnresolving_apnopid_hplmn_present_regional_apn_criteria.G14b
p51
aVtc_324_131_af_service_request_data_isd_timeout_3gdt.WG14a
p52
aVtc_26_125_service_request_ARP.W14b
p53
aVtc_199_117_seq_no_overflow_modify_bearer_request.LW
p54
aVtc_199_114_seq_no_overflow_delete_bearer_command.LW
p55
aVtc_241_435_israu_new_s4_to_s4_illegal_me_in_imei_after_israu.LW
p56
aVtc_316_217_ISD_With_PDN_Impact_Two_PDN_One_PDN_Type_Change__Backup_UE.LW
p57
aVtc_203_108_S1_Based_HO_Source_MME_TAU_Request_while_waiting_for_Forward_Relocation_Complete_Notification.LW
p58
aVtc_44_871_mme_assoc_reestablish__board_block_sbc.LW
p59
aVtc_79_025_sgsn_init_modification_rnc_not_supporting_modify.LW
p60
aVtc_194_081_cl_subscription_withdrawn_during_auth.LW
p61
aVtc_194_063_hss_reset.LW
p62
aVtc_194_201_isd_apn_change_not_all_apn_included.LW
p63
aVtc_194_991_downlink_A21_AIS_during_waiting_location_report__idr_flags_ef.LW
p64
aVtc_298_074_s4_nrspca_activate_same_nsapi_of_dedicated_bearer_apn_failed.LW
p65
aVtc_220_041_csfb_to_1xrtt_in_ecm_connected_s1_reset_wf_ue_context_release_complete.LW
p66
aVtc_326_211_Intra_TAU_with_unknown_GUTI_backup_no_vector_change_Replication_Option.LW
p67
aVtc_324_006_mf_ser_req_signaling_after_ack_3gdt.LW
p68
aVtc_276_045_Inter_TAU_New_MME__S1_Reset_while_waiting_for_Identity_Response__enhanced_imei_check.LW
p69
aVtc_257_18_pws_etws_stop_warning_request_rejected_when_olp.LW
p70
aVtc_52_04_inter_old_srns_reloc_one_unstable_context.LW
p71
aVtc_273_592_TAU_intra__active_flag_on_no_modify_bearer_response_sgw_change.LW
p72
aVtc_39_921_ef_seamless_move_interrupted_by_normal_attach.LW
p73
aVtc_53_154_inter_new_srns_reloc_ipv6andipv6_pdptype_ipv6_sysprop_not_supported.LW
p74
aVtc_327_031_recovery_intra_TAU__uplink_same_ie_intra_TAU_Request_while_waiting_for_Create_Session_Response.LW
p75
aVtc_78_089_ptmsi_attach_accept_home_ms_li_active.LW
p76
aVtc_78_080_imsi_attach_accept_home_ms_no_redirect_attempt_flag.LW
p77
aVtc_76_005_deactivate_primary_gtpv0_no_tdi.LW
p78
aVtc_361_510_rau_l_to_w_S4SGSN_check_old_qos_failed_node_function_deactivate_pdp_after_rau_on.LW
p79
aVtc_276_045_Inter_TAU_New_MME__S1_Reset_while_waiting_for_Identity_Response__enhanced_imei_check.L14b
p80
aVtc_43_040_eNB_configuration_update_mf.L14b
p81
aVtc_43_101__removal_of_disconnected_eNodeBs__CLI_removal.L14b
p82
aVtc_257_03_pws_etws_main_flow_stop_warning_request_with_ta_list.L14b
p83
aVtc_220_212_csfb_to_1xrtt_in_ecm_connected_tau_request_wf_delete_gbr_bearer_response.L14b
p84
aVtc_103_003_destination_host_is_not_peer_and_not_in_same_realm.L14b
p85
aVtc_103_201_realm_routing_s6a_only.L14b
p86
aVtc_103_208_hostname_in_conf_unavail.L14b
p87
aVtc_316_220_DSD_PDN_Subscription_Contexts_Withdrawal_One_PDN_Disconnect__Backup_UE.L14b
p88
aVtc_194_187_hss_reset_after_large_restart_with_full_imsi.L14b
p89
aVtc_194_991_downlink_A21_AIS_during_waiting_location_report__idr_flags_ef.L14b
p90
aVtc_284_350_pdn_connectivity_interrupted_by_path_switch_request.L14b
p91
aVtc_341_602_x2_activity_event_tau_intra_sgw_changed.L14b
p92
aVtc_238_261_mme_eps_irat_Gn_ho_target__Create_Bearer_Request_while_wf_TAU_Accept.L14b
p93
aVtc_46_160_Ccheck_Sapc_Check_License.L14b
p94
aVtc_39_187_detach_trigger_re_attach_new_iu.W14b
p95
aVtc_231_281_activate_pdp_request_ignore_during_s4_pdp_deactivating.W14b
p96
aVtc_26_161_subscriber_data_changed_with_qos_upgrade_by_ggsn_with_override.W14b
p97
aVtc_298_826_NRSPCA_S4_nsapi_collision_receiving_detach_request_while_waiting_for_delete_bearer_request.W14b
p98
aVtc_194_991_downlink_A21_AIS_during_waiting_location_report__idr_flags_ef.L14b
p99
aVtc_284_560_emergency_pdn_connectivity_multiple_pgw.L14b
p100
aVtc_295_136_mo_call_during_s1_ho_tau_request_when_wf_handover_notify.L14b
p101
aVtc_326_407_Inter_TAU_Recovery_With_Active_Flag__No_Modify_Bearer_Response_After_TAU.L14b
p102
aVtc_214_806_mo_sms_active_donwlink_nas_transport_meanwhile_handover_required_HO_success.L14b
p103
aVtc_47_002_imsi_attach_ap_gain.L14b
p104
aVtc_304_236_isc_active_flag_on_control_mode_threshold_exceeded_ignore_replace_s1_wf_initial_context_setup_response.L14b
p105
aVtc_304_266_tau_from_gnsgsn_2g_control_mode_wf_delete_all_bearers_response_exception_case_reject_congestion_subscriber_cancelled.L14b
p106
aVtc_43_040_eNB_configuration_update_mf.L14b
p107
aVtc_310_244_ef__S1_Reset_wf_FR_Complete_PS_to_CS_Complete_received.L14b
p108
aVtc_276_045_Inter_TAU_New_MME__S1_Reset_while_waiting_for_Identity_Response__enhanced_imei_check.L14b
p109
aVtc_316_273_Inter_MME_HO_SUT_As_Source_No_MME_Available_in_Backup_Option_Range__Delete_UE_Backup.L14b
p110
aVtc_327_312_recovery_service_request__initial_Attach_Request_while_waiting_for_Ue_Backup_Response.L14b
p111
aVtc_266_020_DownlinkDataFailureInd_repeat_paging_timer_on.L14b
p112
aVtc_202_18_downlink_data_after_s1_release.L14b
p113
aVtc_202_42_type_c_emergency_pdn_ecm_idle.L14b
p114
aVtc_244_806_mt_lr_donwlink_generic_nas_transport_meanwhile_handover_required_HO_success.L14b
p115
aVtc_195_416_ue_trace_deactivate_trace_s1_intra_system_handover_triggered.L14b
p116
aVtc_225_315_mt_call_active_mode_nas_non_delivery__cs_service_notification_meanwhile_handover_required.L14b
p117
aVtc_347_001_Inter_TAU_New_MME__Attach_Req_while_waiting_for_CCA_initial.L14b
p118
aVtc_275_206_tau_inter_new_emergency_type_b_restricted_no_rrc_or_active_flag.L14b
p119
aVtc_275_073_tau_inter_new_no_update_location_response_sgsn00040258.L14b
p120
aVtc_103_701_MME_restarts.L14b
p121
aVtc_103_831_DPR_cause_BUSY.L14b
p122
aVtc_103_008_prioritized_peer_destination_realm_only_handled_by_peer.L14b
p123
aVtc_159_200_check_ctum_log.LWG
p124
aVtc_208_43_interception_after_small_restart.LWG
p125
aVtc_05_023_gprs_imsi_attach_rejected_due_to_imsi_not_known.LWG
p126
aVtc_327_164_recovery_intra_TAU_Context_Request_while_waiting_for_Modify_Bearer_Response.LWG
p127
aVtc_327_162_recovery_intra_TAU_Downlink_A21_AIS_while_waiting_for_Main_Procedure_and_Sub_Procedure.LWG
p128
aVtc_327_224_recovery_service_request__Delete_Subscriber_Data_while_waiting_for_Ue_Backup_Response.LWG
p129
aVtc_53_136_inter_new_ggsn_decrease_qos.LWG
p130
aVtc_53_401_inter_new_srns_reloc_new_direct_transfer_rau_reqeust_with_wrong_type.LWG
p131
aVtc_73_38_buffer_packets_no_3gdt.LWG
p132
aVtc_319_102_attach_mf_gw_blacklisting_blocked_status_has_lowest_priority.LWG
p133
aVtc_196_254_nrspca_reject_cause26_high_load.LWG
p134
aVtc_666_06_block_rt_board.LWG
p135
aVtc_209_180_handover_w_to_l_source_s4_sgsn.LWG
p136
aVtc_209_106_dual_stack_not_supported_ipv4_ipv4v6.LWG
p137
aVtc_293_040_X2_Based_HO__Downlink_A21_AIS_while_wf_Modify_Bearer_Response.LWG
p138
aVtc_179_047_Ccheck_gre_ta.LWG
p139
aVtc_179_050_Ccheck_inbound_pf_rule.LWG
p140
aVtc_179_062_Ccheck_inbound_pf_rule.LWG
p141
aVtc_179_133_Ccheck_ipsec_sa.LWG
p142
aVtc_179_351_Ccheck_ip_outbound_forwarding.LWG
p143
aVtc_348_165_israu_af__new_sgsn_imei_check_black_listed.LWG
p144
aVtc_96_024_intra_sgsn_intra_ra_psho_llc_pdu_arrives_no_psho_complete_t14_expiry.LWG
p145
aVtc_23_13_israu_out.LWG
p146
aVtc_197_571_sgw_selection_removal_of_sgw_infomation2.LWG
p147
aVtc_241_801_israu_interfering_context_request_no_cancel_location_s4.LWG
p148
aVtc_52_31_reloc_wf_forw_rel_compl_interrupted_by_detach_on_new_iu.LWG
p149
aVtc_52_54_reloc_wf_forw_rel_resp_interrupted_by_iu_release.LWG
p150
aVtc_52_62_reloc_wf_forw_rel_compl_interrupted_by_sgsn_context_request.LWG
p151
aVtc_259_99_ef_s6d_s4_attach_old_w.LWG
p152
aVtc_298_022_nrspca_s4_idle_security_no_response.LWG
p153
aVtc_298_145_EF_NRSPCA_interfere_Activation.LWG
p154
aVtc_43_101__removal_of_disconnected_eNodeBs__CLI_removal.LWG
p155
aVtc_192_010_oms_transition_states_show_target.LWG
p156
aVtc_51_110_reloc_wf_update_location_response_interfered_by_rnc_reset.LWG
p157
aVtc_236_166_s4_3gdt_with_dedicated_bearer_partial_rab_setup_fail_service_request.LWG
p158
aVtc_273_652_tau_intra_periodic_SGW_unavailable_after_MME_large_restart__with_static_SGW.LWG
p159
aVtc_273_671_tau_intra_SGW_unavailable_active_flag_off_after_MME_large_restart__with_emergency_PDN.LWG
p160
aVtc_273_670_tau_intra_SGW_unavailable_active_flag_off_after_MME_large_restart_main_flow.LWG
p161
aVtc_322_170_smooth_move_ef_gr_cli_delete_subscriber_data_wf_frr.LWG
p162
aVtc_203_108_S1_Based_HO_Source_MME_TAU_Request_while_waiting_for_Forward_Relocation_Complete_Notification.LWG
p163
aVtc_216_106_icmpv6_outNeighborSol.LWG
p164
aVtc_246_061_israu_new_l_to_g_sgw_change_one_pdn_ubr_before_rau_complete_interfered_by_inter_rau_request.LWG
p165
aVtc_193_065_attach_integrity_fails.LWG
p166
aVtc_193_063_attach_imsi_attach.LWG
p167
aVtc_326_352_Service_Request_with_unknown_STMSI_ownSubPool_MME_old_MME_in_diff_SubPool.LWG
p168
aVtc_326_201_Intra_TAU_with_unknown_GUTI_with_active_flag.LWG
p169
aVtc_326_204_Intra_TAU_combined_type_with_LA_served_by_old_msc_after_large_restart_after_combined_attach.LWG
p170
aVtc_326_272_Periodic_Intra_TAU_with_unknown_GUTI_after_combined_attach_then_MO_SMS.LWG
p171
aVtc_326_281_Intra_TAU_combined_type_with_unknown_GUTI_SGW_unavailable.LWG
p172
aVtc_78_040_ptmsi_attach_ap_index_transfer_redirection_cause_14.LW
p173
aVtc_78_001_imsi_attach_accept_home_ms.LW
p174
aVtc_275_073_tau_inter_new_no_update_location_response_sgsn00040258.LW
p175
aVtc_44_004_small_restart__sctp_fe_restart.LW
p176
aVtc_44_871_mme_assoc_reestablish__board_block_sbc.LW
p177
aVtc_326_309_Service_Request_with_unknown_STMSI_no_ULA_then_activate_new_PDN.LW
p178
aVtc_79_066_activate_reject_rab_fail_qos_cause_26_fallback_streaming.LW
p179
aVtc_334_288_path_failure_service_req_connected_3gdt_af_multi_pdn_try_next.LW
p180
aVtc_298_783_S4_3GDT_downlink_data_notification_wait_MBR_ef_detach.LW
p181
aVtc_276_284_Inter_TAU_New_MME__Delete_Bearer_Request_change_to_non_3gpp_while_waiting_for_failing_Modify_Bearer_Response.LW
p182
aVtc_310_220_ef__Ue_Release_Request_wf_PS_to_CS_Response_and_FR_Response.LW
p183
aVtc_218_311_tau_from_sgsn_preserved_gbr_bearer_buffer_1_ubr_1_cbr.LW
p184
aVtc_103_902_load_sharing_realm_routing_own_realm.LW
p185
aVtc_53_140_inter_new_invalid_qos_profile.LW
p186
aVtc_53_408_inter_new_background_rab_not_allocated_in_target_rnc_with_eps_subscription_data.LW
p187
aVtc_322_120_smooth_move_ef_cancel_location_wf_frr.WG14a
p188
aVtc_208_43_interception_after_small_restart.G14b
p189
aVtc_06_196_apn_redirect_subscription_3gdt.G14b
p190
aVtc_88_001_attach_after_restart.G14b
p191
aVtc_248_122_inter_l_to_w_new_detach_request_direct_transfer_received_wf_forward_relocation_complete_ack.W14b
p192
aVtc_322_161_smooth_move_ef_nas_after_paging_response_ignore.W14b
p193
aVtc_298_434_ms_init_deact_ef_default_bearer_deact_interfered_by_detach_request.W14b
p194
aVtc_39_187_detach_trigger_re_attach_new_iu.W14b
p195
aVtc_23_09_transfer_to_primary_and_change_vip_addr.LWG
p196
aVtc_60_1_hlr_reset.LWG
p197
aVtc_06_180_israu_AACE_enabled.LWG
p198
aVtc_06_201_receive_create_pdp_context_response_with_nonexisting_teid.LWG
p199
aVtc_73_04_send_g_w_payload_with_user_tcp.LWG
p200
aVtc_73_43_gtpu_sgsn_turn_off_gnu_echo_request_w.LWG
p201
aVtc_275_073_tau_inter_new_no_update_location_response_sgsn00040258.LWG
p202
aVtc_326_244_Intra_TAU_Recovery_fail_default_bearer_fail_to_setup.LWG
p203
aVtc_326_219_Intra_TAU_Recovery_then_rim_source_mme_gn_sgsn_selection_table_not_matched_dns_query_success.LWG
p204
aVtc_326_310_Service_Request_with_unknown_STMSI_large_restart_1xrtt_cs_registration.LWG
p205
aVtc_326_223_Intra_TAU_Recovery_fail_Identity_Response_timeout_then_Recover_successful.LWG
p206
aVtc_326_407_Inter_TAU_Recovery_With_Active_Flag__No_Modify_Bearer_Response_After_TAU.LWG
p207
aVtc_273_591_TAU_intra__active_flag_on_no_modify_bearer_response_sgw_unchange_two_pdn.LWG
p208
aVtc_273_595_TAU_intra__MME_Restart_active_flag_on_no_modify_bearer_response_sgw_change_two_pdn.LWG
p209
aVtc_273_672_tau_intra_SGW_unavailable_active_flag_off_after_MME_large_restart__with_static_SGW.LWG
p210
aVtc_273_670_tau_intra_SGW_unavailable_active_flag_off_after_MME_large_restart_main_flow.LWG
p211
aVtc_273_650_tau_intra_periodic_SGW_unavailable_after_MME_large_restart_main_flow.LWG
p212
aVtc_193_011_auth_failure_mac.LWG
p213
aVtc_193_022_auth_failure_sync_abort.LWG
p214
aVtc_199_114_seq_no_overflow_delete_bearer_command.LWG
p215
aVtc_329_203_inter_tau_new_rs_restricted_emergency.LWG
p216
aVtc_329_361_s1_intra_ho_rs_restricted_plmn_change.LWG
p217
aVtc_329_803_geored_intra_tau_rs_restricted_after_update_location.LWG
p218
aVtc_327_026_recovery_intra_TAU__initial_Detach_Request_while_waiting_for_TAU_Complete.LWG
p219
aVtc_327_024_recovery_intra_TAU__initial_Detach_Request_while_waiting_for_Modify_Bearer_Response.LWG
p220
aVtc_327_031_recovery_intra_TAU__uplink_same_ie_intra_TAU_Request_while_waiting_for_Create_Session_Response.LWG
p221
aVtc_327_165_recovery_intra_TAU_Context_Request_while_waiting_for_Initial_Context_Setup_Response.LWG
p222
aVtc_211_025_streamed_cell_trace_mapping_alarm_cease_ipv6.LWG
p223
aVtc_318_116_sgw_restart_mf_one_pdn_with_relocate_by_ReleaseAccessBearersResponse.LWG
p224
aVtc_59_9_mtmsi_restart_counter.LWG
p225
aVtc_179_318_Ccheck_TraceCollectionIpv6server.LWG
p226
aVtc_179_143_Ccheck_static_route.LWG
p227
aVtc_179_307_Ccheck_static_ipv6route.LWG
p228
aVtc_179_314_Ccheck_bfd_ipv6neighbor.LWG
p229
aVtc_179_316_Ccheck_bfd_ipv6neighbor.LWG
p230
aVtc_179_409_Ccheck_ipsec_ipv6sa.LWG
p231
aVtc_179_390_Ccheck_ipsec_ipv6sa.LWG
p232
aVtc_159_200_check_ctum_log.LWG
p233
aVtc_27_013_mt_sms_update_location_after_large_restart.LWG
p234
aVtc_63_5_timeout_when_cid_removed.LWG
p235
aVtc_210_061_combined_attach_detach_imsi.LWG
p236
aVtc_257_37_pws_etws_write_replace_warning_request_feature_off_when_olp_rshl_false.LWG
p237
aVtc_103_602_georedundant_realm_routing.LWG
p238
aVtc_76_008_ms_init_deactivation_tdi_ggsn_deactivate_other_nsapi.LWG
p239
aVtc_324_006_mf_ser_req_signaling_after_ack_3gdt.LWG
p240
aVtc_324_386_ef_mt_sms_wf_frcn_wf_frca_wf_ula.LWG
p241
aVtc_56_5_restart_during_SR.LWG
p242
aVtc_67_007_anomalous_xid_commands.LWG
p243
aVtc_666_02_reboot_ss7_board.LWG
p244
aVtc_181_02_multiple_ip_deconf_iuandgngtp_traffic_w.LWG
p245
aVtc_181_04_multiple_ip_deconf_iugtp_w.LWG
p246
aVtc_183_005_itc_folder_file_names.LWG
p247
aVtc_276_045_Inter_TAU_New_MME__S1_Reset_while_waiting_for_Identity_Response__enhanced_imei_check.LW
p248
aVtc_342_146_update_one_of_two_targets_x2_x3_address_ccoutput.LW
p249
aVtc_50_088_activate_interactive_84Mbit_downgraded_by_rnc.LW
p250
aVtc_298_317_EF_SIBD_S4_Create_Bearer_Request.LW
p251
aVtc_32_75_test_transfer_2.LW
p252
aVtc_241_801_israu_interfering_context_request_no_cancel_location_s4.LW
p253
aVtc_196_172_nrspca_during_t3385_when_receive_sgsn_context_ack_not_accepted.LW
p254
aVtc_23_09_transfer_to_primary_and_change_vip_addr.LW
p255
aVtc_51_008_intra_srns_reloc_t_reloc_alloc_timeout.LW
p256
aVtc_51_011_intra_srns_reloc_all_rabs_not_allocated_in_target_rnc.LW
p257
aVtc_51_007_intra_srns_reloc_main_flow_only_one_rab.LW
p258
aVtc_51_032_reloc_wf_rau_req_interrupted_by_identification_req.LW
p259
aVtc_51_027_reloc_wf_reloc_req_ack_interrupted_by_cancel_loc_update_procedure.LW
p260
aVtc_51_029_reloc_wf_rau_req_interrupted_by_cancel_loc_update_procedure.LW
p261
aVtc_51_035_reloc_wf_reloc_comp_interrupted_by_normal_detach_on_target_iu.LW
p262
aVtc_51_050_reloc_interrupted_by_reloc_required.LW
p263
aVtc_51_053_reloc_wf_reloc_request_ack_interrupted_by_attach_on_new_iu.LW
p264
aVtc_51_056_reloc_wf_rau_complete_interrupted_by_attach_on_new_iu.LW
p265
aVtc_51_078_intra_srns_reloc_wf_reloc_req_ack_interrupted_by_update_req.LW
p266
aVtc_326_622_S6a_Throttling_Service_Request_recovery_UL_successful_and_Emergency_Attach_not_throttled.LW
p267
aVtc_44_850_mme_assoc_reestablish__board_restart_s1_mme.LW
p268
aVtc_194_130_cli_delete_subscriber_msisdn_reattach_not_required.LW
p269
aVtc_202_431_mf_seamless_move_target_service_request_modifyBearerReq_onePdnMultiBearer_oneBearerFail.LW
p270
aVtc_322_161_smooth_move_ef_nas_after_paging_response_ignore.WG14a
p271
aVtc_327_600_Inter_TAU_Recovery__Attach_Request_IMSI_while_waiting_for_ue_backup_retrieval_Response.L14b
p272
aVtc_103_831_DPR_cause_BUSY.L14b
p273
aVtc_225_312_mt_call_active_mode_nas_non_delivery__s1_intra_system_handover_triggered_resend_2_times.L14b
p274
aVtc_326_407_Inter_TAU_Recovery_With_Active_Flag__No_Modify_Bearer_Response_After_TAU.L14b
p275
aVtc_273_633_tau_intra_SGW_unavailable_active_flag_off__with_unavailable_SGW_as_static_SGW.L14b
p276
aVtc_295_136_mo_call_during_s1_ho_tau_request_when_wf_handover_notify.L14b
p277
aVtc_44_841_mme_assoc_reestablish__device_restart_sbc.L14b
p278
aVtc_44_871_mme_assoc_reestablish__board_block_sbc.L14b
p279
aVtc_276_045_Inter_TAU_New_MME__S1_Reset_while_waiting_for_Identity_Response__enhanced_imei_check.L14b
p280
aVtc_257_37_pws_etws_write_replace_warning_request_feature_off_when_olp_rshl_false.L14b
p281
aVtc_214_1103_la_selection_mf_reselection_combined_intra_tau_with_imsi_attach_after_csfb.LWG
p282
aVtc_214_1141_la_selection_mf_oldmscpreferred_prau_during_ue_restoration.LWG
p283
aVtc_214_1140_la_selection_mf_oldlapreferred_prau_during_ue_restoration.LWG
p284
aVtc_52_18_inter_old_main_canc_loc_before_iu_compl.LWG
p285
aVtc_52_47_inter_old_srns_reloc_main_flow_interfered_by_ms_modify.LWG
p286
aVtc_52_56_reloc_wf_forw_rel_resp_interrupted_by_transfered_attach.LWG
p287
aVtc_329_203_inter_tau_new_rs_restricted_emergency.LWG
p288
aVtc_329_361_s1_intra_ho_rs_restricted_plmn_change.LWG
p289
aVtc_207_023_ebm_server_connection_failure.LWG
p290
aVtc_666_02_reboot_ss7_board.LWG
p291
aVtc_666_06_block_rt_board.LWG
p292
aVtc_194_085_hss_reset_after_subdata_read_from_cache.LWG
p293
aVtc_318_260_sgw_restart_mf_relocation_triggered_by_DDN_initiated_service_request.LWG
p294
aVtc_63_11_timeout_in_static_startphase.LWG
p295
aVtc_192_002_oms_target_list.LWG
p296
aVtc_06_170_activate_accept_pdptype0.LWG
p297
aVtc_06_174_apnresolving_vplmn_not_allowed_subscribed_apn_hplmn_apn_criteria_si.LWG
p298
aVtc_297_407_move_at_periodic_rau.LWG
p299
aVtc_232_401_bfd__ipv4_alarm.LWG
p300
aVtc_180_01_test_multiple_ip_g.LWG
p301
aVtc_180_02_test_multiple_ip_w.LWG
p302
aVtc_342_864_online_change_LI_U.LWG
p303
aVtc_273_595_TAU_intra__MME_Restart_active_flag_on_no_modify_bearer_response_sgw_change_two_pdn.LWG
p304
aVtc_273_672_tau_intra_SGW_unavailable_active_flag_off_after_MME_large_restart__with_static_SGW.LWG
p305
aVtc_273_684_tau_intra_SGW_unavailable_active_flag_off_after_MME_large_restart__create_session_partition_fail.LWG
p306
aVtc_273_658_tau_intra_periodic_SGW_unavailable_after_MME_large_restart__create_session_fail_reselect_SGW.LWG
p307
aVtc_327_024_recovery_intra_TAU__initial_Detach_Request_while_waiting_for_Modify_Bearer_Response.LWG
p308
aVtc_327_150_recovery_intra_TAU_S1_Reset_while_waiting_for_TAU_Complete.LWG
p309
aVtc_327_023_recovery_intra_TAU__initial_Detach_Request_while_waiting_for_Create_Session_Response.LWG
p310
aVtc_327_114_recovery_intra_TAU__Insert_Subscriber_Data_while_waiting_for_Ue_Backup_Response.LWG
p311
aVtc_327_554_Recovery_for_DDN__Recovery_TAU_Request_while_waiting_for_Ue_Backup_Response.LWG
p312
aVtc_324_386_ef_mt_sms_wf_frcn_wf_frca_wf_ula.LWG
p313
aVtc_220_593_csfb_to_1xrtt_context_request_during_extended_service_request.LWG
p314
aVtc_179_015_Ccheck_static_route.LWG
p315
aVtc_179_019_Ccheck_ip_network_subnet.LWG
p316
aVtc_179_031_Ccheck_ipsec_sa.LWG
p317
aVtc_179_055_Ccheck_outbound_pf_rule.LWG
p318
aVtc_179_070_Ccheck_route_export_destination.LWG
p319
aVtc_179_092_Ccheck_ntp_server.LWG
p320
aVtc_179_125_Ccheck_route_export_source.LWG
p321
aVtc_179_188_Ccheck_ospf_interface.LWG
p322
aVtc_179_320_Ccheck_ipsec_sa.LWG
p323
aVtc_39_601_mas_unsucc_fwd_reloc_resp_mandatory_ie_missing_stop_source.LWG
p324
aVtc_316_298_GUTI_Attach_Known_Large_Restart_Broadcast_Force_Delete_Among_Pool.LWG
p325
aVtc_23_13_israu_out.LWG
p326
aVtc_23_09_transfer_to_primary_and_change_vip_addr.LWG
p327
aVtc_298_317_EF_SIBD_S4_Create_Bearer_Request.LWG
p328
aVtc_208_43_interception_after_small_restart.LWG
p329
aVtc_241_462_israu_new_with_10_dedicated_bearers_sgw_not_change_mf_s4.LWG
p330
aVtc_183_005_itc_folder_file_names.LWG
p331
aVtc_73_41_gtpu_sgsn_dont_send_gpu_echo_request_w.LWG
p332
aVtc_219_131_s3_handover_w_to_l_with_cl_two_pdns_one_failed_sgw_relocation.LWG
p333
aVtc_301_010_activate_ipv6_visitor_requested_ipv4v6_subscribed_ipv6_aifav_true_aifv_true.LWG
p334
aVtc_159_200_check_ctum_log.LWG
p335
aVtc_53_34_inter_new_srns_reloc_interfering_signal_cancel_location_ignore.LWG
p336
aVtc_53_401_inter_new_srns_reloc_new_direct_transfer_rau_reqeust_with_wrong_type.LWG
p337
aVtc_59_9_mtmsi_restart_counter.LWG
p338
aVtc_51_068_reloc_interfered_by_rau.LWG
p339
aVtc_51_103_reloc_wf_reloc_request_ack_interrupted_by_sgsn_context_request.LWG
p340
aVtc_51_075_intra_srns_reloc_wf_reloc_req_ack_interrupted_by_activate_req.LWG
p341
aVtc_31_005_service_request_data_not_confirmed_vplmn_not_allowed.W14b
p342
aVtc_248_116_inter_l_to_w_new_initial_attach_request_received_wf_fwd_reloc_comp_ack.W14b
p343
aVtc_245_340_israu_new_l_to_w_with_GBR_dedicated_bearer_ipv6_3gdt.W14b
p344
aVtc_322_161_smooth_move_ef_nas_after_paging_response_ignore.W14b
p345
aVtc_52_04_inter_old_srns_reloc_one_unstable_context.W14b
p346
aVtc_348_015_activation_af__camel_release.W14b
p347
aVtc_348_167_israu_af__new_sgsn_camel_release.W14b
p348
aVtc_324_328_ef_service_req_data_direct_transfer_ingore_wf_update_location.W14b
p349
aVtc_32_75_test_transfer_2.LW
p350
aVtc_50_074_israu_new_sgsn_one_interactive_pdp_context_48mbit.LW
p351
aVtc_50_061_activate_interactive_32Mbit_downgraded_by_rnc.LW
p352
aVtc_50_080_activate_interactive_16oct_84mbit_get_16oct_84mbit.LW
p353
aVtc_52_32_reloc_wf_cancel_location_interrupted_by_detach.LW
p354
aVtc_316_201_IMSI_Attach__Backup_UE.LW
p355
aVtc_275_073_tau_inter_new_no_update_location_response_sgsn00040258.LW
p356
aVtc_31_057_standalone_isd_when_active.LW
p357
aVtc_324_006_mf_ser_req_signaling_after_ack_3gdt.LW
p358
aVtc_324_113_af_no_frca_service_request_data_rab_partially_setup_3gdt.LW
p359
aVtc_324_386_ef_mt_sms_wf_frcn_wf_frca_wf_ula.LW
p360
aVtc_103_1101_resending_AIR_interfering_CLR.LW
p361
aVtc_322_302_smooth_move_3GDT_with_one_PDN_TZCR_set.LW
p362
aVtc_44_871_mme_assoc_reestablish__board_block_sbc.LW
p363
aVtc_214_1073_la_selection_mf_oldmscpreferred_combined_intra_tau_la_with_old_msc_not_ue_capable.LW
p364
aVtc_51_008_intra_srns_reloc_t_reloc_alloc_timeout.LW
p365
aVtc_51_020_intra_srns_reloc_all_ctx_not_stable.LW
p366
aVtc_51_017_intra_srns_reloc_update_location_failed_network_failure.LW
p367
aVtc_51_028_reloc_wf_reloc_compl_interrupted_by_cancel_loc_update_procedure.LW
p368
aVtc_51_083_intra_srns_reloc_wf_rau_req_interrupted_by_update_req.LW
p369
aVtc_51_046_reloc_wf_rau_comp_interrupted_by_service_request_old_rai.LW
p370
aVtc_51_108_intra_srns_reloc_with_ran_cause_44.LW
p371
aVtc_51_061_reloc_wf_reloc_request_ack_interrupted_by_source_iu_release.LW
p372
aVtc_195_208_mme_logging_maximum_modify_eps_bearer_context.LW
p373
aVtc_239_620_inter_rau_new_with_bearer_sgw_not_change_isd_odb_bit0_wf_rau_compl_deactivation.G14b
p374
aVtc_06_167_activation_during_israu.G14b
p375
aVtc_04_201_attach_invalid_imeisv_not_allowed.G14b
p376
aVtc_30_036_attach_ul_fails_no_relevant_data_when_data_not_confirmed.G14b
p377
aVtc_284_351_pdn_connectivity_pb_activate_1_dedicated_bearer_interrupted_by_path_switch_request.L14b
p378
aVtc_327_316_recovery_service_request__initial_Attach_Request_while_waiting_for_Sub_Procedure__Create_Session_Response_Old_Sgw_Unavailable.L14b
p379
aVtc_202_42_type_c_emergency_pdn_ecm_idle.L14b
p380
aVtc_220_413_csfb_to_1xrtt_in_ecm_connected_handover_required_meanwhile_CBR_received.L14b
p381
aVtc_47_004_mobile_reachble_timer_ap_loss.L14b
p382
aVtc_266_011_DownlinkDataNotification_interfering_ISD_sgsn00026976.L14b
p383
aVtc_44_071_attach_long_imsi.L14b
p384
aVtc_44_841_mme_assoc_reestablish__device_restart_sbc.L14b
p385
aVtc_44_895_mme_assoc_reestablish__s1_setup_when_iterator_started_finished.L14b
p386
aVtc_103_831_DPR_cause_BUSY.L14b
p387
aVtc_346_454_AF__Intra_TAU_CCA_Update_with_out_of_range_RFSP.L14b
p388
aVtc_326_622_S6a_Throttling_Service_Request_recovery_UL_successful_and_Emergency_Attach_not_throttled.L14b
p389
aVtc_304_117_initial_ue_intra_tau_control_mode_threshold_exceeded_usc_detach_intruder_wf_release_request_response.L14b
p390
aVtc_214_1059_la_selection_mf_oldlapreferred_combined_tau_dyn_tailist_without_old_la.L14b
p391
aVtc_329_361_s1_intra_ho_rs_restricted_plmn_change.L14b
p392
aVtc_194_187_hss_reset_after_large_restart_with_full_imsi.L14b
p393
aVtc_322_161_smooth_move_ef_nas_after_paging_response_ignore.WG14a
p394
aVtc_103_011_disconnect_peer.L14b
p395
aVtc_220_413_csfb_to_1xrtt_in_ecm_connected_handover_required_meanwhile_CBR_received.L14b
p396
aVtc_220_593_csfb_to_1xrtt_context_request_during_extended_service_request.L14b
p397
aVtc_220_605_csfb_to_1xrtt_in_ecm_connected_extended_service_request_during_downlink_data_notification.L14b
p398
aVtc_316_205_TAU_From_3G_Gn_SGSN__Backup_UE.L14b
p399
aVtc_225_616_exp_flow_handover_required_intra_while_wf_modification_context_response.L14b
p400
aVtc_304_114_initial_ue_intra_tau_control_mode_threshold_exceeded_usc_ignore_replace_s1.L14b
p401
aVtc_44_071_attach_long_imsi.L14b
p402
aVtc_44_880_mme_assoc_reestablish_unsuccessful__abort_s1_mme.L14b
p403
aVtc_44_897_mme_assoc_reestablish__emergency_attach.L14b
p404
aVtc_257_30_pws_sctp_device_failure.L14b
p405
aVtc_202_02_ecm_idle_s1_release.L14b
p406
aVtc_194_100_check_gauge_unstable_not_parked.L14b
p407
aVtc_244_806_mt_lr_donwlink_generic_nas_transport_meanwhile_handover_required_HO_success.L14b
p408
aVtc_266_011_DownlinkDataNotification_interfering_ISD_sgsn00026976.L14b
p409
aVtc_43_040_eNB_configuration_update_mf.L14b
p410
aVts_53_150_inter_new_srns_reloc_intra_srns_reloc.LW
p411
aVtc_53_151_inter_new_srns_reloc_camel.LW
p412
aVtc_53_145_ms_not_reachable_during_relocation.LW
p413
aVtc_241_801_israu_interfering_context_request_no_cancel_location_s4.LW
p414
aVtc_52_12_inter_old_relocation_cancel_no_response.LW
p415
aVtc_202_41_type_a_emergency_pdn_ecm_idle.LW
p416
aVtc_76_023_deactivate_ms_ggsn_simultanously.LW
p417
aVtc_76_027_deactivate_ggsn_initiated_ms_detach_request.LW
p418
aVtc_257_19_pws_etws_resend_write_replace_warning_request_with_ta_list.LW
p419
aVtc_101_015_single_mbms_session_large_restart.LW
p420
aVtc_101_027_mbms_session_no_resources.LW
p421
aVtc_44_071_attach_long_imsi.LW
p422
aVtc_326_407_Inter_TAU_Recovery_With_Active_Flag__No_Modify_Bearer_Response_After_TAU.LW
p423
aVtc_326_622_S6a_Throttling_Service_Request_recovery_UL_successful_and_Emergency_Attach_not_throttled.LW
p424
aVtc_79_006_activate_rab_release_request_no_rnc_response_detach.LW
p425
aVtc_79_031_rab_reestablish_on_downlink_data_packets_rab_fail_cause_46.LW
p426
aVtc_276_045_Inter_TAU_New_MME__S1_Reset_while_waiting_for_Identity_Response__enhanced_imei_check.LW
p427
aVtc_316_247_CSFB_to_WG_UE_ECM_Idle__Backup_UE.LW
p428
aVtc_78_017_ptmsi_attach_with_nas_ue_id_accept_foreign_ms.LW
p429
aVtc_78_088_intra_rau_inter_plmn_with_nas_ue_id_accept_foreign_ms.LW
p430
aVtc_260_243_receive_sm_stop_req_while_wf_m3_stop_resp.LW
p431
aVtc_329_361_s1_intra_ho_rs_restricted_plmn_change.LW
p432
aVtc_06_186_apnresolving_vplmn_allowed_subscribed_apn_hplmn_apn_criteria_cc.G14b
p433
aVtc_06_201_receive_create_pdp_context_response_with_nonexisting_teid.G14b
p434
aVtc_96_012_intra_sgsn_intra_ra_psho_llc_pdu_arrives_before_psho_complete.G14b
p435
aVtc_53_151_inter_new_srns_reloc_camel.LWG
p436
aVtc_159_200_check_ctum_log.LWG
p437
aVtc_64_8_end_before_start_transaction.LWG
p438
aVtc_316_407_Periodic_Backup_feature_off_No_backup.LWG
p439
aVtc_297_407_move_at_periodic_rau.LWG
p440
aVtc_06_230_act_pdp_req_in_attaching_state.LWG
p441
aVtc_290_032_Timer_Based_GBR_Deact__detach_request_uplink_nas_wf_ue_context_release_complete_before_timer_expires.LWG
p442
aVtc_59_9_mtmsi_restart_counter.LWG
p443
aVtc_75_022_ebs_counters_mobile_suspended.LWG
p444
aVtc_236_039_s4_3gdt_detach_during_waiting_for_modify_bearer_rsp_in_active_procedure.LWG
p445
aVtc_79_011_activate_reject_rab_fail_qos_cause_25_no_fallback.LWG
p446
aVtc_78_001_imsi_attach_accept_home_ms.LWG
p447
aVtc_78_103_imsi_attach_with_redirection_flag.LWG
p448
aVtc_78_114_roaming_user_intra_rau_with_selected_plmn_sgsn_reject.LWG
p449
aVtc_179_123_Ccheck_route_export_destination.LWG
p450
aVtc_179_158_Ccheck_ip_interface.LWG
p451
aVtc_179_244_Ccheck_static_route.LWG
p452
aVtc_179_192_Ccheck_ip_service_ipv6address.LWG
p453
aVtc_179_315_Ccheck_bfd_ipv6neighbor.LWG
p454
aVtc_179_409_Ccheck_ipsec_ipv6sa.LWG
p455
aVtc_28_007_mo_sms_sms_command.LWG
p456
aVtc_293_009_X2_Based_HO__TAU_Request_in_uplink_NAS_from_source_while_wf_Modify_Bearer_Response.LWG
p457
aVtc_103_832_DPR_cause_REBOOTING.LWG
p458
aVtc_183_005_itc_folder_file_names.LWG
p459
aVtc_214_1141_la_selection_mf_oldmscpreferred_prau_during_ue_restoration.LWG
p460
aVtc_52_58_inter_old_wf_reloc_cancel_response_interrupted_by_iu_release.LWG
p461
aVtc_44_004_small_restart__sctp_fe_restart.LWG
p462
aVtc_257_01_pws_etws_main_flow_write_replace_warning_request_with_ta_list.LWG
p463
aVtc_348_042_sapc_restarted__irat_ms.LWG
p464
aVtc_67_006_ms_initiated_xid_negotiation_of_ack_mode_parameters.LWG
p465
aVtc_23_09_transfer_to_primary_and_change_vip_addr.LWG
p466
aVtc_327_036_recovery_intra_TAU__initial_intra_TAU_Request_while_waiting_for_Modify_Bearer_Response.LWG
p467
aVtc_208_43_interception_after_small_restart.LWG
p468
aVtc_76_002_deactivate_ggsn_initiated_teardown_II.LWG
p469
aVtc_76_022_deactivate_ggsn_initiated_rab_released_ms_detach_request.LWG
p470
aVtc_76_033_iu_release_during_ggsn_initiated_deactivation_normal_release.LWG
p471
aVtc_69_009_bssgp_pm_counters_radio_status.LWG
p472
aVtc_05_006_normal_gprs_imsi_attach_detach_imsi_attach_detach.LWG
p473
aVtc_273_658_tau_intra_periodic_SGW_unavailable_after_MME_large_restart__create_session_fail_reselect_SGW.LWG
p474
aVtc_273_664_tau_intra_periodic_SGW_unavailable_after_MME_large_restart__create_session_partition_fail.LWG
p475
aVtc_273_651_tau_intra_periodic_SGW_unavailable_after_MME_large_restart__with_emergency_PDN.LWG
p476
aVtc_273_663_tau_intra_periodic_SGW_unavailable_after_MME_large_restart__two_pdn_one_bearer_status_0.LWG
p477
aVtc_82_020_rab_modify_followed_by_israu.LWG
p478
aVtc_210_053_tau_inter_new.LWG
p479
aVtc_666_02_reboot_ss7_board.LWG
p480
aVtc_666_06_block_rt_board.LWG
p481
aVtc_193_063_attach_imsi_attach.LWG
p482
aVtc_193_002_resending_auth_req_abort.LWG
p483
aVtc_202_10_downlink_data_during_paging.LWG
p484
aVtc_194_100_check_gauge_unstable_not_parked.LWG
p485
aVtc_194_071_cli_delete_subscriber_imsi.LWG
p486
aVtc_262_1055_imsi_attach_with_csg_id_is_rejected.LWG
p487
aVtc_326_209_Intra_TAU_Recovery_node_restart_combined_type.LWG
p488
aVtc_326_407_Inter_TAU_Recovery_With_Active_Flag__No_Modify_Bearer_Response_After_TAU.LWG
p489
aVtc_326_270_Periodic_Intra_TAU_with_unknown_GUTI_then_Service_Request.LWG
p490
aVtc_332_080_mf__ps_paging_during_cs_paging_cs_is_not_mps_and_ps_is_mps.LWG
p491
aVtc_39_601_mas_unsucc_fwd_reloc_resp_mandatory_ie_missing_stop_source.LWG
p492
aVtc_250_67_s6d_activation_with_EPS_data_s4_license_off.LWG
p493
aVtc_256_382_Sv_Path_Mgt__available_MSC_disable_Sv.LWG
p494
aVtc_304_004_attach_success__only_measurement_mode_threshold_reached.LWG
p495
aVtc_220_586_csfb_to_1xrtt_in_extended_service_request_during_attach_wf_initial_context_setup_response.LWG
p496
aVtc_56_1_creation.LWG
p497
aVtc_281_014_Activate_bearer__ERAB_setup_request_meanwhile_path_switch_request_HO_all_bearers_fail.LWG
p498
aVtc_259_102_ef_tads_s4_interfere_inter_rau_old_g.LWG
p499
aVtc_259_133_ef_provide_subscriber_information_psho_inter_old_g_to_w.LWG
p500
aVtc_181_05_multiple_ip_max_no_of_ip.LWG
p501
aVtc_181_06_multiple_ip_remove_not_existing_ip.LWG
p502
aVtc_241_1636_israu_new_modify_bearer_response_timeout_followed_by_ms_init_deac.LWG
p503
aVtc_73_13_paging_and_store_of_dl_packets_gtp97.LWG
p504
aVtc_73_37_buffer_packets_with_3gdt.LWG
p505
aVtc_334_311_pgw_restart_after_s4_move_3gdt.W14b
p506
aVtc_298_434_ms_init_deact_ef_default_bearer_deact_interfered_by_detach_request.W14b
p507
aVtc_12_512_pmm_undefined_attach_when_updating_location_interfered_by_rnc_reset.W14b
p508
aVtc_51_025_reloc_wf_reloc_req_ack_interrupted_by_cancel_loc_subscrip_withdrawn.W14b
p509
aVtc_241_428_israu_new_g_to_w_sgw_change_buffer_ubr_interferred_by_reset.W14b
p510
aVtc_26_143_visitor_ms_move_new_SGSN_not_allowed_old_neg_ARP.W14b
p511
aVtc_348_165_israu_af__new_sgsn_imei_check_black_listed.W14b
p512
aVtc_06_183_ms_init_modification_bckground_to_interactive.G14b
p513
aVtc_51_018_intra_srns_reloc_resending_rau_accept.LW
p514
aVtc_51_044_reloc_wf_rau_compl_interrupted_by_target_rnc_reset.LW
p515
aVtc_335_83_From_Wifi_ECM_Connected_AF__Partial_Cells_from_WIC_can_not_recognize_by_MME.LW
p516
aVtc_335_56_mobility_to_wifi_ecm_idle_af_partial_cell_from_eNB_diff_with_that_from_WIC.LW
p517
aVtc_202_102_small_restart.LW
p518
aVtc_103_800_device_watchdog_request_to_SGSN_MME.LW
p519
aVtc_103_1101_resending_AIR_interfering_CLR.LW
p520
aVtc_44_004_small_restart__sctp_fe_restart.LW
p521
aVtc_53_61_inter_new_srns_reloc_interfere_attach_request_new_iu_1.LW
p522
aVtc_195_208_mme_logging_maximum_modify_eps_bearer_context.LW
p523
aVtc_256_176_mme_eps_srvcc_ho_source_cs_only_ue_release_request_wf_srvcc_ps_to_cs_complete_notification.LW
p524
aVtc_244_806_mt_lr_donwlink_generic_nas_transport_meanwhile_handover_required_HO_success.LW
p525
aVtc_50_054_israu_new_sgsn_one_background_pdp_context_32mbit.LW
p526
aVtc_50_083_israu_new_sgsn_one_background_pdp_context_84mbit.LW
p527
aVtc_196_172_nrspca_during_t3385_when_receive_sgsn_context_ack_not_accepted.LW
p528
aVtc_23_09_transfer_to_primary_and_change_vip_addr.LW
p529
aVtc_316_221_TAU_Timezone_Change__Backup_UE.LW
p530
aVtc_326_407_Inter_TAU_Recovery_With_Active_Flag__No_Modify_Bearer_Response_After_TAU.LW
p531
aVtc_250_67_s6d_activation_with_EPS_data_s4_license_off.LW
p532
aVtc_324_386_ef_mt_sms_wf_frcn_wf_frca_wf_ula.LW
p533
aVtc_322_161_smooth_move_ef_nas_after_paging_response_ignore.W14b
p534
aVtc_318_217_idle_deactivate_non_last_pdn_reactivate_req_paging_abort.LWG
p535
aVtc_318_011_pgw_restart_notification_af_paging_failed.LWG
p536
aVtc_666_06_block_rt_board.LWG
p537
aVtc_009_001_attach_after_restart.LWG
p538
aVtc_52_47_inter_old_srns_reloc_main_flow_interfered_by_ms_modify.LWG
p539
aVtc_52_46_inter_old_srns_reloc_main_flow_interfered_by_activate_secondary.LWG
p540
aVtc_237_023_mme_eps_irat_ho_source__context_request_before_cancel_location.LWG
p541
aVtc_237_315_mme_eps_irat_Gn_ho_source_visitor_with_local_rfsp.LWG
p542
aVtc_44_004_small_restart__sctp_fe_restart.LWG
p543
aVtc_103_831_DPR_cause_BUSY.LWG
p544
aVtc_58_4_stat_to_dyn_2.LWG
p545
aVtc_326_201_Intra_TAU_with_unknown_GUTI_with_active_flag.LWG
p546
aVtc_326_210_Intra_TAU_combined_after_large_restart_after_EPS_attach.LWG
p547
aVtc_326_204_Intra_TAU_combined_type_with_LA_served_by_old_msc_after_large_restart_after_combined_attach.LWG
p548
aVtc_326_241_Intra_TAU_Recovery_Initial_Context_Setup_fail.LWG
p549
aVtc_326_244_Intra_TAU_Recovery_fail_default_bearer_fail_to_setup.LWG
p550
aVtc_326_267_Intra_TAU_with_unknown_GUTI_Restriction_2_pdn_SAU_license_limit_reached.LWG
p551
aVtc_326_275_Periodic_Intra_TAU_with_unknown_GUTI_with_normal_and_emergency_PDN.LWG
p552
aVtc_342_864_online_change_LI_U.LWG
p553
aVtc_193_065_attach_integrity_fails.LWG
p554
aVtc_159_200_check_ctum_log.LWG
p555
aVtc_273_650_tau_intra_periodic_SGW_unavailable_after_MME_large_restart_main_flow.LWG
p556
aVtc_273_658_tau_intra_periodic_SGW_unavailable_after_MME_large_restart__create_session_fail_reselect_SGW.LWG
p557
aVtc_273_660_tau_intra_periodic_SGW_unavailable_after_MME_large_restart__two_pdn.LWG
p558
aVtc_250_67_s6d_activation_with_EPS_data_s4_license_off.LWG
p559
aVtc_194_621_DSD_EF__Receive_DSDR_when_Waiting_for_TAU_Complete_during_Inter_TAU_Procedure_New_MME.LWG
p560
aVtc_208_43_interception_after_small_restart.LWG
p561
aVtc_208_44_attach_detach_imsi_ap_takeover.LWG
p562
aVtc_282_014_deactivate_bearers_timeout_nas_partially_ok.LWG
p563
aVtc_12_134_attach_with_extended_mmumoc_iu_inactivity_timer.LWG
p564
aVtc_179_055_Ccheck_outbound_pf_rule.LWG
p565
aVtc_179_052_Ccheck_inbound_pf_rule.LWG
p566
aVtc_179_051_Ccheck_outbound_pf_rule.LWG
p567
aVtc_179_077_Ccheck_route_import_source.LWG
p568
aVtc_179_089_Ccheck_dns.LWG
p569
aVtc_179_092_Ccheck_ntp_server.LWG
p570
aVtc_179_148_Ccheck_outbound_pf_policy.LWG
p571
aVtc_179_142_Ccheck_static_route.LWG
p572
aVtc_179_129_Ccheck_atm_vc.LWG
p573
aVtc_179_309_Ccheck_static_ipv6route.LWG
p574
aVtc_179_404_Ccheck_ipsec_ipv6sa.LWG
p575
aVtc_23_09_transfer_to_primary_and_change_vip_addr.LWG
p576
aVtc_327_018_recovery_intra_TAU__uplink_Detach_Request_while_waiting_for_Security_Mode_Complete.LWG
p577
aVtc_327_163_recovery_intra_TAU_Context_Request_while_waiting_for_TAU_Complete.LWG
p578
aVtc_316_203_IMSI_Attach_Emergency_Authentication_Fail__Backup_UE.L14b
p579
aVtc_103_704_delete_peer_send_DPR.L14b
p580
aVtc_327_602_Inter_TAU_Recovery__Attach_Request_while_waiting_for_Ue_Authentication_Response.L14b
p581
aVtc_326_622_S6a_Throttling_Service_Request_recovery_UL_successful_and_Emergency_Attach_not_throttled.L14b
p582
aVtc_276_045_Inter_TAU_New_MME__S1_Reset_while_waiting_for_Identity_Response__enhanced_imei_check.L14b
p583
aVtc_578_02_check_parse_ebm_and_ci_eci_l.L14b
p584
aVtc_578_33_check_ebm_para_statistics_enb_sn.L14b
p585
aVtc_262_203_guti_attach_when_unauthenticated_attached.L14b
p586
aVtc_262_1022_apn_resolution_ext_feature_off.L14b
p587
aVtc_43_040_eNB_configuration_update_mf.L14b
p588
aVtc_47_001_imsi_attach_ap_loss.L14b
p589
aVtc_225_312_mt_call_active_mode_nas_non_delivery__s1_intra_system_handover_triggered_resend_2_times.L14b
p590
aVtc_225_616_exp_flow_handover_required_intra_while_wf_modification_context_response.L14b
p591
aVtc_256_027_mme_eps_srvcc_ho_source_cs_only_emergency_mf_after_service_request.L14b
p592
aVtc_322_161_smooth_move_ef_nas_after_paging_response_ignore.WG14a
p593
aVtc_304_121_initial_ue_intra_tau_control_mode_threshold_exceeded_usc_detach_wf_release_request_response.L14b
p594
aVtc_225_416_recv_service_while_waiting_extended_service_request.L14b
p595
aVtc_276_045_Inter_TAU_New_MME__S1_Reset_while_waiting_for_Identity_Response__enhanced_imei_check.L14b
p596
aVtc_195_554_mme_logging_eps_handover_target_over_gn_inter_relocation_cancel_Request_received.L14b
p597
aVtc_220_413_csfb_to_1xrtt_in_ecm_connected_handover_required_meanwhile_CBR_received.L14b
p598
aVtc_43_006_s1ap_setup_with_subscribers.L14b
p599
aVtc_43_040_eNB_configuration_update_mf.L14b
p600
aVtc_103_004_destination_realm_is_realm_of_a_peer.L14b
p601
aVtc_009_015_cancel_location_after_restart.L14b
p602
aVtc_31_013_attach_ul_fails_imsi_unknown.W14b
p603
aVtc_298_689_S4_3GDT_Service_request_wait_MBR_ef_delete_bearer_request.W14b
p604
aVtc_245_340_israu_new_l_to_w_with_GBR_dedicated_bearer_ipv6_3gdt.W14b
p605
aVtc_322_161_smooth_move_ef_nas_after_paging_response_ignore.W14b
p606
aVtc_179_189_Ccheck_rip.LWG
p607
aVtc_179_199_Ccheck_ip_network.LWG
p608
aVtc_179_330_Ccheck_ipsec_sa.LWG
p609
aVtc_181_06_multiple_ip_remove_not_existing_ip.LWG
p610
aVtc_181_04_multiple_ip_deconf_iugtp_w.LWG
p611
aVtc_273_671_tau_intra_SGW_unavailable_active_flag_off_after_MME_large_restart__with_emergency_PDN.LWG
p612
aVtc_273_663_tau_intra_periodic_SGW_unavailable_after_MME_large_restart__two_pdn_one_bearer_status_0.LWG
p613
aVtc_273_662_tau_intra_periodic_SGW_unavailable_after_MME_large_restart__two_pdn_one_fail.LWG
p614
aVtc_44_032_config_ep_2.LWG
p615
aVtc_44_004_small_restart__sctp_fe_restart.LWG
p616
aVtc_666_02_reboot_ss7_board.LWG
p617
aVtc_06_200_activate_pdp_context_reject_ril3_decoding_failed.LWG
p618
aVtc_06_542_pdp_activate_odb_bit_15_feature_on_off.LWG
p619
aVtc_78_115_intra_isc_g_to_w_with_selected_plmn.LWG
p620
aVtc_78_306_mocn_iu_released_israu_new_sgsn_one_context_cc194_then_accept.LWG
p621
aVtc_53_301_inter_new_srns_reloc_with_mbr_84m.LWG
p622
aVtc_316_298_GUTI_Attach_Known_Large_Restart_Broadcast_Force_Delete_Among_Pool.LWG
p623
aVtc_180_02_test_multiple_ip_w.LWG
p624
aVtc_103_602_georedundant_realm_routing.LWG
p625
aVtc_204_255_mme_eps_ho_target_integrity_fail_auth_imei_check_answer_blacklisted_before_tau_accept.LWG
p626
aVtc_231_173_ms_init_detach_interfered_by_cancel_location_withdraw.LWG
p627
aVtc_218_311_tau_from_sgsn_preserved_gbr_bearer_buffer_1_ubr_1_cbr.LWG
p628
aVtc_313_008_inter_new_srns_reloc_s16_without_sgw_change_one_pdn_with_preserved_dedicate_bearer.LWG
p629
aVtc_159_200_check_ctum_log.LWG
p630
aVtc_244_051_mt_lr_delete_bearer_request_received_wf_location_report.LWG
p631
aVtc_244_055_mt_lr_cancel_location_with_update_procedure_received_wf_location_report.LWG
p632
aVtc_40_011_delete_sub_data_mo_sms_csi.LWG
p633
aVtc_166_428_rnc_initiated_rab_release_interfered_by_rnc_initiated_iu_release_request.LWG
p634
aVtc_95_10_fingerprint.LWG
p635
aVtc_289_047_Modify_bearer__ERAB_modify_response_s1_intra_system_handover_triggered_activate_dedicated_bearer_one_pdn_multiple_bearer.LWG
p636
aVtc_326_204_Intra_TAU_combined_type_with_LA_served_by_old_msc_after_large_restart_after_combined_attach.LWG
p637
aVtc_326_233_Intra_TAU_Recovery_fail_Security_Mode_Reject_then_Reattach.LWG
p638
aVtc_11_230_activate_primary_after_LR.LWG
p639
aVtc_197_484_attach_sgw_selection_fallback.LWG
p640
aVtc_202_102_small_restart.LWG
p641
aVtc_327_016_recovery_intra_TAU__uplink_Detach_Request_while_waiting_for_Identity_Response.LWG
p642
aVtc_327_014_recovery_intra_TAU__initial_Attach_Request_while_waiting_for_Modify_Bearer_Response.LWG
p643
aVtc_64_7_transaction_timeout_stable_conn.LWG
p644
aVtc_64_9_too_many_end_transaction.LWG
p645
aVtc_193_431_tau_req_with_wrapped_sequence_number.LWG
p646
aVtc_193_032_service_req_auth_failure_no_auts.LWG
p647
aVtc_214_1141_la_selection_mf_oldmscpreferred_prau_during_ue_restoration.LWG
p648
aVtc_238_178_mme_eps_irat_Gn_ho_target__type_c_emc_cancel.LW
p649
aVtc_347_223_Service_Request__RAR_while_waiting_for_Modify_Bearer_Response.LW
p650
aVtc_318_266_sgw_restart_af_relocation_triggered_by_DDN_modify_bearer_request_failure.LW
p651
aVtc_50_081_activate_interactive_16oct_84mbit_get_16oct_32mbit.LW
p652
aVtc_204_901_mme_eps_ho_target_insert_subscriber_data_with_odb_bit0_during_wf_tau_complete.LW
p653
aVtc_23_09_transfer_to_primary_and_change_vip_addr.LW
p654
aVtc_256_143_mme_eps_srvcc_ho_source_cs_only_initial_ue_extended_service_request_wf_srvcc_ps_to_cs_response.LW
p655
aVtc_51_013_intra_srns_reloc_t_reloc_complete_intra_timeout.LW
p656
aVtc_51_015_intra_srns_reloc_rau_request_with_invalid_mandatory_info.LW
p657
aVtc_51_026_reloc_wf_rau_req_interrupted_by_cancel_loc_subscrip_withdrawn.LW
p658
aVtc_51_019_intra_srns_reloc_no_rau_complete.LW
p659
aVtc_51_038_reloc_wf_rau_req_interrupted_by_power_off_detach_on_new_iu.LW
p660
aVtc_51_048_reloc_wf_rau_comp_interrupted_by_service_request_new_rai_new_iu.LW
p661
aVtc_51_041_reloc_wf_reloc_comp_interrupted_by_source_rnc_reset.LW
p662
aVtc_51_051_reloc_wf_reloc_req_ack_interrupted_by_service_request_new_rai_new_iu.LW
p663
aVtc_51_060_reloc_main_flow_interfered_by_attach_on_target_iu.LW
p664
aVtc_51_064_reloc_wf_reloc_complete_interrupted_by_target_iu_release.LW
p665
aVtc_51_068_reloc_interfered_by_rau.LW
p666
aVtc_51_076_intra_srns_reloc_wf_reloc_req_ack_interrupted_by_modify_req.LW
p667
aVtc_51_090_intra_srns_reloc_wf_rau_req_interrupted_by_instert_subsc.LW
p668
aVtc_51_101_intra_ra_intra_srns_reloc_main_flow.LW
p669
aVtc_51_078_intra_srns_reloc_wf_reloc_req_ack_interrupted_by_update_req.LW
p670
aVtc_335_140_Geo_Recovery_upon_Service_Request.LW
p671
aVtc_326_407_Inter_TAU_Recovery_With_Active_Flag__No_Modify_Bearer_Response_After_TAU.LW
p672
aVtc_78_001_imsi_attach_accept_home_ms.LW
p673
aVtc_194_991_downlink_A21_AIS_during_waiting_location_report__idr_flags_ef.LW
p674
aVtc_47_002_imsi_attach_ap_gain.LW
p675
aVtc_53_408_inter_new_background_rab_not_allocated_in_target_rnc_with_eps_subscription_data.LW
p676
aVtc_197_063_s1_handover_sgw_reselection_topon_emc_ims.LW
p677
aVtc_221_035__Selection_Table_Matches_On_TimeSinceUeLocationReported.LW
p678
aVtc_208_43_interception_after_small_restart.G14b
p679
aVtc_346_493_Small_Local_Restart__Terminate_when_UE_S1_release.L14b
p680
aVtc_257_30_pws_sctp_device_failure.L14b
p681
aVtc_266_020_DownlinkDataFailureInd_repeat_paging_timer_on.L14b
p682
aVtc_214_503_mt_sms_while_wf_lu_accept.L14b
p683
aVtc_44_071_attach_long_imsi.L14b
p684
aVtc_194_991_downlink_A21_AIS_during_waiting_location_report__idr_flags_ef.L14b
p685
aVtc_244_806_mt_lr_donwlink_generic_nas_transport_meanwhile_handover_required_HO_success.L14b
p686
aVtc_304_236_isc_active_flag_on_control_mode_threshold_exceeded_ignore_replace_s1_wf_initial_context_setup_response.L14b
p687
aVtc_295_137_mt_call_during_s1_ho_tau_request_when_wf_handover_notify.L14b
p688
aVtc_47_002_imsi_attach_ap_gain.L14b
p689
aVtc_329_003_attach_rs_allowed_emergency_plmn_change_ula_fails.L14b
p690
aVtc_103_002_destination_host_is_not_available.L14b
p691
aVtc_103_206_sticky_hss_host_name.L14b
p692
aVtc_243_330_tau_from_sgsn_s3_emergency_type_a_no_restriction.L14b
p693
aVtc_43_040_eNB_configuration_update_mf.L14b
p694
aVtc_322_161_smooth_move_ef_nas_after_paging_response_ignore.WG14a
p695
aVtc_278_220_Inter_TAU_Old_MME__cli_delete_subscriber_while_wf_Context_Ack.LW
p696
aVtc_78_083_israu_new_sgsn_accept_foreign_ms_no_redirect_attempt_flag.LW
p697
aVtc_78_054_intra_rau_inter_plmn_accept_home_ms.LW
p698
aVtc_78_052_imsi_attach_forced_csps_coord_accept_foreign_ms.LW
p699
aVtc_78_085_intra_rau_intra_plmn_accept_home_ms_no_redirect_attempt_flag.LW
p700
aVtc_78_102_imsi_attach_with_selected_plmn.LW
p701
aVtc_31_007_cl_update_procedure_unknown_sgsn.LW
p702
aVtc_31_082_consecutive_hlr_resets.LW
p703
aVtc_194_176_hss_reset_during_tau_after_successful_update_location.LW
p704
aVtc_194_114_standalone_isd_all_3gpp_access_restricted.LW
p705
aVtc_276_045_Inter_TAU_New_MME__S1_Reset_while_waiting_for_Identity_Response__enhanced_imei_check.LW
p706
aVtc_257_21_pws_etws_write_replace_warning_request_with_unknown_tai.LW
p707
aVtc_275_073_tau_inter_new_no_update_location_response_sgsn00040258.LW
p708
aVtc_79_021_activate_reject_rab_fail_qos_cause_114_fallback.LW
p709
aVtc_79_024_activate_secondary_no_rnc_response.LW
p710
aVtc_53_19_inter_new_srns_reloc_all_rabs_not_allocated_in_target_rnc.LW
p711
aVtc_53_125_inter_new_srns_reloc_interfere_identification_response_same_iu.LW
p712
aVtc_53_420_inter_new_srns_reloc_smooth_move_job_ongoing.LW
p713
aVtc_53_153_inter_new_srns_reloc_mocn_enabled_mocn_relocation_allowed_enabled.LW
p714
aVtc_76_010_ms_init_deactivation_tdi_error_cause.LW
p715
aVtc_76_001_deactivate_ggsn_initiated_teardown_I.LW
p716
aVtc_241_1636_israu_new_modify_bearer_response_timeout_followed_by_ms_init_deac.LW
p717
aVtc_324_402_ef_gr_delete_subscriber_data_during_modify_bearer_after_ulr.W14b
p718
aVtc_236_049_s4_3gdt_rnc_reset_during_waiting_for_modify_beaer_rsp_in_service_request_procedure.W14b
p719
aVtc_183_005_itc_folder_file_names.LWG
p720
aVtc_63_5_timeout_when_cid_removed.LWG
p721
aVtc_103_1101_resending_AIR_interfering_CLR.LWG
p722
aVtc_12_512_pmm_undefined_attach_when_updating_location_interfered_by_rnc_reset.LWG
p723
aVtc_236_237_Inter_RAU_S4_over_S3_target_DtSelMode_8_APN_in_APN_list_TAC_not_in_TAC_list.LWG
p724
aVtc_244_806_mt_lr_donwlink_generic_nas_transport_meanwhile_handover_required_HO_success.LWG
p725
aVtc_180_02_test_multiple_ip_w.LWG
p726
aVtc_180_03_test_multiple_ip_g_2contexts.LWG
p727
aVtc_180_01_test_multiple_ip_g.LWG
p728
aVtc_180_04_test_multiple_ip_w_2contexts.LWG
p729
aVtc_23_09_transfer_to_primary_and_change_vip_addr.LWG
p730
aVtc_159_200_check_ctum_log.LWG
p731
aVtc_62_7_call_warning_timeout.LWG
p732
aVtc_56_3_release.LWG
p733
aVtc_273_658_tau_intra_periodic_SGW_unavailable_after_MME_large_restart__create_session_fail_reselect_SGW.LWG
p734
aVtc_273_671_tau_intra_SGW_unavailable_active_flag_off_after_MME_large_restart__with_emergency_PDN.LWG
p735
aVtc_327_010_recovery_intra_TAU__uplink_Attach_Request_while_waiting_for_TAU_Complete.LWG
p736
aVtc_327_153_recovery_intra_TAU_Delete_Bearer_Request_while_waiting_for_Modify_Bearer_Response.LWG
p737
aVtc_326_204_Intra_TAU_combined_type_with_LA_served_by_old_msc_after_large_restart_after_combined_attach.LWG
p738
aVtc_326_407_Inter_TAU_Recovery_With_Active_Flag__No_Modify_Bearer_Response_After_TAU.LWG
p739
aVtc_250_67_s6d_activation_with_EPS_data_s4_license_off.LWG
p740
aVtc_250_105_ignore_IDR_when_EPS_sub_downgrade_GPRS_sub.LWG
p741
aVtc_218_218_1_TAU_from_SGSN__delete_bearer_request_while_waiting_for_TAU_Complete.LWG
p742
aVtc_05_022_gprs_imsi_attach_imsi_analysis_fails.LWG
p743
aVtc_53_102_inter_new_srns_reloc_interfere_service_request_data_new_iu_1.LWG
p744
aVtc_311_244_intra_srns_reloc_s4_received_interfering_create_bearer_request.LWG
p745
aVtc_181_04_multiple_ip_deconf_iugtp_w.LWG
p746
aVtc_181_02_multiple_ip_deconf_iuandgngtp_traffic_w.LWG
p747
aVtc_666_06_block_rt_board.LWG
p748
aVtc_52_51_inter_old_srns_reloc_main_flow_interfered_by_service_request_data.LWG
p749
aVtc_06_176_apnresolving_apnopid_hplmn_present_apn_redirect_dont_log_cc33.LWG
p750
aVtc_280_118_activate_dedicated_bearer_ue_reject_nas_cause_normal.LWG
p751
a.