(lp0
Vtc_39_187_detach_trigger_re_attach_new_iu.W14b
p1
aVtc_31_029_service_request_ul_fails_gprs_subscription_unknown.W14b
p2
aVtc_53_57_inter_new_srns_reloc_rab_not_allocated_interrupt_by_reset.W14b
p3
aVtc_248_456_inter_l_to_w_new_partially_succ_detach_request_direct_transfer_received_wf_forward_relocation_complete_ack.W14b
p4
aVtc_329_003_attach_rs_allowed_emergency_plmn_change_ula_fails.L14b
p5
aVtc_262_203_guti_attach_when_unauthenticated_attached.L14b
p6
aVtc_262_1031_emergency_imsi_attach_multiple_pgw_try_next_pgw_fqdn_error.L14b
p7
aVtc_103_004_destination_realm_is_realm_of_a_peer.L14b
p8
aVtc_103_207_sticky_hss_host_name_primary_host_down.L14b
p9
aVtc_103_603_georedundant_modify_diameter_peer.L14b
p10
aVtc_103_831_DPR_cause_BUSY.L14b
p11
aVtc_103_1000_modify_diameter_peer_prio.L14b
p12
aVtc_103_860_ue_trace_retransmit.L14b
p13
aVtc_103_1101_resending_AIR_interfering_CLR.L14b
p14
aVtc_195_417_ue_trace_deactivate_trace_s1_intra_system_handover_triggered_HO_ongoing_timeout.L14b
p15
aVtc_276_045_Inter_TAU_New_MME__S1_Reset_while_waiting_for_Identity_Response__enhanced_imei_check.L14b
p16
aVtc_44_071_attach_long_imsi.L14b
p17
aVtc_43_040_eNB_configuration_update_mf.L14b
p18
aVtc_214_806_mo_sms_active_donwlink_nas_transport_meanwhile_handover_required_HO_success.L14b
p19
aVtc_306_152_ef_seamless_move_source_receive_insert_subscription_data_wf_guti_reallocation_complete.L14b
p20
aVtc_288_221_pgw_init_bearer_mod_QoS_paging_partly_fail_modification_partly_fails.L14b
p21
aVtc_266_026_DownlinkDataFailureInd_repeat_paging_timer_small_local_restart.L14b
p22
aVtc_218_311_tau_from_sgsn_preserved_gbr_bearer_buffer_1_ubr_1_cbr.LW
p23
aVtc_214_1141_la_selection_mf_oldmscpreferred_prau_during_ue_restoration.LW
p24
aVtc_53_134_inter_new_mbr_set_to_zero_background.LW
p25
aVtc_276_045_Inter_TAU_New_MME__S1_Reset_while_waiting_for_Identity_Response__enhanced_imei_check.LW
p26
aVtc_52_62_reloc_wf_forw_rel_compl_interrupted_by_sgsn_context_request.LW
p27
aVtc_202_43_type_d_emergency_pdn_ecm_idle.LW
p28
aVtc_91_023_israu_req99_sub97.LW
p29
aVtc_326_407_Inter_TAU_Recovery_With_Active_Flag__No_Modify_Bearer_Response_After_TAU.LW
p30
aVtc_324_006_mf_ser_req_signaling_after_ack_3gdt.LW
p31
aVtc_257_18_pws_etws_stop_warning_request_rejected_when_olp.LW
p32
aVtc_241_066_israu_new_gn_to_s4_pdp_to_bearer_two_pdp_one_arp_higher_than_policy_map.LW
p33
aVtc_78_008_imsi_attach_with_nas_ue_id_accept_home_ms.LW
p34
aVts_78_70_prau_from_detached_ms.LW
p35
aVtc_78_081_imsi_attach_reject_cause_14_no_redirect_attempt_flag.LW
p36
aVtc_76_009_ms_init_deactivation_tdi_transaction_failure.LW
p37
aVtc_76_007_ms_init_deactivation_tdi_ggsn_deactivate_same_nsapi.LW
p38
aVtc_219_131_s3_handover_w_to_l_with_cl_two_pdns_one_failed_sgw_relocation.LW
p39
aVtc_79_016_activate_reject_rab_fail_qos_cause_20_fallback.LW
p40
aVtc_79_013_activate_reject_rab_fail_qos_cause_34_no_fallback.LW
p41
aVtc_178_661_action_ss7_sccp_local_sap_v2.LWG
p42
aVtc_244_051_mt_lr_delete_bearer_request_received_wf_location_report.LWG
p43
aVtc_324_224_ef_detach_request_abort_wf_security_mode_complete.LWG
p44
aVtc_324_386_ef_mt_sms_wf_frcn_wf_frca_wf_ula.LWG
p45
aVtc_73_41_gtpu_sgsn_dont_send_gpu_echo_request_w.LWG
p46
aVtc_326_247_Intra_TAU_Recovery_fail_Modify_Bearer_timeout_active_flag.LWG
p47
aVtc_326_213_Intra_TAU_Recovery_multiple_retrieval_responses_with_different_revision_number.LWG
p48
aVtc_273_167_tau_intra_periodic_connected.LWG
p49
aVtc_273_658_tau_intra_periodic_SGW_unavailable_after_MME_large_restart__create_session_fail_reselect_SGW.LWG
p50
aVtc_273_671_tau_intra_SGW_unavailable_active_flag_off_after_MME_large_restart__with_emergency_PDN.LWG
p51
aVtc_273_664_tau_intra_periodic_SGW_unavailable_after_MME_large_restart__create_session_partition_fail.LWG
p52
aVtc_273_662_tau_intra_periodic_SGW_unavailable_after_MME_large_restart__two_pdn_one_fail.LWG
p53
aVtc_179_318_Ccheck_TraceCollectionIpv6server.LWG
p54
aVtc_53_24_inter_new_srns_reloc_dp_release.LWG
p55
aVtc_53_138_inter_new_ggsn_decrease_qos_rab_setup_fault.LWG
p56
aVtc_53_401_inter_new_srns_reloc_new_direct_transfer_rau_reqeust_with_wrong_type.LWG
p57
aVtc_276_022_Inter_TAU_New_MME__New_TAU_Request_while_waiting_for_Modify_Bearer_Response.LWG
p58
aVtc_289_070_GW_Init_Bearer_Modification_Flow_two_CBR_one_UBR_while_wf_modify_eps_bearer_context_accept.LWG
p59
aVtc_06_173_apnresolving_default_apn_hplmn_apn_criteria.LWG
p60
aVtc_06_190_apn_redirect_subscription_log_cc33.LWG
p61
aVtc_241_431_intra_rau_with_bearer_sgw_unchange_2_pdns_with_one_modify_no_response.LWG
p62
aVtc_666_02_reboot_ss7_board.LWG
p63
aVtc_666_06_block_rt_board.LWG
p64
aVtc_298_208_SIBD_S4_Service_Request_PDP_Context_Status_Connect.LWG
p65
aVtc_214_1141_la_selection_mf_oldmscpreferred_prau_during_ue_restoration.LWG
p66
aVtc_159_200_check_ctum_log.LWG
p67
aVtc_327_157_recovery_intra_TAU_Update_Bearer_Request_while_waiting_for_Modify_Bearer_Response.LWG
p68
aVtc_327_219_recovery_service_request__Insert_Subscriber_Data_while_waiting_for_Ue_Backup_Response.LWG
p69
aVtc_208_43_interception_after_small_restart.LWG
p70
aVtc_56_4_abort.LWG
p71
aVtc_103_831_DPR_cause_BUSY.LWG
p72
aVtc_06_179_apnresolving_apnopid_hplmn_present_apn_redirect_feature_off.G14b
p73
aVtc_06_211_sgsn_init_modification_in_homezone_ms_99_gtp_99.G14b
p74
aVtc_05_093_cr3913_2_attach_invalid_imeisv_not_allowed.G14b
p75
aVtc_05_012_gprs_imsi_attach_ms97_usim_gea2.G14b
p76
aVtc_06_171_apnresolving_apnopid_hplmn_present_apn_criteria_si.G14b
p77
aVtc_06_182_apnresolving_apn_redirect_new_apn_not_subscribed.G14b
p78
aVtc_297_407_move_at_periodic_rau.G14b
p79
aVtc_52_02_inter_old_srns_reloc_main_flow_one_context_no_rab.LW
p80
aVtc_52_30_reloc_wf_forw_rel_resp_interrupted_by_detach_on_new_iu.LW
p81
aVtc_52_57_reloc_wf_forw_rel_compl_interrupted_by_transfered_attach.LW
p82
aVtc_52_13_inter_old_no_forwSRNScont_ack.LW
p83
aVtc_326_407_Inter_TAU_Recovery_With_Active_Flag__No_Modify_Bearer_Response_After_TAU.LW
p84
aVtc_194_081_cl_subscription_withdrawn_during_auth.LW
p85
aVtc_257_30_pws_sctp_device_failure.LW
p86
aVtc_196_172_nrspca_during_t3385_when_receive_sgsn_context_ack_not_accepted.LW
p87
aVtc_51_048_reloc_wf_rau_comp_interrupted_by_service_request_new_rai_new_iu.LW
p88
aVtc_51_074_reloc_wf_reloc_request_ack_interfered_by_rau_on_new_iu_new_rai.LW
p89
aVtc_51_105_reloc_attempt_move_ongoing.LW
p90
aVtc_51_100_intra_srns_reloc_camel.LW
p91
aVtc_78_023_israu_new_sgsn_redirection_cause_13.LW
p92
aVtc_231_173_ms_init_detach_interfered_by_cancel_location_withdraw.LW
p93
aVtc_284_573_pb_activated_dedicated_bearer_when_configured_max_beares_setup.LW
p94
aVtc_324_006_mf_ser_req_signaling_after_ack_3gdt.LW
p95
aVtc_304_114_initial_ue_intra_tau_control_mode_threshold_exceeded_usc_ignore_replace_s1.LW
p96
aVtc_53_23_inter_new_srns_reloc_update_location_failed.LW
p97
aVtc_298_145_EF_NRSPCA_interfere_Activation.LW
p98
aVtc_202_10_downlink_data_during_paging.LW
p99
aVtc_179_318_Ccheck_TraceCollectionIpv6server.LWG
p100
aVtc_294_009_mme_handle_eps_handover_2_pdns_main_flow.LWG
p101
aVtc_194_085_hss_reset_after_subdata_read_from_cache.LWG
p102
aVtc_194_701_HSS_initiated_ISD_ue_context_modification_failure_x2_ho_triggered_HO_ongoing_when_hold_timeout.LWG
p103
aVtc_194_1508_dsd_apn_oi_replacement_remove_ue_level_together_with_CC.LWG
p104
aVtc_326_237_Intra_TAU_Recovery_fail_DNS_Query_fail.LWG
p105
aVtc_326_219_Intra_TAU_Recovery_then_rim_source_mme_gn_sgsn_selection_table_not_matched_dns_query_success.LWG
p106
aVtc_326_267_Intra_TAU_with_unknown_GUTI_Restriction_2_pdn_SAU_license_limit_reached.LWG
p107
aVtc_326_218_Intra_TAU_Recovery_two_PDN_partial_fail.LWG
p108
aVtc_326_407_Inter_TAU_Recovery_With_Active_Flag__No_Modify_Bearer_Response_After_TAU.LWG
p109
aVtc_666_06_block_rt_board.LWG
p110
aVtc_23_09_transfer_to_primary_and_change_vip_addr.LWG
p111
aVtc_209_70_israu_new_sgsn_one_pdp_context_wrong_pdp_type.LWG
p112
aVtc_159_200_check_ctum_log.LWG
p113
aVtc_256_175_mme_eps_srvcc_ho_source_cs_only_ue_release_request_wf_srvcc_ps_to_cs_response.LWG
p114
aVtc_78_050_imsi_attach_forced_csps_coord_accept_home_ms.LWG
p115
aVtc_63_11_timeout_in_static_startphase.LWG
p116
aVtc_208_47_df2_alarm_buffer_on.LWG
p117
aVtc_103_602_georedundant_realm_routing.LWG
p118
aVtc_195_034_trace_two_imsi_having_same_imeisv.LWG
p119
aVtc_327_034_recovery_intra_TAU__initial_intra_TAU_Request_while_waiting_for_Ue_Backup_Response.LWG
p120
aVtc_327_153_recovery_intra_TAU_Delete_Bearer_Request_while_waiting_for_Modify_Bearer_Response.LWG
p121
aVtc_324_006_mf_ser_req_signaling_after_ack_3gdt.LWG
p122
aVtc_342_864_online_change_LI_U.LWG
p123
aVtc_232_401_bfd__ipv4_alarm.LWG
p124
aVtc_232_507_static_routes__bfd_supervision_of_static_route_v6.LWG
p125
aVtc_232_403_bfd__ipv4ipv6_alarm.LWG
p126
aVtc_232_402_bfd__ipv6_alarm.LWG
p127
aVtc_53_143_inter_new_srns_reloc_background_rab_not_allocated_in_target_rnc.LWG
p128
aVtc_60_1_hlr_reset.LWG
p129
aVtc_26_141_intra_g_to_w_VPLMN_ARP.LWG
p130
aVtc_273_034_tau_intra_normal_srvcc_capability_changed.LWG
p131
aVtc_273_650_tau_intra_periodic_SGW_unavailable_after_MME_large_restart_main_flow.LWG
p132
aVtc_273_651_tau_intra_periodic_SGW_unavailable_after_MME_large_restart__with_emergency_PDN.LWG
p133
aVtc_273_652_tau_intra_periodic_SGW_unavailable_after_MME_large_restart__with_static_SGW.LWG
p134
aVtc_273_664_tau_intra_periodic_SGW_unavailable_after_MME_large_restart__create_session_partition_fail.LWG
p135
aVtc_273_681_tau_intra_SGW_unavailable_active_flag_off_after_MME_large_restart__two_pdn_one_timeout.LWG
p136
aVtc_297_407_move_at_periodic_rau.LWG
p137
aVtc_26_027_israu_old_streaming_context.W14b
p138
aVtc_250_150_isd_with_odb_init_deactivation.W14b
p139
aVtc_298_541_sgsn_init_pdn_deact_ef_cancellocation_subscriptionWithdraw_wf_delete_session_resp.W14b
p140
aVtc_79_035_israu_new_streaming_context_MBR_not_zero.W14b
p141
aVtc_166_189_intra_srns_reloc_3gdt_flow_ggsn_changes_qos.WG14a
p142
aVtc_340_20_validation_move_w_af_no_forward_relocation_response.WG14a
p143
aVtc_218_207_2_TAU_from_SGSN__update_bearer_request_while_waiting_for_Update_Location_Answer.L14b
p144
aVtc_276_045_Inter_TAU_New_MME__S1_Reset_while_waiting_for_Identity_Response__enhanced_imei_check.L14b
p145
aVtc_327_022_recovery_intra_TAU__initial_Detach_Request_while_waiting_for_Ue_Backup_Response.L14b
p146
aVtc_103_205_app_specific_realm_routing.L14b
p147
aVtc_103_301_diameter_peer_change_ip.L14b
p148
aVtc_103_1101_resending_AIR_interfering_CLR.L14b
p149
aVtc_44_850_mme_assoc_reestablish__board_restart_s1_mme.L14b
p150
aVtc_44_897_mme_assoc_reestablish__emergency_attach.L14b
p151
aVtc_265_160_Detach_Flow_NW_init__Ue_moved_to_non_3gpp_while_imsi_detach.L14b
p152
aVtc_326_407_Inter_TAU_Recovery_With_Active_Flag__No_Modify_Bearer_Response_After_TAU.L14b
p153
aVtc_295_136_mo_call_during_s1_ho_tau_request_when_wf_handover_notify.L14b
p154
aVtc_346_447_AF__Intra_TAU_CCA_Update_unable_to_comply_5012.L14b
p155
aVtc_346_449_AF__Intra_TAU_CCA_Update_unknown_session_id_5002.L14b
p156
aVtc_225_309_mt_call_interfered_by_S1HO_including_TAU.L14b
p157
aVtc_225_321_mt_call_active_mode_nas_non_delivery__cs_service_notification__handover_required_meanwhile_CBR_received.L14b
p158
aVtc_578_02_check_parse_ebm_and_ci_eci_w.LW
p159
aVtc_284_351_pdn_connectivity_pb_activate_1_dedicated_bearer_interrupted_by_path_switch_request.LW
p160
aVtc_304_263_tau_from_gnsgsn_when_wf_tau_complete_control_mode_reject_congestion.LW
p161
aVtc_23_13_israu_out.LW
p162
aVtc_248_111_inter_l_to_w_new_interfering_attach_request_received_wf_fws_reloc_ack.LW
p163
aVtc_311_209_intra_srns_reloc_s4_sgw_change_wf_rau_complete_interrupted_by_cancel_loc_subscrip_withdrawn.LW
p164
aVtc_311_250_intra_srns_reloc_s4_received_interfering_update_bearer_request_wf_rau_complete.LW
p165
aVtc_52_22_reloc_wf_canc_loc_interrupted_by_attach_on_new_iu.LW
p166
aVtc_78_005_imsi_attach_redirection_cause_14.LW
p167
aVtc_78_250_not_own_ra_dns_query_success_old_sgsn_have_no_mm_context_reject_with_cause_code_5.LW
p168
aVtc_324_006_mf_ser_req_signaling_after_ack_3gdt.LW
p169
aVtc_241_801_israu_interfering_context_request_no_cancel_location_s4.LW
p170
aVtc_11_221_activate_primary_APN_test_III.LW
p171
aVtc_31_079_cl_subscription_withdrawn_during_ul.LW
p172
aVtc_76_033_iu_release_during_ggsn_initiated_deactivation_normal_release.LW
p173
aVtc_53_30_inter_new_srns_reloc_wf_rau_req_interrupted_by_sm_status.LW
p174
aVtc_53_78_inter_new_srns_reloc_interfere_rau_request_old_ra_changed_same_iu.LW
p175
aVtc_53_40_inter_new_srns_reloc_ggsn_update_timeout.LW
p176
aVtc_346_382_handover_inter_target_establish_sx_session_with_bearer_control_mode_sx_only.LW
p177
aVtc_267_224_Service_Request__PDN_Connectivity_Request_while_waiting_for_Modify_Bearer_Response_where_dedicated_fails.LW
p178
aVtc_267_232_Service_Request__Extended_Service_Request_while_waiting_for_Modify_Bearer_Response.LW
p179
aVtc_44_032_config_ep_2.LW
p180
aVtc_194_174_hss_reset_during_attach_after_successful_update_location.LW
p181
aVtc_194_615_DSD__Only_Unsupported_DSR_Flags.LW
p182
aVtc_194_614_DSD__Subscribed_Charging_Characteristics_Withdrawal_With_Context_Identifier_AVP.LW
p183
aVtc_256_382_Sv_Path_Mgt__available_MSC_disable_Sv.LW
p184
aVtc_326_407_Inter_TAU_Recovery_With_Active_Flag__No_Modify_Bearer_Response_After_TAU.LW
p185
aVtc_326_622_S6a_Throttling_Service_Request_recovery_UL_successful_and_Emergency_Attach_not_throttled.LW
p186
aVtc_195_417_ue_trace_deactivate_trace_s1_intra_system_handover_triggered_HO_ongoing_timeout.L14b
p187
aVtc_194_187_hss_reset_after_large_restart_with_full_imsi.L14b
p188
aVtc_276_045_Inter_TAU_New_MME__S1_Reset_while_waiting_for_Identity_Response__enhanced_imei_check.L14b
p189
aVtc_43_040_eNB_configuration_update_mf.L14b
p190
aVtc_47_005_implict_detach_timer_ap_loss.L14b
p191
aVtc_225_321_mt_call_active_mode_nas_non_delivery__cs_service_notification__handover_required_meanwhile_CBR_received.L14b
p192
aVtc_225_616_exp_flow_handover_required_intra_while_wf_modification_context_response.L14b
p193
aVtc_273_167_tau_intra_periodic_connected.L14b
p194
aVtc_103_701_MME_restarts.L14b
p195
aVtc_103_1101_resending_AIR_interfering_CLR.L14b
p196
aVtc_103_504_outbound_olp_avp_decoding_error.L14b
p197
aVtc_103_701_MME_restarts.LWG
p198
aVtc_97_035_inter_sgsn_psho_mf_with_lawful_intercept.LWG
p199
aVtc_183_005_itc_folder_file_names.LWG
p200
aVtc_183_011_itc_trace_file_wrap.LWG
p201
aVtc_73_02_send_payload_during_dp_reload.LWG
p202
aVtc_73_05_insert_max_pdp_contexts_for_one_ms.LWG
p203
aVtc_73_19_itc_gtpu_s4_sgsn_send_error_indication_w.LWG
p204
aVtc_73_32_qos_change_rab.LWG
p205
aVtc_73_41_gtpu_sgsn_dont_send_gpu_echo_request_w.LWG
p206
aVtc_275_073_tau_inter_new_no_update_location_response_sgsn00040258.LWG
p207
aVtc_225_315_mt_call_active_mode_nas_non_delivery__cs_service_notification_meanwhile_handover_required.LWG
p208
aVtc_225_406_mt_call_idle_mode_while_ps_paging.LWG
p209
aVtc_666_06_block_rt_board.LWG
p210
aVtc_316_298_GUTI_Attach_Known_Large_Restart_Broadcast_Force_Delete_Among_Pool.LWG
p211
aVtc_12_512_pmm_undefined_attach_when_updating_location_interfered_by_rnc_reset.LWG
p212
aVtc_318_187_sgw_restart_ef_relocate_interrupt_by_CreateBearerReq.LWG
p213
aVtc_318_210_idle_deactivate_non_last_pdn_reactivate_req_no_paging_response.LWG
p214
aVtc_318_273_sgw_restart_af_relocation_triggered_by_DDN_create_session_dedicated_bearer_failed.LWG
p215
aVtc_44_004_small_restart__sctp_fe_restart.LWG
p216
aVtc_327_209_recovery_service_request__Cancel_Location_subscription_withdrawal_while_waiting_for_Update_Location_Answer.LWG
p217
aVtc_327_034_recovery_intra_TAU__initial_intra_TAU_Request_while_waiting_for_Ue_Backup_Response.LWG
p218
aVtc_327_015_recovery_intra_TAU__initial_Attach_Request_while_waiting_for_Update_Location_Response.LWG
p219
aVtc_327_153_recovery_intra_TAU_Delete_Bearer_Request_while_waiting_for_Modify_Bearer_Response.LWG
p220
aVtc_327_552_Recovery_for_DDN__Service_Request_while_waiting_for_Ue_Backup_Response.LWG
p221
aVtc_159_200_check_ctum_log.LWG
p222
aVtc_326_263_Intra_TAU_with_unknown_GUTI_Restriction_2_pdn_roaming_restriction_emergency_pdn_recovered.LWG
p223
aVtc_06_179_apnresolving_apnopid_hplmn_present_apn_redirect_feature_off.LWG
p224
aVtc_241_801_israu_interfering_context_request_no_cancel_location_s4.LWG
p225
aVtc_39_601_mas_unsucc_fwd_reloc_resp_mandatory_ie_missing_stop_source.LWG
p226
aVtc_39_771_mas_rnc_reset_when_wf_ptmsi_realloc_cmpl_source.LWG
p227
aVtc_58_2_dyn_to_dyn.LWG
p228
aVtc_59_9_mtmsi_restart_counter.LWG
p229
aVtc_304_416_Service_Request_UE_Initiated__control_mode_threshold_exceeded_implicit_detach_int_prot_nok.LWG
p230
aVtc_262_1055_imsi_attach_with_csg_id_is_rejected.LWG
p231
aVtc_250_105_ignore_IDR_when_EPS_sub_downgrade_GPRS_sub.LWG
p232
aVtc_324_006_mf_ser_req_signaling_after_ack_3gdt.LWG
p233
aVtc_248_09_inter_l_to_w_new_3gdt.LWG
p234
aVtc_322_023_smooth_move_af_frr_with_request_rejected.LWG
p235
aVtc_232_205_bfd__udp_port_no_ipv6.LWG
p236
aVtc_232_401_bfd__ipv4_alarm.LWG
p237
aVtc_232_204_bfd__multiplier_variations_ipv6.LWG
p238
aVtc_232_403_bfd__ipv4ipv6_alarm.LWG
p239
aVtc_232_503_static_routes__ipv4_ipv6_conf_deconf.LWG
p240
aVtc_232_508_static_routes__bfd_supervision_of_static_route_v4_v6.LWG
p241
aVtc_208_44_attach_detach_imsi_ap_takeover.LWG
p242
aVtc_257_19_pws_etws_resend_write_replace_warning_request_with_ta_list.LWG
p243
aVtc_273_595_TAU_intra__MME_Restart_active_flag_on_no_modify_bearer_response_sgw_change_two_pdn.LWG
p244
aVtc_273_661_tau_intra_periodic_SGW_unavailable_after_MME_large_restart__two_pdn_one_timeout.LWG
p245
aVtc_06_182_apnresolving_apn_redirect_new_apn_not_subscribed.G14b
p246
aVtc_05_092_dp_transfer_new_worker.G14b
p247
aVtc_231_113_rnc_reset_during_ms_act_si_ms_deact_rnc_contact.W14b
p248
aVtc_348_022_deactivation__sgsn_init_modification_ggsn_return_invalid_qos.W14b
p249
aVtc_298_654_pgw_init_modification_mf_3gdt_enable.W14b
p250
aVtc_26_075_ms_initiated_pdp_context_modification_streaming_tft.W14b
p251
aVtc_326_204_Intra_TAU_combined_type_with_LA_served_by_old_msc_after_large_restart_after_combined_attach.LWG
p252
aVtc_326_217_Intra_TAU_Recovery_with_active_flag_two_PDN_partial_fail.LWG
p253
aVtc_326_219_Intra_TAU_Recovery_then_rim_source_mme_gn_sgsn_selection_table_not_matched_dns_query_success.LWG
p254
aVtc_326_243_Intra_TAU_Recovery_fail_default_bearer_fail_to_setup_SGW_Change.LWG
p255
aVtc_326_275_Periodic_Intra_TAU_with_unknown_GUTI_with_normal_and_emergency_PDN.LWG
p256
aVtc_326_311_Service_Request_with_unknown_STMSI_large_restart_sgs_then_csfb_to_UTRAN.LWG
p257
aVtc_26_141_intra_g_to_w_VPLMN_ARP.LWG
p258
aVtc_194_141_cl_subscription_withdrawn_existing_emergency_pdn.LWG
p259
aVtc_194_084_hss_reset_after_large_restart.LWG
p260
aVtc_194_187_hss_reset_after_large_restart_with_full_imsi.LWG
p261
aVtc_232_511_static_routes__bfd_supervision_of_static_route_v6_on_Gom.LWG
p262
aVtc_232_204_bfd__multiplier_variations_ipv6.LWG
p263
aVtc_232_503_static_routes__ipv4_ipv6_conf_deconf.LWG
p264
aVtc_232_508_static_routes__bfd_supervision_of_static_route_v4_v6.LWG
p265
aVtc_214_1139_la_selection_mf_reselection_ptau_during_ue_restoration.LWG
p266
aVtc_52_18_inter_old_main_canc_loc_before_iu_compl.LWG
p267
aVtc_52_10_inter_old_relocation_cancel_later.LWG
p268
aVtc_52_51_inter_old_srns_reloc_main_flow_interfered_by_service_request_data.LWG
p269
aVtc_324_386_ef_mt_sms_wf_frcn_wf_frca_wf_ula.LWG
p270
aVtc_219_131_s3_handover_w_to_l_with_cl_two_pdns_one_failed_sgw_relocation.LWG
p271
aVtc_327_008_recovery_intra_TAU__uplink_Attach_Request_while_waiting_for_Initial_Context_Setup_Response.LWG
p272
aVtc_217_120_rau_to_sgsn_sgsn_context_request_other_sgsn_when_wf_20s_timeout.LWG
p273
aVtc_210_026_target_info_query_id_format_error.LWG
p274
aVtc_337_005_validation_move_manually_stopped_between_two_pool_moves_smooth_move.LWG
p275
aVtc_216_106_icmpv6_outNeighborSol.LWG
p276
aVtc_103_831_DPR_cause_BUSY.LWG
p277
aVtc_103_1003_highest_prio_peer_unavailable_lower_prio_peer_chosen.LWG
p278
aVtc_103_602_georedundant_realm_routing.LWG
p279
aVtc_183_005_itc_folder_file_names.LWG
p280
aVtc_159_200_check_ctum_log.LWG
p281
aVtc_273_594_TAU_intra__MME_Restart_active_flag_on_no_modify_bearer_response_sgw_change.LWG
p282
aVtc_273_678_tau_intra_SGW_unavailable_active_flag_off_after_MME_large_restart__create_session_fail_reselect_SGW.LWG
p283
aVtc_273_684_tau_intra_SGW_unavailable_active_flag_off_after_MME_large_restart__create_session_partition_fail.LWG
p284
aVtc_273_683_tau_intra_SGW_unavailable_active_flag_off_after_MME_large_restart__two_pdn_one_bearer_status_0.LWG
p285
aVtc_260_070_mbms_session_start_af_gw_resend_request_msg_diff_absolute_time.LWG
p286
aVtc_298_145_EF_NRSPCA_interfere_Activation.LWG
p287
aVtc_53_30_inter_new_srns_reloc_wf_rau_req_interrupted_by_sm_status.LWG
p288
aVtc_53_78_inter_new_srns_reloc_interfere_rau_request_old_ra_changed_same_iu.LWG
p289
aVtc_53_118_inter_new_srns_reloc_interfere_service_request_paging_new_iu_1.LWG
p290
aVtc_53_133_inter_new_mbr_set_to_zero_interactive.LWG
p291
aVtc_53_405_inter_new_srns_reloc_with_eps_subscription_data.LWG
p292
aVtc_241_801_israu_interfering_context_request_no_cancel_location_s4.LW
p293
aVtc_271_006_sctp_paging_olp_stop_discarding_all_paging_under_pagingOlpDiscardAllCpuThreshold.LW
p294
aVtc_53_148_inter_new_srns_reloc_move_job_ongoing.LW
p295
aVtc_47_002_imsi_attach_ap_gain.LW
p296
aVtc_52_22_reloc_wf_canc_loc_interrupted_by_attach_on_new_iu.LW
p297
aVtc_52_06_inter_old_no_forwardSRNS.LW
p298
aVtc_257_30_pws_sctp_device_failure.LW
p299
aVtc_51_004_intra_srns_reloc_target_nrr_restricted.LW
p300
aVtc_51_052_reloc_wf_reloc_req_ack_interrupted_by_service_request_signalling_old_rai_new_iu.LW
p301
aVtc_51_040_reloc_wf_reloc_req_ack_interrupted_by_source_rnc_reset.LW
p302
aVtc_51_108_intra_srns_reloc_with_ran_cause_44.LW
p303
aVtc_23_10_transfer_to_primary_and_change_vip_addr_from_gn_to_gom.LW
p304
aVtc_76_018_deactivate_ggsn_initiated_ms_not_responding.LW
p305
aVtc_346_546_AF__HO_Inter_Target__2PDN_BCM_Sx_only_one_CCA_U_cause_5003.LW
p306
aVtc_103_701_MME_restarts.LW
p307
aVtc_204_901_mme_eps_ho_target_insert_subscriber_data_with_odb_bit0_during_wf_tau_complete.LW
p308
aVtc_202_01_ecm_connected_s1_release.LW
p309
aVtc_202_17_service_request_during_release_access_bearers.LW
p310
aVtc_311_204_intra_srns_reloc_s4_sgw_change_wf_reloc_req_ack_interrupted_by_cancel_loc_subscrip_withdrawn.LW
p311
aVtc_50_053_activate_interactive_256mbitul_256mbitdl_get_64kbpsul_32mbpsdl.LW
p312
aVtc_220_413_csfb_to_1xrtt_in_ecm_connected_handover_required_meanwhile_CBR_received.LW
p313
aVtc_256_175_mme_eps_srvcc_ho_source_cs_only_ue_release_request_wf_srvcc_ps_to_cs_response.LW
p314
aVtc_11_178_sgsn_init_deactivation_ms_deactivate.LW
p315
aVtc_220_587_csfb_to_1xrtt_in_extended_service_request_during_attach_waiting_for_modify_bearer_response.L14b
p316
aVtc_214_806_mo_sms_active_donwlink_nas_transport_meanwhile_handover_required_HO_success.L14b
p317
aVtc_273_167_tau_intra_periodic_connected.L14b
p318
aVtc_195_416_ue_trace_deactivate_trace_s1_intra_system_handover_triggered.L14b
p319
aVtc_195_417_ue_trace_deactivate_trace_s1_intra_system_handover_triggered_HO_ongoing_timeout.L14b
p320
aVtc_44_895_mme_assoc_reestablish__s1_setup_when_iterator_started_finished.L14b
p321
aVtc_44_898_mme_assoc_reestablish__downlink_data_on_reestablished_sctp_association.L14b
p322
aVtc_44_871_mme_assoc_reestablish__board_block_sbc.L14b
p323
aVtc_304_266_tau_from_gnsgsn_2g_control_mode_wf_delete_all_bearers_response_exception_case_reject_congestion_subscriber_cancelled.L14b
p324
aVtc_194_187_hss_reset_after_large_restart_with_full_imsi.L14b
p325
aVtc_257_36_pws_etws_stop_warning_request_when_olp_rshl_false.L14b
p326
aVtc_202_420_af_seamless_move_target_initialCtxSetupResponse_noSuccDefaultBearer.L14b
p327
aVtc_103_005_destination_realm_is_not_realm_of_a_peer.L14b
p328
aVtc_103_011_disconnect_peer.L14b
p329
aVtc_103_008_prioritized_peer_destination_realm_only_handled_by_peer.L14b
p330
aVtc_327_600_Inter_TAU_Recovery__Attach_Request_IMSI_while_waiting_for_ue_backup_retrieval_Response.L14b
p331
aVtc_43_040_eNB_configuration_update_mf.L14b
p332
aVtc_276_045_Inter_TAU_New_MME__S1_Reset_while_waiting_for_Identity_Response__enhanced_imei_check.L14b
p333
aVtc_348_016_activation__sgsn_restarted.WG14a
p334
aVtc_236_292_3gdt_swichback_detach_request_received_wf_modify_bearer_response.W14b
p335
aVtc_231_113_rnc_reset_during_ms_act_si_ms_deact_rnc_contact.W14b
p336
aVtc_26_210_inter_S4_SGSN_RAU_WtoW_new_VPLMN_ARP.W14b
p337
aVtc_322_161_smooth_move_ef_nas_after_paging_response_ignore.W14b
p338
aVtc_245_340_israu_new_l_to_w_with_GBR_dedicated_bearer_ipv6_3gdt.W14b
p339
aVtc_05_010_gprs_imsi_attach_ms99_gsim_gea2.G14b
p340
aVtc_06_170_activate_accept_pdptype0.G14b
p341
aVtc_06_178_apnresolving_apnopid_hplmn_present_apn_redirect_def_apn_fails.G14b
p342
aVtc_208_43_interception_after_small_restart.G14b
p343
aVtc_06_170_activate_accept_pdptype0.G14b
p344
aVtc_05_007_normal_gprs_imsi_attach_detach_ptmsi_attach_detach_imsi_attach_detach.G14b
p345
aVtc_27_013_mt_sms_update_location_after_large_restart.G14b
p346
aVtc_208_43_interception_after_small_restart.G14b
p347
aVtc_326_622_S6a_Throttling_Service_Request_recovery_UL_successful_and_Emergency_Attach_not_throttled.L14b
p348
aVtc_44_850_mme_assoc_reestablish__board_restart_s1_mme.L14b
p349
aVtc_327_600_Inter_TAU_Recovery__Attach_Request_IMSI_while_waiting_for_ue_backup_retrieval_Response.L14b
p350
aVtc_202_17_service_request_during_release_access_bearers.L14b
p351
aVtc_43_040_eNB_configuration_update_mf.L14b
p352
aVtc_103_602_georedundant_realm_routing.L14b
p353
aVtc_103_1101_resending_AIR_interfering_CLR.L14b
p354
aVtc_276_045_Inter_TAU_New_MME__S1_Reset_while_waiting_for_Identity_Response__enhanced_imei_check.L14b
p355
aVtc_346_382_handover_inter_target_establish_sx_session_with_bearer_control_mode_sx_only.L14b
p356
aVtc_332_038_mf__1xrtt_srvcc_main_flow.L14b
p357
aVtc_195_417_ue_trace_deactivate_trace_s1_intra_system_handover_triggered_HO_ongoing_timeout.L14b
p358
aVtc_304_121_initial_ue_intra_tau_control_mode_threshold_exceeded_usc_detach_wf_release_request_response.LW
p359
aVtc_326_622_S6a_Throttling_Service_Request_recovery_UL_successful_and_Emergency_Attach_not_throttled.LW
p360
aVtc_310_118_af__HO_Cancel_after_HO_Command_before_Complete_from_MSC_and_SGSN.LW
p361
aVtc_103_1004_secondary_dpl_used_when_all_peers_in_dpl_unavailable_no_sls.LW
p362
aVtc_103_1142_sx_resend__resend_during_inter_mme_tau_2_pdns.LW
p363
aVtc_194_991_downlink_A21_AIS_during_waiting_location_report__idr_flags_ef.LW
p364
aVtc_44_071_attach_long_imsi.LW
p365
aVtc_298_826_NRSPCA_S4_nsapi_collision_receiving_detach_request_while_waiting_for_delete_bearer_request.LW
p366
aVtc_196_172_nrspca_during_t3385_when_receive_sgsn_context_ack_not_accepted.LW
p367
aVtc_219_131_s3_handover_w_to_l_with_cl_two_pdns_one_failed_sgw_relocation.LW
p368
aVtc_06_174_apnresolving_vplmn_not_allowed_subscribed_apn_hplmn_apn_criteria_si.LWG
p369
aVtc_179_318_Ccheck_TraceCollectionIpv6server.LWG
p370
aVtc_23_09_transfer_to_primary_and_change_vip_addr.LWG
p371
aVtc_666_06_block_rt_board.LWG
p372
aVtc_98_057_inter_sgsn_new_psho_relocation_cancel_wf_psho_complete.LWG
p373
aVtc_363_011_cli_get_ra.LWG
p374
aVtc_273_594_TAU_intra__MME_Restart_active_flag_on_no_modify_bearer_response_sgw_change.LWG
p375
aVtc_273_595_TAU_intra__MME_Restart_active_flag_on_no_modify_bearer_response_sgw_change_two_pdn.LWG
p376
aVtc_194_085_hss_reset_after_subdata_read_from_cache.LWG
p377
aVtc_194_710_HSS_initiated_ISD_ue_context_modification_request_meanwhile_handover_required_HO_all_bearers_fail.LWG
p378
aVtc_194_187_hss_reset_after_large_restart_with_full_imsi.LWG
p379
aVtc_194_1554_HSS_initiated_ISD_in_Connected_mode_when_current_CSG_Id_removed__TAU_Request.LWG
p380
aVtc_194_991_downlink_A21_AIS_during_waiting_location_report__idr_flags_ef.LWG
p381
aVtc_327_113_recovery_intra_TAU__Insert_Subscriber_Data_while_waiting_for_Identity_Response.LWG
p382
aVtc_327_163_recovery_intra_TAU_Context_Request_while_waiting_for_TAU_Complete.LWG
p383
aVtc_327_221_recovery_service_request__Insert_Subscriber_Data_while_waiting_for_Guti_Reallocation_Complete.LWG
p384
aVtc_05_024_gprs_ptmsi_attach_in_new_sgsn_reject_due_to_imsi_unknown.LWG
p385
aVtc_232_205_bfd__udp_port_no_ipv6.LWG
p386
aVtc_232_507_static_routes__bfd_supervision_of_static_route_v6.LWG
p387
aVtc_232_511_static_routes__bfd_supervision_of_static_route_v6_on_Gom.LWG
p388
aVtc_232_402_bfd__ipv6_alarm.LWG
p389
aVtc_214_806_mo_sms_active_donwlink_nas_transport_meanwhile_handover_required_HO_success.LWG
p390
aVtc_214_1140_la_selection_mf_oldlapreferred_prau_during_ue_restoration.LWG
p391
aVtc_27_013_mt_sms_update_location_after_large_restart.LWG
p392
aVtc_326_245_Intra_TAU_Recovery_TAU_Complete_timeout.LWG
p393
aVtc_326_243_Intra_TAU_Recovery_fail_default_bearer_fail_to_setup_SGW_Change.LWG
p394
aVtc_326_223_Intra_TAU_Recovery_fail_Identity_Response_timeout_then_Recover_successful.LWG
p395
aVtc_159_200_check_ctum_log.LWG
p396
aVtc_79_058_intra_rau_new_rnc_qos_upgrade.LWG
p397
aVtc_209_20_target_info_query_id_format_error.LWG
p398
aVtc_304_128_initial_ue_intra_tau_ecm_idle_two_pdn_change_plmn_control_mode_threshold_exceeded_usc_detach.LWG
p399
aVtc_73_21_itc_gtpu_s4_sgsn_send_echo_request_w.LWG
p400
aVtc_298_671_pgw_init_modification_af_pco_for_bearer_in_bearercontext.W14b
p401
aVtc_26_065_israu_downgrade_requested_to_subscribed.W14b
p402
aVtc_241_801_israu_interfering_context_request_no_cancel_location_s4.LW
p403
aVtc_326_407_Inter_TAU_Recovery_With_Active_Flag__No_Modify_Bearer_Response_After_TAU.LW
p404
aVtc_257_17_pws_etws_write_replace_warning_request_rejected_when_olp.LW
p405
aVtc_276_045_Inter_TAU_New_MME__S1_Reset_while_waiting_for_Identity_Response__enhanced_imei_check.LW
p406
aVtc_44_004_small_restart__sctp_fe_restart.LW
p407
aVtc_44_840_mme_assoc_reestablish__device_restart_s1_mme.LW
p408
aVtc_194_081_cl_subscription_withdrawn_during_auth.LW
p409
aVtc_194_991_downlink_A21_AIS_during_waiting_location_report__idr_flags_ef.LW
p410
aVtc_81_150_rnc_modify_more_than_requested.LW
p411
aVtc_12_181_wcdma_repeat_paging_step_60_worker_parks.LW
p412
aVtc_202_18_downlink_data_after_s1_release.LW
p413
aVtc_196_172_nrspca_during_t3385_when_receive_sgsn_context_ack_not_accepted.LW
p414
aVtc_324_386_ef_mt_sms_wf_frcn_wf_frca_wf_ula.LW
p415
aVtc_321_002_s4_logging_pgw_initiate_modification_traced_by_imeisv.LW
p416
aVtc_345_131_af__mt_csfb_with_psho__ecm_idle_no_FR_response_from_target_sgsn.LW
p417
aVtc_73_41_gtpu_sgsn_dont_send_gpu_echo_request_w.LWG
p418
aVtc_73_40_gtpu_sgsn_send_gpu_echo_request_w.LWG
p419
aVtc_666_02_reboot_ss7_board.LWG
p420
aVtc_666_06_block_rt_board.LWG
p421
aVtc_326_246_Intra_TAU_Recovery_fail_Modify_Bearer_fail_active_flag_SGW_Change.LWG
p422
aVtc_202_431_mf_seamless_move_target_service_request_modifyBearerReq_onePdnMultiBearer_oneBearerFail.LWG
p423
aVtc_202_01_ecm_connected_s1_release.LWG
p424
aVtc_219_131_s3_handover_w_to_l_with_cl_two_pdns_one_failed_sgw_relocation.LWG
p425
aVtc_214_1140_la_selection_mf_oldlapreferred_prau_during_ue_restoration.LWG
p426
aVtc_275_073_tau_inter_new_no_update_location_response_sgsn00040258.LWG
p427
aVtc_179_318_Ccheck_TraceCollectionIpv6server.LWG
p428
aVtc_205_40_ss7_M3ua.LWG
p429
aVtc_44_071_attach_long_imsi.LWG
p430
aVtc_44_871_mme_assoc_reestablish__board_block_sbc.LWG
p431
aVtc_259_99_ef_s6d_s4_attach_old_w.LWG
p432
aVtc_166_428_rnc_initiated_rab_release_interfered_by_rnc_initiated_iu_release_request.LWG
p433
aVtc_312_235_inter_old_srns_reloc_wf_cancel_location_interrupted_by_isd_vplmn_not_allowed.LWG
p434
aVtc_232_204_bfd__multiplier_variations_ipv6.LWG
p435
aVtc_232_403_bfd__ipv4ipv6_alarm.LWG
p436
aVtc_232_503_static_routes__ipv4_ipv6_conf_deconf.LWG
p437
aVtc_232_508_static_routes__bfd_supervision_of_static_route_v4_v6.LWG
p438
aVtc_267_225_Service_Request__Create_Bearer_Request_while_waiting_for_Modify_Bearer_Response.LWG
p439
aVtc_183_005_itc_folder_file_names.LWG
p440
aVtc_39_601_mas_unsucc_fwd_reloc_resp_mandatory_ie_missing_stop_source.LWG
p441
aVtc_327_009_recovery_intra_TAU__uplink_Attach_Request_while_waiting_for_Modify_Bearer_Response.LWG
p442
aVtc_327_008_recovery_intra_TAU__uplink_Attach_Request_while_waiting_for_Initial_Context_Setup_Response.LWG
p443
aVtc_327_157_recovery_intra_TAU_Update_Bearer_Request_while_waiting_for_Modify_Bearer_Response.LWG
p444
aVtc_289_070_GW_Init_Bearer_Modification_Flow_two_CBR_one_UBR_while_wf_modify_eps_bearer_context_accept.LWG
p445
aVtc_06_194_apn_redirect_subscription_visitor.LWG
p446
aVtc_159_200_check_ctum_log.LWG
p447
aVtc_318_005_pgw_restart_notification_mf_multi_ue.LWG
p448
aVtc_318_112_sgw_restart_mf_one_pdn_with_reattach_s8_interface.LWG
p449
aVtc_220_622_Extended_Service_Request__Cancel_Location_Update_Procedure_while_waiting_for_Initial_Context_Setup_Response.LWG
p450
aVtc_220_403_csfb_to_1xrtt_in_ecm_connected_path_switch_request_HO_success.LWG
p451
aVtc_220_618_Extended_Service_Request__Attach_Request_while_waiting_for_Initial_Context_Setup_Response.LWG
p452
aVtc_12_512_pmm_undefined_attach_when_updating_location_interfered_by_rnc_reset.LWG
p453
aVtc_273_595_TAU_intra__MME_Restart_active_flag_on_no_modify_bearer_response_sgw_change_two_pdn.LWG
p454
aVtc_273_672_tau_intra_SGW_unavailable_active_flag_off_after_MME_large_restart__with_static_SGW.LWG
p455
aVtc_273_680_tau_intra_SGW_unavailable_active_flag_off_after_MME_large_restart__two_pdn.LWG
p456
aVtc_273_682_tau_intra_SGW_unavailable_active_flag_off_after_MME_large_restart__two_pdn_one_fail.LWG
p457
aVtc_273_681_tau_intra_SGW_unavailable_active_flag_off_after_MME_large_restart__two_pdn_one_timeout.LWG
p458
aVtc_30_085_hlr_reset_after_subdata_read_from_cache.G14b
p459
aVtc_310_119_af__HO_Cancel_after_HO_Command_before_Complete_from_MSC_after_Complete_from_SGSN.L14b
p460
aVtc_326_407_Inter_TAU_Recovery_With_Active_Flag__No_Modify_Bearer_Response_After_TAU.L14b
p461
aVtc_276_045_Inter_TAU_New_MME__S1_Reset_while_waiting_for_Identity_Response__enhanced_imei_check.L14b
p462
aVtc_327_602_Inter_TAU_Recovery__Attach_Request_while_waiting_for_Ue_Authentication_Response.L14b
p463
aVtc_304_236_isc_active_flag_on_control_mode_threshold_exceeded_ignore_replace_s1_wf_initial_context_setup_response.L14b
p464
aVtc_43_040_eNB_configuration_update_mf.L14b
p465
aVtc_225_321_mt_call_active_mode_nas_non_delivery__cs_service_notification__handover_required_meanwhile_CBR_received.L14b
p466
aVtc_225_616_exp_flow_handover_required_intra_while_wf_modification_context_response.L14b
p467
aVtc_266_513_DDN_SGW_unavailable__modify_bearer_request_failure.L14b
p468
aVtc_256_028_mme_eps_srvcc_ho_source_cs_only_emergency_mf_after_intra_mme_ho_with_emergency_pdn.L14b
p469
aVtc_256_390_mme_eps_srvcc_ho_source_cs_only_not_send_voice_bearer_in_handover_command.L14b
p470
aVtc_44_071_attach_long_imsi.L14b
p471
aVtc_194_813_isd_private_extension_of_lzone_from_lzone_to_nolzone_followed_by_pdn_connectivity_request.L14b
p472
aVtc_194_802_isd_private_extension_of_wi_denied_from_unknown_to_allowed_followed_by_service_request.L14b
p473
aVtc_329_003_attach_rs_allowed_emergency_plmn_change_ula_fails.L14b
p474
aVtc_289_047_Modify_bearer__ERAB_modify_response_s1_intra_system_handover_triggered_activate_dedicated_bearer_one_pdn_multiple_bearer.L14b
p475
aVtc_202_440_af_seamless_move_target_initialCtxSetupResponse_timeout_unsucc_ula.L14b
p476
aVtc_298_132_EF_NRSPCA_S4_Activate_TiFlag.W14b
p477
aVtc_359_060_handover_from_non3gpp_ef_activate_pdp_context_request_with_handover.W14b
p478
aVtc_26_029_israu_old_new_is_gtpv0_mixed_contexts_II.W14b
p479
aVtc_348_032_deactivation__ms_init_detach_request.W14b
p480
aVtc_39_187_detach_trigger_re_attach_new_iu.W14b
p481
aVtc_11_147_rab_reestablish_on_service_request_data_pmm_connected.W14b
p482
aVtc_31_064_activate_loc_not_confirmed_ul_fails_network_failure.W14b
p483
aVtc_59_9_mtmsi_restart_counter.LWG
p484
aVtc_326_204_Intra_TAU_combined_type_with_LA_served_by_old_msc_after_large_restart_after_combined_attach.LWG
p485
aVtc_326_280_Intra_TAU_with_unknown_GUTI_SGW_not_change_SGW_unavailable.LWG
p486
aVtc_326_223_Intra_TAU_Recovery_fail_Identity_Response_timeout_then_Recover_successful.LWG
p487
aVtc_159_200_check_ctum_log.LWG
p488
aVtc_216_105_icmpv6_outNeighborAds.LWG
p489
aVtc_297_407_move_at_periodic_rau.LWG
p490
aVtc_346_382_handover_inter_target_establish_sx_session_with_bearer_control_mode_sx_only.LWG
p491
aVtc_44_032_config_ep_2.LWG
p492
aVtc_44_004_small_restart__sctp_fe_restart.LWG
p493
aVtc_23_09_transfer_to_primary_and_change_vip_addr.LWG
p494
aVtc_262_1055_imsi_attach_with_csg_id_is_rejected.LWG
p495
aVtc_214_1140_la_selection_mf_oldlapreferred_prau_during_ue_restoration.LWG
p496
aVtc_214_1141_la_selection_mf_oldmscpreferred_prau_during_ue_restoration.LWG
p497
aVtc_194_013_attach_ul_fails_imsi_unknown.LWG
p498
aVtc_194_150_notify_no_pgw.LWG
p499
aVtc_183_005_itc_folder_file_names.LWG
p500
aVtc_256_251_srvcc_ho_source_cs_only_emergency_mf_after_emergency_attach_authenticated_imsi_slr_handover_no_answ_gmlc1.LWG
p501
aVtc_273_660_tau_intra_periodic_SGW_unavailable_after_MME_large_restart__two_pdn.LWG
p502
aVtc_273_663_tau_intra_periodic_SGW_unavailable_after_MME_large_restart__two_pdn_one_bearer_status_0.LWG
p503
aVtc_273_678_tau_intra_SGW_unavailable_active_flag_off_after_MME_large_restart__create_session_fail_reselect_SGW.LWG
p504
aVtc_273_662_tau_intra_periodic_SGW_unavailable_after_MME_large_restart__two_pdn_one_fail.LWG
p505
aVtc_06_197_handling_of_faulty_apn_from_ms.LWG
p506
aVtc_06_178_apnresolving_apnopid_hplmn_present_apn_redirect_def_apn_fails.LWG
p507
aVtc_232_507_static_routes__bfd_supervision_of_static_route_v6.LWG
p508
aVtc_232_401_bfd__ipv4_alarm.LWG
p509
aVtc_232_204_bfd__multiplier_variations_ipv6.LWG
p510
aVtc_232_503_static_routes__ipv4_ipv6_conf_deconf.LWG
p511
aVtc_232_402_bfd__ipv6_alarm.LWG
p512
aVtc_30_085_hlr_reset_after_subdata_read_from_cache.LWG
p513
aVtc_666_06_block_rt_board.LWG
p514
aVtc_218_311_tau_from_sgsn_preserved_gbr_bearer_buffer_1_ubr_1_cbr.LWG
p515
aVtc_260_070_mbms_session_start_af_gw_resend_request_msg_diff_absolute_time.LWG
p516
aVtc_225_312_mt_call_active_mode_nas_non_delivery__s1_intra_system_handover_triggered_resend_2_times.LWG
p517
aVtc_179_318_Ccheck_TraceCollectionIpv6server.LWG
p518
aVtc_103_1102_fallback_to_imsins_success.LWG
p519
aVtc_273_681_tau_intra_SGW_unavailable_active_flag_off_after_MME_large_restart__two_pdn_one_timeout.LW
p520
aVtc_275_073_tau_inter_new_no_update_location_response_sgsn00040258.LW
p521
aVtc_241_432_intra_rau_with_bearer_sgw_unchange_2_pdns_3gdt.LW
p522
aVtc_241_801_israu_interfering_context_request_no_cancel_location_s4.LW
p523
aVtc_326_303_Service_Request_with_unknown_STMSI_found_backup_in_itself_emergency_PDN.LW
p524
aVtc_326_407_Inter_TAU_Recovery_With_Active_Flag__No_Modify_Bearer_Response_After_TAU.LW
p525
aVtc_326_801_Service_Request_with_unknown_STMSI_Modify_Bearer_fail_Spontaneous_UL_failed_timeout.LW
p526
aVtc_250_105_ignore_IDR_when_EPS_sub_downgrade_GPRS_sub.LW
p527
aVtc_298_117_EF_NRSPCA_S4_Cancel_Location_subscriptionWithdraw.LW
p528
aVtc_103_701_MME_restarts.LW
p529
aVtc_103_1102_fallback_to_imsins_success.LW
p530
aVtc_12_134_attach_with_extended_mmumoc_iu_inactivity_timer.LW
p531
aVtc_23_13_israu_out.LW
p532
aVtc_282_012_deactivate_bearer_timeout_s1ap.LW
p533
aVtc_43_040_eNB_configuration_update_mf.L14b
p534
aVtc_277_020_tau_inter_old_with_eea3_eia3.L14b
p535
aVtc_276_045_Inter_TAU_New_MME__S1_Reset_while_waiting_for_Identity_Response__enhanced_imei_check.L14b
p536
aVtc_202_42_type_c_emergency_pdn_ecm_idle.L14b
p537
aVtc_218_207_0_TAU_from_SGSN__update_bearer_request_while_waiting_for_Create_Session_Resp.L14b
p538
aVtc_285_016_PDN_Connectivity__Handover_Required_while_pdn_disconnectivity.L14b
p539
aVtc_211_025_streamed_cell_trace_mapping_alarm_cease_ipv6.L14b
p540
aVtc_44_071_attach_long_imsi.L14b
p541
aVtc_44_841_mme_assoc_reestablish__device_restart_sbc.L14b
p542
aVtc_197_724_apn_oi_replacement_pdn_connectivity_succ_first_local_breakout_fail_then_try_apn_oi_replacement_then_try_default_oi.L14b
p543
aVtc_214_910_combined_tau_intra_insert_subscriber_data_interference.L14b
p544
aVtc_194_991_downlink_A21_AIS_during_waiting_location_report__idr_flags_ef.L14b
p545
aVtc_326_228_Intra_TAU_Recovery_fail_Authentication_timeout_from_HSS.L14b
p546
aVtc_326_273_Periodic_Intra_TAU_with_unknown_GUTI_after_combined_attach_Location_Update_timeout.L14b
p547
aVtc_326_337_Service_Request_with_unknown_STMSI_Update_Location_Answer_skip_SubData.L14b
p548
aVtc_284_351_pdn_connectivity_pb_activate_1_dedicated_bearer_interrupted_by_path_switch_request.L14b
p549
aVtc_273_005_tau_intra_deregistered.L14b
p550
aVtc_225_315_mt_call_active_mode_nas_non_delivery__cs_service_notification_meanwhile_handover_required.L14b
p551
aVtc_346_382_handover_inter_target_establish_sx_session_with_bearer_control_mode_sx_only.L14b
p552
aVtc_264_003_detach_normal_new_detach_normal.L14b
p553
aVtc_06_177_apnresolving_apnopid_hplmn_present_apn_redirect_no_default_apn.G14b
p554
aVtc_208_43_interception_after_small_restart.G14b
p555
aVtc_26_114_inter_srns_reloc_new_SGSN_ARP_old_not_support.W14b
p556
aVtc_236_041_s4_3gdt_detach_modify_bearer_response_reject_in_active_procedure.W14b
p557
aVtc_334_281_path_failure_service_req_af_multi_pdn_create_session_no_resp.W14b
p558
aVtc_250_150_isd_with_odb_init_deactivation.W14b
p559
aVtc_39_187_detach_trigger_re_attach_new_iu.W14b
p560
aVtc_241_159_israu_old_wait_for_sgsn_context_ack_interfere_by_reset_and_detach.W14b
p561
aVtc_166_132_israu_new_3gdt_apn_not_in_dns.WG14a
p562
aVtc_284_350_pdn_connectivity_interrupted_by_path_switch_request.LWG
p563
aVtc_275_073_tau_inter_new_no_update_location_response_sgsn00040258.LWG
p564
aVtc_38_80_intra_rau_new_rnc_with_authentication_wrong_ptmsi_signature.LWG
p565
aVtc_298_073_s4_nrspca_activate_same_nsapi_of_dedicated_bearer_rab_released.LWG
p566
aVtc_298_145_EF_NRSPCA_interfere_Activation.LWG
p567
aVtc_282_014_deactivate_bearers_timeout_nas_partially_ok.LWG
p568
aVtc_318_106_sgw_restart_mf_multi_ues.LWG
p569
aVtc_219_131_s3_handover_w_to_l_with_cl_two_pdns_one_failed_sgw_relocation.LWG
p570
aVtc_666_06_block_rt_board.LWG
p571
aVtc_44_071_attach_long_imsi.LWG
p572
aVtc_44_032_config_ep_2.LWG
p573
aVtc_44_004_small_restart__sctp_fe_restart.LWG
p574
aVtc_346_574_AF__HO_Intra_2PDN_MBR_failure_for_1PDN_terminate_sx.LWG
p575
aVtc_232_502_static_routes__ipv6_conf_deconf.LWG
p576
aVtc_232_507_static_routes__bfd_supervision_of_static_route_v6.LWG
p577
aVtc_327_026_recovery_intra_TAU__initial_Detach_Request_while_waiting_for_TAU_Complete.LWG
p578
aVtc_327_114_recovery_intra_TAU__Insert_Subscriber_Data_while_waiting_for_Ue_Backup_Response.LWG
p579
aVtc_327_153_recovery_intra_TAU_Delete_Bearer_Request_while_waiting_for_Modify_Bearer_Response.LWG
p580
aVtc_327_173_recovery_intra_TAU_SGSN_Context_Request_while_waiting_for_Initial_Context_Setup_Response.LWG
p581
aVtc_159_200_check_ctum_log.LWG
p582
aVtc_274_042_Intra_and_pTAU__Intra_TAU_other_ta_while_waiting_for_Ue_Release_Complete.LWG
p583
aVtc_273_683_tau_intra_SGW_unavailable_active_flag_off_after_MME_large_restart__two_pdn_one_bearer_status_0.LWG
p584
aVtc_273_661_tau_intra_periodic_SGW_unavailable_after_MME_large_restart__two_pdn_one_timeout.LWG
p585
aVtc_329_803_geored_intra_tau_rs_restricted_after_update_location.LWG
p586
aVtc_166_215_inter_irat_w_to_g_old_relocation_cancel_before_resp_recv.LWG
p587
aVtc_166_428_rnc_initiated_rab_release_interfered_by_rnc_initiated_iu_release_request.LWG
p588
aVtc_220_506_csfb_to_1xrtt_in_ecm_idle_service_request_wf_initial_context_setup_response.LWG
p589
aVtc_52_04_inter_old_srns_reloc_one_unstable_context.LWG
p590
aVtc_290_039_Timer_Based_GBR_Deact__s1_reset_wf_ue_context_release_complete_before_timer_expires.LWG
p591
aVtc_250_67_s6d_activation_with_EPS_data_s4_license_off.LWG
p592
aVtc_231_173_ms_init_detach_interfered_by_cancel_location_withdraw.LWG
p593
aVtc_194_100_check_gauge_unstable_not_parked.LWG
p594
aVtc_194_505_Notification_during_Intra_TAU_without_SGW_Relocation_HSS_Reset_Before_TAU.LWG
p595
aVtc_06_192_apn_redirect_subscription_multiple_match.LWG
p596
aVtc_05_024_gprs_ptmsi_attach_in_new_sgsn_reject_due_to_imsi_unknown.LWG
p597
aVtc_205_71_08_SCTP_OctetsChunksSent.LWG
p598
aVtc_257_10_pws_etws_write_replace_warning_request_feature_off.LWG
p599
aVtc_218_311_tau_from_sgsn_preserved_gbr_bearer_buffer_1_ubr_1_cbr.LWG
p600
aVtc_326_245_Intra_TAU_Recovery_TAU_Complete_timeout.LWG
p601
aVtc_326_213_Intra_TAU_Recovery_multiple_retrieval_responses_with_different_revision_number.LWG
p602
aVtc_326_211_Intra_TAU_with_unknown_GUTI_backup_no_vector_change_Replication_Option.LWG
p603
aVtc_183_005_itc_folder_file_names.LWG
p604
aVtc_297_407_move_at_periodic_rau.LWG
p605
aVtc_322_124_smooth_move_ef_cancel_location_wf_frcn.LWG
p606
aVtc_208_43_interception_after_small_restart.LWG
p607
aVtc_179_318_Ccheck_TraceCollectionIpv6server.LWG
p608
aVtc_44_860_mme_assoc_reestablish__sctp_fe_restart_s1_mme.LW
p609
aVtc_44_871_mme_assoc_reestablish__board_block_sbc.LW
p610
aVtc_304_215_inter_tau_same_ie_control_mode_threshold_exceeded_reject_wf_icsr.LW
p611
aVtc_342_066_x2_attach_detach_imsi_msisdn.LW
p612
aVtc_204_901_mme_eps_ho_target_insert_subscriber_data_with_odb_bit0_during_wf_tau_complete.LW
p613
aVtc_349_103_RAU_new_sgsn__Iu_Release_Req_while_waiting_for_CCA_initial.LW
p614
aVtc_225_321_mt_call_active_mode_nas_non_delivery__cs_service_notification__handover_required_meanwhile_CBR_received.LW
p615
aVtc_23_09_transfer_to_primary_and_change_vip_addr.LW
p616
aVtc_276_045_Inter_TAU_New_MME__S1_Reset_while_waiting_for_Identity_Response__enhanced_imei_check.LW
p617
aVtc_318_201_idle_deactivate_dedicated_bearers_one_by_one_reactivate_req.LW
p618
aVtc_202_41_type_a_emergency_pdn_ecm_idle.LW
p619
aVtc_326_243_Intra_TAU_Recovery_fail_default_bearer_fail_to_setup_SGW_Change.LW
p620
aVtc_326_409_Inter_TAU_Recovery_Backup_Option_otherSubpool.LW
p621
aVtc_11_217_activate_2_primary_same_ti_one_secondary_pdp_context_with_limitation_reject.LW
p622
aVtc_11_406_ggsn_deactivation_iu_satellite_hpa_on.LW
p623
aVtc_326_407_Inter_TAU_Recovery_With_Active_Flag__No_Modify_Bearer_Response_After_TAU.L14b
p624
aVtc_238_052_mme_eps_irat_ho_target__tau_request_during_wf_handover_notify.L14b
p625
aVtc_266_026_DownlinkDataFailureInd_repeat_paging_timer_small_local_restart.L14b
p626
aVtc_295_136_mo_call_during_s1_ho_tau_request_when_wf_handover_notify.L14b
p627
aVtc_276_045_Inter_TAU_New_MME__S1_Reset_while_waiting_for_Identity_Response__enhanced_imei_check.L14b
p628
aVtc_225_309_mt_call_interfered_by_S1HO_including_TAU.L14b
p629
aVtc_271_005_sctp_paging_olp_stop_discarding_paging_under_pagingOlpStartDiscardCpuThreshold.L14b
p630
aVtc_43_040_eNB_configuration_update_mf.L14b
p631
aVtc_194_991_downlink_A21_AIS_during_waiting_location_report__idr_flags_ef.L14b
p632
aVtc_304_114_initial_ue_intra_tau_control_mode_threshold_exceeded_usc_ignore_replace_s1.L14b
p633
aVtc_304_236_isc_active_flag_on_control_mode_threshold_exceeded_ignore_replace_s1_wf_initial_context_setup_response.L14b
p634
aVtc_346_447_AF__Intra_TAU_CCA_Update_unable_to_comply_5012.L14b
p635
aVtc_202_42_type_c_emergency_pdn_ecm_idle.L14b
p636
aVtc_262_203_guti_attach_when_unauthenticated_attached.L14b
p637
aVtc_208_43_interception_after_small_restart.G14b
p638
aVtc_06_170_activate_accept_pdptype0.G14b
p639
aVtc_322_161_smooth_move_ef_nas_after_paging_response_ignore.W14b
p640
aVtc_298_201_SIBD_S4_RAB_Release_3GDT_GTP_Resource_Unavailable.W14b
p641
aVtc_348_101_israu_mf__new_sgsn_multiple_pdp_with_sx.W14b
p642
aVtc_241_711_inter_rau_dedicate_bearer_feature_off_and_pgw_delete_bearer_after_rau.W14b
p643
aVtc_241_734_service_request_wf_modify_bearer_response_interfered_by_deactivate_pdp_context.W14b
p644
aVtc_334_254_service_req_multi_pdn_restart_counter_changed.W14b
p645
aVtc_44_841_mme_assoc_reestablish__device_restart_sbc.L14b
p646
aVtc_44_860_mme_assoc_reestablish__sctp_fe_restart_s1_mme.L14b
p647
aVtc_327_600_Inter_TAU_Recovery__Attach_Request_IMSI_while_waiting_for_ue_backup_retrieval_Response.L14b
p648
aVtc_304_114_initial_ue_intra_tau_control_mode_threshold_exceeded_usc_ignore_replace_s1.L14b
p649
aVtc_284_351_pdn_connectivity_pb_activate_1_dedicated_bearer_interrupted_by_path_switch_request.L14b
p650
aVtc_335_26_wifi_to_mobility_estimate_request_in_ecm_idle_emm_deregistered_state.L14b
p651
aVtc_306_1104_ef_seamless_move_target_ecm_idle_receive_sgs_paging_with_sms_indicator_wf_lua.L14b
p652
aVtc_202_02_ecm_idle_s1_release.L14b
p653
aVtc_202_41_type_a_emergency_pdn_ecm_idle.L14b
p654
aVtc_103_903_primary_or_secondary_realm_routing_own_realm.L14b
p655
aVtc_103_1007_secondary_dpl_set_and_then_emptied.L14b
p656
aVtc_103_1101_resending_AIR_interfering_CLR.L14b
p657
aVtc_276_045_Inter_TAU_New_MME__S1_Reset_while_waiting_for_Identity_Response__enhanced_imei_check.L14b
p658
aVtc_329_003_attach_rs_allowed_emergency_plmn_change_ula_fails.L14b
p659
aVtc_225_321_mt_call_active_mode_nas_non_delivery__cs_service_notification__handover_required_meanwhile_CBR_received.L14b
p660
aVtc_263_014_Attach_Flow__Attach_Request_New_S1_Auth_OK_while_waiting_for_Identity_Response.L14b
p661
aVtc_262_203_guti_attach_when_unauthenticated_attached.L14b
p662
aVtc_243_191_tau_from_sgsn_s3_no_update_location_response_and_receive_s1_reset.L14b
p663
aVtc_326_407_Inter_TAU_Recovery_With_Active_Flag__No_Modify_Bearer_Response_After_TAU.L14b
p664
aVtc_295_137_mt_call_during_s1_ho_tau_request_when_wf_handover_notify.L14b
p665
aVtc_266_011_DownlinkDataNotification_interfering_ISD_sgsn00026976.L14b
p666
aVtc_266_026_DownlinkDataFailureInd_repeat_paging_timer_small_local_restart.L14b
p667
aVtc_194_806_isd_private_extension_of_wi_denied_during_pdn_connectivity_request.L14b
p668
aVtc_194_187_hss_reset_after_large_restart_with_full_imsi.LW
p669
aVtc_214_161_hss_reset_mt_sms_while_wf_ms_activity.LW
p670
aVtc_47_001_imsi_attach_ap_loss.LW
p671
aVtc_298_317_EF_SIBD_S4_Create_Bearer_Request.LW
p672
aVtc_324_006_mf_ser_req_signaling_after_ack_3gdt.LW
p673
aVtc_324_131_af_service_request_data_isd_timeout_3gdt.LW
p674
aVtc_324_327_ef_service_req_data_direct_transfer_ingore.LW
p675
aVtc_44_850_mme_assoc_reestablish__board_restart_s1_mme.LW
p676
aVtc_44_871_mme_assoc_reestablish__board_block_sbc.LW
p677
aVtc_231_281_activate_pdp_request_ignore_during_s4_pdp_deactivating.LW
p678
aVtc_103_701_MME_restarts.LW
p679
aVtc_276_045_Inter_TAU_New_MME__S1_Reset_while_waiting_for_Identity_Response__enhanced_imei_check.LW
p680
aVtc_284_156_pdn_connectivity_pb_activate_dedicated_bearer_for_other_pdn.LW
p681
aVtc_284_351_pdn_connectivity_pb_activate_1_dedicated_bearer_interrupted_by_path_switch_request.LW
p682
aVtc_06_177_apnresolving_apnopid_hplmn_present_apn_redirect_no_default_apn.G14b
p683
aVtc_06_335_activate_pdp_context_with_qos_beyond_octet18.G14b
p684
aVtc_208_43_interception_after_small_restart.G14b
p685
aVtc_232_402_bfd__ipv6_alarm.LWG
p686
aVtc_232_511_static_routes__bfd_supervision_of_static_route_v6_on_Gom.LWG
p687
aVtc_232_204_bfd__multiplier_variations_ipv6.LWG
p688
aVtc_232_401_bfd__ipv4_alarm.LWG
p689
aVtc_278_140_Inter_TAU_Old_MME__Create_Bearer_Request_while_waiting_for_Context_Acknowledge.LWG
p690
aVtc_159_200_check_ctum_log.LWG
p691
aVtc_318_150_sgw_restart_af_invalid_restart_counter.LWG
p692
aVtc_207_023_ebm_server_connection_failure.LWG
p693
aVtc_103_831_DPR_cause_BUSY.LWG
p694
aVtc_326_251_Intra_TAU_with_unknown_GUTI_with_active_flag_then_s1_Intra_HO.LWG
p695
aVtc_326_267_Intra_TAU_with_unknown_GUTI_Restriction_2_pdn_SAU_license_limit_reached.LWG
p696
aVtc_326_407_Inter_TAU_Recovery_With_Active_Flag__No_Modify_Bearer_Response_After_TAU.LWG
p697
aVtc_273_670_tau_intra_SGW_unavailable_active_flag_off_after_MME_large_restart_main_flow.LWG
p698
aVtc_273_684_tau_intra_SGW_unavailable_active_flag_off_after_MME_large_restart__create_session_partition_fail.LWG
p699
aVtc_273_683_tau_intra_SGW_unavailable_active_flag_off_after_MME_large_restart__two_pdn_one_bearer_status_0.LWG
p700
aVtc_202_03_emm_deregistered_no_s1_release.LWG
p701
aVtc_202_40_emergency_pdn_ecm_connected.LWG
p702
aVtc_259_93_ef_provide_subscriber_information_service_request_w.LWG
p703
aVtc_231_173_ms_init_detach_interfered_by_cancel_location_withdraw.LWG
p704
aVtc_28_016_mt_sms_paging_request_no_response_mo_sms_inform_hlr.LWG
p705
aVtc_284_351_pdn_connectivity_pb_activate_1_dedicated_bearer_interrupted_by_path_switch_request.LWG
p706
aVtc_73_21_itc_gtpu_s4_sgsn_send_echo_request_w.LWG
p707
aVtc_257_22_pws_etws_stop_warning_request_with_unknown_tai.LWG
p708
aVtc_257_13_pws_etws_write_replace_warning_request_license_off.LWG
p709
aVtc_59_9_mtmsi_restart_counter.LWG
p710
aVtc_241_008_isc_new_without_bearer_security_mode_1.LWG
p711
aVtc_295_124_tau_after_ho_tz_change_emm_information_meanwhile_handover_required_HO_success.LWG
p712
aVtc_236_311_HO_over_S3_3GDT_switchback_ef_delete_bearer_request_received_wf_rab_assignment_response.LWG
p713
aVtc_250_67_s6d_activation_with_EPS_data_s4_license_off.LWG
p714
aVtc_44_871_mme_assoc_reestablish__board_block_sbc.LWG
p715
aVtc_329_203_inter_tau_new_rs_restricted_emergency.LWG
p716
aVtc_06_177_apnresolving_apnopid_hplmn_present_apn_redirect_no_default_apn.LWG
p717
aVtc_06_194_apn_redirect_subscription_visitor.LWG
p718
aVtc_244_049_mt_lr_cancel_location_with_subscription_withdraw_received_wf_location_report.LWG
p719
aVtc_276_022_Inter_TAU_New_MME__New_TAU_Request_while_waiting_for_Modify_Bearer_Response.LWG
p720
aVtc_289_031_Modify_bearer__Downlink_nas_transport_meanwhile_path_switch_request_HO_success.LWG
p721
aVtc_324_368_ef_cancel_location_with_updateProcedure_wf_modify_bearer_response_after_ula_hss.WG14a
p722
aVtc_32_23_attach_new_sgsn_waiting_for_attach_complete_from_ms_intrrupted_by_reset_from_rnc.LW
p723
aVtc_241_528_israu_old_during_20sec_ue_back_via_rau_request_without_bearer_s4.LW
p724
aVtc_257_38_pws_etws_stop_warning_request_license_off_when_olp_rshl_false.LW
p725
aVtc_44_871_mme_assoc_reestablish__board_block_sbc.LW
p726
aVtc_103_1004_secondary_dpl_used_when_all_peers_in_dpl_unavailable_no_sls.LW
p727
aVtc_342_924_x2_multiple_pdp_with_one_x2_connection.LW
p728
aVtc_346_1013_AF__seamless_move_target_2pdn_mbr_failure_terminate_sx.LW
p729
aVtc_276_045_Inter_TAU_New_MME__S1_Reset_while_waiting_for_Identity_Response__enhanced_imei_check.LW
p730
aVtc_36_151_ggsn_initiated_modification_with_imsi_tft.LW
p731
aVtc_348_162_israu_af__new_sgsn_ggsn_return_failure_cause_paritially.LW
p732
aVtc_306_194_ef_seamless_move_source_receive_path_switch_request_wf_frcn.LW
p733
aVtc_329_901_idr_rs_restrict_emergency_type_a.LW
p734
aVtc_305_040_oms_mmi.LWG
p735
aVtc_306_098_ef_seamless_move_source_receive_erab_release_indication_wf_modify_bearer_response.LWG
p736
aVtc_245_410_inter_rau_old_s4_sgsn_with_partial_tzcr_all_sncr.LWG
p737
aVtc_262_104_emergency_imsi_attach_node_sau_limit_reached.LWG
p738
aVtc_262_115_emergency_type_d_implicit_detach_timer.LWG
p739
aVtc_262_049_imsi_attach_roaming_restriction.LWG
p740
aVtc_262_103_emergency_imsi_attach_license_sau_limit_reached.LWG
p741
aVtc_298_783_S4_3GDT_downlink_data_notification_wait_MBR_ef_detach.LWG
p742
aVtc_214_1141_la_selection_mf_oldmscpreferred_prau_during_ue_restoration.LWG
p743
aVtc_214_1139_la_selection_mf_reselection_ptau_during_ue_restoration.LWG
p744
aVtc_214_1140_la_selection_mf_oldlapreferred_prau_during_ue_restoration.LWG
p745
aVtc_23_09_transfer_to_primary_and_change_vip_addr.LWG
p746
aVtc_342_146_update_one_of_two_targets_x2_x3_address_ccoutput.LWG
p747
aVtc_244_051_mt_lr_delete_bearer_request_received_wf_location_report.LWG
p748
aVtc_194_160_emergency_attach_ul_fails_rat_not_allowed.LWG
p749
aVtc_208_43_interception_after_small_restart.LWG
p750
aVtc_316_298_GUTI_Attach_Known_Large_Restart_Broadcast_Force_Delete_Among_Pool.LWG
p751
aVtc_261_08_tau_from_sgsn_s3_isd_voip_restricted_ga_cc90_cc91_imsins_cc91.LWG
p752
aVtc_159_200_check_ctum_log.LWG
p753
aVtc_260_124_mbms_session_stop_mf_cli_trigger_with_no_flowId.LWG
p754
aVtc_666_02_reboot_ss7_board.LWG
p755
aVtc_666_06_block_rt_board.LWG
p756
aVtc_218_311_tau_from_sgsn_preserved_gbr_bearer_buffer_1_ubr_1_cbr.LWG
p757
aVtc_009_001_attach_after_restart.LWG
p758
aVtc_232_502_static_routes__ipv6_conf_deconf.LWG
p759
aVtc_232_507_static_routes__bfd_supervision_of_static_route_v6.LWG
p760
aVtc_232_401_bfd__ipv4_alarm.LWG
p761
aVtc_232_402_bfd__ipv6_alarm.LWG
p762
aVtc_232_403_bfd__ipv4ipv6_alarm.LWG
p763
aVtc_232_503_static_routes__ipv4_ipv6_conf_deconf.LWG
p764
aVtc_327_015_recovery_intra_TAU__initial_Attach_Request_while_waiting_for_Update_Location_Response.LWG
p765
aVtc_327_014_recovery_intra_TAU__initial_Attach_Request_while_waiting_for_Modify_Bearer_Response.LWG
p766
aVtc_327_114_recovery_intra_TAU__Insert_Subscriber_Data_while_waiting_for_Ue_Backup_Response.LWG
p767
aVtc_327_163_recovery_intra_TAU_Context_Request_while_waiting_for_TAU_Complete.LWG
p768
aVtc_326_244_Intra_TAU_Recovery_fail_default_bearer_fail_to_setup.LWG
p769
aVtc_326_219_Intra_TAU_Recovery_then_rim_source_mme_gn_sgsn_selection_table_not_matched_dns_query_success.LWG
p770
aVtc_326_211_Intra_TAU_with_unknown_GUTI_backup_no_vector_change_Replication_Option.LWG
p771
aVtc_326_218_Intra_TAU_Recovery_two_PDN_partial_fail.LWG
p772
aVtc_326_213_Intra_TAU_Recovery_multiple_retrieval_responses_with_different_revision_number.LWG
p773
aVtc_326_270_Periodic_Intra_TAU_with_unknown_GUTI_then_Service_Request.LWG
p774
aVtc_326_272_Periodic_Intra_TAU_with_unknown_GUTI_after_combined_attach_then_MO_SMS.LWG
p775
aVtc_326_206_Intra_TAU_Recovery_with_old_GUTI.LWG
p776
aVtc_326_652_tau_intra_periodic_SGW_unavailable_after_MME_large_restart__with_static_SGW.LWG
p777
aVtc_326_680_tau_intra_SGW_unavailable_active_flag_off_after_MME_large_restart__two_pdn.LWG
p778
aVtc_231_281_activate_pdp_request_ignore_during_s4_pdp_deactivating.LWG
p779
aVtc_26_125_service_request_ARP.W14b
p780
aVtc_195_417_ue_trace_deactivate_trace_s1_intra_system_handover_triggered_HO_ongoing_timeout.L14b
p781
aVtc_43_040_eNB_configuration_update_mf.L14b
p782
aVtc_220_413_csfb_to_1xrtt_in_ecm_connected_handover_required_meanwhile_CBR_received.L14b
p783
aVtc_44_871_mme_assoc_reestablish__board_block_sbc.L14b
p784
aVtc_346_002_PGW_Selection__IMSI_Attach__PGW_FQDN_IPv6.L14b
p785
aVtc_193_042_attach_faulty_ksi.L14b
p786
aVtc_194_100_check_gauge_unstable_not_parked.L14b
p787
aVtc_194_991_downlink_A21_AIS_during_waiting_location_report__idr_flags_ef.L14b
p788
aVtc_202_01_ecm_connected_s1_release.L14b
p789
aVtc_202_17_service_request_during_release_access_bearers.L14b
p790
aVtc_202_42_type_c_emergency_pdn_ecm_idle.L14b
p791
aVtc_329_800_geored_intra_tau_rr_restricted_after_update_location.L14b
p792
aVtc_276_045_Inter_TAU_New_MME__S1_Reset_while_waiting_for_Identity_Response__enhanced_imei_check.L14b
p793
aVtc_208_43_interception_after_small_restart.G14b
p794
aVtc_26_001_activate_primary_Qos.W14b
p795
aVtc_250_150_isd_with_odb_init_deactivation.W14b
p796
aVtc_322_161_smooth_move_ef_nas_after_paging_response_ignore.W14b
p797
aVtc_225_321_mt_call_active_mode_nas_non_delivery__cs_service_notification__handover_required_meanwhile_CBR_received.LW
p798
aVtc_306_330_ef_mme_pool_ecm_connected_source_receive_path_switch_request_wf_release_access_bearers_response.LW
p799
aVtc_306_1210_ef_seamless_move_target_receive_s1_reset_wf_icsr_and_ulr.LW
p800
aVtc_306_1343_ef_seamless_move_target_receive_Insert_Subscription_Data_TADS_ecm_idle.LW
p801
aVtc_256_143_mme_eps_srvcc_ho_source_cs_only_initial_ue_extended_service_request_wf_srvcc_ps_to_cs_response.LW
p802
aVtc_324_121_af_service_request_with_data_only_ulr_timeout_3gdt.LW
p803
aVtc_318_132_sgw_restart_mf_relocation_triggered_by_service_request_multi_pdn.LW
p804
aVtc_326_212_Intra_TAU_Recovery_after_node_restart_Update_Location_timeout_TAU_Complete_timeout.LW
p805
aVtc_310_226_ef__Ue_Release_Request_wf_Delete_Bearer_Request.LW
p806
aVtc_32_75_test_transfer_2.LW
p807
aVtc_194_081_cl_subscription_withdrawn_during_auth.LW
p808
aVtc_103_1106_fallback_to_imsins_resend_success.LW
p809
aVtc_44_032_config_ep_2.LW
p810
aVtc_44_004_small_restart__sctp_fe_restart.LW
p811
aVtc_44_860_mme_assoc_reestablish__sctp_fe_restart_s1_mme.LW
p812
aVtc_316_240_Inter_MME_HO_SUT_As_Target_Relocation_Cancel_Before_Handover_Notify__No_UE_Backup.LW
p813
aVtc_316_408_IMSI_Attach__Backup_UE_then_feature_off_No_delete_when_detach.LW
p814
aVtc_316_297_Attach_Detach_Then_Inter_MME_TAU_New_MME__Buffer_List_Delete.LW
p815
aVtc_23_09_transfer_to_primary_and_change_vip_addr.LW
p816
aVtc_195_208_mme_logging_maximum_modify_eps_bearer_context.LW
p817
aVtc_211_025_streamed_cell_trace_mapping_alarm_cease_ipv6.LW
p818
aVtc_06_173_apnresolving_default_apn_hplmn_apn_criteria.G14b
p819
aVtc_06_191_apn_redirect_subscription_dont_log_cc33.G14b
p820
aVtc_208_150_dl_payload_imsi.LWG
p821
aVtc_208_43_interception_after_small_restart.LWG
p822
aVtc_327_015_recovery_intra_TAU__initial_Attach_Request_while_waiting_for_Update_Location_Response.LWG
p823
aVtc_327_030_recovery_intra_TAU__uplink_same_ie_intra_TAU_Request_while_waiting_for_Ue_Backup_Response.LWG
p824
aVtc_213_019_nrspca_start_of_interception.LWG
p825
aVtc_95_10_fingerprint.LWG
p826
aVtc_214_1139_la_selection_mf_reselection_ptau_during_ue_restoration.LWG
p827
aVtc_214_1140_la_selection_mf_oldlapreferred_prau_during_ue_restoration.LWG
p828
aVtc_275_060_tau_inter_new_pgw_node_name_missing_in_context_response.LWG
p829
aVtc_05_001_attach_97_gsim.LWG
p830
aVtc_183_005_itc_folder_file_names.LWG
p831
aVtc_250_105_ignore_IDR_when_EPS_sub_downgrade_GPRS_sub.LWG
p832
aVtc_232_402_bfd__ipv6_alarm.LWG
p833
aVtc_232_204_bfd__multiplier_variations_ipv6.LWG
p834
aVtc_231_113_rnc_reset_during_ms_act_si_ms_deact_rnc_contact.LWG
p835
aVtc_231_173_ms_init_detach_interfered_by_cancel_location_withdraw.LWG
p836
aVtc_329_203_inter_tau_new_rs_restricted_emergency.LWG
p837
aVtc_329_055_attach_rs_restricted_unknown_guti.LWG
p838
aVtc_306_1308_ef_seamless_move_target_buffer_update_bearer_request.LWG
p839
aVtc_289_031_Modify_bearer__Downlink_nas_transport_meanwhile_path_switch_request_HO_success.LWG
p840
aVtc_230_120_sgsn_init_detach_interfered_by_delete_bearer_request.LWG
p841
aVtc_194_506_Notification_during_Intra_MME_TAU_without_SGW_Relocation_Procedure.LWG
p842
aVtc_256_009_mme_eps_srvcc_ho_source_cs_only_mf_after_tau_after_x2_ho_with_srvcc_parameters_changed.LWG
p843
aVtc_297_030_ptmsi_attach_roaming_restriction_cc13.LWG
p844
aVtc_257_37_pws_etws_write_replace_warning_request_feature_off_when_olp_rshl_false.LWG
p845
aVtc_321_125_ptmsi_attach_identity_response.LWG
p846
aVtc_06_183_ms_init_modification_bckground_to_interactive.LWG
p847
aVtc_30_085_hlr_reset_after_subdata_read_from_cache.LWG
p848
aVtc_241_801_israu_interfering_context_request_no_cancel_location_s4.LWG
p849
aVtc_326_241_Intra_TAU_Recovery_Initial_Context_Setup_fail.LWG
p850
aVtc_326_274_Periodic_Intra_TAU_with_unknown_GUTI_old_SGW_unavailable.LWG
p851
aVtc_326_211_Intra_TAU_with_unknown_GUTI_backup_no_vector_change_Replication_Option.LWG
p852
aVtc_326_213_Intra_TAU_Recovery_multiple_retrieval_responses_with_different_revision_number.LWG
p853
aVtc_326_660_tau_intra_periodic_SGW_unavailable_after_MME_large_restart__two_pdn.LWG
p854
aVtc_326_682_tau_intra_SGW_unavailable_active_flag_off_after_MME_large_restart__two_pdn_one_fail.LWG
p855
aVtc_324_386_ef_mt_sms_wf_frcn_wf_frca_wf_ula.LWG
p856
aVtc_159_200_check_ctum_log.LWG
p857
aVtc_322_021_smooth_move_af_frr_with_service_not_supported.LWG
p858
aVtc_202_01_ecm_connected_s1_release.LWG
p859
aVtc_202_440_af_seamless_move_target_initialCtxSetupResponse_timeout_unsucc_ula.LWG
p860
aVtc_266_011_DownlinkDataNotification_interfering_ISD_sgsn00026976.L14b
p861
aVtc_266_020_DownlinkDataFailureInd_repeat_paging_timer_on.L14b
p862
aVtc_327_022_recovery_intra_TAU__initial_Detach_Request_while_waiting_for_Ue_Backup_Response.L14b
p863
aVtc_327_322_recovery_service_request__initial_Imsi_Attach_Request_while_waiting_for_Ue_Backup_Response.L14b
p864
aVtc_327_600_Inter_TAU_Recovery__Attach_Request_IMSI_while_waiting_for_ue_backup_retrieval_Response.L14b
p865
aVtc_44_071_attach_long_imsi.L14b
p866
aVtc_44_840_mme_assoc_reestablish__device_restart_s1_mme.L14b
p867
aVtc_44_871_mme_assoc_reestablish__board_block_sbc.L14b
p868
aVtc_347_301_mme_dedicated_bearer_deactivate__RAR_while_waiting_erab_release_response.L14b
p869
aVtc_238_077_mme_eps_irat_ho_target_sgw_relocation__ue_release_request_wf_handover_request_ack.L14b
p870
aVtc_306_053_ef_in_af_seamless_move_source_receive_cancel_location_update_wf_guti_reallocation_complete_af.L14b
p871
aVtc_194_506_Notification_during_Intra_MME_TAU_without_SGW_Relocation_Procedure.L14b
p872
aVtc_225_616_exp_flow_handover_required_intra_while_wf_modification_context_response.L14b
p873
aVtc_194_991_downlink_A21_AIS_during_waiting_location_report__idr_flags_ef.L14b
p874
aVtc_103_1101_resending_AIR_interfering_CLR.L14b
p875
aVtc_225_315_mt_call_active_mode_nas_non_delivery__cs_service_notification_meanwhile_handover_required.L14b
p876
aVtc_275_073_tau_inter_new_no_update_location_response_sgsn00040258.L14b
p877
aVtc_195_416_ue_trace_deactivate_trace_s1_intra_system_handover_triggered.L14b
p878
aVtc_43_040_eNB_configuration_update_mf.L14b
p879
aVtc_346_446_AF__Intra_TAU_CCA_Update_result_code_5003.L14b
p880
aVtc_266_302_Service_Request_SGW_unavailable__pool_geo_red_off.L14b
p881
aVtc_04_113_gprs_imsi_attach_success_with_roaming_restriction_cc90.G14b
p882
aVtc_06_170_activate_accept_pdptype0.G14b
p883
aVtc_06_177_apnresolving_apnopid_hplmn_present_apn_redirect_no_default_apn.G14b
p884
aVtc_304_236_isc_active_flag_on_control_mode_threshold_exceeded_ignore_replace_s1_wf_initial_context_setup_response.LWG
p885
aVtc_280_142_tz_change_create_bearer_intra_tau_active.LWG
p886
aVtc_262_022_imsi_attach_initial_context_setup_failure.LWG
p887
aVtc_209_38_cell_and_ra_update_new_sgsn.LWG
p888
aVtc_219_133_s3_handover_w_to_l_cl_time_out.LWG
p889
aVtc_214_1140_la_selection_mf_oldlapreferred_prau_during_ue_restoration.LWG
p890
aVtc_214_1141_la_selection_mf_oldmscpreferred_prau_during_ue_restoration.LWG
p891
aVtc_38_1_israu_new_sgsn_one_pdp_context.LWG
p892
aVtc_220_573_csfb_to_1xrtt_in_ecm_connected_extended_service_request_wf_ue_context_modification_response.LWG
p893
aVtc_23_13_israu_out.LWG
p894
aVtc_23_09_transfer_to_primary_and_change_vip_addr.LWG
p895
aVtc_327_036_recovery_intra_TAU__initial_intra_TAU_Request_while_waiting_for_Modify_Bearer_Response.LWG
p896
aVtc_236_307_Activation_DtSelMode_5_APN_requested_wrong_SGSN_default_APN_in_APN_list_TAC_in_TAC_list.LWG
p897
aVtc_298_654_pgw_init_modification_mf_3gdt_enable.LWG
p898
aVtc_298_783_S4_3GDT_downlink_data_notification_wait_MBR_ef_detach.LWG
p899
aVtc_326_210_Intra_TAU_combined_after_large_restart_after_EPS_attach.LWG
p900
aVtc_326_218_Intra_TAU_Recovery_two_PDN_partial_fail.LWG
p901
aVtc_326_233_Intra_TAU_Recovery_fail_Security_Mode_Reject_then_Reattach.LWG
p902
aVtc_326_245_Intra_TAU_Recovery_TAU_Complete_timeout.LWG
p903
aVtc_326_246_Intra_TAU_Recovery_fail_Modify_Bearer_fail_active_flag_SGW_Change.LWG
p904
aVtc_324_386_ef_mt_sms_wf_frcn_wf_frca_wf_ula.LWG
p905
aVtc_166_038_rnc_initiated_modify_ggsn_teid_change.LWG
p906
aVtc_166_129_activate_primary_3gdt_apn_r_empty_wildcard_hlr_entry.LWG
p907
aVtc_06_176_apnresolving_apnopid_hplmn_present_apn_redirect_dont_log_cc33.LWG
p908
aVtc_06_192_apn_redirect_subscription_multiple_match.LWG
p909
aVtc_159_200_check_ctum_log.LWG
p910
aVtc_208_43_interception_after_small_restart.LWG
p911
aVtc_261_11_isd_tads_intra_tau_home_voip_restricted_by_ga_cc91_imsins_cc90.LWG
p912
aVtc_297_123_inter_rau_new_with_imsi_transfered_s4_roaming_accept.LWG
p913
aVtc_232_502_static_routes__ipv6_conf_deconf.LWG
p914
aVtc_232_205_bfd__udp_port_no_ipv6.LWG
p915
aVtc_232_507_static_routes__bfd_supervision_of_static_route_v6.LWG
p916
aVtc_232_402_bfd__ipv6_alarm.LWG
p917
aVtc_194_007_cl_update_procedure_unknown_mme.LWG
p918
aVtc_194_084_hss_reset_after_large_restart.LWG
p919
aVtc_194_972_create_bearer_request_during_waiting_location_report__idr_flags_ef.LWG
p920
aVtc_59_9_mtmsi_restart_counter.LWG
p921
aVtc_666_02_reboot_ss7_board.LWG
p922
aVtc_666_03_block_ss7_board.LWG
p923
aVtc_305_040_oms_mmi.LWG
p924
aVtc_44_871_mme_assoc_reestablish__board_block_sbc.LWG
p925
aVtc_236_296_3gdt_switchback_with_gbr_bearer_iu_release_request_none_user_inactivity_received_received_wf_modify_bearer_response.W14b
p926
aVtc_322_161_smooth_move_ef_nas_after_paging_response_ignore.W14b
p927
aVtc_261_11_isd_tads_intra_tau_home_voip_restricted_by_ga_cc91_imsins_cc90.LW
p928
aVtc_52_12_inter_old_relocation_cancel_no_response.LW
p929
aVtc_289_031_Modify_bearer__Downlink_nas_transport_meanwhile_path_switch_request_HO_success.LW
p930
aVtc_38_81_intra_rau_new_rnc_with_authentication_no_ptmsi_signature.LW
p931
aVtc_341_802_x2_connection_heartbeat_test_x2_reconnect_due_to_activity_event.LW
p932
aVtc_103_1101_resending_AIR_interfering_CLR.LW
p933
aVtc_248_366_inter_l_to_w_new_two_pdns_rau_request_time_out_buffered_ubr_discarded.LW
p934
aVtc_195_208_mme_logging_maximum_modify_eps_bearer_context.LW
p935
aVtc_231_173_ms_init_detach_interfered_by_cancel_location_withdraw.LW
p936
aVtc_44_004_small_restart__sctp_fe_restart.LW
p937
aVtc_44_841_mme_assoc_reestablish__device_restart_sbc.LW
p938
aVtc_44_871_mme_assoc_reestablish__board_block_sbc.LW
p939
aVtc_262_1055_imsi_attach_with_csg_id_is_rejected.LW
p940
aVtc_220_043_csfb_to_1xrtt_in_ecm_idle_s1_reset_wf_initial_context_setup_response.LW
p941
aVtc_220_403_csfb_to_1xrtt_in_ecm_connected_path_switch_request_HO_success.LW
p942
aVtc_05_092_dp_transfer_new_worker.G14b
p943
aVtc_06_215_activate_reject_ms_99_gtp_99_unsupported_pdp_type_ipv6.G14b
p944
aVtc_23_09_transfer_to_primary_and_change_vip_addr.LW
p945
aVtc_202_10_downlink_data_during_paging.LW
p946
aVtc_275_073_tau_inter_new_no_update_location_response_sgsn00040258.LW
p947
aVtc_306_1308_ef_seamless_move_target_buffer_update_bearer_request.LW
p948
aVtc_241_500_israu_new_gn_to_s4_pdp_to_bearer_one_pdp_conversational_mbr_0.LW
p949
aVtc_241_801_israu_interfering_context_request_no_cancel_location_s4.LW
p950
aVtc_334_311_pgw_restart_after_s4_move_3gdt.LW
p951
aVtc_334_183_sgw_restart_af_multiple_pdn_deactivate_rab_release_no_response.LW
p952
aVtc_310_116_af__HO_Cancel_before_Response_from_MSC_after_Response_from_SGSN.LW
p953
aVtc_103_1004_secondary_dpl_used_when_all_peers_in_dpl_unavailable_no_sls.LW
p954
aVtc_333_100_af__OLP_Priority_after_UBR_rejected_due_to_qos_policy_check.LW
p955
aVtc_326_663_tau_intra_periodic_SGW_unavailable_after_MME_large_restart__two_pdn_one_bearer_status_0.LW
p956
aVtc_326_683_tau_intra_SGW_unavailable_active_flag_off_after_MME_large_restart__two_pdn_one_bearer_status_0.LW
p957
aVtc_214_028_combined_attach_interfering_s1_reset.L14b
p958
aVtc_266_026_DownlinkDataFailureInd_repeat_paging_timer_small_local_restart.L14b
p959
aVtc_220_411_csfb_to_1xrtt_in_ecm_connected_path_switch_request_subscription_cancelled.L14b
p960
aVtc_194_187_hss_reset_after_large_restart_with_full_imsi.L14b
p961
aVtc_327_022_recovery_intra_TAU__initial_Detach_Request_while_waiting_for_Ue_Backup_Response.L14b
p962
aVtc_327_312_recovery_service_request__initial_Attach_Request_while_waiting_for_Ue_Backup_Response.L14b
p963
aVtc_257_17_pws_etws_write_replace_warning_request_rejected_when_olp.L14b
p964
aVtc_262_1031_emergency_imsi_attach_multiple_pgw_try_next_pgw_fqdn_error.L14b
p965
aVtc_244_913_mt_lr_ecm_connected_connected_oriented_info_LPPa_wf_esmlc_response_and_mobility_stable_for_LPP.L14b
p966
aVtc_43_040_eNB_configuration_update_mf.L14b
p967
aVtc_346_447_AF__Intra_TAU_CCA_Update_unable_to_comply_5012.L14b
p968
aVtc_195_406_ue_trace_start_meanwhile_handover_required.L14b
p969
aVtc_207_023_ebm_server_connection_failure.WG14a
p970
aVtc_322_161_smooth_move_ef_nas_after_paging_response_ignore.WG14a
p971
aVtc_298_826_NRSPCA_S4_nsapi_collision_receiving_detach_request_while_waiting_for_delete_bearer_request.W14b
p972
aVtc_12_512_pmm_undefined_attach_when_updating_location_interfered_by_rnc_reset.W14b
p973
aVtc_359_152_handover_to_3gpp_with_isd_during_deregister.W14b
p974
aVtc_82_021_rab_modify_interrupted_by_israu.W14b
p975
aVtc_26_006_activate_secondary_Qos_traffic_class_conversational_interactive_subscribed.W14b
p976
aVtc_313_275_inter_new_srns_reloc_s16_with_sgw_change_downlink_data_notification_received_wf_rau_complete.LWG
p977
aVtc_327_151_recovery_intra_TAU_Create_Bearer_Request_while_waiting_for_Modify_Bearer_Response.LWG
p978
aVtc_327_036_recovery_intra_TAU__initial_intra_TAU_Request_while_waiting_for_Modify_Bearer_Response.LWG
p979
aVtc_327_520_recovery_service_request__IMEI_check_failed_while_waiting_for_Sub_Procedure__Initial_Context_Setup_Response.LWG
p980
aVtc_296_033_ANR_Support__eNodeB_Configuration_Transfer_request_flow_with_16_gtp_addresses.LWG
p981
aVtc_06_174_apnresolving_vplmn_not_allowed_subscribed_apn_hplmn_apn_criteria_si.LWG
p982
aVtc_06_185_apnresolving_vplmn_not_allowed_subscribed_apn_hplmn_apn_criteria_cc.LWG
p983
aVtc_250_67_s6d_activation_with_EPS_data_s4_license_off.LWG
p984
aVtc_262_1055_imsi_attach_with_csg_id_is_rejected.LWG
p985
aVtc_666_02_reboot_ss7_board.LWG
p986
aVtc_316_299_GUTI_Attach_UnKnown_GUTI_Not_In_Pool_No_Broadcast_Force_Delete_Among_Pool.LWG
p987
aVtc_05_013_gprs_imsi_attach_ms99_usim_gea2.LWG
p988
aVtc_159_200_check_ctum_log.LWG
p989
aVtc_103_831_DPR_cause_BUSY.LWG
p990
aVtc_103_904_relay_node_S6a_S13.LWG
p991
aVtc_220_401_csfb_to_1xrtt_in_ecm_connected_ue_context_modification_failure_interaction_with_other_procedure_HO_undetected.LWG
p992
aVtc_326_241_Intra_TAU_Recovery_Initial_Context_Setup_fail.LWG
p993
aVtc_326_274_Periodic_Intra_TAU_with_unknown_GUTI_old_SGW_unavailable.LWG
p994
aVtc_326_290_Intra_TAU_with_unknown_GUTI_with_SGW_Change.LWG
p995
aVtc_326_207_Intra_TAU_Recovery_with_1xrtt_cs_registration_then_CSFB_to_1xrtt.LWG
p996
aVtc_326_263_Intra_TAU_with_unknown_GUTI_Restriction_2_pdn_roaming_restriction_emergency_pdn_recovered.LWG
p997
aVtc_326_671_tau_intra_SGW_unavailable_active_flag_off_after_MME_large_restart__with_emergency_PDN.LWG
p998
aVtc_326_658_tau_intra_periodic_SGW_unavailable_after_MME_large_restart__create_session_fail_reselect_SGW.LWG
p999
aVtc_202_362_mf_seamless_move_by_ue_5_subscribers_2_target_mmes.LWG
p1000
aVtc_273_503_TAU_intra_SGW_unavailable__DNS_only_response_unavailable_SGW.LWG
p1001
aVtc_273_305_tau_intra_emergency_ongoing_no_selective_aka.LWG
p1002
aVtc_273_603_tau_intra_periodic_SGW_unavailable__with_unavailable_SGW_as_static_SGW.LWG
p1003
aVtc_231_173_ms_init_detach_interfered_by_cancel_location_withdraw.LWG
p1004
aVtc_59_9_mtmsi_restart_counter.LWG
p1005
aVtc_232_403_bfd__ipv4ipv6_alarm.LWG
p1006
aVtc_232_402_bfd__ipv6_alarm.LWG
p1007
aVtc_232_511_static_routes__bfd_supervision_of_static_route_v6_on_Gom.LWG
p1008
aVtc_232_204_bfd__multiplier_variations_ipv6.LWG
p1009
aVtc_232_508_static_routes__bfd_supervision_of_static_route_v4_v6.LWG
p1010
aVtc_297_433_intra_rau_auth_interrupted_by_context_req.LWG
p1011
aVtc_194_506_Notification_during_Intra_MME_TAU_without_SGW_Relocation_Procedure.LWG
p1012
aVtc_194_187_hss_reset_after_large_restart_with_full_imsi.LWG
p1013
aVtc_08_021_fragment_gn_gb_packet.LWG
p1014
aVtc_208_43_interception_after_small_restart.LWG
p1015
aVtc_275_118_tau_inter_new_emergency_erroneous_ie_authenticated_no_imsi.LWG
p1016
aVtc_275_073_tau_inter_new_no_update_location_response_sgsn00040258.LWG
p1017
aVtc_275_002_tau_inter_new_no_response_from_old_mme.LWG
p1018
aVtc_23_09_transfer_to_primary_and_change_vip_addr.LWG
p1019
aVtc_183_005_itc_folder_file_names.LWG
p1020
aVtc_298_317_EF_SIBD_S4_Create_Bearer_Request.LWG
p1021
a.