(lp0
Vtc_194_991_downlink_A21_AIS_during_waiting_location_report__idr_flags_ef.LWG
p1
aVtc_275_073_tau_inter_new_no_update_location_response_sgsn00040258.LWG
p2
aVtc_214_1126_la_selection_mf_oldlapreferred_combined_intra_tau_after_imsi_detach_triggered_by_sgs_paging.LWG
p3
aVtc_329_802_geored_intra_tau_rs_allowed_hrl_eqplmns.LWG
p4
aVtc_305_057_oms_mmi_hwm.LWG
p5
aVtc_39_127_intra_rau_move_same_rau_new_ra.LWG
p6
aVtc_06_175_apnresolving_apnopid_hplmn_present_apn_redirect_log_cc33.LWG
p7
aVtc_06_193_apn_redirect_subscription_no_type_match.LWG
p8
aVtc_211_014_streamed_cell_trace_mapping_alarm.LWG
p9
aVtc_263_252_Attach_Flow__Attach_Request_with_diff_IE_while_waiting_for_identity_response__enhanced_imei_check.LWG
p10
aVtc_232_502_static_routes__ipv6_conf_deconf.LWG
p11
aVtc_232_503_static_routes__ipv4_ipv6_conf_deconf.LWG
p12
aVtc_257_17_pws_etws_write_replace_warning_request_rejected_when_olp.LWG
p13
aVtc_241_159_israu_old_wait_for_sgsn_context_ack_interfere_by_reset_and_detach.LWG
p14
aVtc_241_495_israu_new_gn_to_s4_pdp_to_bearer_with_10_secondary_pdp.LWG
p15
aVtc_666_02_reboot_ss7_board.LWG
p16
aVtc_666_06_block_rt_board.LWG
p17
aVtc_326_380_Service_Request_with_unknown_STMSI_multiple_retrieve_responses.LWG
p18
aVtc_326_290_Intra_TAU_with_unknown_GUTI_with_SGW_Change.LWG
p19
aVtc_326_270_Periodic_Intra_TAU_with_unknown_GUTI_then_Service_Request.LWG
p20
aVtc_326_670_tau_intra_SGW_unavailable_active_flag_off_after_MME_large_restart_main_flow.LWG
p21
aVtc_326_682_tau_intra_SGW_unavailable_active_flag_off_after_MME_large_restart__two_pdn_one_fail.LWG
p22
aVtc_326_684_tau_intra_SGW_unavailable_active_flag_off_after_MME_large_restart__create_session_partition_fail.LWG
p23
aVtc_326_837_Intra_TAU_Recovery_after_Node_Restart_SGW_Change_active_flag_on_no_modify_bearer_response_two_pdn.LWG
p24
aVtc_26_141_intra_g_to_w_VPLMN_ARP.LWG
p25
aVtc_327_008_recovery_intra_TAU__uplink_Attach_Request_while_waiting_for_Initial_Context_Setup_Response.LWG
p26
aVtc_327_034_recovery_intra_TAU__initial_intra_TAU_Request_while_waiting_for_Ue_Backup_Response.LWG
p27
aVtc_327_023_recovery_intra_TAU__initial_Detach_Request_while_waiting_for_Create_Session_Response.LWG
p28
aVtc_327_036_recovery_intra_TAU__initial_intra_TAU_Request_while_waiting_for_Modify_Bearer_Response.LWG
p29
aVtc_327_225_recovery_service_request__Delete_Subscriber_Data_while_waiting_for_Create_Session_Response.LWG
p30
aVtc_327_352_recovery_service_request__initial_intra_TAU_while_waiting_for_Ue_Backup_Response.LWG
p31
aVtc_197_601_roaming_s4_activate_pdp_sgw_selection_lbo_allowed_for_all_apns.LWG
p32
aVtc_43_101__removal_of_disconnected_eNodeBs__CLI_removal.LWG
p33
aVtc_298_207_SIBD_S4_Service_Request_PDP_Context_Status_idle.LWG
p34
aVtc_289_017_Modify_bearer__ERAB_modify_request_meanwhile_path_switch_request_HO_success.LWG
p35
aVtc_289_047_Modify_bearer__ERAB_modify_response_s1_intra_system_handover_triggered_activate_dedicated_bearer_one_pdn_multiple_bearer.LWG
p36
aVtc_179_318_Ccheck_TraceCollectionIpv6server.LWG
p37
aVtc_44_032_config_ep_2.LWG
p38
aVtc_282_114_mme_initiated_deactivate_bearer_1_of_2_default_bearer.LWG
p39
aVtc_159_200_check_ctum_log.LWG
p40
aVtc_348_021_deactivation__ms_init_modification_rnc_release.W14b
p41
aVtc_245_340_israu_new_l_to_w_with_GBR_dedicated_bearer_ipv6_3gdt.W14b
p42
aVtc_79_036_israu_new_streaming_context_MBR_not_zero_service_request.W14b
p43
aVtc_248_122_inter_l_to_w_new_detach_request_direct_transfer_received_wf_forward_relocation_complete_ack.W14b
p44
aVtc_12_180_wcdma_repeat_paging_default.W14b
p45
aVtc_322_161_smooth_move_ef_nas_after_paging_response_ignore.WG14a
p46
aVtc_39_129_intra_rau_move_same_rau_new_iu.LW
p47
aVtc_194_078_cl_update_procedure_during_ul.LW
p48
aVtc_194_173_hss_reset_ue_activity_bearer_modification.LW
p49
aVtc_28_031_mt_sms_imei_check_black_listed_during_mt_sms.LW
p50
aVtc_204_012_mme_eps_handover_target_inter_main_flow_visiting_ue_coming_from_other_plmn.LW
p51
aVtc_329_203_inter_tau_new_rs_restricted_emergency.LW
p52
aVtc_202_41_type_a_emergency_pdn_ecm_idle.LW
p53
aVtc_578_32_check_ebm_para_statistics_ue_return_duration.LW
p54
aVtc_310_244_ef__S1_Reset_wf_FR_Complete_PS_to_CS_Complete_received.LW
p55
aVtc_12_150_service_auth_res_failure_transfer_authentication_ok.LW
p56
aVtc_236_181_hard_ho_intra_rau_with_3gdt_wf_release_access_bearer_resp_si_cancel_location_update.LW
p57
aVtc_241_405_israu_new_with_16m_flag_allowed_in_context_response_and_epc_cap_in_rau_req_transfer_to_new_tcw.LW
p58
aVtc_241_710_intra_rau_dedicate_bearer_update_failed_and_pgw_delete_bearer_after_rau.LW
p59
aVtc_298_074_s4_nrspca_activate_same_nsapi_of_dedicated_bearer_apn_failed.LW
p60
aVtc_11_489_activate_ipv4v6_visitor_requested_ipv4v6_subscribed_ipv4v6_aifav_false_aifv_true.LW
p61
aVtc_276_045_Inter_TAU_New_MME__S1_Reset_while_waiting_for_Identity_Response__enhanced_imei_check.LW
p62
aVtc_318_201_idle_deactivate_dedicated_bearers_one_by_one_reactivate_req.LW
p63
aVtc_196_172_nrspca_during_t3385_when_receive_sgsn_context_ack_not_accepted.LW
p64
aVtc_eabln37805_deactivate_after_detach.G14b
p65
aVtc_06_180_israu_AACE_enabled.G14b
p66
aVtc_340_110_ef_g_gn_pRAU_trigger_interfering_rau_request_wf_rau_complete.G14b
p67
aVtc_44_004_small_restart__sctp_fe_restart.L14b
p68
aVtc_44_071_attach_long_imsi.L14b
p69
aVtc_44_871_mme_assoc_reestablish__board_block_sbc.L14b
p70
aVtc_261_45_isd_ef_during_intra_mme_handover_with_ta_change.L14b
p71
aVtc_266_020_DownlinkDataFailureInd_repeat_paging_timer_on.L14b
p72
aVtc_266_026_DownlinkDataFailureInd_repeat_paging_timer_small_local_restart.L14b
p73
aVtc_276_045_Inter_TAU_New_MME__S1_Reset_while_waiting_for_Identity_Response__enhanced_imei_check.L14b
p74
aVtc_103_009_prioritized_peer_realm_routing_rule_not_handled_by_peer.L14b
p75
aVtc_103_023_modify_diameter_peer_change_peer_number.L14b
p76
aVtc_202_43_type_d_emergency_pdn_ecm_idle.L14b
p77
aVtc_43_040_eNB_configuration_update_mf.L14b
p78
aVtc_268_060_Timer_Based_GBR_Deact__Detach_Request_Initial_UE_before_Timer_Expires.L14b
p79
aVtc_304_020_intruder_imsi_attach_when_correct_ue_attaching__control_mode_threshold_exceeded_usc_reject_congestion.L14b
p80
aVtc_304_103_emergency_intra_tau_success__control_mode_threshold_not_reached.L14b
p81
aVtc_275_144_tau_inter_new_context_response_integrity_failure_twice.L14b
p82
aVtc_346_301_Combination__PGW_Selection_UserLocationChange.L14b
p83
aVtc_27_013_mt_sms_update_location_after_large_restart.LWG
p84
aVtc_159_200_check_ctum_log.LWG
p85
aVtc_214_006_combined_attach_implicit_detach_timer_expiry.LWG
p86
aVtc_231_173_ms_init_detach_interfered_by_cancel_location_withdraw.LWG
p87
aVtc_194_991_downlink_A21_AIS_during_waiting_location_report__idr_flags_ef.LWG
p88
aVtc_44_871_mme_assoc_reestablish__board_block_sbc.LWG
p89
aVtc_208_43_interception_after_small_restart.LWG
p90
aVtc_05_024_gprs_ptmsi_attach_in_new_sgsn_reject_due_to_imsi_unknown.LWG
p91
aVtc_327_031_recovery_intra_TAU__uplink_same_ie_intra_TAU_Request_while_waiting_for_Create_Session_Response.LWG
p92
aVtc_327_026_recovery_intra_TAU__initial_Detach_Request_while_waiting_for_TAU_Complete.LWG
p93
aVtc_327_163_recovery_intra_TAU_Context_Request_while_waiting_for_TAU_Complete.LWG
p94
aVtc_327_220_recovery_service_request__Insert_Subscriber_Data_while_waiting_for_Create_Session_Response.LWG
p95
aVtc_327_225_recovery_service_request__Delete_Subscriber_Data_while_waiting_for_Create_Session_Response.LWG
p96
aVtc_361_410_s3_handover_l_to_w_s1rh_timeout_without_cl.LWG
p97
aVtc_361_510_rau_l_to_w_S4SGSN_check_old_qos_failed_node_function_deactivate_pdp_after_rau_on.LWG
p98
aVtc_324_152_af_rab_assignment_resp_downgrade_qos_dedicated_bearer_3gdt_rab_partially_setup.LWG
p99
aVtc_666_06_block_rt_board.LWG
p100
aVtc_326_210_Intra_TAU_combined_after_large_restart_after_EPS_attach.LWG
p101
aVtc_326_219_Intra_TAU_Recovery_then_rim_source_mme_gn_sgsn_selection_table_not_matched_dns_query_success.LWG
p102
aVtc_326_274_Periodic_Intra_TAU_with_unknown_GUTI_old_SGW_unavailable.LWG
p103
aVtc_326_270_Periodic_Intra_TAU_with_unknown_GUTI_then_Service_Request.LWG
p104
aVtc_232_402_bfd__ipv6_alarm.LWG
p105
aVtc_232_403_bfd__ipv4ipv6_alarm.LWG
p106
aVtc_232_204_bfd__multiplier_variations_ipv6.LWG
p107
aVtc_232_503_static_routes__ipv4_ipv6_conf_deconf.LWG
p108
aVtc_232_508_static_routes__bfd_supervision_of_static_route_v4_v6.LWG
p109
aVtc_59_9_mtmsi_restart_counter.LWG
p110
aVtc_236_073_hard_ho_intra_rau_with_3gdt_bearer_sgw_nochange_without_seq.LWG
p111
aVtc_165_10_check_resource_alarms_ap.LWG
p112
aVtc_73_41_gtpu_sgsn_dont_send_gpu_echo_request_w.LWG
p113
aVtc_202_431_mf_seamless_move_target_service_request_modifyBearerReq_onePdnMultiBearer_oneBearerFail.LWG
p114
aVtc_220_623_Extended_Service_Request__HSS_Reset_while_waiting_for_Initial_Context_Setup_Response.LWG
p115
aVtc_276_045_Inter_TAU_New_MME__S1_Reset_while_waiting_for_Identity_Response__enhanced_imei_check.L14b
p116
aVtc_304_121_initial_ue_intra_tau_control_mode_threshold_exceeded_usc_detach_wf_release_request_response.L14b
p117
aVtc_47_001_imsi_attach_ap_loss.L14b
p118
aVtc_347_250_UE_initiated_detach__location_report_while_waiting_for_delete_session_response_ue_context_release_complete.L14b
p119
aVtc_284_351_pdn_connectivity_pb_activate_1_dedicated_bearer_interrupted_by_path_switch_request.L14b
p120
aVtc_103_011_disconnect_peer.L14b
p121
aVtc_103_203_send_to_peer.L14b
p122
aVtc_43_040_eNB_configuration_update_mf.L14b
p123
aVtc_194_505_Notification_during_Intra_TAU_without_SGW_Relocation_HSS_Reset_Before_TAU.L14b
p124
aVtc_194_1011_normal_attach_insert_odb_detach_with_cause_of_reattach_not_required_with_not_allowed_apn_in_odb_free_apn_list__odb_bit0.L14b
p125
aVtc_194_991_downlink_A21_AIS_during_waiting_location_report__idr_flags_ef.L14b
p126
aVtc_292_060_x2_handover_type_a_new_plmn_roaming_restricted_emc_sup_same_profile.L14b
p127
aVtc_44_850_mme_assoc_reestablish__board_restart_s1_mme.L14b
p128
aVtc_23_13_israu_out.LW
p129
aVtc_219_131_s3_handover_w_to_l_with_cl_two_pdns_one_failed_sgw_relocation.LW
p130
aVtc_220_411_csfb_to_1xrtt_in_ecm_connected_path_switch_request_subscription_cancelled.LW
p131
aVtc_44_871_mme_assoc_reestablish__board_block_sbc.LW
p132
aVtc_341_512_x2_activity_event_attached_user_notification_multi_pdn.LW
p133
aVtc_292_152_x2_handover_emc_type_c_hss_reset.LW
p134
aVtc_231_102_hlr_cancel_location_after_create_session_s4.LW
p135
aVtc_324_386_ef_mt_sms_wf_frcn_wf_frca_wf_ula.LW
p136
aVtc_304_215_inter_tau_same_ie_control_mode_threshold_exceeded_reject_wf_icsr.LW
p137
aVtc_196_172_nrspca_during_t3385_when_receive_sgsn_context_ack_not_accepted.LW
p138
aVtc_298_301_EF_SIBD_S4_Activate_From_MS_TI_Flag.LW
p139
aVtc_298_317_EF_SIBD_S4_Create_Bearer_Request.LW
p140
aVtc_103_850_error_code_DIAMETER_REALM_NOT_SERVED.LW
p141
aVtc_103_1146_sx_resend__CCR_T_retransmit_but_no_resending.LW
p142
aVtc_103_602_georedundant_realm_routing.LW
p143
aVtc_12_512_pmm_undefined_attach_when_updating_location_interfered_by_rnc_reset.W14b
p144
aVtc_245_340_israu_new_l_to_w_with_GBR_dedicated_bearer_ipv6_3gdt.W14b
p145
aVtc_28_052_mo_sms_homer_block_visiting_redirection.W14b
p146
aVtc_241_711_inter_rau_dedicate_bearer_feature_off_and_pgw_delete_bearer_after_rau.W14b
p147
aVtc_231_113_rnc_reset_during_ms_act_si_ms_deact_rnc_contact.W14b
p148
aVtc_26_075_ms_initiated_pdp_context_modification_streaming_tft.W14b
p149
aVtc_39_187_detach_trigger_re_attach_new_iu.W14b
p150
aVtc_342_858_online_change_tneId.W14b
p151
aVtc_297_434_intra_rau_intra_plmn_mocnForcedCoordRoamers_off_no_cs_ps_coord.G14b
p152
aVtc_04_110_gprs_imsi_attach_unknown_subscriber.G14b
p153
aVtc_06_184_apnresolving_default_apn_hplmn_apn_criteria_cc.G14b
p154
aVtc_96_051_intra_EF_interfering_identical_psho_required.G14b
p155
aVtc_208_43_interception_after_small_restart.G14b
p156
aVtc_322_161_smooth_move_ef_nas_after_paging_response_ignore.WG14a
p157
aVtc_307_040_HSS_Init_QoS_Modification__RFSP_ARP_changed__Restoration_triggered_by_service_request.L14b
p158
aVtc_329_003_attach_rs_allowed_emergency_plmn_change_ula_fails.L14b
p159
aVtc_327_012_recovery_intra_TAU__initial_Attach_Request_while_waiting_for_Ue_Backup_Response.L14b
p160
aVtc_103_023_modify_diameter_peer_change_peer_number.L14b
p161
aVtc_103_1101_resending_AIR_interfering_CLR.L14b
p162
aVtc_195_208_mme_logging_maximum_modify_eps_bearer_context.L14b
p163
aVtc_195_417_ue_trace_deactivate_trace_s1_intra_system_handover_triggered_HO_ongoing_timeout.L14b
p164
aVtc_202_40_emergency_pdn_ecm_connected.L14b
p165
aVtc_44_840_mme_assoc_reestablish__device_restart_s1_mme.L14b
p166
aVtc_203_004_mme_eps_handover_source_inter__no_cancel_location.LW
p167
aVtc_196_172_nrspca_during_t3385_when_receive_sgsn_context_ack_not_accepted.LW
p168
aVtc_346_382_handover_inter_target_establish_sx_session_with_bearer_control_mode_sx_only.LW
p169
aVtc_231_113_rnc_reset_during_ms_act_si_ms_deact_rnc_contact.LW
p170
aVtc_231_173_ms_init_detach_interfered_by_cancel_location_withdraw.LW
p171
aVtc_304_029_guti_attach_reject__control_mode_threshold_exceeded_then_action_stop.LW
p172
aVtc_23_09_transfer_to_primary_and_change_vip_addr.LW
p173
aVtc_274_044_Intra_and_pTAU__Intra_TAU_other_ta_while_waiting_for_TAU_Complete.LW
p174
aVtc_298_145_EF_NRSPCA_interfere_Activation.LW
p175
aVtc_202_01_ecm_connected_s1_release.LW
p176
aVtc_194_080_cl_update_procedure_during_auth.LW
p177
aVtc_194_991_downlink_A21_AIS_during_waiting_location_report__idr_flags_ef.LW
p178
aVtc_257_19_pws_etws_resend_write_replace_warning_request_with_ta_list.LW
p179
aVtc_257_13_pws_etws_write_replace_warning_request_license_off.LW
p180
aVtc_208_43_interception_after_small_restart.G14b
p181
aVtc_666_02_reboot_ss7_board.LWG
p182
aVtc_666_06_block_rt_board.LWG
p183
aVtc_306_1333_ef_seamless_move_target_receive_cli_delete_subscriber_wf_ula.LWG
p184
aVtc_257_11_pws_etws_stop_warning_request_feature_off.LWG
p185
aVtc_23_09_transfer_to_primary_and_change_vip_addr.LWG
p186
aVtc_26_083_israu_streaming_stand_alone_no_rnc_support.LWG
p187
aVtc_241_1636_israu_new_modify_bearer_response_timeout_followed_by_ms_init_deac.LWG
p188
aVtc_578_02_check_parse_ebm_and_ci_eci_w.LWG
p189
aVtc_578_33_check_ebm_para_statistics_enb_sn.LWG
p190
aVtc_159_200_check_ctum_log.LWG
p191
aVtc_208_43_interception_after_small_restart.LWG
p192
aVtc_232_205_bfd__udp_port_no_ipv6.LWG
p193
aVtc_232_507_static_routes__bfd_supervision_of_static_route_v6.LWG
p194
aVtc_232_204_bfd__multiplier_variations_ipv6.LWG
p195
aVtc_38_321_israu_new_sgsn_one_ipv4v6_pdp_type_daf_not_support.LWG
p196
aVtc_198_002_TEID.LWG
p197
aVtc_198_001_UDPPort.LWG
p198
aVtc_198_004_TLLI.LWG
p199
aVtc_198_003_FlowLabel.LWG
p200
aVtc_198_009_S102FixedPort.LWG
p201
aVtc_198_008_GTPUEchoReq.LWG
p202
aVtc_198_007_GTPUError.LWG
p203
aVtc_198_006_TCPPort.LWG
p204
aVtc_198_012_TCPFragments.LWG
p205
aVtc_198_011_UDPFragments.LWG
p206
aVtc_198_014_SCTPv4ToInvalidIndex.LWG
p207
aVtc_198_013_SCTPv4ToAllValidIndex.LWG
p208
aVtc_198_016_SCTPv4IndexEntry00.LWG
p209
aVtc_198_017_SCTPv4EmptyIndexMap.LWG
p210
aVtc_198_018_ICMPv4DstUnreachSCTP.LWG
p211
aVtc_198_019_ICMPv4EchoReq.LWG
p212
aVtc_198_035_SCTPv6ToAllValidIndex.LWG
p213
aVtc_198_038_SCTPv6IndexEntry00.LWG
p214
aVtc_198_039_SCTPv6EmptyIndexMap.LWG
p215
aVtc_198_040_ICMPv6DstUnreachGTPv2.LWG
p216
aVtc_198_042_ICMPv6EchoResp.LWG
p217
aVtc_198_043_ICMPv6DstUnreachSCTP.LWG
p218
aVtc_198_045_ICMPv6DstUnreachTCPv6Port.LWG
p219
aVtc_198_051_IPv6_traffic_flow.LWG
p220
aVtc_198_050_IPv4_traffic_flow.LWG
p221
aVtc_198_053_IPv6_traffic_flow_multiple_vpn.LWG
p222
aVtc_198_055_IPv6_load_sharing.LWG
p223
aVtc_198_056_IPv4_route_selection.LWG
p224
aVtc_198_057_IPv6_route_selection.LWG
p225
aVtc_198_036_SCTPv6ToInvalidIndex.LWG
p226
aVtc_198_054_IPv4_load_sharing.LWG
p227
aVtc_198_060_TCPv6Port.LWG
p228
aVtc_198_061_TCPUDPPortToNCB_IPv6.LWG
p229
aVtc_214_1141_la_selection_mf_oldmscpreferred_prau_during_ue_restoration.LWG
p230
aVtc_326_207_Intra_TAU_Recovery_with_1xrtt_cs_registration_then_CSFB_to_1xrtt.LWG
p231
aVtc_326_290_Intra_TAU_with_unknown_GUTI_with_SGW_Change.LWG
p232
aVtc_326_661_tau_intra_periodic_SGW_unavailable_after_MME_large_restart__two_pdn_one_timeout.LWG
p233
aVtc_56_2_restart.LWG
p234
aVtc_327_024_recovery_intra_TAU__initial_Detach_Request_while_waiting_for_Modify_Bearer_Response.LWG
p235
aVtc_327_225_recovery_service_request__Delete_Subscriber_Data_while_waiting_for_Create_Session_Response.LWG
p236
aVtc_316_298_GUTI_Attach_Known_Large_Restart_Broadcast_Force_Delete_Among_Pool.LWG
p237
aVtc_251_52_tau_w_to_l_odb_bit0_detach.LWG
p238
aVtc_166_334_activate_fail_interrupted_by_deactivate_req_when_updating_in_GGSN.LWG
p239
aVtc_322_124_smooth_move_ef_cancel_location_wf_frcn.LWG
p240
aVtc_194_103_attach_ul_fails_access_restriction.LWG
p241
aVtc_194_506_Notification_during_Intra_MME_TAU_without_SGW_Relocation_Procedure.LWG
p242
aVtc_38_226_israu_new_sgsn_one_ipv6_pdp_type_system_property_not_support.W14b
p243
aVtc_39_131_attach_move_interfering_intra_rau_move_stopped.W14b
p244
aVtc_311_204_intra_srns_reloc_s4_sgw_change_wf_reloc_req_ack_interrupted_by_cancel_loc_subscrip_withdrawn.WG14a
p245
aVtc_166_280_israu_new_vplmn_3gdt_prefixed_apn.WG14a
p246
aVtc_322_161_smooth_move_ef_nas_after_paging_response_ignore.WG14a
p247
aVtc_359_052_handover_from_non3gpp_af_try_next_gw_due_to_no_resource.W14b
p248
aVtc_313_001_inter_new_srns_reloc_s16_without_sgw_change.W14b
p249
aVtc_348_266_smooth_move_af__new_sgsn_update_location_ack_failed.W14b
p250
aVtc_334_107_sgw_restart_mf_restoration_trigger_by_ReleaseAccessBearerResponse.W14b
p251
aVtc_324_043_af_mbr_higher_than_policymap.WG14a
p252
aVtc_322_161_smooth_move_ef_nas_after_paging_response_ignore.WG14a
p253
aVtc_327_544_recovery_service_request__Msc_Reset_while_waiting_for_Location_Update_Response.LW
p254
aVtc_316_272_Inter_RAT_S3_HO_SUT_As_Source_With_Dedicated_Bearer_Subpool_ID_Change__Delete_UE_Backup.LW
p255
aVtc_318_022_pgw_restart_notification_ef_pdn_disconn_wf_paging_interfer_by_tau.LW
p256
aVtc_276_045_Inter_TAU_New_MME__S1_Reset_while_waiting_for_Identity_Response__enhanced_imei_check.LW
p257
aVtc_306_330_ef_mme_pool_ecm_connected_source_receive_path_switch_request_wf_release_access_bearers_response.LW
p258
aVtc_308_011_HSS_Init_QoS_Modification__IDR_during_intra_ISC_TAU.LW
p259
aVtc_218_311_tau_from_sgsn_preserved_gbr_bearer_buffer_1_ubr_1_cbr.LW
p260
aVtc_304_266_tau_from_gnsgsn_2g_control_mode_wf_delete_all_bearers_response_exception_case_reject_congestion_subscriber_cancelled.LW
p261
aVtc_298_145_EF_NRSPCA_interfere_Activation.LW
p262
aVtc_326_212_Intra_TAU_Recovery_after_node_restart_Update_Location_timeout_TAU_Complete_timeout.LW
p263
aVtc_326_203_Intra_TAU_after_node_restart_with_two_retrieval_responses_with_SGW_change_with_emergency_PDN.LW
p264
aVtc_324_006_mf_ser_req_signaling_after_ack_3gdt.LW
p265
aVtc_324_386_ef_mt_sms_wf_frcn_wf_frca_wf_ula.LW
p266
aVtc_194_081_cl_subscription_withdrawn_during_auth.LW
p267
aVtc_194_161_emergency_attach_loc_not_confirmed_ul_fails.LW
p268
aVtc_12_134_attach_with_extended_mmumoc_iu_inactivity_timer.LW
p269
aVtc_30_072_cli_delete_subscriber_msisdn.G14b
p270
aVtc_208_43_interception_after_small_restart.G14b
p271
aVtc_268_056_Timer_Based_GBR_Deact__Context_Request_from_New_MME_SGW_change_before_Timer_Expires.L14b
p272
aVtc_103_841_error_code_UNRECOGNIZED_CLASS_in_answer_Experimental_Result_Code.L14b
p273
aVtc_304_117_initial_ue_intra_tau_control_mode_threshold_exceeded_usc_detach_intruder_wf_release_request_response.L14b
p274
aVtc_44_071_attach_long_imsi.L14b
p275
aVtc_44_871_mme_assoc_reestablish__board_block_sbc.L14b
p276
aVtc_194_505_Notification_during_Intra_TAU_without_SGW_Relocation_HSS_Reset_Before_TAU.L14b
p277
aVtc_244_806_mt_lr_donwlink_generic_nas_transport_meanwhile_handover_required_HO_success.L14b
p278
aVtc_346_644_pra_cn_predefined_all_list__inter_tau__2pdns_active_flag_off__cca_u_with_rfsp.L14b
p279
aVtc_346_670_pra_cn_predefined_cca_u_for_initial_report_timeout_in_attach_then_service_request_in.L14b
p280
aVtc_346_494_Small_Local_Restart__Terminate_when_UE1_PDN_Connectivity_waiting_for_CCAI_UE2_Location_Report_waiting_for_CCAU.L14b
p281
aVtc_327_012_recovery_intra_TAU__initial_Attach_Request_while_waiting_for_Ue_Backup_Response.L14b
p282
aVtc_327_322_recovery_service_request__initial_Imsi_Attach_Request_while_waiting_for_Ue_Backup_Response.L14b
p283
aVtc_197_040_inter_mme_tau_new_sgw_topon_hosts.L14b
p284
aVtc_159_200_check_ctum_log.LWG
p285
aVtc_265_120_Detach_Flow_NW_init__Delete_Bearer_Request_while_waiting_for_Delete_Session_Response.LWG
p286
aVtc_202_02_ecm_idle_s1_release.LWG
p287
aVtc_275_073_tau_inter_new_no_update_location_response_sgsn00040258.LWG
p288
aVtc_194_085_hss_reset_after_subdata_read_from_cache.LWG
p289
aVtc_194_991_downlink_A21_AIS_during_waiting_location_report__idr_flags_ef.LWG
p290
aVtc_326_202_Intra_TAU_after_large_restart_after_combined_attach.LWG
p291
aVtc_326_244_Intra_TAU_Recovery_fail_default_bearer_fail_to_setup.LWG
p292
aVtc_326_311_Service_Request_with_unknown_STMSI_large_restart_sgs_then_csfb_to_UTRAN.LWG
p293
aVtc_326_678_tau_intra_SGW_unavailable_active_flag_off_after_MME_large_restart__create_session_fail_reselect_SGW.LWG
p294
aVtc_326_670_tau_intra_SGW_unavailable_active_flag_off_after_MME_large_restart_main_flow.LWG
p295
aVtc_326_658_tau_intra_periodic_SGW_unavailable_after_MME_large_restart__create_session_fail_reselect_SGW.LWG
p296
aVtc_326_661_tau_intra_periodic_SGW_unavailable_after_MME_large_restart__two_pdn_one_timeout.LWG
p297
aVtc_326_684_tau_intra_SGW_unavailable_active_flag_off_after_MME_large_restart__create_session_partition_fail.LWG
p298
aVtc_322_028_smooth_move_af_no_security_mode_complete.LWG
p299
aVtc_241_801_israu_interfering_context_request_no_cancel_location_s4.LWG
p300
aVtc_34_26_isc_rau_w_to_g_ms_resends_rau_req_in_new_g_ra_before_first_ra_procedure_finished.LWG
p301
aVtc_166_428_rnc_initiated_rab_release_interfered_by_rnc_initiated_iu_release_request.LWG
p302
aVtc_316_232_Service_Request_Need_AKA_SMC__Backup_UE.LWG
p303
aVtc_316_254_MME_Pool_Seemless_Move_Service_Request_Before_LUR_With_DDN__Backup_UE.LWG
p304
aVtc_327_022_recovery_intra_TAU__initial_Detach_Request_while_waiting_for_Ue_Backup_Response.LWG
p305
aVtc_327_030_recovery_intra_TAU__uplink_same_ie_intra_TAU_Request_while_waiting_for_Ue_Backup_Response.LWG
p306
aVtc_327_552_Recovery_for_DDN__Service_Request_while_waiting_for_Ue_Backup_Response.LWG
p307
aVtc_327_352_recovery_service_request__initial_intra_TAU_while_waiting_for_Ue_Backup_Response.LWG
p308
aVtc_306_1308_ef_seamless_move_target_buffer_update_bearer_request.LWG
p309
aVtc_44_004_small_restart__sctp_fe_restart.LWG
p310
aVtc_44_841_mme_assoc_reestablish__device_restart_sbc.LWG
p311
aVtc_44_860_mme_assoc_reestablish__sctp_fe_restart_s1_mme.LWG
p312
aVtc_23_09_transfer_to_primary_and_change_vip_addr.LWG
p313
aVtc_218_311_tau_from_sgsn_preserved_gbr_bearer_buffer_1_ubr_1_cbr.LWG
p314
aVtc_103_1005_secondary_dpl_used_when_all_peers_in_dpl_unavailable_with_sls.LWG
p315
aVtc_59_9_mtmsi_restart_counter.LWG
p316
aVtc_208_43_interception_after_small_restart.LWG
p317
aVtc_250_105_ignore_IDR_when_EPS_sub_downgrade_GPRS_sub.LWG
p318
aVtc_216_106_icmpv6_outNeighborSol.LWG
p319
aVtc_666_06_block_rt_board.LWG
p320
aVtc_38_80_intra_rau_new_rnc_with_authentication_wrong_ptmsi_signature.W14b
p321
aVtc_250_183_s6d_attach_ai_rejected_other_error_from_hss.W14b
p322
aVtc_256_083_mme_eps_srvcc_ho_source_to_geran_cs_only_af_without_dtm_srvcc_ps_to_cs_complete_notification_timeout.LW
p323
aVtc_103_1101_resending_AIR_interfering_CLR.LW
p324
aVtc_275_073_tau_inter_new_no_update_location_response_sgsn00040258.LW
p325
aVtc_324_006_mf_ser_req_signaling_after_ack_3gdt.LW
p326
aVtc_194_991_downlink_A21_AIS_during_waiting_location_report__idr_flags_ef.LW
p327
aVtc_44_850_mme_assoc_reestablish__board_restart_s1_mme.LW
p328
aVtc_276_045_Inter_TAU_New_MME__S1_Reset_while_waiting_for_Identity_Response__enhanced_imei_check.LW
p329
aVtc_346_662_pra_cn_predefined_event_trigger_ulc_and_pra_info.LW
p330
aVtc_326_622_S6a_Throttling_Service_Request_recovery_UL_successful_and_Emergency_Attach_not_throttled.LW
p331
aVtc_44_004_small_restart__sctp_fe_restart.LWG
p332
aVtc_241_431_intra_rau_with_bearer_sgw_unchange_2_pdns_with_one_modify_no_response.LWG
p333
aVtc_23_09_transfer_to_primary_and_change_vip_addr.LWG
p334
aVtc_327_008_recovery_intra_TAU__uplink_Attach_Request_while_waiting_for_Initial_Context_Setup_Response.LWG
p335
aVtc_327_014_recovery_intra_TAU__initial_Attach_Request_while_waiting_for_Modify_Bearer_Response.LWG
p336
aVtc_327_023_recovery_intra_TAU__initial_Detach_Request_while_waiting_for_Create_Session_Response.LWG
p337
aVtc_327_225_recovery_service_request__Delete_Subscriber_Data_while_waiting_for_Create_Session_Response.LWG
p338
aVtc_316_408_IMSI_Attach__Backup_UE_then_feature_off_No_delete_when_detach.LWG
p339
aVtc_232_502_static_routes__ipv6_conf_deconf.LWG
p340
aVtc_232_511_static_routes__bfd_supervision_of_static_route_v6_on_Gom.LWG
p341
aVtc_232_401_bfd__ipv4_alarm.LWG
p342
aVtc_232_204_bfd__multiplier_variations_ipv6.LWG
p343
aVtc_214_1141_la_selection_mf_oldmscpreferred_prau_during_ue_restoration.LWG
p344
aVtc_183_005_itc_folder_file_names.LWG
p345
aVtc_666_03_block_ss7_board.LWG
p346
aVtc_666_06_block_rt_board.LWG
p347
aVtc_256_175_mme_eps_srvcc_ho_source_cs_only_ue_release_request_wf_srvcc_ps_to_cs_response.LWG
p348
aVtc_337_005_validation_move_manually_stopped_between_two_pool_moves_smooth_move.LWG
p349
aVtc_304_023_attach_detach_then_guti_attach_when_attaching__control_mode_threshold_exceeded_usc_reject_congestion.LWG
p350
aVtc_326_263_Intra_TAU_with_unknown_GUTI_Restriction_2_pdn_roaming_restriction_emergency_pdn_recovered.LWG
p351
aVtc_326_267_Intra_TAU_with_unknown_GUTI_Restriction_2_pdn_SAU_license_limit_reached.LWG
p352
aVtc_326_310_Service_Request_with_unknown_STMSI_large_restart_1xrtt_cs_registration.LWG
p353
aVtc_326_223_Intra_TAU_Recovery_fail_Identity_Response_timeout_then_Recover_successful.LWG
p354
aVtc_326_652_tau_intra_periodic_SGW_unavailable_after_MME_large_restart__with_static_SGW.LWG
p355
aVtc_326_681_tau_intra_SGW_unavailable_active_flag_off_after_MME_large_restart__two_pdn_one_timeout.LWG
p356
aVtc_205_71_08_SCTP_OctetsChunksSent.LWG
p357
aVtc_236_307_Activation_DtSelMode_5_APN_requested_wrong_SGSN_default_APN_in_APN_list_TAC_in_TAC_list.LWG
p358
aVtc_39_731_mas_target_interrupted_by_rnc_reset.LWG
p359
aVtc_59_9_mtmsi_restart_counter.LWG
p360
aVtc_159_200_check_ctum_log.LWG
p361
aVtc_314_062_hss_init_qos_mod_mbc_timeout.LWG
p362
aVtc_346_662_pra_cn_predefined_event_trigger_ulc_and_pra_info.LWG
p363
aVtc_346_673_pra_cn_predefined_ccr_u_for_initial_report_abort_in_inter_ho_then_s1_ho.LWG
p364
aVtc_346_692_pra_cn_predefined_location_report_cca_u_abort__location_report__in2out.LWG
p365
aVtc_297_407_move_at_periodic_rau.G14b
p366
aVtc_96_024_intra_sgsn_intra_ra_psho_llc_pdu_arrives_no_psho_complete_t14_expiry.G14b
p367
aVtc_327_602_Inter_TAU_Recovery__Attach_Request_while_waiting_for_Ue_Authentication_Response.L14b
p368
aVtc_275_073_tau_inter_new_no_update_location_response_sgsn00040258.L14b
p369
aVtc_275_711_tau_inter_without_SGW_Change_receive_TZCR_flag_set_in_context_response_SN_change.L14b
p370
aVtc_202_40_emergency_pdn_ecm_connected.L14b
p371
aVtc_194_1581_delete_bearer_request_change_to_non3GPP_during_HSS_initiated_ISD_in_Connected_mode_when_current_CSG_Id_removed.L14b
p372
aVtc_346_672_pra_cn_predefined_cca_u_for_initial_report_failure_in_inter_tau_then_x2_ho.L14b
p373
aVtc_346_673_pra_cn_predefined_ccr_u_for_initial_report_abort_in_inter_ho_then_s1_ho.L14b
p374
aVtc_195_406_ue_trace_start_meanwhile_handover_required.L14b
p375
aVtc_103_410_diameterConnectionDown_alarm_cleared_and_raised_if_pn_changed.L14b
p376
aVtc_103_1101_resending_AIR_interfering_CLR.L14b
p377
aVtc_304_121_initial_ue_intra_tau_control_mode_threshold_exceeded_usc_detach_wf_release_request_response.L14b
p378
aVtc_257_03_pws_etws_main_flow_stop_warning_request_with_ta_list.L14b
p379
aVtc_347_256_NW_initiated_detach__RAR_while_waiting_for_delete_session_response.L14b
p380
aVtc_347_311_Location_reporting_control_RAR_while_waiting_location_report.L14b
p381
aVtc_260_248_cli_trigger_stop_ssrm_false_while_wf_m3_stop_resp.L14b
p382
aVtc_306_1116_ef_seamless_move_target_receive_detach_request_without_switchoff_wf_ula_with_service_finished.L14b
p383
aVtc_194_100_check_gauge_unstable_not_parked.L14b
p384
aVtc_194_506_Notification_during_Intra_MME_TAU_without_SGW_Relocation_Procedure.L14b
p385
aVtc_194_187_hss_reset_after_large_restart_with_full_imsi.L14b
p386
aVtc_194_991_downlink_A21_AIS_during_waiting_location_report__idr_flags_ef.L14b
p387
aVtc_262_203_guti_attach_when_unauthenticated_attached.L14b
p388
aVtc_346_382_handover_inter_target_establish_sx_session_with_bearer_control_mode_sx_only.L14b
p389
aVtc_288_218_pgw_init_bearer_mod_QoS_bearers_from_different_pdn_conns_ecm_idle.L14b
p390
aVtc_276_045_Inter_TAU_New_MME__S1_Reset_while_waiting_for_Identity_Response__enhanced_imei_check.L14b
p391
aVtc_329_003_attach_rs_allowed_emergency_plmn_change_ula_fails.L14b
p392
aVtc_347_141_Seamless_Move_Target__RAR_while_waiting_for_service_req_and_modify_bearer_response.L14b
p393
aVtc_347_101_Inter_TAU_Old_MME__RAR_while_waiting_for_TAU_timer_out.L14b
p394
aVtc_214_503_mt_sms_while_wf_lu_accept.L14b
p395
aVtc_266_011_DownlinkDataNotification_interfering_ISD_sgsn00026976.L14b
p396
aVtc_259_52_isd_tads_s4_w_pmmidle_inter_rau_l_to_w.LWG
p397
aVtc_196_172_nrspca_during_t3385_when_receive_sgsn_context_ack_not_accepted.LWG
p398
aVtc_219_025_tau_w_to_l_with_gbr_bearers.LWG
p399
aVtc_231_113_rnc_reset_during_ms_act_si_ms_deact_rnc_contact.LWG
p400
aVtc_241_431_intra_rau_with_bearer_sgw_unchange_2_pdns_with_one_modify_no_response.LWG
p401
aVtc_327_226_recovery_service_request__Delete_Subscriber_Data_while_waiting_for_Guti_Reallocation_Complete.LWG
p402
aVtc_304_263_tau_from_gnsgsn_when_wf_tau_complete_control_mode_reject_congestion.LWG
p403
aVtc_326_274_Periodic_Intra_TAU_with_unknown_GUTI_old_SGW_unavailable.LWG
p404
aVtc_326_272_Periodic_Intra_TAU_with_unknown_GUTI_after_combined_attach_then_MO_SMS.LWG
p405
aVtc_326_242_Intra_TAU_Recovery_Initial_Context_Setup_timeout.LWG
p406
aVtc_326_251_Intra_TAU_with_unknown_GUTI_with_active_flag_then_s1_Intra_HO.LWG
p407
aVtc_326_290_Intra_TAU_with_unknown_GUTI_with_SGW_Change.LWG
p408
aVtc_326_658_tau_intra_periodic_SGW_unavailable_after_MME_large_restart__create_session_fail_reselect_SGW.LWG
p409
aVtc_326_660_tau_intra_periodic_SGW_unavailable_after_MME_large_restart__two_pdn.LWG
p410
aVtc_23_09_transfer_to_primary_and_change_vip_addr.LWG
p411
aVtc_306_1333_ef_seamless_move_target_receive_cli_delete_subscriber_wf_ula.LWG
p412
aVtc_578_32_check_ebm_para_statistics_ue_return_duration.LWG
p413
aVtc_232_502_static_routes__ipv6_conf_deconf.LWG
p414
aVtc_232_401_bfd__ipv4_alarm.LWG
p415
aVtc_232_507_static_routes__bfd_supervision_of_static_route_v6.LWG
p416
aVtc_232_403_bfd__ipv4ipv6_alarm.LWG
p417
aVtc_232_508_static_routes__bfd_supervision_of_static_route_v4_v6.LWG
p418
aVtc_183_005_itc_folder_file_names.LWG
p419
aVtc_275_073_tau_inter_new_no_update_location_response_sgsn00040258.LWG
p420
aVtc_214_1139_la_selection_mf_reselection_ptau_during_ue_restoration.LWG
p421
aVtc_19_59_attach_move_initiated_activate_pdp_before_complete_ignored.LWG
p422
aVtc_159_200_check_ctum_log.LWG
p423
aVtc_342_864_online_change_LI_U.LWG
p424
aVtc_256_143_mme_eps_srvcc_ho_source_cs_only_initial_ue_extended_service_request_wf_srvcc_ps_to_cs_response.LWG
p425
aVtc_256_176_mme_eps_srvcc_ho_source_cs_only_ue_release_request_wf_srvcc_ps_to_cs_complete_notification.LWG
p426
aVtc_347_335_Intra_TAU_With_Active_Flag__MS_Network_Cap_Set_RAR_while_waiting_for_Modify_Eps_Bearer_Context_Accept.LWG
p427
aVtc_179_318_Ccheck_TraceCollectionIpv6server.LWG
p428
aVtc_218_311_tau_from_sgsn_preserved_gbr_bearer_buffer_1_ubr_1_cbr.LWG
p429
aVtc_165_12_check_resource_alarms_dp.LWG
p430
aVtc_208_43_interception_after_small_restart.LWG
p431
aVtc_666_06_block_rt_board.LWG
p432
aVtc_262_203_guti_attach_when_unauthenticated_attached.LWG
p433
aVtc_194_085_hss_reset_after_subdata_read_from_cache.LWG
p434
aVtc_194_084_hss_reset_after_large_restart.LWG
p435
aVtc_194_187_hss_reset_after_large_restart_with_full_imsi.LWG
p436
aVtc_335_141_Geo_Recovery_upon_Intra_TAU.LWG
p437
aVtc_316_260_No_MME_Status_Available__No_UE_Backup.LW
p438
aVtc_231_113_rnc_reset_during_ms_act_si_ms_deact_rnc_contact.LW
p439
aVtc_220_411_csfb_to_1xrtt_in_ecm_connected_path_switch_request_subscription_cancelled.LW
p440
aVtc_44_004_small_restart__sctp_fe_restart.LW
p441
aVtc_44_871_mme_assoc_reestablish__board_block_sbc.LW
p442
aVtc_31_152_standalone_isd_odb_bit_15_syntax_error.LW
p443
aVtc_241_801_israu_interfering_context_request_no_cancel_location_s4.LW
p444
aVtc_194_991_downlink_A21_AIS_during_waiting_location_report__idr_flags_ef.LW
p445
aVtc_78_058_intra_rau_intra_plmn_forced_csps_coord_accept_foreign_ms.W14b
p446
aVtc_322_161_smooth_move_ef_nas_after_paging_response_ignore.W14b
p447
aVtc_236_049_s4_3gdt_rnc_reset_during_waiting_for_modify_beaer_rsp_in_service_request_procedure.W14b
p448
aVtc_101_027_mbms_session_no_resources.W14b
p449
aVtc_26_022_activate_interrupted_by_insert_subscriber_data_II.W14b
p450
aVtc_26_048_activate_QoS_downgraded_by_ggsn.W14b
p451
aVtc_195_208_mme_logging_maximum_modify_eps_bearer_context.LWG
p452
aVtc_195_406_ue_trace_start_meanwhile_handover_required.LWG
p453
aVtc_159_200_check_ctum_log.LWG
p454
aVtc_218_411_TAU_from_SGSN__downlink_data_notification_while_waiting_for_update_location_answer_check_subscribed_apn_fail_sgw_fail.LWG
p455
aVtc_103_701_MME_restarts.LWG
p456
aVtc_257_36_pws_etws_stop_warning_request_when_olp_rshl_false.LWG
p457
aVtc_183_005_itc_folder_file_names.LWG
p458
aVtc_342_925_x2_multiple_pdp_with_different_x2_address.LWG
p459
aVtc_232_401_bfd__ipv4_alarm.LWG
p460
aVtc_232_508_static_routes__bfd_supervision_of_static_route_v4_v6.LWG
p461
aVtc_23_09_transfer_to_primary_and_change_vip_addr.LWG
p462
aVtc_194_187_hss_reset_after_large_restart_with_full_imsi.LWG
p463
aVtc_231_173_ms_init_detach_interfered_by_cancel_location_withdraw.LWG
p464
aVtc_326_217_Intra_TAU_Recovery_with_active_flag_two_PDN_partial_fail.LWG
p465
aVtc_326_201_Intra_TAU_with_unknown_GUTI_with_active_flag.LWG
p466
aVtc_326_210_Intra_TAU_combined_after_large_restart_after_EPS_attach.LWG
p467
aVtc_326_216_Intra_TAU_Recovery_combined_type_Location_Update_Reject.LWG
p468
aVtc_326_213_Intra_TAU_Recovery_multiple_retrieval_responses_with_different_revision_number.LWG
p469
aVtc_326_243_Intra_TAU_Recovery_fail_default_bearer_fail_to_setup_SGW_Change.LWG
p470
aVtc_326_244_Intra_TAU_Recovery_fail_default_bearer_fail_to_setup.LWG
p471
aVtc_326_246_Intra_TAU_Recovery_fail_Modify_Bearer_fail_active_flag_SGW_Change.LWG
p472
aVtc_326_206_Intra_TAU_Recovery_with_old_GUTI.LWG
p473
aVtc_326_267_Intra_TAU_with_unknown_GUTI_Restriction_2_pdn_SAU_license_limit_reached.LWG
p474
aVtc_666_06_block_rt_board.LWG
p475
aVtc_578_32_check_ebm_para_statistics_ue_return_duration.LWG
p476
aVtc_324_386_ef_mt_sms_wf_frcn_wf_frca_wf_ula.LWG
p477
aVtc_324_424_ef_payload_buffered_wf_security_mode_complete_payload_different_contextId.LWG
p478
aVtc_347_042_Inter_HO_Target_from_gn__RAR_while_waiting_for_Update_Lcoation_Answer_and_TAU_Complete.LWG
p479
aVtc_214_1140_la_selection_mf_oldlapreferred_prau_during_ue_restoration.LWG
p480
aVtc_214_1141_la_selection_mf_oldmscpreferred_prau_during_ue_restoration.LWG
p481
aVtc_214_1139_la_selection_mf_reselection_ptau_during_ue_restoration.LWG
p482
aVtc_44_071_attach_long_imsi.LWG
p483
aVtc_44_871_mme_assoc_reestablish__board_block_sbc.LWG
p484
aVtc_84_80_provide_subscriber_locaiton_ef_paging_interrupted_by_attach.G14b
p485
aVtc_231_175_sgsn_init_detach_interfered_by_context_request_wait_delete_session_res.LW
p486
aVtc_347_031_Inter_HO_Target__RAR_while_waiting_for_Create_Session_Response_and_Handover_Notify.LW
p487
aVtc_347_021_Inter_TAU_New_MME_from_gn__RAR_while_waiting_for_Create_Session_Response_and_Update_Location_Answer.LW
p488
aVtc_347_140_Seamless_Move_Target__RAR_while_waiting_for_modify_bearer_response_and_update_location_answer.LW
p489
aVtc_347_142_Seamless_Move_Target__RAR_while_waiting_for_forward_relocation_complete_ack_and_location_update_accept.LW
p490
aVtc_32_92_intra_rau_interrupted_by_down_link_data.LW
p491
aVtc_276_370_Inter_TAU_New_MME__Attach_Request_while_waiting_for_Create_Session_Response_sgw_unavailable.LW
p492
aVtc_39_601_mas_unsucc_fwd_reloc_resp_mandatory_ie_missing_stop_source.LW
p493
aVtc_103_831_DPR_cause_BUSY.LW
p494
aVtc_44_871_mme_assoc_reestablish__board_block_sbc.LW
p495
aVtc_257_30_pws_sctp_device_failure.LW
p496
aVtc_292_105_x2_based_ho_no_default_bearer_present.LW
p497
aVtc_22_025_wcdma_rau_during_context_activation_two_rncs.LW
p498
aVtc_347_013_Inter_TAU_New_MME__RAR_while_waiting_for_Delete_Session_Response.L14b
p499
aVtc_347_041_Inter_HO_Target_from_gn__RAR_while_waiting_for_Create_Session_Response_and_Modify_Bearer_Response.L14b
p500
aVtc_347_140_Seamless_Move_Target__RAR_while_waiting_for_modify_bearer_response_and_update_location_answer.L14b
p501
aVtc_266_011_DownlinkDataNotification_interfering_ISD_sgsn00026976.L14b
p502
aVtc_195_417_ue_trace_deactivate_trace_s1_intra_system_handover_triggered_HO_ongoing_timeout.L14b
p503
aVtc_44_071_attach_long_imsi.L14b
p504
aVtc_346_670_pra_cn_predefined_cca_u_for_initial_report_timeout_in_attach_then_service_request_in.L14b
p505
aVtc_225_616_exp_flow_handover_required_intra_while_wf_modification_context_response.L14b
p506
aVtc_43_101__removal_of_disconnected_eNodeBs__CLI_removal.L14b
p507
aVtc_103_708_modify_peer_send_DPR.L14b
p508
aVtc_276_045_Inter_TAU_New_MME__S1_Reset_while_waiting_for_Identity_Response__enhanced_imei_check.L14b
p509
aVtc_304_004_attach_success__only_measurement_mode_threshold_reached.L14b
p510
aVtc_322_161_smooth_move_ef_nas_after_paging_response_ignore.WG14a
p511
aVtc_208_43_interception_after_small_restart.G14b
p512
aVtc_322_161_smooth_move_ef_nas_after_paging_response_ignore.WG14a
p513
aVtc_29_013_attach_w_attach_g_isd_fails_during_auth.WG14a
p514
aVtc_348_016_activation__sgsn_restarted.WG14a
p515
aVtc_298_783_S4_3GDT_downlink_data_notification_wait_MBR_ef_detach.LW
p516
aVtc_347_210_Attach__RAR_while_waiting_for_Create_Session_Response.LW
p517
aVtc_347_231_Extended_Service_Request__Location_Report_while_waiting_ES_Request_and_RAR_while_waiting_for_UCR_Complete.LW
p518
aVtc_195_406_ue_trace_start_meanwhile_handover_required.LW
p519
aVtc_263_121_Emergency_Attach_Flow_Type_A__Cancel_Location_Subscription_Withdrawal_while_waiting_for_Attach_Complete.LW
p520
aVtc_260_070_mbms_session_start_af_gw_resend_request_msg_diff_absolute_time.LW
p521
aVtc_218_311_tau_from_sgsn_preserved_gbr_bearer_buffer_1_ubr_1_cbr.LW
p522
aVtc_289_102_multi_pdns_pgw_init_bearer_mod_ecm_active_interrupted_by_dbr_with_lbi.LW
p523
aVtc_295_136_mo_call_during_s1_ho_tau_request_when_wf_handover_notify.LW
p524
aVtc_276_045_Inter_TAU_New_MME__S1_Reset_while_waiting_for_Identity_Response__enhanced_imei_check.LW
p525
aVtc_44_871_mme_assoc_reestablish__board_block_sbc.LW
p526
aVtc_214_1140_la_selection_mf_oldlapreferred_prau_during_ue_restoration.LWG
p527
aVtc_342_133_update_one_of_two_targets_x3_address.LWG
p528
aVtc_23_09_transfer_to_primary_and_change_vip_addr.LWG
p529
aVtc_347_341_SGW_Restart__RAR_while_waiting_Create_Session_Response.LWG
p530
aVtc_262_1055_imsi_attach_with_csg_id_is_rejected.LWG
p531
aVtc_103_1006_secondary_dpl_used_when_all_peers_in_dpl_unavailable_no_sls_peers_same_prio.LWG
p532
aVtc_327_009_recovery_intra_TAU__uplink_Attach_Request_while_waiting_for_Modify_Bearer_Response.LWG
p533
aVtc_327_031_recovery_intra_TAU__uplink_same_ie_intra_TAU_Request_while_waiting_for_Create_Session_Response.LWG
p534
aVtc_327_024_recovery_intra_TAU__initial_Detach_Request_while_waiting_for_Modify_Bearer_Response.LWG
p535
aVtc_327_173_recovery_intra_TAU_SGSN_Context_Request_while_waiting_for_Initial_Context_Setup_Response.LWG
p536
aVtc_327_224_recovery_service_request__Delete_Subscriber_Data_while_waiting_for_Ue_Backup_Response.LWG
p537
aVtc_220_024_csfb_to_1xrtt_ue_suspended_inter_mme_tau_old.LWG
p538
aVtc_82_020_rab_modify_followed_by_israu.LWG
p539
aVtc_59_9_mtmsi_restart_counter.LWG
p540
aVtc_232_502_static_routes__ipv6_conf_deconf.LWG
p541
aVtc_232_205_bfd__udp_port_no_ipv6.LWG
p542
aVtc_232_401_bfd__ipv4_alarm.LWG
p543
aVtc_232_507_static_routes__bfd_supervision_of_static_route_v6.LWG
p544
aVtc_232_402_bfd__ipv6_alarm.LWG
p545
aVtc_232_403_bfd__ipv4ipv6_alarm.LWG
p546
aVtc_348_204_smooth_move_mf__new_sgsn_with_sx.LWG
p547
aVtc_208_43_interception_after_small_restart.LWG
p548
aVtc_346_662_pra_cn_predefined_event_trigger_ulc_and_pra_info.LWG
p549
aVtc_159_200_check_ctum_log.LWG
p550
aVtc_250_67_s6d_activation_with_EPS_data_s4_license_off.LWG
p551
aVtc_304_215_inter_tau_same_ie_control_mode_threshold_exceeded_reject_wf_icsr.LWG
p552
aVtc_666_02_reboot_ss7_board.LWG
p553
aVtc_666_06_block_rt_board.LWG
p554
aVtc_326_204_Intra_TAU_combined_type_with_LA_served_by_old_msc_after_large_restart_after_combined_attach.LWG
p555
aVtc_326_243_Intra_TAU_Recovery_fail_default_bearer_fail_to_setup_SGW_Change.LWG
p556
aVtc_326_263_Intra_TAU_with_unknown_GUTI_Restriction_2_pdn_roaming_restriction_emergency_pdn_recovered.LWG
p557
aVtc_326_241_Intra_TAU_Recovery_Initial_Context_Setup_fail.LWG
p558
aVtc_326_245_Intra_TAU_Recovery_TAU_Complete_timeout.LWG
p559
aVtc_326_311_Service_Request_with_unknown_STMSI_large_restart_sgs_then_csfb_to_UTRAN.LWG
p560
aVtc_326_206_Intra_TAU_Recovery_with_old_GUTI.LWG
p561
aVtc_257_01_pws_etws_main_flow_write_replace_warning_request_with_ta_list.LWG
p562
aVtc_257_12_pws_etws_write_replace_warning_request_enb_failure.LWG
p563
aVtc_256_175_mme_eps_srvcc_ho_source_cs_only_ue_release_request_wf_srvcc_ps_to_cs_response.LWG
p564
aVtc_202_42_type_c_emergency_pdn_ecm_idle.LWG
p565
aVtc_225_616_exp_flow_handover_required_intra_while_wf_modification_context_response.LWG
p566
aVtc_12_512_pmm_undefined_attach_when_updating_location_interfered_by_rnc_reset.W14b
p567
aVtc_220_413_csfb_to_1xrtt_in_ecm_connected_handover_required_meanwhile_CBR_received.L14b
p568
aVtc_43_101__removal_of_disconnected_eNodeBs__CLI_removal.L14b
p569
aVtc_194_187_hss_reset_after_large_restart_with_full_imsi.L14b
p570
aVtc_194_152_notify_non_3gpp_not_allowed.L14b
p571
aVtc_202_42_type_c_emergency_pdn_ecm_idle.L14b
p572
aVtc_103_860_ue_trace_retransmit.L14b
p573
aVtc_103_904_relay_node_S6a_S13.L14b
p574
aVtc_225_315_mt_call_active_mode_nas_non_delivery__cs_service_notification_meanwhile_handover_required.L14b
p575
aVtc_225_416_recv_service_while_waiting_extended_service_request.L14b
p576
aVtc_346_301_Combination__PGW_Selection_UserLocationChange.L14b
p577
aVtc_346_670_pra_cn_predefined_cca_u_for_initial_report_timeout_in_attach_then_service_request_in.L14b
p578
aVtc_304_121_initial_ue_intra_tau_control_mode_threshold_exceeded_usc_detach_wf_release_request_response.L14b
p579
aVtc_347_222_Service_Request__RAR_while_waiting_for_Initial_UE_Context_Setup_Response.L14b
p580
aVtc_347_262_PDN_Connectivity__Location_Report_while_waiting_CCA_initial.L14b
p581
aVtc_326_622_S6a_Throttling_Service_Request_recovery_UL_successful_and_Emergency_Attach_not_throttled.L14b
p582
aVtc_262_084_emergency_imsi_attach_unauthentication_fails_in_hss.L14b
p583
aVtc_295_136_mo_call_during_s1_ho_tau_request_when_wf_handover_notify.L14b
p584
aVtc_214_041_combined_attach_non_combined_attach.L14b
p585
aVtc_284_340_mutiple_pdn_two_default_bearers_failed_to_update.L14b
p586
aVtc_22_030_wcdma_FailDialoguesScf.LW
p587
aVtc_347_141_Seamless_Move_Target__RAR_while_waiting_for_service_req_and_modify_bearer_response.LW
p588
aVtc_347_302_mme_dedicated_bearer_deactivate__RAR_while_waiting_deactivate_eps_bearer_context_accept.LW
p589
aVtc_324_386_ef_mt_sms_wf_frcn_wf_frca_wf_ula.LW
p590
aVtc_103_831_DPR_cause_BUSY.LW
p591
aVtc_103_705_delete_peer_send_DPR_timeout_on_DPA.LW
p592
aVtc_44_871_mme_assoc_reestablish__board_block_sbc.LW
p593
aVtc_39_601_mas_unsucc_fwd_reloc_resp_mandatory_ie_missing_stop_source.LW
p594
aVtc_247_44_inter_w_to_l_old_cancel_location_timeout_sgw_relocation.LW
p595
aVtc_241_801_israu_interfering_context_request_no_cancel_location_s4.LW
p596
aVtc_23_09_transfer_to_primary_and_change_vip_addr.LWG
p597
aVtc_260_070_mbms_session_start_af_gw_resend_request_msg_diff_absolute_time.LWG
p598
aVtc_316_268_GUTI_Attach_Transfer_Due_To_Wrong_AP__Backup_UE.LWG
p599
aVtc_316_298_GUTI_Attach_Known_Large_Restart_Broadcast_Force_Delete_Among_Pool.LWG
p600
aVtc_326_201_Intra_TAU_with_unknown_GUTI_with_active_flag.LWG
p601
aVtc_326_274_Periodic_Intra_TAU_with_unknown_GUTI_old_SGW_unavailable.LWG
p602
aVtc_326_243_Intra_TAU_Recovery_fail_default_bearer_fail_to_setup_SGW_Change.LWG
p603
aVtc_326_242_Intra_TAU_Recovery_Initial_Context_Setup_timeout.LWG
p604
aVtc_326_835_Intra_TAU_Recovery_after_Node_Restart_SGW_Unchange_active_flag_on_no_modify_bearer_response_two_pdn.LWG
p605
aVtc_326_834_Intra_TAU_Recovery_after_Node_Restart_SGW_Unchange_active_flag_on_no_modify_bearer_response.LWG
p606
aVtc_289_031_Modify_bearer__Downlink_nas_transport_meanwhile_path_switch_request_HO_success.LWG
p607
aVtc_241_801_israu_interfering_context_request_no_cancel_location_s4.LWG
p608
aVtc_214_409_combined_attach_vlr_reset_imsi_detach_interferred_by_combined_tau_active.LWG
p609
aVtc_214_1140_la_selection_mf_oldlapreferred_prau_during_ue_restoration.LWG
p610
aVtc_237_352_mme_eps_irat_Gn_ho_source__cancel_location_after_s1rh_timeout.LWG
p611
aVtc_346_546_AF__HO_Inter_Target__2PDN_BCM_Sx_only_one_CCA_U_cause_5003.LWG
p612
aVtc_346_662_pra_cn_predefined_event_trigger_ulc_and_pra_info.LWG
p613
aVtc_216_105_icmpv6_outNeighborAds.LWG
p614
aVtc_283_012_GW_Deactivate_Bearer__Handover_required_while_wf_Deactivate_eps_bearer_context_accept.LWG
p615
aVtc_666_06_block_rt_board.LWG
p616
aVtc_665_21_lr_then_gain.LWG
p617
aVtc_208_43_interception_after_small_restart.LWG
p618
aVtc_208_44_attach_detach_imsi_ap_takeover.LWG
p619
aVtc_159_200_check_ctum_log.LWG
p620
aVtc_340_124_oms_consistence_check_for_action_pool_move_validation_start.LWG
p621
aVtc_202_03_emm_deregistered_no_s1_release.LWG
p622
aVtc_202_02_ecm_idle_s1_release.LWG
p623
aVtc_202_18_downlink_data_after_s1_release.LWG
p624
aVtc_183_005_itc_folder_file_names.LWG
p625
aVtc_281_031_Activate_bearer__ERAB_setup_request_meanwhile_path_switch_request_HO_success.LWG
p626
aVtc_327_018_recovery_intra_TAU__uplink_Detach_Request_while_waiting_for_Security_Mode_Complete.LWG
p627
aVtc_327_007_recovery_intra_TAU__uplink_Attach_Request_while_waiting_for_Location_Update_Response.LWG
p628
aVtc_327_116_recovery_intra_TAU__Delete_Subscriber_Data_while_waiting_for_Identity_Response.LWG
p629
aVtc_232_502_static_routes__ipv6_conf_deconf.LWG
p630
aVtc_232_205_bfd__udp_port_no_ipv6.LWG
p631
aVtc_232_507_static_routes__bfd_supervision_of_static_route_v6.LWG
p632
aVtc_232_511_static_routes__bfd_supervision_of_static_route_v6_on_Gom.LWG
p633
aVtc_232_204_bfd__multiplier_variations_ipv6.LWG
p634
aVtc_232_402_bfd__ipv6_alarm.LWG
p635
aVtc_232_503_static_routes__ipv4_ipv6_conf_deconf.LWG
p636
aVtc_33_90_isc_g_to_w_inter_primary_and_secondary_pdp_odb_bit_15.WG14a
p637
aVtc_348_103_isc_rau_mf__g_to_w_multiple_pdp_with_sx.WG14a
p638
aVtc_195_416_ue_trace_deactivate_trace_s1_intra_system_handover_triggered.L14b
p639
aVtc_266_020_DownlinkDataFailureInd_repeat_paging_timer_on.L14b
p640
aVtc_225_315_mt_call_active_mode_nas_non_delivery__cs_service_notification_meanwhile_handover_required.L14b
p641
aVtc_225_416_recv_service_while_waiting_extended_service_request.L14b
p642
aVtc_327_373_recovery_service_request__initial_extended_service_request_while_waiting_for_Location_Update_Response.L14b
p643
aVtc_329_003_attach_rs_allowed_emergency_plmn_change_ula_fails.L14b
p644
aVtc_257_30_pws_sctp_device_failure.L14b
p645
aVtc_304_114_initial_ue_intra_tau_control_mode_threshold_exceeded_usc_ignore_replace_s1.L14b
p646
aVtc_304_236_isc_active_flag_on_control_mode_threshold_exceeded_ignore_replace_s1_wf_initial_context_setup_response.L14b
p647
aVtc_304_266_tau_from_gnsgsn_2g_control_mode_wf_delete_all_bearers_response_exception_case_reject_congestion_subscriber_cancelled.L14b
p648
aVtc_347_210_Attach__RAR_while_waiting_for_Create_Session_Response.L14b
p649
aVtc_347_281_PDN_Disconnect__RAR_while_waiting_Delete_Session_Response.L14b
p650
aVtc_47_001_imsi_attach_ap_loss.L14b
p651
aVtc_346_374_tau_inter_new_emergency_pdn_type_a.L14b
p652
aVtc_346_546_AF__HO_Inter_Target__2PDN_BCM_Sx_only_one_CCA_U_cause_5003.L14b
p653
aVtc_346_370_tau_inter_new_get_new_sgw_activeFlag_on_establish_sx.L14b
p654
aVtc_346_672_pra_cn_predefined_cca_u_for_initial_report_failure_in_inter_tau_then_x2_ho.L14b
p655
aVtc_208_43_interception_after_small_restart.G14b
p656
aVtc_239_620_inter_rau_new_with_bearer_sgw_not_change_isd_odb_bit0_wf_rau_compl_deactivation.G14b
p657
aVtc_26_054_activate_primary_change_of_policy_map.W14b
p658
aVtc_247_48_inter_w_to_l_old_relocation_cancel_ue_lost_wf_fwd_reloc_resp_3gdt.W14b
p659
aVtc_347_291_activate_dedicated_bearer__RAR_while_waiting_activate_dedicate_EPS_Bearer_context_accept.LW
p660
aVtc_347_310_Location_Report_RAR_while_waiting_update_credit_control_answer.LW
p661
aVtc_298_145_EF_NRSPCA_interfere_Activation.LW
p662
aVtc_298_201_SIBD_S4_RAB_Release_3GDT_GTP_Resource_Unavailable.LW
p663
aVtc_103_1100_resending_AIR_dpl_changed.LW
p664
aVtc_103_1004_secondary_dpl_used_when_all_peers_in_dpl_unavailable_no_sls.LW
p665
aVtc_103_1110_attach_negative_AIA_resend_success_s6d.LW
p666
aVtc_43_010_s1ap_reset_resource.LW
p667
aVtc_332_050_1_mf__paging_due_to_DDN_during_paging_due_to_DDN_latest_with_higher_prio.LW
p668
aVtc_32_74_test_transfer_1.LW
p669
aVtc_295_008_Intra_S1_HO__Attach_req_while_wf_handover_request_acknowledge.LW
p670
aVtc_195_406_ue_trace_start_meanwhile_handover_required.LW
p671
aVtc_231_173_ms_init_detach_interfered_by_cancel_location_withdraw.LW
p672
aVtc_194_081_cl_subscription_withdrawn_during_auth.LW
p673
aVtc_194_006_cl_update_procedure_coop_mme.LW
p674
aVtc_348_103_isc_rau_mf__g_to_w_multiple_pdp_with_sx.WG14a
p675
aVtc_324_371_ef_cancel_location_intialAttach_wf_modify_bearer_response_service_req_data.WG14a
p676
aVtc_29_012_attach_w_attach_g_isd_during_auth.WG14a
p677
aVtc_322_096_smooth_move_ef_reset_wf_frr_idle.WG14a
p678
aVtc_166_233_error_indication_from_ggsn_for_primary_context.WG14a
p679
aVtc_257_17_pws_etws_write_replace_warning_request_rejected_when_olp.LWG
p680
aVtc_257_30_pws_sctp_device_failure.LWG
p681
aVtc_241_801_israu_interfering_context_request_no_cancel_location_s4.LWG
p682
aVtc_327_016_recovery_intra_TAU__uplink_Detach_Request_while_waiting_for_Identity_Response.LWG
p683
aVtc_327_036_recovery_intra_TAU__initial_intra_TAU_Request_while_waiting_for_Modify_Bearer_Response.LWG
p684
aVtc_327_017_recovery_intra_TAU__uplink_Detach_Request_while_waiting_for_Ue_Backup_Response.LWG
p685
aVtc_327_023_recovery_intra_TAU__initial_Detach_Request_while_waiting_for_Create_Session_Response.LWG
p686
aVtc_327_031_recovery_intra_TAU__uplink_same_ie_intra_TAU_Request_while_waiting_for_Create_Session_Response.LWG
p687
aVtc_327_117_recovery_intra_TAU__Delete_Subscriber_Data_while_waiting_for_Ue_Backup_Response.LWG
p688
aVtc_327_163_recovery_intra_TAU_Context_Request_while_waiting_for_TAU_Complete.LWG
p689
aVtc_327_157_recovery_intra_TAU_Update_Bearer_Request_while_waiting_for_Modify_Bearer_Response.LWG
p690
aVtc_327_552_Recovery_for_DDN__Service_Request_while_waiting_for_Ue_Backup_Response.LWG
p691
aVtc_666_06_block_rt_board.LWG
p692
aVtc_179_318_Ccheck_TraceCollectionIpv6server.LWG
p693
aVtc_324_006_mf_ser_req_signaling_after_ack_3gdt.LWG
p694
aVtc_297_407_move_at_periodic_rau.LWG
p695
aVtc_23_09_transfer_to_primary_and_change_vip_addr.LWG
p696
aVtc_197_121_gtp_fallback.LWG
p697
aVtc_216_106_icmpv6_outNeighborSol.LWG
p698
aVtc_346_493_Small_Local_Restart__Terminate_when_UE_S1_release.LWG
p699
aVtc_346_662_pra_cn_predefined_event_trigger_ulc_and_pra_info.LWG
p700
aVtc_194_085_hss_reset_after_subdata_read_from_cache.LWG
p701
aVtc_159_200_check_ctum_log.LWG
p702
aVtc_311_169_intra_srns_reloc_s4_with_sgw_change_wf_reloc_complete_interrupted_by_direct_rau.LWG
p703
aVtc_73_21_itc_gtpu_s4_sgsn_send_echo_request_w.LWG
p704
aVtc_250_67_s6d_activation_with_EPS_data_s4_license_off.LWG
p705
aVtc_220_411_csfb_to_1xrtt_in_ecm_connected_path_switch_request_subscription_cancelled.LWG
p706
aVtc_39_601_mas_unsucc_fwd_reloc_resp_mandatory_ie_missing_stop_source.LWG
p707
aVtc_214_1099_la_selection_mf_reselection_combined_tau_with_imsi_attach_after_mme_triggered_imsi_detach_when_handling_sgs_paging.LWG
p708
aVtc_214_1140_la_selection_mf_oldlapreferred_prau_during_ue_restoration.LWG
p709
aVtc_214_1139_la_selection_mf_reselection_ptau_during_ue_restoration.LWG
p710
aVtc_183_005_itc_folder_file_names.LWG
p711
aVtc_202_41_type_a_emergency_pdn_ecm_idle.LWG
p712
aVtc_326_270_Periodic_Intra_TAU_with_unknown_GUTI_then_Service_Request.LWG
p713
aVtc_326_290_Intra_TAU_with_unknown_GUTI_with_SGW_Change.LWG
p714
aVtc_326_670_tau_intra_SGW_unavailable_active_flag_off_after_MME_large_restart_main_flow.LWG
p715
aVtc_326_680_tau_intra_SGW_unavailable_active_flag_off_after_MME_large_restart__two_pdn.LWG
p716
aVtc_326_681_tau_intra_SGW_unavailable_active_flag_off_after_MME_large_restart__two_pdn_one_timeout.LWG
p717
aVtc_209_158_payload_df3_alarm.LWG
p718
aVtc_103_831_DPR_cause_BUSY.LWG
p719
aVtc_232_205_bfd__udp_port_no_ipv6.LWG
p720
aVtc_44_850_mme_assoc_reestablish__board_restart_s1_mme.L14b
p721
aVtc_266_302_Service_Request_SGW_unavailable__pool_geo_red_off.L14b
p722
aVtc_327_322_recovery_service_request__initial_Imsi_Attach_Request_while_waiting_for_Ue_Backup_Response.L14b
p723
aVtc_220_413_csfb_to_1xrtt_in_ecm_connected_handover_required_meanwhile_CBR_received.L14b
p724
aVtc_220_587_csfb_to_1xrtt_in_extended_service_request_during_attach_waiting_for_modify_bearer_response.L14b
p725
aVtc_194_617_DSD__PDN_subscription_contexts_Withdrawal_All_PDN_Disconnect__Suspended.L14b
p726
aVtc_194_187_hss_reset_after_large_restart_with_full_imsi.L14b
p727
aVtc_273_242_tau_intra__sgw_relocation_mult_pdn_connections_and_failures.L14b
p728
aVtc_256_006_mme_eps_srvcc_ho_source_cs_only_mf_after_tau_after_s1_ho.L14b
p729
aVtc_262_1031_emergency_imsi_attach_multiple_pgw_try_next_pgw_fqdn_error.L14b
p730
aVtc_103_860_ue_trace_retransmit.L14b
p731
aVtc_304_114_initial_ue_intra_tau_control_mode_threshold_exceeded_usc_ignore_replace_s1.L14b
p732
aVtc_346_692_pra_cn_predefined_location_report_cca_u_abort__location_report__in2out.L14b
p733
aVtc_322_161_smooth_move_ef_nas_after_paging_response_ignore.W14b
p734
aVtc_241_1503_intra_rau_with_bearer_sgw_nochange_wf_modify_bearer_response_interfere_by_cancel_location.W14b
p735
aVtc_298_690_S4_3GDT_Service_request_wait_MBR_ef_delete_bearer_request_lbi.W14b
p736
aVtc_236_301_HO_over_S3_3GDT_switchback_ef_service_request_direct_transfer.W14b
p737
aVtc_334_107_sgw_restart_mf_restoration_trigger_by_ReleaseAccessBearerResponse.W14b
p738
aVtc_334_254_service_req_multi_pdn_restart_counter_changed.W14b
p739
aVtc_316_211_Inter_MME_HO_SUT_As_Target__Backup_UE.LW
p740
aVtc_103_1101_resending_AIR_interfering_CLR.LW
p741
aVtc_276_045_Inter_TAU_New_MME__S1_Reset_while_waiting_for_Identity_Response__enhanced_imei_check.LW
p742
aVtc_204_451_mme_eps_ho_target_type_d_emc_new_plmn_different_apn.LW
p743
aVtc_209_212_s4_no_sm_events_start_of_interception_pdp_active.LW
p744
aVtc_206_014_activate_EbmStream_ebm_feature_off.LW
p745
aVtc_285_031_PDN_Connectivity__TAU_request_while_wf_create_session_response.LW
p746
aVtc_256_143_mme_eps_srvcc_ho_source_cs_only_initial_ue_extended_service_request_wf_srvcc_ps_to_cs_response.LW
p747
aVtc_298_320_EF_SIBD_S4_Error_Indication_From_RNC.LW
p748
aVtc_194_114_standalone_isd_all_3gpp_access_restricted.LW
p749
aVtc_194_991_downlink_A21_AIS_during_waiting_location_report__idr_flags_ef.LW
p750
aVtc_196_172_nrspca_during_t3385_when_receive_sgsn_context_ack_not_accepted.LW
p751
aVtc_324_386_ef_mt_sms_wf_frcn_wf_frca_wf_ula.LW
p752
aVtc_295_124_tau_after_ho_tz_change_emm_information_meanwhile_handover_required_HO_success.L14b
p753
aVtc_329_003_attach_rs_allowed_emergency_plmn_change_ula_fails.L14b
p754
aVtc_103_1101_resending_AIR_interfering_CLR.L14b
p755
aVtc_347_229_Extended_Service_Request__RAR_while_waiting_for_Initial_UE_Context_Response_csfb_to_1xrtt_in_ecm_idle.L14b
p756
aVtc_194_100_check_gauge_unstable_not_parked.L14b
p757
aVtc_346_446_AF__Intra_TAU_CCA_Update_result_code_5003.L14b
p758
aVtc_225_616_exp_flow_handover_required_intra_while_wf_modification_context_response.L14b
p759
aVtc_208_43_interception_after_small_restart.G14b
p760
aVtc_31_035_attach_ul_fails_no_relevant_data.W14b
p761
aVtc_39_187_detach_trigger_re_attach_new_iu.W14b
p762
aVtc_244_049_mt_lr_cancel_location_with_subscription_withdraw_received_wf_location_report.LWG
p763
aVtc_275_073_tau_inter_new_no_update_location_response_sgsn00040258.LWG
p764
aVtc_284_351_pdn_connectivity_pb_activate_1_dedicated_bearer_interrupted_by_path_switch_request.LWG
p765
aVtc_327_114_recovery_intra_TAU__Insert_Subscriber_Data_while_waiting_for_Ue_Backup_Response.LWG
p766
aVtc_327_157_recovery_intra_TAU_Update_Bearer_Request_while_waiting_for_Modify_Bearer_Response.LWG
p767
aVtc_327_151_recovery_intra_TAU_Create_Bearer_Request_while_waiting_for_Modify_Bearer_Response.LWG
p768
aVtc_327_351_recovery_service_request__initial_intra_TAU_while_waiting_for_Location_Update_Response.LWG
p769
aVtc_329_800_geored_intra_tau_rr_restricted_after_update_location.LWG
p770
aVtc_23_09_transfer_to_primary_and_change_vip_addr.LWG
p771
aVtc_80_010_israu_conversational.LWG
p772
aVtc_236_071_hard_ho_intra_rau_with_3gdt_bearer_sgw_change_without_seq.LWG
p773
aVtc_236_307_Activation_DtSelMode_5_APN_requested_wrong_SGSN_default_APN_in_APN_list_TAC_in_TAC_list.LWG
p774
aVtc_288_002_pgw_initiated_bearer_modification_main_flow_ecm_connected_ue_needs_update.LWG
p775
aVtc_241_754_intra_rau_with_multi_bearer_sgw_change_one_context_failed_node_function_deactivate_pdp_after_rau_on.LWG
p776
aVtc_220_615_csfb_to_1xrtt_in_ecm_idle_with_gbr_bearers_sgw_does_not_respond.LWG
p777
aVtc_306_1240_ef_seamless_move_target_receive_attach_request_frca_timeout.LWG
p778
aVtc_103_701_MME_restarts.LWG
p779
aVtc_159_200_check_ctum_log.LWG
p780
aVtc_256_143_mme_eps_srvcc_ho_source_cs_only_initial_ue_extended_service_request_wf_srvcc_ps_to_cs_response.LWG
p781
aVtc_326_219_Intra_TAU_Recovery_then_rim_source_mme_gn_sgsn_selection_table_not_matched_dns_query_success.LWG
p782
aVtc_326_270_Periodic_Intra_TAU_with_unknown_GUTI_then_Service_Request.LWG
p783
aVtc_326_213_Intra_TAU_Recovery_multiple_retrieval_responses_with_different_revision_number.LWG
p784
aVtc_326_206_Intra_TAU_Recovery_with_old_GUTI.LWG
p785
aVtc_326_651_tau_intra_periodic_SGW_unavailable_after_MME_large_restart__with_emergency_PDN.LWG
p786
aVtc_326_652_tau_intra_periodic_SGW_unavailable_after_MME_large_restart__with_static_SGW.LWG
p787
aVtc_326_680_tau_intra_SGW_unavailable_active_flag_off_after_MME_large_restart__two_pdn.LWG
p788
aVtc_326_836_Intra_TAU_Recovery_after_Node_Restart_SGW_Change_active_flag_on_no_modify_bearer_response.LWG
p789
aVtc_92_0330_oms_pm_A43_01.LWG
p790
aVtc_232_511_static_routes__bfd_supervision_of_static_route_v6_on_Gom.LWG
p791
aVtc_232_403_bfd__ipv4ipv6_alarm.LWG
p792
aVtc_232_401_bfd__ipv4_alarm.LWG
p793
aVtc_232_402_bfd__ipv6_alarm.LWG
p794
aVtc_232_503_static_routes__ipv4_ipv6_conf_deconf.LWG
p795
aVtc_81_133_activate_use_subscribed_background.LWG
p796
aVtc_81_004_activate_conversational_sub_streaming.LWG
p797
aVtc_82_022_rab_modify_interrupted_by_israu_II.LWG
p798
aVtc_82_024_ms_initiated_activation_MBR_DL_UL_in_RABReq_one_MBR_in_RABRes.LWG
p799
aVtc_211_024_streamed_cell_trace_mapping_alarm_ipv6.LWG
p800
aVtc_346_662_pra_cn_predefined_event_trigger_ulc_and_pra_info.LWG
p801
aVtc_346_693_pra_cn_predefined_attach_in_feature_off_location_report_out.LWG
p802
aVtc_79_082_sgsn_init_modification_rnc_not_supporting_modify_cause19.LWG
p803
aVtc_79_085_activate_reject_with_ggsn_qos_update_QoS_downgraded_by_rnc_background.LWG
p804
aVtc_183_005_itc_folder_file_names.LWG
p805
aVtc_324_137_af_service_request_data_only_utran_not_allowed_3gdt.W14b
p806
aVtc_26_127_activate_no_value_in_ext4_QosDowngrade_ARP.W14b
p807
aVtc_349_003_Activation__Secondary_Activation_with_same_ti_while_waiting_for_CCA_initial.W14b
p808
aVtc_298_654_pgw_init_modification_mf_3gdt_enable.W14b
p809
aVtc_359_064_handover_from_non3gpp_ef_deact_request_wf_create_session_resp_secondly.W14b
p810
aVtc_322_161_smooth_move_ef_nas_after_paging_response_ignore.W14b
p811
aVtc_322_098_smooth_move_ef_reset_wf_service_request.W14b
p812
aVtc_298_073_s4_nrspca_activate_same_nsapi_of_dedicated_bearer_rab_released.LW
p813
aVtc_298_145_EF_NRSPCA_interfere_Activation.LW
p814
aVtc_194_065_activate_loc_not_confirmed_ul_fails_other_failure.LW
p815
aVtc_304_105_intra_tau_success__control_mode_threshold_not_reached.LW
p816
aVtc_225_410_mt_call_idle_mode_tau_paging_response.LW
p817
aVtc_256_135_mme_eps_srvcc_ho_source_cs_only_initial_ue_detach_request_wf_srvcc_ps_to_cs_complete_notification.LW
p818
aVtc_275_118_tau_inter_new_emergency_erroneous_ie_authenticated_no_imsi.LW
p819
aVtc_275_073_tau_inter_new_no_update_location_response_sgsn00040258.LW
p820
aVtc_324_365_ef_cancel_location_with_subscriptionWithdraw_wf_rab_assignment_response_wf_isd_hlr.LW
p821
aVtc_316_208_PGW_Initiated_Bearer_Mod_ECM_Connected_Only_TFT_Changed__Backup_UE.LW
p822
aVtc_322_126_smooth_move_ef_cancel_location_initialAttach_wf_cancel_location.WG14a
p823
aVtc_96_012_intra_sgsn_intra_ra_psho_llc_pdu_arrives_before_psho_complete.G14b
p824
aVtc_297_407_move_at_periodic_rau.G14b
p825
aVtc_208_43_interception_after_small_restart.G14b
p826
aVtc_326_251_Intra_TAU_with_unknown_GUTI_with_active_flag_then_s1_Intra_HO.LWG
p827
aVtc_326_663_tau_intra_periodic_SGW_unavailable_after_MME_large_restart__two_pdn_one_bearer_status_0.LWG
p828
aVtc_326_835_Intra_TAU_Recovery_after_Node_Restart_SGW_Unchange_active_flag_on_no_modify_bearer_response_two_pdn.LWG
p829
aVtc_326_670_tau_intra_SGW_unavailable_active_flag_off_after_MME_large_restart_main_flow.LWG
p830
aVtc_326_678_tau_intra_SGW_unavailable_active_flag_off_after_MME_large_restart__create_session_fail_reselect_SGW.LWG
p831
aVtc_326_661_tau_intra_periodic_SGW_unavailable_after_MME_large_restart__two_pdn_one_timeout.LWG
p832
aVtc_243_772_tau_from_sgsn_s3_active_flag_true_SGW_change_no_modify_bearer_response.LWG
p833
aVtc_59_9_mtmsi_restart_counter.LWG
p834
aVtc_297_407_move_at_periodic_rau.LWG
p835
aVtc_257_38_pws_etws_stop_warning_request_license_off_when_olp_rshl_false.LWG
p836
aVtc_298_783_S4_3GDT_downlink_data_notification_wait_MBR_ef_detach.LWG
p837
aVtc_342_145_update_one_of_two_targets_x2_x3_address_to_one_connection.LWG
p838
aVtc_324_042_af_gbr_higher_than_policymap.LWG
p839
aVtc_23_09_transfer_to_primary_and_change_vip_addr.LWG
p840
aVtc_363_011_cli_get_ra.LWG
p841
aVtc_318_110_sgw_restart_mf_multi_pdns_part_delete_part_relocate.LWG
p842
aVtc_232_205_bfd__udp_port_no_ipv6.LWG
p843
aVtc_232_508_static_routes__bfd_supervision_of_static_route_v4_v6.LWG
p844
aVtc_214_1099_la_selection_mf_reselection_combined_tau_with_imsi_attach_after_mme_triggered_imsi_detach_when_handling_sgs_paging.LWG
p845
aVtc_214_046_combined_tau_inter_from_sgsn_interfering_s1_reset.LWG
p846
aVtc_265_102_Detach_Flow_NW_init__Reattach_Required_Attach_Request_while_waiting_for_Context_Release_Complete.LWG
p847
aVtc_273_250_tau_intra__sgw_relocation_mult_pdn_all_pdn_failed.LWG
p848
aVtc_159_200_check_ctum_log.LWG
p849
aVtc_225_302_mt_call_active_mode_conditional_error.LWG
p850
aVtc_225_620_mt_call_idle_delete_bearer_request_wf_extended_service_request.LWG
p851
aVtc_348_103_isc_rau_mf__g_to_w_multiple_pdp_with_sx.LWG
p852
aVtc_327_165_recovery_intra_TAU_Context_Request_while_waiting_for_Initial_Context_Setup_Response.LWG
p853
aVtc_327_220_recovery_service_request__Insert_Subscriber_Data_while_waiting_for_Create_Session_Response.LWG
p854
aVtc_275_073_tau_inter_new_no_update_location_response_sgsn00040258.LWG
p855
aVtc_275_853_tau_inter_new__active_flag_on_no_2nd_modify_bearer_response_sgw_unchange_two_pdn.LWG
p856
aVtc_241_157_israu_old_wait_for_context_ack_interfere_by_reset.LWG
p857
aVtc_241_801_israu_interfering_context_request_no_cancel_location_s4.LWG
p858
aVtc_282_020_delete_bearer_request_handover_to_non_3GPP_ecm_connected_multi_pdn.L14b
p859
aVtc_218_530_tau_from_sgsn_gn_active_flag_true_gw_failure_restoration_lte_on_no_modify_bearer_response.L14b
p860
aVtc_44_055_sctp_s1ap_olp__initial_ue_message_rate.L14b
p861
aVtc_44_841_mme_assoc_reestablish__device_restart_sbc.L14b
p862
aVtc_346_691_pra_cn_predefined_s1_ho_cca_u_failure__service_request__out2in.L14b
p863
aVtc_346_670_pra_cn_predefined_cca_u_for_initial_report_timeout_in_attach_then_service_request_in.L14b
p864
aVtc_266_020_DownlinkDataFailureInd_repeat_paging_timer_on.L14b
p865
aVtc_347_303_mme_dedicated_bearer_deactivate__RAR_while_waiting_delete_session_response.L14b
p866
aVtc_44_850_mme_assoc_reestablish__board_restart_s1_mme.L14b
p867
aVtc_194_202_isd_pdn_type_change_one_pdn_connection_impacted.L14b
p868
aVtc_103_1004_secondary_dpl_used_when_all_peers_in_dpl_unavailable_no_sls.L14b
p869
aVtc_103_1101_resending_AIR_interfering_CLR.L14b
p870
aVtc_225_312_mt_call_active_mode_nas_non_delivery__s1_intra_system_handover_triggered_resend_2_times.L14b
p871
aVtc_225_616_exp_flow_handover_required_intra_while_wf_modification_context_response.L14b
p872
aVtc_260_272_receive_sm_stop_req_while_wf_setup_iteration.L14b
p873
aVtc_256_360_mme_eps_srvcc_ho_source_cs_only_triggered_by_lcs.L14b
p874
aVtc_327_602_Inter_TAU_Recovery__Attach_Request_while_waiting_for_Ue_Authentication_Response.L14b
p875
aVtc_214_806_mo_sms_active_donwlink_nas_transport_meanwhile_handover_required_HO_success.L14b
p876
aVtc_347_001_Inter_TAU_New_MME__Attach_Req_while_waiting_for_CCA_initial.L14b
p877
aVtc_347_021_Inter_TAU_New_MME_from_gn__RAR_while_waiting_for_Create_Session_Response_and_Update_Location_Answer.L14b
p878
aVtc_347_141_Seamless_Move_Target__RAR_while_waiting_for_service_req_and_modify_bearer_response.L14b
p879
aVtc_347_290_activate_dedicated_bearer__RAR_while_waiting_erab_setup_response.L14b
p880
aVtc_275_073_tau_inter_new_no_update_location_response_sgsn00040258.L14b
p881
aVtc_26_079_israu_traffic_class_reserved_qos_req.W14b
p882
aVtc_248_94_inter_l_to_w_new_qos_higher_than_policymap_sgw_not_change_2_pdn_1_with_dedicated_bearer_no_ubr.W14b
p883
aVtc_250_51_standalone_cancel_location_initial_attach_not_combined_node.W14b
p884
aVtc_578_12_check_show_tables_m.W14b
p885
aVtc_52_45_inter_old_srns_reloc_main_flow_interfered_by_delete_subscr.W14b
p886
aVtc_241_460_israu_new_with_dedicated_bearer_sgw_not_change_non_gbr_bearer_inactive.W14b
p887
aVtc_348_016_activation__sgsn_restarted.WG14a
p888
aVtc_349_106_RAU_new_sgsn__Normal_Detach_while_waiting_for_CCA_initial.WG14a
p889
aVtc_239_104_inter_rau_new_with_bearer_sgw_not_changed_without_charging_id_s4.G14b
p890
aVtc_239_620_inter_rau_new_with_bearer_sgw_not_change_isd_odb_bit0_wf_rau_compl_deactivation.G14b
p891
aVtc_96_012_intra_sgsn_intra_ra_psho_llc_pdu_arrives_before_psho_complete.G14b
p892
aVtc_298_783_S4_3GDT_downlink_data_notification_wait_MBR_ef_detach.LW
p893
aVtc_346_662_pra_cn_predefined_event_trigger_ulc_and_pra_info.LW
p894
aVtc_346_673_pra_cn_predefined_ccr_u_for_initial_report_abort_in_inter_ho_then_s1_ho.LW
p895
aVtc_202_18_downlink_data_after_s1_release.LW
p896
aVtc_202_567_seamless_move_target_Connected_mode__service_request_with_CSG_Id_before_ULA_then_X2_HO.LW
p897
aVtc_206_023_ebm_server_connection_failed.LW
p898
aVtc_38_56_israu_old_sgsn_no_resources_available_startstate_pmmconnected.LW
p899
aVtc_308_022_HSS_Init_QoS_Modification__ISD_with_odb_bit0_while_wf_ucm_resp_before_ubr.LW
p900
aVtc_241_801_israu_interfering_context_request_no_cancel_location_s4.LW
p901
aVtc_214_606_Combined_TAU_Location_Update_Accept_Expired_No_Retry_Since_No_Available_MSC.LW
p902
aVtc_26_022_activate_interrupted_by_insert_subscriber_data_II.LW
p903
aVtc_248_06_inter_l_to_w_new_two_pdns_with_one_failed_in_relocation_req_ack_without_sgw_change.LW
p904
aVtc_347_229_Extended_Service_Request__RAR_while_waiting_for_Initial_UE_Context_Response_csfb_to_1xrtt_in_ecm_idle.LW
p905
aVtc_262_072_attach_second_attach_rejected_due_to_congestion.LW
p906
aVtc_342_133_update_one_of_two_targets_x3_address.LWG
p907
aVtc_232_502_static_routes__ipv6_conf_deconf.LWG
p908
aVtc_232_507_static_routes__bfd_supervision_of_static_route_v6.LWG
p909
aVtc_232_511_static_routes__bfd_supervision_of_static_route_v6_on_Gom.LWG
p910
aVtc_232_401_bfd__ipv4_alarm.LWG
p911
aVtc_232_204_bfd__multiplier_variations_ipv6.LWG
p912
aVtc_232_508_static_routes__bfd_supervision_of_static_route_v4_v6.LWG
p913
aVtc_183_005_itc_folder_file_names.LWG
p914
aVtc_202_320_mf_seamless_move_by_mme_ue_ecm_idle_s1_sel_freq_1.LWG
p915
aVtc_59_9_mtmsi_restart_counter.LWG
p916
aVtc_292_045_Report_SN_X2HO_with_SGW_changed.LWG
p917
aVtc_213_020_nrspca_ms_activate_sec_request_ril3_decode_error_li.LWG
p918
aVtc_347_321_Bearer_Modification__RAR_while_waiting_modify_eps_bearer_context_accept.LWG
p919
aVtc_231_113_rnc_reset_during_ms_act_si_ms_deact_rnc_contact.LWG
p920
aVtc_231_033_activate_s4_fallback_to_gn.LWG
p921
aVtc_316_234_MME_Pool_Link_to_BMME_Fail_Select_New_BMME_Delete_Old_Backup.LWG
p922
aVtc_178_111_modify_ss7_sctp_end_point_local_ip_addresses.LWG
p923
aVtc_273_595_TAU_intra__active_flag_on_no_modify_bearer_response_sgw_change_followed_by_intra_tau_MBR_timeout.LWG
p924
aVtc_230_037_activate_reject_sgw_conditional_ie_paa_missing.LWG
p925
aVtc_230_022_activate_2ndPDP_with_same_apn_without_dns_cache_uli_check.LWG
p926
aVtc_226_043_Inter_RAU_G2G_measurement_control_AP_transfer.LWG
p927
aVtc_226_508_Inter_RAU_S4_SGSN_to_Gn_SGSN_ControlMode_On_reject_PS_service_not_allowed.LWG
p928
aVtc_304_215_inter_tau_same_ie_control_mode_threshold_exceeded_reject_wf_icsr.LWG
p929
aVtc_324_006_mf_ser_req_signaling_after_ack_3gdt.LWG
p930
aVtc_208_43_interception_after_small_restart.LWG
p931
aVtc_241_202_rau_in_pool_with_bearer_eps_subscription_received.LWG
p932
aVtc_241_437_israu_new_s4_to_s4_imei_check_and_sgw_selection_fail.LWG
p933
aVtc_241_1631_israu_new_create_session_failed_interfere_by_cancel_location.LWG
p934
aVtc_241_611_israu_new_sgw_not_change_delicated_bearer_fail_wait_mbr_buffer_ubr.LWG
p935
aVtc_221_027_paging_ta_profile_after_lastest_eNB_List_flush.LWG
p936
aVtc_221_024_paging__lastest_eNB_List_profile_using_attach_procedure.LWG
p937
aVtc_159_200_check_ctum_log.LWG
p938
aVtc_346_662_pra_cn_predefined_event_trigger_ulc_and_pra_info.LWG
p939
aVtc_665_21_lr_then_gain.LWG
p940
aVtc_103_1102_fallback_to_imsins_success.LWG
p941
aVtc_225_652_mt_call_paging_req_after_msc_reset_param_tamr_true.LWG
p942
aVtc_225_670_mt_call_idle_mode_no_lai_in_paging_req_param_tamr_true.LWG
p943
aVtc_316_213_Intra_MME_X2_HO_With_TA_Change__Backup_UE.L14b
p944
aVtc_225_312_mt_call_active_mode_nas_non_delivery__s1_intra_system_handover_triggered_resend_2_times.L14b
p945
aVtc_234_005_assign_references_udp.L14b
p946
aVtc_347_141_Seamless_Move_Target__RAR_while_waiting_for_service_req_and_modify_bearer_response.L14b
p947
aVtc_347_310_Location_Report_RAR_while_waiting_update_credit_control_answer.L14b
p948
aVtc_306_090_ef_seamless_move_source_receive_downlink_data_notification_wf_frcn.L14b
p949
aVtc_306_1377_ef_seamless_move_target_receive_downlink_unitdata_af_lua_wf_icsr.L14b
p950
aVtc_103_1101_resending_AIR_interfering_CLR.L14b
p951
aVtc_103_1004_secondary_dpl_used_when_all_peers_in_dpl_unavailable_no_sls.L14b
p952
aVtc_346_494_Small_Local_Restart__Terminate_when_UE1_PDN_Connectivity_waiting_for_CCAI_UE2_Location_Report_waiting_for_CCAU.L14b
p953
aVtc_346_670_pra_cn_predefined_cca_u_for_initial_report_timeout_in_attach_then_service_request_in.L14b
p954
aVtc_327_602_Inter_TAU_Recovery__Attach_Request_while_waiting_for_Ue_Authentication_Response.L14b
p955
aVtc_334_311_pgw_restart_after_s4_move_3gdt.W14b
p956
aVtc_250_74_s6d_EF_hss_reset_waiting_delete_session_response.W14b
p957
aVtc_311_09_Intra_srns_reloc_s4_with_preserved_bearer_rab_setup_partial_success.W14b
p958
aVtc_311_244_intra_srns_reloc_s4_received_interfering_create_bearer_request.W14b
p959
aVtc_311_203_intra_srns_reloc_s4_sgw_change_wf_create_session_rsp_interrupted_by_cancel_loc_subscrip_withdrawn.W14b
p960
aVtc_311_157_intra_srns_reloc_s4_wf_create_session_rsp_interrupted_by_direct_detach_request.W14b
p961
aVtc_342_050_x2_ms_initiated_pdp_activation_fail.W14b
p962
aVtc_312_218_inter_old_srns_reloc_wf_fwd_reloc_compl_interrupted_by_relocation_cancel_with_ue_lost.W14b
p963
aVtc_312_220_inter_old_srns_reloc_wf_session_to_complete_interrupted_by_relocation_cancel_with_ue_lost.W14b
p964
aVtc_312_227_inter_old_srns_reloc_wf_cancel_location_interrupted_by_iu_release.W14b
p965
aVtc_26_021_activate_interrupted_by_insert_subscriber_data_I.W14b
p966
aVtc_298_016_S4_Network_Request_Secondary_PDP_Activation_IDLE_Payload.W14b
p967
aVtc_298_304_EF_SIBD_S4_Activate_Secondary_From_MS_Same_Nsapi.W14b
p968
aVtc_298_330_report_full_rai_in_create_pdp_ctx_req_sgsn_init_secondary_activation.W14b
p969
aVtc_298_420_ms_init_deact_af_no_delete_session_response_multiple_pdn_multiple_pdp.W14b
p970
aVtc_298_501_pgw_init_deletion_mf_ebi_dedicated_bearer.W14b
p971
aVtc_298_705_pgw_init_modification_ef_ms_deact_req_tdi_false_ti_dedicated_wf_rab_assignment_response.W14b
p972
aVtc_298_692_S4_Activating_Dedicated_bearer_waiting_rab_setup_delete_bearer_request_lbi.W14b
p973
aVtc_313_030_inter_new_srns_reloc_s16_with_sgw_change_check_subscriber_data_from_hlr_failure_after_relocation.W14b
p974
aVtc_313_039_inter_new_srns_reloc_s16_without_sgw_change_dedicate_bearer_qos_exceed_to_policy_map_pl.W14b
p975
aVtc_313_222_inter_new_srns_reloc_s16_with_sgw_change_rau_request_initial_ue_received_wf_reloc_req_ack.W14b
p976
aVtc_289_070_GW_Init_Bearer_Modification_Flow_two_CBR_one_UBR_while_wf_modify_eps_bearer_context_accept.LWG
p977
aVtc_289_047_Modify_bearer__ERAB_modify_response_s1_intra_system_handover_triggered_activate_dedicated_bearer_one_pdn_multiple_bearer.LWG
p978
aVtc_293_021_X2_Based_HO__Update_Bearer_Request_while_waiting_for_Modify_Bearer_Response.LWG
p979
aVtc_209_25_attach_detach_imsi_msisdn_imei.LWG
p980
aVtc_265_160_Detach_Flow_NW_init__Ue_moved_to_non_3gpp_while_imsi_detach.LWG
p981
aVtc_198_001_UDPPort.LWG
p982
aVtc_198_002_TEID.LWG
p983
aVtc_198_004_TLLI.LWG
p984
aVtc_198_007_GTPUError.LWG
p985
aVtc_198_008_GTPUEchoReq.LWG
p986
aVtc_198_012_TCPFragments.LWG
p987
aVtc_198_014_SCTPv4ToInvalidIndex.LWG
p988
aVtc_198_016_SCTPv4IndexEntry00.LWG
p989
aVtc_198_017_SCTPv4EmptyIndexMap.LWG
p990
aVtc_198_020_SCTPFragments.LWG
p991
aVtc_198_030_UDPv6_TEID.LWG
p992
aVtc_198_031_TCPv6_DNS.LWG
p993
aVtc_198_036_SCTPv6ToInvalidIndex.LWG
p994
aVtc_198_037_SCTPv6VerTag0.LWG
p995
aVtc_198_038_SCTPv6IndexEntry00.LWG
p996
aVtc_198_039_SCTPv6EmptyIndexMap.LWG
p997
aVtc_198_042_ICMPv6EchoResp.LWG
p998
aVtc_198_043_ICMPv6DstUnreachSCTP.LWG
p999
aVtc_198_051_IPv6_traffic_flow.LWG
p1000
aVtc_198_053_IPv6_traffic_flow_multiple_vpn.LWG
p1001
aVtc_198_054_IPv4_load_sharing.LWG
p1002
aVtc_198_052_IPv4_traffic_flow_multiple_vpn.LWG
p1003
aVtc_198_055_IPv6_load_sharing.LWG
p1004
aVtc_198_057_IPv6_route_selection.LWG
p1005
aVtc_198_059_IPv6_no_route.LWG
p1006
aVtc_198_058_IPv4_no_route.LWG
p1007
aVtc_198_060_TCPv6Port.LWG
p1008
aVtc_198_061_TCPUDPPortToNCB_IPv6.LWG
p1009
aVtc_199_102_seq_no_overflow_release_access_bearers_request.LWG
p1010
aVtc_241_224_israu_for_context_request_equal_ownnri_pdp_with_pool_relay.LWG
p1011
aVtc_241_421_israu_new_sgw_change_buffer_ubr_1_create_session_no_resp_reject_ubr.LWG
p1012
aVtc_241_673_intra_rau_with_dedicated_bearer_partial_failed_receive_deactivate_before_service_request.LWG
p1013
aVtc_241_551_s4_with_dedicated_bearer_paging_by_payload_mf.LWG
p1014
aVtc_241_540_israu_new_gn_to_s4_pdp_to_bearer_QoSsub_higher_than_QoSNeg.LWG
p1015
aVtc_241_733_service_request_wf_modify_bearer_response_interfered_by_activate_pdp_context.LWG
p1016
aVtc_238_026_mme_eps_irat_ho_target__multi_pdn_sgw_relocation_setup_fails.LWG
p1017
aVtc_159_200_check_ctum_log.LWG
p1018
aVtc_226_517_initial_ue_intra_RAU_Gn_SGSN_idle_ControlMode_On_reject_illegal_ue.LWG
p1019
aVtc_236_161_s4_3gdt_intra_rau_from_dt_to_non_dt_followed_by_two_service_requests.LWG
p1020
aVtc_236_078_s4_hard_ho_intra_rau_with_3gdt_bearer_sgw_nochange_no_releaseAccessBearer.LWG
p1021
aVtc_236_268_SRNS_Relocation_S4_with_MBC_over_S16_target_DtSelMode_5_APN_in_APN_list_TAC_in_TAC_list.LWG
p1022
aVtc_275_073_tau_inter_new_no_update_location_response_sgsn00040258.LWG
p1023
aVtc_250_182_s6d_inter_new_rau_ul_rejected_roaming_not_allowed_remap_on_with_err_diag.LWG
p1024
aVtc_304_105_intra_tau_success__control_mode_threshold_not_reached.LWG
p1025
aVtc_230_045_activate_reject_ms_99_s4_ipvtype_not_subsc.LWG
p1026
aVtc_230_407_deactivate_primary_pdp_context_tz_change.LWG
p1027
aVtc_230_059_activate_reject_due_to_fallback_not_allowed.LWG
p1028
aVtc_59_9_mtmsi_restart_counter.LWG
p1029
aVtc_245_015_inter_rau_new_af_with_sgw_change_upd_failed_before.LWG
p1030
aVtc_245_211_inter_rau_new_s4_turning_back_from_mme_no_cancel_location_with_sgw_change.LWG
p1031
aVtc_263_241_Attach_Flow__Attach_Request_with_diff_IE_while_waiting_for_identification_response.LWG
p1032
aVtc_231_103_sgsn_delete_subscriber_after_create_session_s4.LWG
p1033
aVtc_231_071_activation_RAB_assignment_interrupted_by_detach.LWG
p1034
aVtc_231_280_activate_pdp_request_accept_during_deactivating.LWG
p1035
aVtc_44_871_mme_assoc_reestablish__board_block_sbc.LWG
p1036
aVtc_220_501_csfb_to_1xrtt_in_ecm_idle_attach_request_wf_ue_context_release_request.LWG
p1037
aVtc_243_100_tau_from_sgsn_s3_active_flag_keep_old_sgw.LWG
p1038
aVtc_243_080_tau_from_sgsn_s3_no_context_response.LWG
p1039
aVtc_232_507_static_routes__bfd_supervision_of_static_route_v6.LWG
p1040
aVtc_232_402_bfd__ipv6_alarm.LWG
p1041
aVtc_232_204_bfd__multiplier_variations_ipv6.LWG
p1042
aVtc_232_503_static_routes__ipv4_ipv6_conf_deconf.LWG
p1043
aVtc_183_005_itc_folder_file_names.LWG
p1044
aVtc_276_022_Inter_TAU_New_MME__New_TAU_Request_while_waiting_for_Modify_Bearer_Response.LWG
p1045
aVtc_247_130_inter_w_to_l_old_wf_fwd_reloc_resp_interrupted_by_hlr_reset.LWG
p1046
aVtc_247_136_inter_w_to_l_old_wf_session_to_complete_interrupted_by_downlink_data_notification.LWG
p1047
aVtc_292_041_x2_ho_without_time_zone_change.LW
p1048
aVtc_292_111_x2_ho_unknown_bearers_in_path_switch_request.LW
p1049
aVtc_292_170_inter_handover_before_timer_expiration_of_x2_ho.LW
p1050
aVtc_292_152_x2_handover_emc_type_c_hss_reset.LW
p1051
aVtc_361_001_rau_l_to_w_with_cl_released.LW
p1052
aVtc_274_200_Intra_and_pTAU__Delete_Bearer_Request_while_waiting_for_Modify_Bearer_Response.LW
p1053
aVtc_298_113_EF_NRSPCA_S4_interfere_Deactivation_from_S4SGSN.LW
p1054
aVtc_298_018_nrspca_s4_idle_security.LW
p1055
aVtc_298_035_EF_S4_Network_Request_Secondary_PDP_Activation_SM_Status_cause_81.LW
p1056
aVtc_298_024_nrspca_s4_request_secondary_reject_activation_rejected_unspecified.LW
p1057
aVtc_298_404_ms_init_deact_mf_tdi_true_ti_default_bearer_without_rab.LW
p1058
aVtc_298_702_pgw_init_modification_ef_ms_deact_req_tdi_false_ti_default_wf_modify_accept.LW
p1059
aVtc_298_662_pgw_init_modification_af_paging_no_response.LW
p1060
aVtc_298_654_pgw_init_modification_mf_3gdt_enable.LW
p1061
aVtc_298_505_pgw_init_deletion_af_ebi_contain_invalid_value.LW
p1062
aVtc_298_783_S4_3GDT_downlink_data_notification_wait_MBR_ef_detach.LW
p1063
aVtc_311_22_intra_srns_reloc_s4_with_sgw_change_3gdt_service_request_frequency.LW
p1064
aVtc_334_251_path_failure_service_req_connected_mf.LW
p1065
aVtc_277_105_tau_inter_old_emergency_ongoing_tau_req_integrity_failure.LW
p1066
aVtc_342_105_set_target_with_same_connection.LW
p1067
aVtc_312_202_inter_old_srns_reloc_wf_fwd_reloc_compl_interrupted_by_attach_on_new_iu.LW
p1068
aVtc_263_202_Attach_Flow_Pb__Delete_Bearer_Request_while_waiting_for_Attach_Complete.LW
p1069
aVtc_194_081_cl_subscription_withdrawn_during_auth.LW
p1070
aVtc_262_1024_apn_resolution_ext_no_fallback.LW
p1071
aVtc_314_011_hlr_init_qos_modification_mbr.LW
p1072
aVtc_11_393_ggsn_selec_3gTo4g_tau_mme.LW
p1073
aVtc_329_003_attach_rs_allowed_emergency_plmn_change_ula_fails.LW
p1074
aVtc_322_142_smooth_move_ef_update_bearer_request_ignore.LW
p1075
aVtc_313_124_inter_new_srns_reloc_s16_without_sgw_change_waiting_for_relocation_complete_timeout.LW
p1076
aVtc_304_215_inter_tau_same_ie_control_mode_threshold_exceeded_reject_wf_icsr.LW
p1077
aVtc_304_473_initial_ue_csfb_to_wg_control_mode_threshold_exceeded_usc_ignore_wf_icsr.LW
p1078
aVtc_304_490_uplink_nas_csfb_to_wg_control_mode_threshold_exceeded_int_prot_nok_usc_ignore_in_ecm_connected.LW
p1079
aVtc_294_327_intra_handover_with_sgw_relocation_no_response_from_target.LW
p1080
aVtc_294_050_s1_intra_handover_type_c_new_plmn_no_roaming_restriction_emc_sup_sim_only_same_profile.LW
p1081
aVtc_275_011_tau_inter_new_active_flag_tau_complete_before_ics_response.LW
p1082
aVtc_275_104_Inter_TAU_New_MME__Imei_Check_Answer_Unknown_Equipment_before_TAU_Accept.LW
p1083
aVtc_275_322_tau_inter_new_authentication_failure_Synch_failure.LW
p1084
aVtc_289_066_Modify_bearer__UE_context_modification_failure_s1_intra_system_ho_triggered_two_pdn_SGW_send_new_UBR_before_ho_end.LW
p1085
aVtc_289_061_Modify_bearer__UE_context_modification_request_meanwhile_path_switch_request_HO_all_bearers_fail.LW
p1086
aVtc_340_42_validation_move_w_s4_filter_imsi_collection.LW
p1087
aVtc_265_115_Detach_Flow_NW_init__Cancel_Location_Update_Procedure_while_waiting_for_Detach_Accept.LW
p1088
aVtc_265_160_Detach_Flow_NW_init__Ue_moved_to_non_3gpp_while_imsi_detach.LW
p1089
aVtc_265_110_Detach_Flow_NW_init__S1_Reset_while_waiting_for_Purge_UE_Answer.LW
p1090
aVtc_273_263_tau_intra__sgw_relocation_active_enb_fails_dedicated.LW
p1091
aVtc_273_341_tau_intra_idle_active_no_tz_change.LW
p1092
aVtc_273_610_tau_intra_periodic_SGW_unavailable__two_pdn.LW
p1093
aVtc_266_113_service_request_modify_bearer_no_response.LW
p1094
aVtc_285_030_PDN_Connectivity__Create_bearer_req_while_wf_erab_setup_response.LW
p1095
aVtc_236_039_s4_3gdt_detach_during_waiting_for_modify_bearer_rsp_in_active_procedure.LW
p1096
aVtc_218_311_tau_from_sgsn_preserved_gbr_bearer_buffer_1_ubr_1_cbr.LW
p1097
aVtc_267_110_Service_Request__S1_Reset_while_waiting_for_Initial_Ctx_Setup_Response.LW
p1098
aVtc_267_500_Service_Request_SGW_unavailable__Attach_Request_while_wf_Create_Session_Response.LW
p1099
aVtc_349_104_RAU_new_sgsn__Relocation_Req_while_waiting_for_CCA_initial.LW
p1100
aVtc_321_053_s4_logging_inter_rau_new_sgsn_context_response_with_imeisv_traced_by_imei.LW
p1101
aVtc_324_071_af_modify_bearer_pdn_particially_accept_3gdt.LW
p1102
aVtc_324_137_af_service_request_data_only_utran_not_allowed_3gdt.LW
p1103
aVtc_324_363_ef_cancel_location_with_updateProcedure_wf_security_wf_ula_hlr_payload.LW
p1104
aVtc_324_457_ef_detach_request_poweroff_abort_wf_update_location_hss.LW
p1105
aVtc_284_561_emergency_pdn_connectivity_first_pgw_in_list_successful.LW
p1106
aVtc_250_105_ignore_IDR_when_EPS_sub_downgrade_GPRS_sub.LW
p1107
aVtc_202_42_type_c_emergency_pdn_ecm_idle.L14b
p1108
aVtc_346_691_pra_cn_predefined_s1_ho_cca_u_failure__service_request__out2in.L14b
p1109
aVtc_346_493_Small_Local_Restart__Terminate_when_UE_S1_release.L14b
p1110
aVtc_346_670_pra_cn_predefined_cca_u_for_initial_report_timeout_in_attach_then_service_request_in.L14b
p1111
aVtc_195_416_ue_trace_deactivate_trace_s1_intra_system_handover_triggered.L14b
p1112
aVtc_238_062_mme_eps_irat_ho_target__relocation_cancel.L14b
p1113
aVtc_220_413_csfb_to_1xrtt_in_ecm_connected_handover_required_meanwhile_CBR_received.L14b
p1114
aVtc_44_895_mme_assoc_reestablish__s1_setup_when_iterator_started_finished.L14b
p1115
aVtc_310_123_af__SGSN_accepted_only_a_subset_of_PDN_Connections_in_FRResponse_same_SGW.L14b
p1116
aVtc_275_206_tau_inter_new_emergency_type_b_restricted_no_rrc_or_active_flag.L14b
p1117
aVtc_327_012_recovery_intra_TAU__initial_Attach_Request_while_waiting_for_Ue_Backup_Response.L14b
p1118
aVtc_347_290_activate_dedicated_bearer__RAR_while_waiting_erab_setup_response.L14b
p1119
aVtc_278_001_Inter_TAU_Old_MME__Attach_Request_while_waiting_for_Cancel_Location.L14b
p1120
aVtc_194_980_s3_identification_request_during_waiting_location_report__idr_flags_ef.L14b
p1121
aVtc_304_121_initial_ue_intra_tau_control_mode_threshold_exceeded_usc_detach_wf_release_request_response.L14b
p1122
aVtc_79_036_israu_new_streaming_context_MBR_not_zero_service_request.W14b
p1123
aVtc_245_340_israu_new_l_to_w_with_GBR_dedicated_bearer_ipv6_3gdt.W14b
p1124
aVtc_298_073_s4_nrspca_activate_same_nsapi_of_dedicated_bearer_rab_released.W14b
p1125
aVtc_12_83_service_request_pmmidle_data.W14b
p1126
aVtc_12_512_pmm_undefined_attach_when_updating_location_interfered_by_rnc_reset.W14b
p1127
aVtc_342_864_online_change_LI_U.W14b
p1128
aVtc_31_117_cli_get_subscriber_timeout.W14b
p1129
aVtc_241_500_israu_new_gn_to_s4_pdp_to_bearer_one_pdp_conversational_mbr_0.W14b
p1130
aVtc_44_841_mme_assoc_reestablish__device_restart_sbc.LWG
p1131
aVtc_267_509_Service_Request_SGW_unavailable__Context_Request_while_wf_Create_Session_Response.LWG
p1132
aVtc_239_635_inter_rau_new_multi_pdn_connection_delete_subscriber_tz_change.LWG
p1133
aVtc_211_013_streamed_cell_trace_mapping_log_only.LWG
p1134
aVtc_298_074_s4_nrspca_activate_same_nsapi_of_dedicated_bearer_apn_failed.LWG
p1135
aVtc_298_301_EF_SIBD_S4_Activate_From_MS_TI_Flag.LWG
p1136
aVtc_175_007_activate_interrupted_by_suspend_before_create_ack.LWG
p1137
aVtc_348_103_isc_rau_mf__g_to_w_multiple_pdp_with_sx.LWG
p1138
aVtc_247_01_inter_w_to_l_old_main_flow_without_sgw_relocation.LWG
p1139
aVtc_247_182_inter_w_to_l_old_wf_session_to_complete_interrupted_by_fwd_reloc_req.LWG
p1140
aVtc_247_143_inter_w_to_l_old_wf_session_to_complete_interrupted_by_context_request.LWG
p1141
aVtc_247_120_inter_w_to_l_old_wf_fwd_reloc_resp_interrupted_by_transfered_attach.LWG
p1142
aVtc_247_148_inter_w_to_l_old_sgsn_context_request_wf_cancel_location.LWG
p1143
aVtc_56_4_abort.LWG
p1144
aVtc_243_751_tau_from_sgsn_s3_change_sgw_with_csg_id_feature_off.LWG
p1145
aVtc_243_722_tau_from_sgsn_s3_active_flag_false_ddn_with_imsi_wf_ula.LWG
p1146
aVtc_232_502_static_routes__ipv6_conf_deconf.LWG
p1147
aVtc_232_205_bfd__udp_port_no_ipv6.LWG
p1148
aVtc_232_511_static_routes__bfd_supervision_of_static_route_v6_on_Gom.LWG
p1149
aVtc_232_204_bfd__multiplier_variations_ipv6.LWG
p1150
aVtc_318_004_pgw_restart_notification_mf_multi_pdns_tobe_clean.LWG
p1151
aVtc_237_353_mme_eps_irat_ho_source__cancel_location_timer_shorter_than_s1rh.LWG
p1152
aVtc_237_400_mme_eps_irat_ho_source_emergency_type_a_feu_on_csg_id.LWG
p1153
aVtc_257_35_pws_etws_write_replace_warning_request_when_olp_rshl_false.LWG
p1154
aVtc_304_263_tau_from_gnsgsn_when_wf_tau_complete_control_mode_reject_congestion.LWG
p1155
aVtc_194_991_downlink_A21_AIS_during_waiting_location_report__idr_flags_ef.LWG
p1156
aVtc_159_200_check_ctum_log.LWG
p1157
aVtc_23_09_transfer_to_primary_and_change_vip_addr.LWG
p1158
aVtc_346_693_pra_cn_predefined_attach_in_feature_off_location_report_out.LWG
p1159
aVtc_218_015_tau_from_sgsn_no_tau_complete_received.LWG
p1160
aVtc_238_250_mme_eps_irat_Gn_ho_target__two_pdns_only_one_ggsn_pgw_mapping_successful.LWG
p1161
aVtc_238_311_mme_eps_irat_Gn_ho_target__main_flow_with_too_high_QoS_for_fake_default_bearer.LWG
p1162
aVtc_238_401_mme_eps_irat_Gn_ho_target__ho_required_intra_same_sgw_wf_modify_response.LWG
p1163
aVtc_290_048_Timer_Based_GBR_Deact__delete_bearer_request_wf_ue_context_release_complete_before_timer_expires.LWG
p1164
aVtc_241_006_israu_old_without_bearer_security_mode_3.LWG
p1165
aVtc_241_017_intra_rau_with_bearer_sgw_unchange_mf_s4_with_all_fTeid_undefined.LWG
p1166
aVtc_241_476_intra_rau_with_10_dedicated_bearer_sgw_unchange_mf_s4.LWG
p1167
aVtc_241_710_intra_rau_dedicate_bearer_update_failed_and_pgw_delete_bearer_after_rau.LWG
p1168
aVtc_241_754_intra_rau_with_multi_bearer_sgw_change_one_context_failed_node_function_deactivate_pdp_after_rau_on.LWG
p1169
aVtc_183_005_itc_folder_file_names.LWG
p1170
aVtc_256_011_mme_eps_srvcc_ho_source_cs_only_mf_with_rau_to_gn_sgsn_for_multi_voice_bearers_in_multi_pdns.LWG
p1171
aVtc_284_350_pdn_connectivity_interrupted_by_path_switch_request.LWG
p1172
aVtc_236_296_3gdt_switchback_with_gbr_bearer_iu_release_request_none_user_inactivity_received_received_wf_modify_bearer_response.LWG
p1173
aVtc_248_27_inter_l_to_w_new_handover_visitor_s4sgsn_selects_gp.LWG
p1174
aVtc_248_37_inter_l_to_w_new_two_pdns_all_modify_bearer_fail_with_sgw_change.LWG
p1175
aVtc_248_151_inter_l_to_w_new_delete_bearer_request_received_wf_rau_complete.LWG
p1176
aVtc_248_40_inter_l_to_w_new_dns_query_sgw_no_response.LWG
p1177
aVtc_248_149_inter_l_to_w_new_relocation_required_received_wf_rau_complete.LWG
p1178
aVtc_248_163_inter_l_to_w_new_interfering_relocation_detect.LWG
p1179
aVtc_248_31_inter_l_to_w_new_s4_license_off_in_target_sgsn.LWG
p1180
aVtc_245_321_intra_rau_new_s4_sgsn_l_to_w_mainflow_without_sgw_change_downgrade_qos_upd_timeout.LWG
p1181
aVtc_294_375_s1_intra_handover_emc_combined.LWG
p1182
aVtc_250_43_s6d_inter_rau_old_hss_context_id_out_of_range_nodeprop_gtpv1.LWG
p1183
aVtc_250_67_s6d_activation_with_EPS_data_s4_license_off.LWG
p1184
aVtc_250_182_s6d_inter_new_rau_ul_rejected_roaming_not_allowed_remap_on_with_err_diag.LWG
p1185
aVtc_250_92_s6d_cli_get_subscriber_detail_gprs_subscription.LWG
p1186
aVtc_220_620_Extended_Service_Request__UE_Context_Release_Request_while_waiting_for_Initial_Context_Setup_Response.LWG
p1187
aVtc_578_04_check_re_activate_w.LW
p1188
aVtc_11_412_apn_redirect_to_SubscribedAPN_ApnRedirectForMultipleApn_lowestpdpcontextid.LW
p1189
aVtc_11_434_one_PDP_context_deactivating_one_acitve_interference_by_rab_release_request.LW
p1190
aVtc_44_871_mme_assoc_reestablish__board_block_sbc.LW
p1191
aVtc_318_201_idle_deactivate_dedicated_bearers_one_by_one_reactivate_req.LW
p1192
aVtc_349_102_RAU_new_sgsn__Reset_Resources_while_waiting_for_CCA_initial.LW
p1193
aVtc_321_111_ms_init_modification_sgsn_init_deactivate_pdp_context.LW
p1194
aVtc_334_281_path_failure_service_req_af_multi_pdn_create_session_no_resp.LW
p1195
aVtc_334_165_sgw_restart_mf_multiple_pdn_s5_deactivation_and_s8_relocation.LW
p1196
aVtc_202_01_ecm_connected_s1_release.LW
p1197
aVtc_310_221_ef__Ue_Release_Request_wf_PS_to_CS_Response.LW
p1198
aVtc_241_801_israu_interfering_context_request_no_cancel_location_s4.LW
p1199
aVtc_194_114_standalone_isd_all_3gpp_access_restricted.LW
p1200
aVtc_194_183_hss_reset_ue_activity_x2_ho.LW
p1201
aVtc_194_205_isd_imsi_unknown.LW
p1202
aVtc_340_40_validation_move_w_s4_filter_device_type_ue_pmm_idle.LW
p1203
aVtc_284_575_emergency_pdn_connectivity_pb_activate_dedicated_bearer_after_configured_max_bearers_setup.LW
p1204
aVtc_346_462_AF__Service_Request_2_PDNs_with_2_Sx_Sessions_And_One_PDN_failed_in_MBR.LW
p1205
aVtc_346_546_AF__HO_Inter_Target__2PDN_BCM_Sx_only_one_CCA_U_cause_5003.LW
p1206
aVtc_346_493_Small_Local_Restart__Terminate_when_UE_S1_release.LW
p1207
aVtc_346_518_AF__TAU_Inter_New_from_gn_imei_check_blacklisted.LW
p1208
aVtc_346_201_RFSP__CCA_Initial_no_RFSP__RAR_with_RFSP_same_as_subscribed.LW
p1209
aVtc_346_703_pra_cn_predefined_lrc_optimization_current_eNB_area_out_of_pra.LW
p1210
aVtc_346_1014_AF__seamless_move_target_ula_time_out.LW
p1211
aVtc_346_1001_seamless_move_target_sx_only_ddn_before_ula.LW
p1212
aVtc_346_683_pra_cn_predefined_x2_ho_after_isc_tau_2pdns_out2in_and_out_out.LW
p1213
aVtc_298_319_EF_SIBD_S4_RAB_Release.LW
p1214
aVtc_314_009_hss_init_qos_modification_gprs_data_earp_no_mbc.LW
p1215
aVtc_348_022_deactivation__sgsn_init_modification_ggsn_return_invalid_qos.LW
p1216
aVtc_275_073_tau_inter_new_no_update_location_response_sgsn00040258.LW
p1217
aVtc_327_603_Inter_TAU_Recovery__TAU_Request_while_waiting_for_Create_session_response.LW
p1218
aVtc_335_150_Locator_Restart__Service_Request__GA_Change.LW
p1219
aVtc_347_019_Inter_TAU_New_MME_from_gn__Attach_Req_Uplink_while_waiting_for_CCA_initial.LW
p1220
aVtc_347_040_Inter_HO_Target_from_gn__Location_Report_while_waiting_for_Forward_Relocation_Complete_Notification.LW
p1221
aVtc_365_05_seq_num_overflow_forward_relocation_req.LW
p1222
aVtc_359_060_handover_from_non3gpp_ef_activate_pdp_context_request_with_handover.LW
p1223
aVtc_359_061_handover_from_non3gpp_ef_activate_pdp_context_request_with_handover_other_nsapi.LW
p1224
aVtc_359_102_handover_from_3gpp_mf_connected_Notify_UE_false.LW
p1225
aVtc_359_134_handover_from_3gpp_PGW_init_deletion_EF_ue_sm_status.LW
p1226
aVtc_31_064_activate_loc_not_confirmed_ul_fails_network_failure.LW
p1227
aVtc_361_221_s3_handover_l_to_w_with_cl_wf_20s_timerout.LW
p1228
aVtc_316_214_Service_Request__No_UE_Backup.LW
p1229
aVtc_316_215_Service_Request_With_Dedicated_Bearers_Partial_Success__Backup_UE.LW
p1230
aVtc_166_165_inter_new_srns_update_ggsn_fails.WG14a
p1231
a.