(lp0
Vtc_276_375_Inter_TAU_New_MME__New_TAU_Request_while_waiting_for_tau_complete_old_guti.L14b
p1
aVtc_346_728_pra_cn_predefined_lrc_optimization_x2_ho__continuous_ho_all_enbs_lrc_needed.L14b
p2
aVtc_335_143_Geo_Recovery_upon_DDN_with_IMSI_and_then_Service_Request.L14b
p3
aVtc_225_416_recv_service_while_waiting_extended_service_request.L14b
p4
aVtc_327_022_recovery_intra_TAU__initial_Detach_Request_while_waiting_for_Ue_Backup_Response.L14b
p5
aVtc_327_322_recovery_service_request__initial_Imsi_Attach_Request_while_waiting_for_Ue_Backup_Response.L14b
p6
aVtc_197_007_choose_pair_by_naptr_order.L14b
p7
aVtc_103_701_MME_restarts.L14b
p8
aVtc_103_1101_resending_AIR_interfering_CLR.L14b
p9
aVtc_263_027_Attach_Flow__Attach_Request_Different_IEs_IP_OK_while_waiting_for_Identity_Response.L14b
p10
aVtc_304_114_initial_ue_intra_tau_control_mode_threshold_exceeded_usc_ignore_replace_s1.L14b
p11
aVtc_324_317_ef_gr_cli_delete_subscriber_data_wf_modify_bearer_response_wf_ula.WG14a
p12
aVtc_311_204_intra_srns_reloc_s4_sgw_change_wf_reloc_req_ack_interrupted_by_cancel_loc_subscrip_withdrawn.W14b
p13
aVtc_101_015_single_mbms_session_large_restart.W14b
p14
aVtc_250_161_s6d_IDR_IDA_Change_GPRS_to_eps_subscription_re_attach.W14b
p15
aVtc_335_57_mobility_to_wifi_ecm_idle_af_all_cell_from_eNB_not_recognized_by_MME.LW
p16
aVtc_23_09_transfer_to_primary_and_change_vip_addr.LW
p17
aVtc_220_403_csfb_to_1xrtt_in_ecm_connected_path_switch_request_HO_success.LW
p18
aVtc_219_131_s3_handover_w_to_l_with_cl_two_pdns_one_failed_sgw_relocation.LW
p19
aVtc_43_101__removal_of_disconnected_eNodeBs__CLI_removal.LW
p20
aVtc_260_070_mbms_session_start_af_gw_resend_request_msg_diff_absolute_time.LW
p21
aVtc_268_105_ue_release__cs_paging_wf_release_access_bearer_resp.LW
p22
aVtc_298_783_S4_3GDT_downlink_data_notification_wait_MBR_ef_detach.LW
p23
aVtc_103_1101_resending_AIR_interfering_CLR.LW
p24
aVtc_341_609_x2_activity_event_isc_tau_from_gn_sgsn.LW
p25
aVtc_211_015_streamed_cell_trace_mapping_alarm_cease.LW
p26
aVtc_362_241_RAU_LtoG_Combined_Node__Delete_UE_Backup.LWG
p27
aVtc_79_101_activate_reject_for_non_qos_reason_with_later_qos_updation_buffer_upd_req.LWG
p28
aVtc_218_330_tau_from_sgsn_detach_odb_bit0.LWG
p29
aVtc_262_1055_imsi_attach_with_csg_id_is_rejected.LWG
p30
aVtc_183_005_itc_folder_file_names.LWG
p31
aVtc_342_066_x2_attach_detach_imsi_msisdn.LWG
p32
aVtc_342_091_modify_tx2c.LWG
p33
aVtc_179_318_Ccheck_TraceCollectionIpv6server.LWG
p34
aVtc_202_40_emergency_pdn_ecm_connected.LWG
p35
aVtc_202_102_small_restart.LWG
p36
aVtc_324_006_mf_ser_req_signaling_after_ack_3gdt.LWG
p37
aVtc_241_432_intra_rau_with_bearer_sgw_unchange_2_pdns_3gdt.LWG
p38
aVtc_23_09_transfer_to_primary_and_change_vip_addr.LWG
p39
aVtc_59_11_sequence_check_replica_values.LWG
p40
aVtc_59_9_mtmsi_restart_counter.LWG
p41
aVtc_219_131_s3_handover_w_to_l_with_cl_two_pdns_one_failed_sgw_relocation.LWG
p42
aVtc_238_211_mme_eps_irat_ho_target__SGW_unavailable.LWG
p43
aVtc_103_1101_resending_AIR_interfering_CLR.LWG
p44
aVtc_194_976_downlink_data_notification_during_waiting_location_report__idr_flags_ef.LWG
p45
aVtc_11_369_activate_ipv6_pdp_context_isd_pdp_type_dynamic.LWG
p46
aVtc_204_901_mme_eps_ho_target_insert_subscriber_data_with_odb_bit0_during_wf_tau_complete.LWG
p47
aVtc_38_81_intra_rau_new_rnc_with_authentication_no_ptmsi_signature.W14b
p48
aVtc_23_09_transfer_to_primary_and_change_vip_addr.LWG
p49
aVtc_363_011_cli_get_ra.LWG
p50
aVtc_342_066_x2_attach_detach_imsi_msisdn.LWG
p51
aVtc_342_133_update_one_of_two_targets_x3_address.LWG
p52
aVtc_236_287_Relocation_3gdt_switchback_create_bearer_request_received_wf_modify_bearer_response.LWG
p53
aVtc_194_100_check_gauge_unstable_not_parked.LWG
p54
aVtc_232_401_bfd__ipv4_alarm.LWG
p55
aVtc_267_503_Service_Request_SGW_unavailable__Detach_Request_without_switch_off_while_wf_Create_Session_Response.LWG
p56
aVtc_216_106_icmpv6_outNeighborSol.LWG
p57
aVtc_96_064_intra_sgsn_intra_ra_psho_interfered_by_delete_pdp_then_received_error_indi_from_ggsn.LWG
p58
aVtc_259_77_ef_isd_paging_s4_w.LWG
p59
aVtc_275_073_tau_inter_new_no_update_location_response_sgsn00040258.LWG
p60
aVtc_208_43_interception_after_small_restart.LWG
p61
aVtc_178_446_modify_ss7_sctp_profile_hbwps.LWG
p62
aVtc_80_040_activate_streaming_no_lics.LWG
p63
aVtc_202_01_ecm_connected_s1_release.LWG
p64
aVtc_202_43_type_d_emergency_pdn_ecm_idle.LWG
p65
aVtc_305_040_oms_mmi.LWG
p66
aVtc_12_512_pmm_undefined_attach_when_updating_location_interfered_by_rnc_reset.LWG
p67
aVtc_209_180_handover_w_to_l_source_s4_sgsn.LW
p68
aVtc_231_738_failed_rab_reestablish_on_second_service_request_data_s4.LW
p69
aVtc_236_311_HO_over_S3_3GDT_switchback_ef_delete_bearer_request_received_wf_rab_assignment_response.LW
p70
aVtc_304_102_emergency_intra_tau_success__control_mode_threshold_exceeded.LW
p71
aVtc_103_1101_resending_AIR_interfering_CLR.LW
p72
aVtc_11_369_activate_ipv6_pdp_context_isd_pdp_type_dynamic.LW
p73
aVtc_202_40_emergency_pdn_ecm_connected.LW
p74
aVtc_260_070_mbms_session_start_af_gw_resend_request_msg_diff_absolute_time.LW
p75
aVtc_260_272_receive_sm_stop_req_while_wf_setup_iteration.LW
p76
aVtc_103_1101_resending_AIR_interfering_CLR.L14b
p77
aVtc_327_022_recovery_intra_TAU__initial_Detach_Request_while_waiting_for_Ue_Backup_Response.L14b
p78
aVtc_282_020_delete_bearer_request_handover_to_non_3GPP_ecm_connected_multi_pdn.L14b
p79
aVtc_316_245_CSFB_1xRTT_ECM_Connected__Bacup_UE.L14b
p80
aVtc_195_406_ue_trace_start_meanwhile_handover_required.L14b
p81
aVtc_195_416_ue_trace_deactivate_trace_s1_intra_system_handover_triggered.L14b
p82
aVtc_304_102_emergency_intra_tau_success__control_mode_threshold_exceeded.L14b
p83
aVtc_304_121_initial_ue_intra_tau_control_mode_threshold_exceeded_usc_detach_wf_release_request_response.L14b
p84
aVtc_202_02_ecm_idle_s1_release.L14b
p85
aVtc_202_42_type_c_emergency_pdn_ecm_idle.L14b
p86
aVtc_341_691_x2_activity_event_guti_reallocation_during_ue_restoration.L14b
p87
aVtc_220_411_csfb_to_1xrtt_in_ecm_connected_path_switch_request_subscription_cancelled.L14b
p88
aVtc_297_407_move_at_periodic_rau.G14b
p89
aVtc_208_43_interception_after_small_restart.G14b
p90
aVtc_15_133_inter_new_rau_resending_new_rai.G14b
p91
aVtc_250_105_ignore_IDR_when_EPS_sub_downgrade_GPRS_sub.LWG
p92
aVtc_179_318_Ccheck_TraceCollectionIpv6server.LWG
p93
aVtc_266_306_Service_Request_SGW_unavailable__create_session_two_PDN_one_failed.LWG
p94
aVtc_327_221_recovery_service_request__Insert_Subscriber_Data_while_waiting_for_Guti_Reallocation_Complete.LWG
p95
aVtc_183_005_itc_folder_file_names.LWG
p96
aVtc_329_003_attach_rs_allowed_emergency_plmn_change_ula_fails.LWG
p97
aVtc_275_073_tau_inter_new_no_update_location_response_sgsn00040258.LWG
p98
aVtc_178_690_action_sctp_sys_assoc_move_command.LWG
p99
aVtc_259_99_ef_s6d_s4_attach_old_w.LWG
p100
aVtc_208_43_interception_after_small_restart.LWG
p101
aVtc_220_411_csfb_to_1xrtt_in_ecm_connected_path_switch_request_subscription_cancelled.LWG
p102
aVtc_318_201_idle_deactivate_dedicated_bearers_one_by_one_reactivate_req.LWG
p103
aVtc_298_783_S4_3GDT_downlink_data_notification_wait_MBR_ef_detach.LWG
p104
aVtc_241_432_intra_rau_with_bearer_sgw_unchange_2_pdns_3gdt.LWG
p105
aVtc_38_81_intra_rau_new_rnc_with_authentication_no_ptmsi_signature.W14b
p106
aVtc_81_010_israu_conversational.W14b
p107
aVtc_26_058_activate_3_primary_contexts_different_policy_maps.W14b
p108
aVtc_578_32_check_ebm_para_statistics_ue_return_duration.L14b
p109
aVtc_266_011_DownlinkDataNotification_interfering_ISD_sgsn00026976.L14b
p110
aVtc_335_140_Geo_Recovery_upon_Service_Request.L14b
p111
aVtc_335_142_Geo_Recovery_upon_Inter_TAU.L14b
p112
aVtc_335_143_Geo_Recovery_upon_DDN_with_IMSI_and_then_Service_Request.L14b
p113
aVtc_329_003_attach_rs_allowed_emergency_plmn_change_ula_fails.L14b
p114
aVtc_302_232_Timer_Based_GBR_Deact__UE_Context_Release_Request_during_SRVCC_to_1xRTT_UE_Return_through_Service_Request.L14b
p115
aVtc_304_102_emergency_intra_tau_success__control_mode_threshold_exceeded.L14b
p116
aVtc_304_451_uplink_nas_csfb_to_wg_control_control_mode_threshold_exceeded_usc_reject_congestion.L14b
p117
aVtc_346_729_pra_cn_predefined_lrc_optimization_x2_ho__continuous_ho_1st_and_last_enb_lrc_needed.L14b
p118
aVtc_103_1101_resending_AIR_interfering_CLR.L14b
p119
aVtc_220_414_csfb_to_1xrtt_in_ecm_connected_ue_context_modification_failure_UBR_received_hold_two_procedures.L14b
p120
aVtc_238_052_mme_eps_irat_ho_target__tau_request_during_wf_handover_notify.L14b
p121
aVtc_284_350_pdn_connectivity_interrupted_by_path_switch_request.L14b
p122
aVtc_289_031_Modify_bearer__Downlink_nas_transport_meanwhile_path_switch_request_HO_success.LW
p123
aVtc_81_151_rnc_modify_policymap_changed_no_resources.LW
p124
aVtc_275_118_tau_inter_new_emergency_erroneous_ie_authenticated_no_imsi.LW
p125
aVtc_275_073_tau_inter_new_no_update_location_response_sgsn00040258.LW
p126
aVtc_238_162_mme_eps_irat_Gn_ho_target__Relocation_cancel_when_wf_handover_notify.LW
p127
aVtc_276_402_tau_inter_new_MBR_timeout__SGSN_Context_Request_wf_UE_Context_Release_Complete.LW
p128
aVtc_322_124_smooth_move_ef_cancel_location_wf_frcn.LW
p129
aVtc_43_101__removal_of_disconnected_eNodeBs__CLI_removal.LW
p130
aVtc_298_208_SIBD_S4_Service_Request_PDP_Context_Status_Connect.LW
p131
aVtc_306_234_ef_seamless_move_source_receive_delete_bearer_request_wf_source_guti_reallocation_complete.LW
p132
aVtc_20_2_isc_new_g_delete_request_ggsn_97_during_camel_report.WG14a
p133
aVtc_178_938_sctp_setprofile.LWG
p134
aVtc_298_832_NRSPCA_S4_nsapi_collision_after_RAU_one_pdn_failed.LWG
p135
aVtc_289_070_GW_Init_Bearer_Modification_Flow_two_CBR_one_UBR_while_wf_modify_eps_bearer_context_accept.LWG
p136
aVtc_31_064_activate_loc_not_confirmed_ul_fails_network_failure.LWG
p137
aVtc_208_43_interception_after_small_restart.LWG
p138
aVtc_59_9_mtmsi_restart_counter.LWG
p139
aVtc_103_902_load_sharing_realm_routing_own_realm.LWG
p140
aVtc_319_067_ho_af_table_not_matched_from_s4_sgsn_to_mme_no_csr_response.LWG
p141
aVtc_316_298_GUTI_Attach_Known_Large_Restart_Broadcast_Force_Delete_Among_Pool.LWG
p142
aVtc_342_864_online_change_LI_U.LWG
p143
aVtc_304_102_emergency_intra_tau_success__control_mode_threshold_exceeded.LWG
p144
aVtc_202_17_service_request_during_release_access_bearers.LWG
p145
aVtc_268_081_Timer_Based_GBR_Deact__receive_DDN_contain_default_bearer_receive_interfering_DBR_UBR.LWG
p146
aVtc_284_351_pdn_connectivity_pb_activate_1_dedicated_bearer_interrupted_by_path_switch_request.LWG
p147
aVtc_324_226_ef_detach_request_abort_wf_modify_bearer_response_wf_update_location_hlr_ack_timeout.LWG
p148
aVtc_324_456_ef_detach_request_poweroff_abort_wf_modify_bearer_response_wf_update_location_hlr_ack_timeout.LWG
p149
aVtc_262_084_emergency_imsi_attach_unauthentication_fails_in_hss.LWG
p150
aVtc_12_134_attach_with_extended_mmumoc_iu_inactivity_timer.W14b
p151
aVtc_12_512_pmm_undefined_attach_when_updating_location_interfered_by_rnc_reset.W14b
p152
aVtc_26_062_israu_mbr_set_to_zero_interactive.W14b
p153
aVtc_231_113_rnc_reset_during_ms_act_si_ms_deact_rnc_contact.W14b
p154
aVtc_241_301_israu_new_create_session_failed_and_paging_timeout.W14b
p155
aVtc_241_1681_inter_rau_new_gn_to_s4_deactivation_init_by_odb_bit0.W14b
p156
aVtc_11_369_activate_ipv6_pdp_context_isd_pdp_type_dynamic.LW
p157
aVtc_250_105_ignore_IDR_when_EPS_sub_downgrade_GPRS_sub.LW
p158
aVtc_202_18_downlink_data_after_s1_release.LW
p159
aVtc_202_02_ecm_idle_s1_release.LW
p160
aVtc_202_40_emergency_pdn_ecm_connected.LW
p161
aVtc_208_43_interception_after_small_restart.G14b
p162
aVtc_304_114_initial_ue_intra_tau_control_mode_threshold_exceeded_usc_ignore_replace_s1.L14b
p163
aVtc_194_010_cl_subscription_withdrawn_detached.L14b
p164
aVtc_194_100_check_gauge_unstable_not_parked.L14b
p165
aVtc_194_800_isd_private_extension_of_wi_denied_from_allowed_to_denied_followed_by_pdn_connectivity_request.L14b
p166
aVtc_268_055_Timer_Based_GBR_Deact__TAU_Request_Bearers_partial_Active_before_Timer_Expires.L14b
p167
aVtc_202_41_type_a_emergency_pdn_ecm_idle.L14b
p168
aVtc_266_026_DownlinkDataFailureInd_repeat_paging_timer_small_local_restart.L14b
p169
aVtc_306_1370_ef_seamless_move_target_ignore_erab_release_indication_wf_ula_icsr.L14b
p170
aVtc_11_369_activate_ipv6_pdp_context_isd_pdp_type_dynamic.W14b
p171
aVtc_26_014_activate_primary_requested_qos_set_to_zero_subscribed_conversational.W14b
p172
aVtc_39_433_mas_one_pdp_downlink_data_3gdt_upd_loc_ack_b4_upd_pdp_ctx_resp_target.W14b
p173
aVtc_322_161_smooth_move_ef_nas_after_paging_response_ignore.W14b
p174
aVtc_236_040_s4_3gdt_detach_during_waiting_for_modify_bearer_rsp_in_service_request_procedure.W14b
p175
aVtc_236_041_s4_3gdt_detach_modify_bearer_response_reject_in_active_procedure.W14b
p176
aVtc_236_246_Smooth_Move_S4_target_DtSelMode_6_APN_not_in_APN_list_TAC_not_in_TAC_list.W14b
p177
aVtc_298_690_S4_3GDT_Service_request_wait_MBR_ef_delete_bearer_request_lbi.W14b
p178
aVtc_12_512_pmm_undefined_attach_when_updating_location_interfered_by_rnc_reset.W14b
p179
aVtc_11_369_activate_ipv6_pdp_context_isd_pdp_type_dynamic.LW
p180
aVtc_103_701_MME_restarts.LW
p181
aVtc_103_708_modify_peer_send_DPR.LW
p182
aVtc_103_704_delete_peer_send_DPR.LW
p183
aVtc_103_1101_resending_AIR_interfering_CLR.LW
p184
aVtc_194_084_hss_reset_after_large_restart.LW
p185
aVtc_322_172_smooth_move_ef_gr_cli_delete_subscriber_data_wf_security_mode_complete.LW
p186
aVtc_341_691_x2_activity_event_guti_reallocation_during_ue_restoration.LW
p187
aVtc_298_826_NRSPCA_S4_nsapi_collision_receiving_detach_request_while_waiting_for_delete_bearer_request.LW
p188
aVtc_298_783_S4_3GDT_downlink_data_notification_wait_MBR_ef_detach.LW
p189
aVtc_39_701_interfering_attach_request_source.LW
p190
aVtc_285_006_PDN_Connectivity_Pb__Delete_default_bearer_request_while_wf_modify_bearer_response.LW
p191
aVtc_284_105_pdn_connectivity_modify_bearer_failure_from_sgw.LW
p192
aVtc_304_102_emergency_intra_tau_success__control_mode_threshold_exceeded.L14b
p193
aVtc_304_121_initial_ue_intra_tau_control_mode_threshold_exceeded_usc_detach_wf_release_request_response.L14b
p194
aVtc_274_274_Intra_and_pTAU__Handover_Required_with_old_TA_MSC_change_while_waiting_for_Location_Update_response_TAU_IMSI_Detach.L14b
p195
aVtc_327_022_recovery_intra_TAU__initial_Detach_Request_while_waiting_for_Ue_Backup_Response.L14b
p196
aVtc_346_447_AF__Intra_TAU_CCA_Update_unable_to_comply_5012.L14b
p197
aVtc_578_32_check_ebm_para_statistics_ue_return_duration.L14b
p198
aVtc_103_1101_resending_AIR_interfering_CLR.L14b
p199
aVtc_263_025_Attach_Flow__Attach_Request_Different_IEs_IP_OK_while_waiting_for_Authentication_Response.L14b
p200
aVtc_204_901_mme_eps_ho_target_insert_subscriber_data_with_odb_bit0_during_wf_tau_complete.L14b
p201
aVtc_275_073_tau_inter_new_no_update_location_response_sgsn00040258.L14b
p202
aVtc_294_411_mme_handle_eps_handover_SGW_unavailable_with_ta_change.L14b
p203
aVtc_329_003_attach_rs_allowed_emergency_plmn_change_ula_fails.L14b
p204
aVtc_202_420_af_seamless_move_target_initialCtxSetupResponse_noSuccDefaultBearer.L14b
p205
aVtc_347_265_PDN_Connectivity__Location_Report_while_waiting_ERAB_Setup_Response_CCR_update_sent_for_2_Sx_Session.L14b
p206
aVtc_347_282_Delete_Bearer__RAR_while_waiting_ERAB_Release_Response.L14b
p207
aVtc_347_335_Intra_TAU_With_Active_Flag__MS_Network_Cap_Set_RAR_while_waiting_for_Modify_Eps_Bearer_Context_Accept.L14b
p208
aVtc_283_037_GW_Deactivate_Bearer__Default_bearer_Delete_Interrupt_Dedicated_Bearer_Delete_no_response_from_ue.L14b
p209
aVtc_335_140_Geo_Recovery_upon_Service_Request.L14b
p210
aVtc_335_143_Geo_Recovery_upon_DDN_with_IMSI_and_then_Service_Request.L14b
p211
aVtc_44_850_mme_assoc_reestablish__board_restart_s1_mme.L14b
p212
aVtc_183_005_itc_folder_file_names.LWG
p213
aVtc_276_402_tau_inter_new_MBR_timeout__SGSN_Context_Request_wf_UE_Context_Release_Complete.LWG
p214
aVtc_179_318_Ccheck_TraceCollectionIpv6server.LWG
p215
aVtc_262_1055_imsi_attach_with_csg_id_is_rejected.LWG
p216
aVtc_205_71_01_ss7_SCCP_CR_DT1_RLSD.LWG
p217
aVtc_205_71_08_SCTP_OctetsChunksSent.LWG
p218
aVtc_275_118_tau_inter_new_emergency_erroneous_ie_authenticated_no_imsi.LWG
p219
aVtc_243_770_tau_from_sgsn_s3_active_flag_true_SGW_unchange_no_2nd_modify_bearer_response.LWG
p220
aVtc_297_407_move_at_periodic_rau.LWG
p221
aVtc_166_242_switch_back_to_two_tunnels_streaming_changed_qos.LWG
p222
aVtc_11_369_activate_ipv6_pdp_context_isd_pdp_type_dynamic.LWG
p223
aVtc_346_728_pra_cn_predefined_lrc_optimization_x2_ho__continuous_ho_all_enbs_lrc_needed.LWG
p224
aVtc_28_042_mo_sms_ok_for_home_when_blocked_for_visiting.LWG
p225
aVtc_103_708_modify_peer_send_DPR.LWG
p226
aVtc_103_704_delete_peer_send_DPR.LWG
p227
aVtc_193_030_Security_Protected_NAS__Replayed_CP_NAS_message_with_secure_exchange.LW
p228
aVtc_326_245_Intra_TAU_Recovery_TAU_Complete_timeout.LW
p229
aVtc_23_09_transfer_to_primary_and_change_vip_addr.LW
p230
aVtc_298_424_ms_init_deact_ef_delicated_non_gbr_bearer_deact_interfered_by_rab_release_request.LW
p231
aVtc_258_112_location_report_zero_teid_multiple_pdns_one_pdn_IMSI_unknown_in_PGW.LW
p232
aVtc_194_506_Notification_during_Intra_MME_TAU_without_SGW_Relocation_Procedure.LW
p233
aVtc_194_505_Notification_during_Intra_TAU_without_SGW_Relocation_HSS_Reset_Before_TAU.LW
p234
aVtc_103_708_modify_peer_send_DPR.LW
p235
aVtc_103_704_delete_peer_send_DPR.LW
p236
aVtc_103_602_georedundant_realm_routing.LW
p237
aVtc_347_250_UE_initiated_detach__location_report_while_waiting_for_delete_session_response_ue_context_release_complete.LW
p238
aVtc_276_376_Inter_TAU_New_MME__New_TAU_Request_while_waiting_for_tau_complete_new_guti.L14b
p239
aVtc_267_108_Service_Request__Service_Request__while_waiting_for_Authentication_Response_From_UE.L14b
p240
aVtc_195_025_attr_time_first_started_ok.L14b
p241
aVtc_285_006_PDN_Connectivity_Pb__Delete_default_bearer_request_while_wf_modify_bearer_response.L14b
p242
aVtc_294_047_s1_intra_handover_type_a_new_plmn_no_roaming_restriction_emc_sup_different_profile.L14b
p243
aVtc_304_121_initial_ue_intra_tau_control_mode_threshold_exceeded_usc_detach_wf_release_request_response.L14b
p244
aVtc_335_143_Geo_Recovery_upon_DDN_with_IMSI_and_then_Service_Request.L14b
p245
aVtc_289_107_Modify_Bearer__Create_Bearer_Request_wf_UE_Context_Modification_Resp_aborted_by_handover_required.L14b
p246
aVtc_346_301_Combination__PGW_Selection_UserLocationChange.L14b
p247
aVtc_11_369_activate_ipv6_pdp_context_isd_pdp_type_dynamic.W14b
p248
aVtc_321_040_s4_logging_sgsn_initate_echo_request.W14b
p249
aVtc_321_076_gn_logging_inter_srns_relocation_cancel_source.W14b
p250
aVtc_322_161_smooth_move_ef_nas_after_paging_response_ignore.W14b
p251
aVtc_290_002_UE_release__s1_reset_while_wf_release_access_bearers_response.LWG
p252
aVtc_327_030_recovery_intra_TAU__uplink_same_ie_intra_TAU_Request_while_waiting_for_Ue_Backup_Response.LWG
p253
aVtc_327_045_recovery_intra_TAU_active_off_sgw_unchanged__sgsap_reset_wf_CSR_due_to_S11_linkdown.LWG
p254
aVtc_244_051_mt_lr_delete_bearer_request_received_wf_location_report.LWG
p255
aVtc_220_043_csfb_to_1xrtt_in_ecm_idle_s1_reset_wf_initial_context_setup_response.LWG
p256
aVtc_321_010_s4_logging_s6d_inter_rau_w2l_old_hss_reset.LWG
p257
aVtc_39_070_attach_move_no_attach_complete_from_ms.LWG
p258
aVtc_39_771_mas_rnc_reset_when_wf_ptmsi_realloc_cmpl_source.LWG
p259
aVtc_103_708_modify_peer_send_DPR.LWG
p260
aVtc_103_704_delete_peer_send_DPR.LWG
p261
aVtc_342_140_update_one_of_two_targets_x2_address.LWG
p262
aVtc_262_1055_imsi_attach_with_csg_id_is_rejected.LWG
p263
aVtc_59_9_mtmsi_restart_counter.LWG
p264
aVtc_578_32_check_ebm_para_statistics_ue_return_duration.LWG
p265
aVtc_326_336_Service_Request_with_unknown_STMSI_Modify_Bearer_fail.LWG
p266
aVtc_277_101_tau_inter_old_plmn_change_emergency_ongoing_remove_emergency.LWG
p267
aVtc_73_41_gtpu_sgsn_dont_send_gpu_echo_request_w.LWG
p268
aVtc_183_005_itc_folder_file_names.LWG
p269
aVtc_214_1141_la_selection_mf_oldmscpreferred_prau_during_ue_restoration.LWG
p270
aVtc_243_202_tau_from_sgsn_s3_get_new_sgw_two_pdn_connections_first_ok_second_failed.LWG
p271
aVtc_11_369_activate_ipv6_pdp_context_isd_pdp_type_dynamic.LWG
p272
aVtc_320_007_s4_logging_ptmsi_attach_with_imsi_in_bssgp.LWG
p273
aVtc_239_111_inter_rau_new_unchanged_sgw_two_pdn_connection_report_sn.LWG
p274
aVtc_194_505_Notification_during_Intra_TAU_without_SGW_Relocation_HSS_Reset_Before_TAU.LWG
p275
aVtc_297_407_move_at_periodic_rau.LWG
p276
aVtc_208_43_interception_after_small_restart.LWG
p277
aVtc_23_09_transfer_to_primary_and_change_vip_addr.LWG
p278
aVtc_202_431_mf_seamless_move_target_service_request_modifyBearerReq_onePdnMultiBearer_oneBearerFail.LWG
p279
aVtc_239_501_intra_rau_cl_interrupt_delete_session_response_from_old_sgw_s4.WG14a
p280
aVtc_221_036__Selection_Table_Does_Not_Match.L14b
p281
aVtc_256_175_mme_eps_srvcc_ho_source_cs_only_ue_release_request_wf_srvcc_ps_to_cs_response.L14b
p282
aVtc_202_02_ecm_idle_s1_release.L14b
p283
aVtc_275_004_tau_inter_new_get_new_sgw.L14b
p284
aVtc_103_1004_secondary_dpl_used_when_all_peers_in_dpl_unavailable_no_sls.L14b
p285
aVtc_244_602_delete_eslmc.L14b
p286
aVtc_346_716_pra_cn_predefined_lrc_optimization_x2_ho__lrc_start.L14b
p287
aVtc_44_850_mme_assoc_reestablish__board_restart_s1_mme.L14b
p288
aVtc_282_020_delete_bearer_request_handover_to_non_3GPP_ecm_connected_multi_pdn.L14b
p289
aVtc_220_413_csfb_to_1xrtt_in_ecm_connected_handover_required_meanwhile_CBR_received.L14b
p290
aVtc_262_1055_imsi_attach_with_csg_id_is_rejected.L14b
p291
aVtc_304_102_emergency_intra_tau_success__control_mode_threshold_exceeded.L14b
p292
aVtc_310_243_ef__S1_Reset_wf_PS_to_CS_Complete_and_FR_Complete.LW
p293
aVtc_302_072_mt_sms_main_flow_idle_buffer_overflow.LW
p294
aVtc_194_506_Notification_during_Intra_MME_TAU_without_SGW_Relocation_Procedure.LW
p295
aVtc_298_783_S4_3GDT_downlink_data_notification_wait_MBR_ef_detach.LW
p296
aVtc_196_253_network_init_secondary_pdp_context_estack_tdp.LW
p297
aVtc_11_369_activate_ipv6_pdp_context_isd_pdp_type_dynamic.LW
p298
aVtc_202_01_ecm_connected_s1_release.LW
p299
aVtc_275_118_tau_inter_new_emergency_erroneous_ie_authenticated_no_imsi.LW
p300
aVtc_304_102_emergency_intra_tau_success__control_mode_threshold_exceeded.LW
p301
aVtc_256_382_Sv_Path_Mgt__available_MSC_disable_Sv.LW
p302
aVtc_103_1101_resending_AIR_interfering_CLR.LW
p303
aVtc_324_006_mf_ser_req_signaling_after_ack_3gdt.LW
p304
aVtc_221_052__Emergency_type_a_notification_on_emergency_lbi_id_3_default.LW
p305
aVtc_243_050_tau_from_sgsn_s3_in_sgsn_pool.LW
p306
aVtc_243_330_tau_from_sgsn_s3_emergency_type_a_no_restriction.LW
p307
aVtc_327_180_recovery_intra_TAU_Service_Request_while_waiting_for_CSR_due_to_S11_linkdown.LW
p308
aVtc_11_369_activate_ipv6_pdp_context_isd_pdp_type_dynamic.W14b
p309
aVtc_348_025_deactivation__hlr_init_isd_with_odb.W14b
p310
aVtc_321_054_s4_logging_ptmsi_attach_new_gtpv1_identification_response_with_imsi_traced_by_imsi.W14b
p311
aVtc_321_040_s4_logging_sgsn_initate_echo_request.W14b
p312
aVtc_321_106_attach_with_fetch_imeisv_enabled_activate_primary_pdp_deactivate_detach_with_all_ue_trace_interfaces_active.W14b
p313
aVtc_306_123_ef_seamless_move_source_receive_s1_reset_wf_modify_bearer_response.LWG
p314
aVtc_304_102_emergency_intra_tau_success__control_mode_threshold_exceeded.LWG
p315
aVtc_347_250_UE_initiated_detach__location_report_while_waiting_for_delete_session_response_ue_context_release_complete.LWG
p316
aVtc_280_150_activate_dedicated_bearer_sgw_unavailable_in_service_request.LWG
p317
aVtc_259_77_ef_isd_paging_s4_w.LWG
p318
aVtc_179_318_Ccheck_TraceCollectionIpv6server.LWG
p319
aVtc_275_073_tau_inter_new_no_update_location_response_sgsn00040258.LWG
p320
aVtc_362_241_RAU_LtoG_Combined_Node__Delete_UE_Backup.LWG
p321
aVtc_195_406_ue_trace_start_meanwhile_handover_required.LWG
p322
aVtc_195_202_mme_logging_maximum_tau_nw_detach.LWG
p323
aVtc_322_126_smooth_move_ef_cancel_location_initialAttach_wf_cancel_location.LWG
p324
aVtc_298_722_nrspca_s4_ef_ms_deact_ti_default_wf_activate_secondary_pdp_context_request.LWG
p325
aVtc_310_221_ef__Ue_Release_Request_wf_PS_to_CS_Response.LWG
p326
aVtc_232_401_bfd__ipv4_alarm.LWG
p327
aVtc_11_369_activate_ipv6_pdp_context_isd_pdp_type_dynamic.LWG
p328
aVtc_103_708_modify_peer_send_DPR.LWG
p329
aVtc_103_704_delete_peer_send_DPR.LWG
p330
aVtc_217_095_rau_to_sgsn_s1_reset_when_wf_sgsn_context_ack_reject.LWG
p331
aVtc_342_066_x2_attach_detach_imsi_msisdn.LWG
p332
aVtc_274_271_Intra_and_pTAU__Handover_Required_with_old_TA_while_waiting_for_TAU_Request_after_HO.LWG
p333
aVtc_326_217_Intra_TAU_Recovery_with_active_flag_two_PDN_partial_fail.LWG
p334
aVtc_327_037_recovery_intra_TAU_active_off_sgw_unchanged__RAR_wf_CSR_due_to_S11_linkdown.LWG
p335
aVtc_208_43_interception_after_small_restart.LWG
p336
aVtc_208_44_attach_detach_imsi_ap_takeover.LWG
p337
aVtc_176_027_ms_flow_ctrl_conversational_ip.WG14a
p338
aVtc_238_401_mme_eps_irat_Gn_ho_target__ho_required_intra_same_sgw_wf_modify_response.L14b
p339
aVtc_279_009_tai_list_intra_tau_only_current.L14b
p340
aVtc_275_073_tau_inter_new_no_update_location_response_sgsn00040258.L14b
p341
aVtc_275_711_tau_inter_without_SGW_Change_receive_TZCR_flag_set_in_context_response_SN_change.L14b
p342
aVtc_103_903_primary_or_secondary_realm_routing_own_realm.L14b
p343
aVtc_204_000_mme_eps_handover_target_inter_main_flow.L14b
p344
aVtc_266_200_service_request_4_dedicated_bearers.L14b
p345
aVtc_218_216_1_TAU_from_SGSN__create_bearer_request_while_waiting_for_TAU_Complete.L14b
p346
aVtc_284_351_pdn_connectivity_pb_activate_1_dedicated_bearer_interrupted_by_path_switch_request.L14b
p347
aVtc_243_330_tau_from_sgsn_s3_emergency_type_a_no_restriction.L14b
p348
aVtc_326_228_Intra_TAU_Recovery_fail_Authentication_timeout_from_HSS.L14b
p349
aVtc_326_622_S6a_Throttling_Service_Request_recovery_UL_successful_and_Emergency_Attach_not_throttled.L14b
p350
aVtc_326_677_tau_intra_SGW_unavailable_active_flag_off_after_MME_large_restart__create_session_fail.L14b
p351
aVtc_44_301_sctp_counter_MessageSent_Received.L14b
p352
aVtc_44_750_s1_with_two_sctp_endpoints.L14b
p353
aVtc_304_102_emergency_intra_tau_success__control_mode_threshold_exceeded.L14b
p354
aVtc_304_236_isc_active_flag_on_control_mode_threshold_exceeded_ignore_replace_s1_wf_initial_context_setup_response.L14b
p355
aVtc_11_369_activate_ipv6_pdp_context_isd_pdp_type_dynamic.W14b
p356
aVtc_324_042_af_gbr_higher_than_policymap.W14b
p357
aVtc_248_128_inter_l_to_w_new_rau_request_intial_ue_received_wf_update_location_resp.W14b
p358
aVtc_306_1343_ef_seamless_move_target_receive_Insert_Subscription_Data_TADS_ecm_idle.LW
p359
aVtc_275_402_tau_inter_new_high_subscribed_rau_tau_timer_no_support_t3412_extended.LW
p360
aVtc_237_316_mme_eps_irat_Gn_ho_source_visitor_with_no_local_rfsp.LW
p361
aVtc_260_070_mbms_session_start_af_gw_resend_request_msg_diff_absolute_time.LW
p362
aVtc_256_175_mme_eps_srvcc_ho_source_cs_only_ue_release_request_wf_srvcc_ps_to_cs_response.LW
p363
aVtc_276_241_Inter_TAU_New_MME__Create_Bearer_Request_while_waiting_for_TAU_Complete.LW
p364
aVtc_266_206_service_request_1_gbr_dedicated_bearers.LW
p365
aVtc_268_101_release_request_wf_response_interfer_by_s1_reset_and_downlink_data_notification.LW
p366
aVtc_268_105_ue_release__cs_paging_wf_release_access_bearer_resp.LW
p367
aVtc_327_157_recovery_intra_TAU_Update_Bearer_Request_while_waiting_for_Modify_Bearer_Response.LW
p368
aVtc_241_1636_israu_new_modify_bearer_response_timeout_followed_by_ms_init_deac.LW
p369
aVtc_341_691_x2_activity_event_guti_reallocation_during_ue_restoration.LW
p370
aVtc_194_079_cl_subscription_withdrawn_during_ul.LW
p371
aVtc_194_063_hss_reset.LW
p372
aVtc_208_43_interception_after_small_restart.LWG
p373
aVtc_166_007_establish_two_tunnel_since_camel_subscriber.LWG
p374
aVtc_166_263_activate_primary_dt_apn_list_empty_3gdt_apn_in_hlr_mode_2.LWG
p375
aVtc_166_241_switch_back_to_two_tunnels_streaming.LWG
p376
aVtc_264_002_detach_emm_deregistered.LWG
p377
aVtc_326_845_Geo_Service_Request_node_restart_Modify_Bearer_timeout_rollback_GUTI_reallocation_no_response.LWG
p378
aVtc_231_113_rnc_reset_during_ms_act_si_ms_deact_rnc_contact.LWG
p379
aVtc_231_737_rab_reestablish_on_second_service_request_data_s4.LWG
p380
aVtc_327_037_recovery_intra_TAU_active_off_sgw_unchanged__RAR_wf_CSR_due_to_S11_linkdown.LWG
p381
aVtc_304_263_tau_from_gnsgsn_when_wf_tau_complete_control_mode_reject_congestion.LWG
p382
aVtc_280_113_activate_dedicated_bearer_ue_nas_cause_26_reject.LWG
p383
aVtc_59_9_mtmsi_restart_counter.LWG
p384
aVtc_275_073_tau_inter_new_no_update_location_response_sgsn00040258.LWG
p385
aVtc_275_628_tau_inter_new_sgw_unavailable_static_gw_selection.LWG
p386
aVtc_243_711_tau_from_sgsn_s3_active_flag_true_no_2nd_modify_bearer_response.LWG
p387
aVtc_183_005_itc_folder_file_names.LWG
p388
aVtc_284_560_emergency_pdn_connectivity_multiple_pgw.LWG
p389
aVtc_95_7_negative_tests.LWG
p390
aVtc_306_1200_ef_seamless_move_target_receive_hss_reset.LWG
p391
aVtc_256_090_mme_eps_srvcc_ho_source_cs_only_handover_cancel_notification_ue_trace.LWG
p392
aVtc_220_592_csfb_to_1xrtt_in_ecm_idle_int_prot_nok_extended_service_request_during_service_request.LWG
p393
aVtc_208_43_interception_after_small_restart.G14b
p394
aVtc_340_34_validation_move_g_s4_filter_all_apn.G14b
p395
aVtc_91_007_activate_different_bitrates.LW
p396
aVtc_220_411_csfb_to_1xrtt_in_ecm_connected_path_switch_request_subscription_cancelled.LW
p397
aVtc_327_560_Recovery_for_DDN__Cancel_Location_WithDraw_while_waiting_for_Ue_Backup_Response.LW
p398
aVtc_349_105_RAU_new_sgsn__Identification_Req_while_waiting_for_CCA_initial.LW
p399
aVtc_103_024_modify_diameter_peer_switch_peer_numbers.LW
p400
aVtc_103_1101_resending_AIR_interfering_CLR.LW
p401
aVtc_321_094_intra_srns_reloc_main_flow.LW
p402
aVtc_321_091_mt_sms_mf.LW
p403
aVtc_321_095_service_request_pmmidle_paging_and_data.LW
p404
aVtc_321_074_gn_logging_inter_rau_target.LW
p405
aVtc_321_103_service_request_reject.LW
p406
aVtc_326_651_tau_intra_periodic_SGW_unavailable_after_MME_large_restart__with_emergency_PDN.LW
p407
aVtc_194_506_Notification_during_Intra_MME_TAU_without_SGW_Relocation_Procedure.LW
p408
aVtc_195_204_mme_logging_maximum_pdn_connectivity_default_bearer.LW
p409
aVtc_195_515_mme_logging_eps_handover_source_inter_relocation_cancel_Request.LW
p410
aVtc_195_544_mme_logging_new_mme_identification_request_with_old_guti_type_trace_imeisv.LW
p411
aVtc_195_503_mme_logging_inter_rau_old_S3.LW
p412
aVtc_324_121_af_service_request_with_data_only_ulr_timeout_3gdt.LW
p413
aVtc_39_184_detach_trigger_with_context_no_response_from_ggsn_or_ms.LWG
p414
aVtc_94_1400_get_config_area.LWG
p415
aVtc_165_6_check_ncs_oms_interface.LWG
p416
aVtc_73_41_gtpu_sgsn_dont_send_gpu_echo_request_w.LWG
p417
aVtc_241_432_intra_rau_with_bearer_sgw_unchange_2_pdns_3gdt.LWG
p418
aVtc_241_753_G2W_GnSGSN_to_GnSGSN_no_create_session_response_node_function_deactivate_pdp_after_rau_on.LWG
p419
aVtc_327_037_recovery_intra_TAU_active_off_sgw_unchanged__RAR_wf_CSR_due_to_S11_linkdown.LWG
p420
aVtc_327_150_recovery_intra_TAU_S1_Reset_while_waiting_for_TAU_Complete.LWG
p421
aVtc_324_006_mf_ser_req_signaling_after_ack_3gdt.LWG
p422
aVtc_220_012_csfb_to_1xrtt_mobile_terminating_call.LWG
p423
aVtc_298_014_nrspca_s4_idle_no_security_3GDT.LWG
p424
aVtc_256_176_mme_eps_srvcc_ho_source_cs_only_ue_release_request_wf_srvcc_ps_to_cs_complete_notification.LWG
p425
aVtc_194_084_hss_reset_after_large_restart.LWG
p426
aVtc_11_369_activate_ipv6_pdp_context_isd_pdp_type_dynamic.LWG
p427
aVtc_302_050_mt_csfb_to_1xrtt_main_flow_connected.LWG
p428
aVtc_334_107_sgw_restart_mf_restoration_trigger_by_ReleaseAccessBearerResponse.LWG
p429
aVtc_219_131_s3_handover_w_to_l_with_cl_two_pdns_one_failed_sgw_relocation.LWG
p430
aVtc_326_268_Periodic_Intra_TAU_with_unknown_GUTI_update_location_fail.LWG
p431
aVtc_179_318_Ccheck_TraceCollectionIpv6server.LWG
p432
aVtc_59_9_mtmsi_restart_counter.LWG
p433
aVtc_207_023_ebm_server_connection_failure.LWG
p434
aVtc_103_1107_fallback_to_imsins_resend_fail_due_to_result_code.LWG
p435
aVtc_103_704_delete_peer_send_DPR.LWG
p436
aVtc_103_1155_sx_retransmit__Small_restart_terminate_request.LWG
p437
aVtc_183_005_itc_folder_file_names.LWG
p438
aVtc_298_074_s4_nrspca_activate_same_nsapi_of_dedicated_bearer_apn_failed.W14b
p439
aVtc_298_705_pgw_init_modification_ef_ms_deact_req_tdi_false_ti_dedicated_wf_rab_assignment_response.W14b
p440
aVtc_26_144_SGSN_init_PDP_modify_GGSN_support_HLR_support_ARP.W14b
p441
aVtc_329_003_attach_rs_allowed_emergency_plmn_change_ula_fails.L14b
p442
aVtc_327_037_recovery_intra_TAU_active_off_sgw_unchanged__RAR_wf_CSR_due_to_S11_linkdown.L14b
p443
aVtc_327_322_recovery_service_request__initial_Imsi_Attach_Request_while_waiting_for_Ue_Backup_Response.L14b
p444
aVtc_202_41_type_a_emergency_pdn_ecm_idle.L14b
p445
aVtc_256_176_mme_eps_srvcc_ho_source_cs_only_ue_release_request_wf_srvcc_ps_to_cs_complete_notification.L14b
p446
aVtc_214_028_combined_attach_interfering_s1_reset.L14b
p447
aVtc_346_717_pra_cn_predefined_lrc_optimization_x2_ho__lrc_start_enb_configuration_changed.L14b
p448
aVtc_346_729_pra_cn_predefined_lrc_optimization_x2_ho__continuous_ho_1st_and_last_enb_lrc_needed.L14b
p449
aVtc_244_906_mt_lr_ecm_idle_and_t3x01_time_out_when_connected_oriented_info_with_LPP.L14b
p450
aVtc_290_039_Timer_Based_GBR_Deact__s1_reset_wf_ue_context_release_complete_before_timer_expires.L14b
p451
aVtc_295_181_Intra_S1_HO__Location_report_while_wf_handover_notify.L14b
p452
aVtc_304_236_isc_active_flag_on_control_mode_threshold_exceeded_ignore_replace_s1_wf_initial_context_setup_response.L14b
p453
aVtc_43_101__removal_of_disconnected_eNodeBs__CLI_removal.L14b
p454
aVtc_266_011_DownlinkDataNotification_interfering_ISD_sgsn00026976.L14b
p455
aVtc_266_020_DownlinkDataFailureInd_repeat_paging_timer_on.L14b
p456
aVtc_262_050_guti_attach_roaming_restriction.L14b
p457
aVtc_262_111_emergency_type_d_attach_type_sim_only.L14b
p458
aVtc_262_119_emergency_type_d_verify_cell_trace_and_ebm_event.L14b
p459
aVtc_195_406_ue_trace_start_meanwhile_handover_required.L14b
p460
aVtc_230_109_ms_switch_to_gn_due_to_camel_changed_and_reactivation.G14b
p461
aVtc_208_43_interception_after_small_restart.G14b
p462
aVtc_31_086_concurrent_msd.W14b
p463
aVtc_250_105_ignore_IDR_when_EPS_sub_downgrade_GPRS_sub.W14b
p464
aVtc_250_154_attach_eps_sub_no_odb_activation_insert_gprs_sub_with_odb_deact.W14b
p465
aVtc_241_301_israu_new_create_session_failed_and_paging_timeout.W14b
p466
aVtc_349_121_RAU_back_in_20s__sx_reestablish_camel_subscriber.W14b
p467
aVtc_26_002_activate_primary_Qos_subscribed_higher_then_nodeprop.W14b
p468
aVtc_348_050_large_restart.W14b
p469
aVtc_324_231_ef_iu_release_request_wf_security_command_complete.WG14a
p470
aVtc_280_142_tz_change_create_bearer_intra_tau_active.L14b
p471
aVtc_341_509_x2_activity_event_attach_detach_msisdn.L14b
p472
aVtc_341_533_x2_activity_event_emergency_attach_detach_roaming_restriction_imsi.L14b
p473
aVtc_329_003_attach_rs_allowed_emergency_plmn_change_ula_fails.L14b
p474
aVtc_44_301_sctp_counter_MessageSent_Received.L14b
p475
aVtc_44_551_s1ap_reset_reset_resource__ue_id.L14b
p476
aVtc_44_860_mme_assoc_reestablish__sctp_fe_restart_s1_mme.L14b
p477
aVtc_347_050_HO_X2__RAR_while_waiting_for_Create_Session_Response.L14b
p478
aVtc_347_124_Seamless_Move_Target__Detach_Request_with_switchoff_while_waiting_for_CCA_initial.L14b
p479
aVtc_347_133_Seamless_Move_Target__eNB_Configuration_Update_while_waiting_for_CCA_initial.L14b
p480
aVtc_347_142_Seamless_Move_Target__RAR_while_waiting_for_forward_relocation_complete_ack_and_location_update_accept.L14b
p481
aVtc_347_210_Attach__RAR_while_waiting_for_Create_Session_Response.L14b
p482
aVtc_347_227_Extended_Service_Request__RAR_while_waiting_for_UE_Context_Release_Request_csfb_to_1xrtt_in_ecm_idle.L14b
p483
aVtc_347_256_NW_initiated_detach__RAR_while_waiting_for_delete_session_response.L14b
p484
aVtc_347_265_PDN_Connectivity__Location_Report_while_waiting_ERAB_Setup_Response_CCR_update_sent_for_2_Sx_Session.L14b
p485
aVtc_347_281_PDN_Disconnect__RAR_while_waiting_Delete_Session_Response.L14b
p486
aVtc_347_311_Location_reporting_control_RAR_while_waiting_location_report.L14b
p487
aVtc_347_331_Intra_TAU_With_Active_Flag__Location_Report_while_waiting_MBR_Event_Report_Mode_SX_GX.L14b
p488
aVtc_193_067_auth_failure_sync_emergency.L14b
p489
aVtc_193_401_auth_vectors_mf_6_vectors.L14b
p490
aVtc_346_354_SAPC_Restart_Detected_in_CCA_Initial_Inter_TAU.L14b
p491
aVtc_90_005_camel_disconnect_event_ie_hlr.G14b
p492
aVtc_213_017_network_init_secondary_pdp_context_estack_tdp.G14b
p493
aVtc_321_030_s4_logging_inter_old_srns_reloc_s16_without_sgw_change.LWG
p494
aVtc_295_124_tau_after_ho_tz_change_emm_information_meanwhile_handover_required_HO_success.LWG
p495
aVtc_326_243_Intra_TAU_Recovery_fail_default_bearer_fail_to_setup_SGW_Change.LWG
p496
aVtc_326_622_S6a_Throttling_Service_Request_recovery_UL_successful_and_Emergency_Attach_not_throttled.LWG
p497
aVtc_220_403_csfb_to_1xrtt_in_ecm_connected_path_switch_request_HO_success.LWG
p498
aVtc_43_101__removal_of_disconnected_eNodeBs__CLI_removal.LWG
p499
aVtc_59_9_mtmsi_restart_counter.LWG
p500
aVtc_202_431_mf_seamless_move_target_service_request_modifyBearerReq_onePdnMultiBearer_oneBearerFail.LWG
p501
aVtc_12_512_pmm_undefined_attach_when_updating_location_interfered_by_rnc_reset.LWG
p502
aVtc_236_041_s4_3gdt_detach_modify_bearer_response_reject_in_active_procedure.LWG
p503
aVtc_39_601_mas_unsucc_fwd_reloc_resp_mandatory_ie_missing_stop_source.LWG
p504
aVtc_259_116_ef_s6d_tads_interfere_inter_rau_old_w.LWG
p505
aVtc_327_037_recovery_intra_TAU_active_off_sgw_unchanged__RAR_wf_CSR_due_to_S11_linkdown.LWG
p506
aVtc_327_252_recovery_service_request_MBR_timeout__TAU_Request_wf_Guti_Reallocation_Complete.LWG
p507
aVtc_327_259_recovery_service_request_MBR_timeout__Cancel_Location_wf_Guti_Reallocation_Complete.LWG
p508
aVtc_219_230_TAU_Dual_Access_WL_Old_SGSN__Backup_UE.LWG
p509
aVtc_231_113_rnc_reset_during_ms_act_si_ms_deact_rnc_contact.LWG
p510
aVtc_208_43_interception_after_small_restart.LWG
p511
aVtc_304_102_emergency_intra_tau_success__control_mode_threshold_exceeded.LW
p512
aVtc_304_108_uplink_nas_intra_tau_control_mode_threshold_exceeded_usc_reject_lead_to_implicit_detach.LW
p513
aVtc_11_369_activate_ipv6_pdp_context_isd_pdp_type_dynamic.LW
p514
aVtc_294_003_mme_handle_eps_handover_succesfully_with_nrr_cc91.LW
p515
aVtc_193_062_attach_selective.LW
p516
aVtc_195_502_mme_logging_tau_inter_new_active_flag_keep_old_sgw.LW
p517
aVtc_298_424_ms_init_deact_ef_delicated_non_gbr_bearer_deact_interfered_by_rab_release_request.LW
p518
aVtc_298_783_S4_3GDT_downlink_data_notification_wait_MBR_ef_detach.LW
p519
aVtc_12_134_attach_with_extended_mmumoc_iu_inactivity_timer.LW
p520
aVtc_194_085_hss_reset_after_subdata_read_from_cache.LW
p521
aVtc_103_1101_resending_AIR_interfering_CLR.LW
p522
aVtc_280_142_tz_change_create_bearer_intra_tau_active.LW
p523
aVtc_283_038_GW_Deactivate_Bearer__Default_bearer_Delete_Interrupt_Dedicated_Bearer_Delete_no_response_from_ue_ecm_connected.LW
p524
aVtc_326_211_Intra_TAU_with_unknown_GUTI_backup_no_vector_change_Replication_Option.LW
p525
aVtc_327_255_recovery_service_request_MBR_timeout__PDN_Connectivity_Request_wf_Guti_Reallocation_Complete.LW
p526
aVtc_196_252_network_init_secondary_pdp_context_estab_tdp.LW
p527
aVtc_306_1334_ef_seamless_move_target_receive_cli_delete_subscriber_wf_lua.LW
p528
aVtc_297_407_move_at_periodic_rau.G14b
p529
aVtc_98_100_inter_sgsn_new_psho_main_flow_with_camel.G14b
p530
aVtc_321_090_mo_sms_mf.W14b
p531
aVtc_248_122_inter_l_to_w_new_detach_request_direct_transfer_received_wf_forward_relocation_complete_ack.W14b
p532
aVtc_250_105_ignore_IDR_when_EPS_sub_downgrade_GPRS_sub.LW
p533
aVtc_327_037_recovery_intra_TAU_active_off_sgw_unchanged__RAR_wf_CSR_due_to_S11_linkdown.LW
p534
aVtc_326_684_tau_intra_SGW_unavailable_active_flag_off_after_MME_large_restart__create_session_partition_fail.LW
p535
aVtc_304_102_emergency_intra_tau_success__control_mode_threshold_exceeded.LW
p536
aVtc_318_117_sgw_restart_mf_relocation_triggered_by_DeleteBearerFailureIndication.LW
p537
aVtc_202_102_small_restart.LW
p538
aVtc_204_054_mme_eps_ho__security_failure_on_buffered_tau.LW
p539
aVtc_103_1101_resending_AIR_interfering_CLR.LW
p540
aVtc_103_1139_sx_resend__CCR_I_resend_interfering_RAR_another_resend_only_relam.LW
p541
aVtc_321_023_s4_logging_inter_handover_cancel_l2w_target.LW
p542
aVtc_324_006_mf_ser_req_signaling_after_ack_3gdt.LW
p543
aVtc_225_416_recv_service_while_waiting_extended_service_request.L14b
p544
aVtc_284_041_pdn_connectivity_isd_received.L14b
p545
aVtc_335_01_mobility_to_wifi_in_ecm_connected_mf__decision_granted__1_pdn_deactived_ipv4.L14b
p546
aVtc_289_017_Modify_bearer__ERAB_modify_request_meanwhile_path_switch_request_HO_success.L14b
p547
aVtc_103_701_MME_restarts.L14b
p548
aVtc_103_603_georedundant_modify_diameter_peer.L14b
p549
aVtc_327_322_recovery_service_request__initial_Imsi_Attach_Request_while_waiting_for_Ue_Backup_Response.L14b
p550
aVtc_218_207_1_TAU_from_SGSN__update_bearer_request_while_waiting_for_TAU_Complete.L14b
p551
aVtc_238_027_mme_eps_irat_ho_target__no_common_security_algorithm.L14b
p552
aVtc_202_10_downlink_data_during_paging.L14b
p553
aVtc_264_003_detach_normal_new_detach_normal.LWG
p554
aVtc_183_005_itc_folder_file_names.LWG
p555
aVtc_304_102_emergency_intra_tau_success__control_mode_threshold_exceeded.LWG
p556
aVtc_208_43_interception_after_small_restart.LWG
p557
aVtc_220_411_csfb_to_1xrtt_in_ecm_connected_path_switch_request_subscription_cancelled.LWG
p558
aVtc_220_622_Extended_Service_Request__Cancel_Location_Update_Procedure_while_waiting_for_Initial_Context_Setup_Response.LWG
p559
aVtc_281_022_Activate_bearer__ERAB_setup_request_meanwhile_path_switch_request_no_CBR_from_new_SGW.LWG
p560
aVtc_256_175_mme_eps_srvcc_ho_source_cs_only_ue_release_request_wf_srvcc_ps_to_cs_response.LWG
p561
aVtc_310_202_ef__Detach_wf_PS_to_CS_Response.LWG
p562
aVtc_324_006_mf_ser_req_signaling_after_ack_3gdt.LWG
p563
aVtc_324_239_ef_nas_ignore_update_loc_received_wf_modify_bearer_response.LWG
p564
aVtc_313_228_inter_new_srns_reloc_s16_with_sgw_change_rau_request_initial_ue_received_wf_rau_complete.LWG
p565
aVtc_219_131_s3_handover_w_to_l_with_cl_two_pdns_one_failed_sgw_relocation.LWG
p566
aVtc_219_511_tau_w_to_l_with_old_guti_type_mapped.LWG
p567
aVtc_103_1120_attach_ula_dia_unable_to_deliver.LWG
p568
aVtc_326_242_Intra_TAU_Recovery_Initial_Context_Setup_timeout.LWG
p569
aVtc_326_270_Periodic_Intra_TAU_with_unknown_GUTI_then_Service_Request.LWG
p570
aVtc_231_737_rab_reestablish_on_second_service_request_data_s4.LWG
p571
aVtc_179_318_Ccheck_TraceCollectionIpv6server.LWG
p572
aVtc_348_368_inter_srns_reloc_af__new_sgsn_rau_request_timeout.LWG
p573
aVtc_193_006_background_fetching_s1_sel_freq_0.LWG
p574
aVtc_267_509_Service_Request_SGW_unavailable__Context_Request_while_wf_Create_Session_Response.LWG
p575
aVtc_298_690_S4_3GDT_Service_request_wait_MBR_ef_delete_bearer_request_lbi.LWG
p576
aVtc_39_601_mas_unsucc_fwd_reloc_resp_mandatory_ie_missing_stop_source.LWG
p577
aVtc_259_53_isd_s4_umts_pmmidl_act_deact_service_req.LWG
p578
aVtc_221_037__Selection_Table_With_Similar_Criterias.LWG
p579
aVtc_289_051_Modify_bearer__UE_context_modification_failure_x2_handover_triggered_two_pdn_involved_default_bearer_fail.LWG
p580
aVtc_311_204_intra_srns_reloc_s4_sgw_change_wf_reloc_req_ack_interrupted_by_cancel_loc_subscrip_withdrawn.WG14a
p581
aVtc_294_410_mme_handle_eps_handover_SGW_unavailable.LWG
p582
aVtc_321_118_ms_init_modification_request_network_reject.LWG
p583
aVtc_59_9_mtmsi_restart_counter.LWG
p584
aVtc_327_220_recovery_service_request__Insert_Subscriber_Data_while_waiting_for_Create_Session_Response.LWG
p585
aVtc_238_073_mme_eps_irat_ho_target__s1_reset_during_wf_check_security_complete_after_tau.LWG
p586
aVtc_157_4_snmp_consistent.LWG
p587
aVtc_259_77_ef_isd_paging_s4_w.LWG
p588
aVtc_337_005_validation_move_manually_stopped_between_two_pool_moves_smooth_move.LWG
p589
aVtc_95_4_load_lkf2.LWG
p590
aVtc_243_711_tau_from_sgsn_s3_active_flag_true_no_2nd_modify_bearer_response.LWG
p591
aVtc_44_860_mme_assoc_reestablish__sctp_fe_restart_s1_mme.LWG
p592
aVtc_195_208_mme_logging_maximum_modify_eps_bearer_context.LWG
p593
aVtc_73_41_gtpu_sgsn_dont_send_gpu_echo_request_w.LWG
p594
aVtc_231_173_ms_init_detach_interfered_by_cancel_location_withdraw.LWG
p595
aVtc_306_1201_ef_seamless_move_target_receive_hss_reset_with_ue_activity_indication.LWG
p596
aVtc_103_023_modify_diameter_peer_change_peer_number.LWG
p597
aVtc_322_161_smooth_move_ef_nas_after_paging_response_ignore.WG14a
p598
aVtc_307_011_HSS_Init_QoS_Modification__UEAMBR_and_APNAMBR_Changed_ECM_IDLE.LW
p599
aVtc_11_369_activate_ipv6_pdp_context_isd_pdp_type_dynamic.LW
p600
aVtc_103_1004_secondary_dpl_used_when_all_peers_in_dpl_unavailable_no_sls.LW
p601
aVtc_304_102_emergency_intra_tau_success__control_mode_threshold_exceeded.LW
p602
aVtc_275_073_tau_inter_new_no_update_location_response_sgsn00040258.LW
p603
aVtc_43_101__removal_of_disconnected_eNodeBs__CLI_removal.LW
p604
aVtc_194_081_cl_subscription_withdrawn_during_auth.LW
p605
aVtc_194_064_activate_loc_not_confirmed_ul_fails_network_failure.LW
p606
aVtc_324_006_mf_ser_req_signaling_after_ack_3gdt.LW
p607
aVtc_324_121_af_service_request_with_data_only_ulr_timeout_3gdt.LW
p608
aVtc_12_134_attach_with_extended_mmumoc_iu_inactivity_timer.LW
p609
aVtc_359_049_handover_from_non3gpp_af_after_rau_without_fqdn_same_apn_no_pgw_id_in_sub_syspro_off.W14b
p610
aVtc_241_405_israu_new_with_16m_flag_allowed_in_context_response_and_epc_cap_in_rau_req_transfer_to_new_tcw.W14b
p611
aVtc_324_225_ef_detach_request_abort_wf_rab_assignment_response_wf_update_location_hss_service_req_data.W14b
p612
aVtc_11_369_activate_ipv6_pdp_context_isd_pdp_type_dynamic.W14b
p613
aVtc_12_4_attach_ptmsi_signalling_connection_release.W14b
p614
aVtc_274_441_Intra_TAU_Detach_Request_while_waiting_for_Create_Session_Response_2PDNs_partially_failure_sgw_unavailable.L14b
p615
aVtc_284_105_pdn_connectivity_modify_bearer_failure_from_sgw.L14b
p616
aVtc_220_616_csfb_to_1xrtt_in_ecm_idle_with_extra_pdn_and_gbr_bearers_sgw_does_not_respond.L14b
p617
aVtc_346_023_PGW_Selection__PDN_Connectivity__static_GW_selection_enabled.L14b
p618
aVtc_292_101_x2_based_ho_no_sgw_answer.L14b
p619
aVtc_326_252_Intra_TAU_Recovery_after_node_restart_then_pool_move.L14b
p620
aVtc_326_622_S6a_Throttling_Service_Request_recovery_UL_successful_and_Emergency_Attach_not_throttled.L14b
p621
aVtc_44_071_attach_long_imsi.L14b
p622
aVtc_304_105_intra_tau_success__control_mode_threshold_not_reached.L14b
p623
aVtc_304_435_Service_Request_UE_Initiated__control_mode_threshold_exceeded_explicit_detach_mbr_int_prot_nok.L14b
p624
aVtc_327_035_recovery_intra_TAU__initial_intra_TAU_Request_while_waiting_for_CSR_due_to_S11_linkdown.L14b
p625
aVtc_218_112_tau_from_sgsn_ue_context_release_when_wf_modify_bearer_resp.L14b
p626
aVtc_297_407_move_at_periodic_rau.G14b
p627
a.