(lp0
Vtc_208_43_interception_after_small_restart.G14b
p1
aVtc_166_033_ms_initiated_modify_ggsn_teid_change.WG14a
p2
aVtc_322_161_smooth_move_ef_nas_after_paging_response_ignore.WG14a
p3
aVtc_194_505_Notification_during_Intra_TAU_without_SGW_Relocation_HSS_Reset_Before_TAU.LW
p4
aVtc_359_105_handover_from_3gpp_mf_tobeDeact_Notify_UE_true.LW
p5
aVtc_225_416_recv_service_while_waiting_extended_service_request.LW
p6
aVtc_284_351_pdn_connectivity_pb_activate_1_dedicated_bearer_interrupted_by_path_switch_request.LW
p7
aVtc_276_373_Inter_TAU_New_MME__New_TAU_Request_while_waiting_for_Create_Session_Response.LW
p8
aVtc_294_335_mme_handle_eps_handover_with_tla_mismatch0.LW
p9
aVtc_294_410_mme_handle_eps_handover_SGW_unavailable.LW
p10
aVtc_307_031_HSS_Init_QoS_Modification__RFSP_And_QCI_changed_CSFB_Return_by_Intra_TAU.LW
p11
aVtc_103_853_error_code_DIAMETER_INVALID_HDR_BITS.LW
p12
aVtc_103_1101_resending_AIR_interfering_CLR.LW
p13
aVtc_103_1108_attach_resend_of_AIR_successful_last_retry.LW
p14
aVtc_103_1131_sx_resend__CCR_I_diameter_unable_to_deliver_then_diameter_too_busy_host_and_realm.LW
p15
aVtc_219_131_s3_handover_w_to_l_with_cl_two_pdns_one_failed_sgw_relocation.LW
p16
aVtc_304_102_emergency_intra_tau_success__control_mode_threshold_exceeded.LW
p17
aVtc_306_1300_ef_seamless_move_target_receive_uplink_nas_transport_bf_lur.LW
p18
aVtc_298_783_S4_3GDT_downlink_data_notification_wait_MBR_ef_detach.LW
p19
aVtc_202_17_service_request_during_release_access_bearers.LW
p20
aVtc_327_252_recovery_service_request_MBR_timeout__TAU_Request_wf_Guti_Reallocation_Complete.LW
p21
aVtc_326_202_Intra_TAU_after_large_restart_after_combined_attach.LW
p22
aVtc_321_103_service_request_reject.LW
p23
aVtc_195_213_mme_logging_medium_csfb_to_1xrtt_extended_service_request_emergency.LW
p24
aVtc_218_111_tau_from_sgsn_ue_context_release_when_wf_tau_complete.L14b
p25
aVtc_289_107_Modify_Bearer__Create_Bearer_Request_wf_UE_Context_Modification_Resp_aborted_by_handover_required.L14b
p26
aVtc_103_860_ue_trace_retransmit.L14b
p27
aVtc_202_420_af_seamless_move_target_initialCtxSetupResponse_noSuccDefaultBearer.L14b
p28
aVtc_193_008_background_fetching_s1_sel_freq_1.L14b
p29
aVtc_194_161_emergency_attach_loc_not_confirmed_ul_fails.L14b
p30
aVtc_346_729_pra_cn_predefined_lrc_optimization_x2_ho__continuous_ho_1st_and_last_enb_lrc_needed.L14b
p31
aVtc_273_240_tau_intra__sgw_relocation.L14b
p32
aVtc_304_114_initial_ue_intra_tau_control_mode_threshold_exceeded_usc_ignore_replace_s1.L14b
p33
aVtc_306_1034_ef_seamless_move_target_handle_initial_tau_request_sr_ongoing_wf_mbr_move_going.L14b
p34
aVtc_220_587_csfb_to_1xrtt_in_extended_service_request_during_attach_waiting_for_modify_bearer_response.L14b
p35
aVtc_275_400_tau_inter_new_low_subscribed_rau_tau_timer.L14b
p36
aVtc_44_071_attach_long_imsi.L14b
p37
aVtc_236_040_s4_3gdt_detach_during_waiting_for_modify_bearer_rsp_in_service_request_procedure.W14b
p38
aVtc_250_161_s6d_IDR_IDA_Change_GPRS_to_eps_subscription_re_attach.W14b
p39
aVtc_259_99_ef_s6d_s4_attach_old_w.LWG
p40
aVtc_319_154_tau_mf_gw_blacklisting_blocked_to_available_gn_g_to_l.LWG
p41
aVtc_23_09_transfer_to_primary_and_change_vip_addr.LWG
p42
aVtc_298_424_ms_init_deact_ef_delicated_non_gbr_bearer_deact_interfered_by_rab_release_request.LWG
p43
aVtc_298_783_S4_3GDT_downlink_data_notification_wait_MBR_ef_detach.LWG
p44
aVtc_326_207_Intra_TAU_Recovery_with_1xrtt_cs_registration_then_CSFB_to_1xrtt.LWG
p45
aVtc_219_131_s3_handover_w_to_l_with_cl_two_pdns_one_failed_sgw_relocation.LWG
p46
aVtc_219_012_tau_w_to_l_without_cl.LWG
p47
aVtc_284_350_pdn_connectivity_interrupted_by_path_switch_request.LWG
p48
aVtc_311_223_intra_srns_reloc_s4_sgw_change_wf_rau_complete_interrupted_by_downlink_data_notification_with_cause.LWG
p49
aVtc_310_223_ef__Ue_Release_Request_wf_PS_to_CS_Complete_and_FR_Complete.LWG
p50
aVtc_322_172_smooth_move_ef_gr_cli_delete_subscriber_data_wf_security_mode_complete.LWG
p51
aVtc_316_234_MME_Pool_Link_to_BMME_Fail_Select_New_BMME_Delete_Old_Backup.LWG
p52
aVtc_29_004_attach_w_attach_g_when_loc_not_confirmed.LWG
p53
aVtc_95_10_fingerprint.LWG
p54
aVtc_321_021_s4_logging_inter_handover_l2w_target.LWG
p55
aVtc_321_052_s4_logging_israu_with_imsi_in_ranap.LWG
p56
aVtc_578_02_check_parse_ebm_and_ci_eci_g.LWG
p57
aVtc_578_02_check_parse_ebm_and_ci_eci_w.LWG
p58
aVtc_578_33_check_ebm_para_statistics_enb_sn.LWG
p59
aVtc_178_690_action_sctp_sys_assoc_move_command.LWG
p60
aVtc_99_157_intra_g_to_w_camel.LWG
p61
aVtc_59_9_mtmsi_restart_counter.LWG
p62
aVtc_183_005_itc_folder_file_names.LWG
p63
aVtc_244_006_mt_lr_connected_mode_para_PerformLocationReportMTLR_true.LWG
p64
aVtc_103_1101_resending_AIR_interfering_CLR.LWG
p65
aVtc_342_864_online_change_LI_U.LWG
p66
aVtc_276_373_Inter_TAU_New_MME__New_TAU_Request_while_waiting_for_Create_Session_Response.LWG
p67
aVtc_73_39_gtpu_sgsn_send_gnu_echo_request_w.LWG
p68
aVtc_73_21_itc_gtpu_s4_sgsn_send_echo_request_w.LWG
p69
aVtc_73_43_gtpu_sgsn_turn_off_gnu_echo_request_w.LWG
p70
aVtc_243_753_tau_from_sgsn_s3_change_sgw_emergency_type_a_not_allowed_in_csg.LWG
p71
aVtc_232_403_bfd__ipv4ipv6_alarm.LWG
p72
aVtc_98_100_inter_sgsn_new_psho_main_flow_with_camel.LWG
p73
aVtc_11_369_activate_ipv6_pdp_context_isd_pdp_type_dynamic.LWG
p74
aVtc_11_651_downlink_iu_satellite_hpa_on_with_arp1_t3313pthpa_90s_mf_paing_1st_try_success.LWG
p75
aVtc_294_1100_x2_based_ho_intra_tau_new_plmn_cc90_with_hrl.LW
p76
aVtc_103_1101_resending_AIR_interfering_CLR.LW
p77
aVtc_243_006_tau_from_sgsn_s3_keep_old_sgw_with_diff_timezone.LW
p78
aVtc_23_09_transfer_to_primary_and_change_vip_addr.LW
p79
aVtc_202_17_service_request_during_release_access_bearers.LW
p80
aVtc_275_852_tau_inter_new__active_flag_on_no_2nd_modify_bearer_response_sgw_unchange.LW
p81
aVtc_321_094_intra_srns_reloc_main_flow.LW
p82
aVtc_321_098_provide_subscriber_location_report_control_mf.LW
p83
aVtc_321_123_ms_send_sm_status.LW
p84
aVtc_218_112_tau_from_sgsn_ue_context_release_when_wf_modify_bearer_resp.LW
p85
aVtc_195_208_mme_logging_maximum_modify_eps_bearer_context.LW
p86
aVtc_195_210_mme_logging_maximum_service_request_reject.LW
p87
aVtc_195_560_mt_lr_connected_mode.LW
p88
aVtc_11_369_activate_ipv6_pdp_context_isd_pdp_type_dynamic.LW
p89
aVtc_219_511_tau_w_to_l_with_old_guti_type_mapped.LW
p90
aVtc_262_044_imsi_attach_emm_deregistered.LW
p91
aVtc_262_1055_imsi_attach_with_csg_id_is_rejected.LW
p92
aVtc_231_113_rnc_reset_during_ms_act_si_ms_deact_rnc_contact.LW
p93
aVtc_341_609_x2_activity_event_isc_tau_from_gn_sgsn.LW
p94
aVtc_346_716_pra_cn_predefined_lrc_optimization_x2_ho__lrc_start.L14b
p95
aVtc_346_726_pra_cn_predefined_lrc_optimization_x2_ho__lrc_failure_in_source_enb_ulc.L14b
p96
aVtc_304_114_initial_ue_intra_tau_control_mode_threshold_exceeded_usc_ignore_replace_s1.L14b
p97
aVtc_295_136_mo_call_during_s1_ho_tau_request_when_wf_handover_notify.L14b
p98
aVtc_276_375_Inter_TAU_New_MME__New_TAU_Request_while_waiting_for_tau_complete_old_guti.L14b
p99
aVtc_276_376_Inter_TAU_New_MME__New_TAU_Request_while_waiting_for_tau_complete_new_guti.L14b
p100
aVtc_266_011_DownlinkDataNotification_interfering_ISD_sgsn00026976.L14b
p101
aVtc_266_026_DownlinkDataFailureInd_repeat_paging_timer_small_local_restart.L14b
p102
aVtc_43_101__removal_of_disconnected_eNodeBs__CLI_removal.L14b
p103
aVtc_265_001_Detach_Flow_UE_init__Attach_Request_while_waiting_for_Context_Release_Complete.L14b
p104
aVtc_244_700_mt_lr_LPPa_main_flow.L14b
p105
aVtc_195_417_ue_trace_deactivate_trace_s1_intra_system_handover_triggered_HO_ongoing_timeout.L14b
p106
aVtc_195_529_mme_logging_send_sgsap_status.L14b
p107
aVtc_195_545_mme_logging_eps_handover_target_inter_relocation_cancel_Request_with_imei_using_imei_trace.L14b
p108
aVtc_195_544_mme_logging_new_mme_identification_request_with_old_guti_type_trace_imeisv.L14b
p109
aVtc_195_558_mme_logging_attach_detach_identification_req_resp_gtpv1.L14b
p110
aVtc_44_301_sctp_counter_MessageSent_Received.L14b
p111
aVtc_44_550_s1ap_reset_reset_resource.L14b
p112
aVtc_44_850_mme_assoc_reestablish__board_restart_s1_mme.L14b
p113
aVtc_110_005_inbound_outbound_pf_rule_cli_ip.LWG
p114
aVtc_202_362_mf_seamless_move_by_ue_5_subscribers_2_target_mmes.LWG
p115
aVtc_365_03_seq_num_overflow_update_pdp_context_req.LWG
p116
aVtc_23_09_transfer_to_primary_and_change_vip_addr.LWG
p117
aVtc_179_318_Ccheck_TraceCollectionIpv6server.LWG
p118
aVtc_243_773_tau_from_sgsn_s3_active_flag_true_SGW_change_no_modify_bearer_response_two_pdn.LWG
p119
aVtc_321_096_rab_modify_request_main_flow.LWG
p120
aVtc_213_005_irat_ps_handover_from_w_to_g_with_nrspca_on.LWG
p121
aVtc_183_005_itc_folder_file_names.LWG
p122
aVtc_195_208_mme_logging_maximum_modify_eps_bearer_context.LWG
p123
aVtc_195_536_mme_logging_tau_inter_new_S3.LWG
p124
aVtc_273_240_tau_intra__sgw_relocation.LWG
p125
aVtc_34_82_periodic_rau_ptmsi_collission_with_w_ms_which_rau_to_2g_then_rau_back_within_20s.LWG
p126
aVtc_326_213_Intra_TAU_Recovery_multiple_retrieval_responses_with_different_revision_number.LWG
p127
aVtc_250_105_ignore_IDR_when_EPS_sub_downgrade_GPRS_sub.LWG
p128
aVtc_216_013_icmpv6_inNeighborSol.LWG
p129
aVtc_305_040_oms_mmi.LWG
p130
aVtc_39_601_mas_unsucc_fwd_reloc_resp_mandatory_ie_missing_stop_source.LWG
p131
aVtc_103_704_delete_peer_send_DPR.LWG
p132
aVtc_73_21_itc_gtpu_s4_sgsn_send_echo_request_w.LWG
p133
aVtc_73_41_gtpu_sgsn_dont_send_gpu_echo_request_w.LWG
p134
aVtc_98_100_inter_sgsn_new_psho_main_flow_with_camel.LWG
p135
aVtc_236_307_Activation_DtSelMode_5_APN_requested_wrong_SGSN_default_APN_in_APN_list_TAC_in_TAC_list.LWG
p136
aVtc_250_77_recv_CLR_initial_attach_waiting_sgsn_context_ack_not_combined_node.W14b
p137
aVtc_39_748_cancel_loc_subWithdrawn_after_fwd_reloc_cmpl_abort_source.W14b
p138
aVtc_320_002_s4_logging_inter_rau_new_context_response_with_imeisv_traced_by_imeisv.G14b
p139
aVtc_320_000_s4_logging_s6d_inter_rau_g2g_old_purge_ue.G14b
p140
aVtc_320_025_gn_logging_inter_rau_source_gtpv0.G14b
p141
aVtc_90_004_camel_disconnect_event_ie_sgsn.G14b
p142
aVtc_98_105_inter_sgsn_new_psho_camel_dp_release_of_pdp_context.G14b
p143
aVtc_239_620_inter_rau_new_with_bearer_sgw_not_change_isd_odb_bit0_wf_rau_compl_deactivation.G14b
p144
aVtc_208_43_interception_after_small_restart.G14b
p145
aVtc_213_066_nrspca_with_pdp_context_is_deactivate_pending.G14b
p146
aVtc_322_161_smooth_move_ef_nas_after_paging_response_ignore.WG14a
p147
aVtc_202_01_ecm_connected_s1_release.L14b
p148
aVtc_78_003_imsi_attach_redirection_cause_11.WG14b
p149
aVtc_248_02_inter_l_to_w_new_main_flow_with_sgw_relocation.WG14b
p150
aVtc_63_2_start_timer.WG14b
p151
aVtc_63_4_stop_timer.WG14b
p152
aVtc_60_2_hlr_reset_during_activate.WG14b
p153
aVtc_60_3_activate_during_hlr_reset.WG14b
p154
aVtc_60_4_small_restart_during_hlr_reset.WG14b
p155
aVtc_324_001_mf_ue_keep_in_idle.WG14b
p156
aVtc_245_004_inter_rau_new_s4_sgsn_mainflow_with_sgw_change_3gdt.WG14b
p157
aVtc_241_031_intra_rau_with_bearer_sgw_change_mf_s4.WG14b
p158
aVtc_241_001_israu_old_with_bearer_mf_s4.WG14b
p159
aVtc_231_001_activate_primary_pdp_context_s4.WG14b
p160
aVtc_05_003_normal_gprs_imsi_attach.WG14b
p161
aVtc_64_1_transaction_timeout.WG14b
p162
aVtc_04_03_normal_gprs_imsi_attach_detach_ptmsi_attach_detach.WG14b
p163
aVtc_298_001_nrspca_s4_connected_mf.WG14b
p164
aVtc_226_033_IMSI_PTMSI_Attach_W_measurement_control_exceed_threshold_Attach_after_control.WG14b
p165
aVtc_56_4_abort.WG14b
p166
aVtc_56_2_restart.WG14b
p167
aVtc_56_3_release.WG14b
p168
aVtc_334_101_sgw_restart_mf_one_pdn_locally_delete_not_in_APNList.WG14b
p169
aVtc_334_150_sgw_restart_mf_one_pdn_trigger_by_rau.WG14b
p170
aVtc_340_10_validation_move_w_filter_device_type_overlap_tac.WG14b
p171
aVtc_239_051_inter_rau_old_with_bearer_sgw_changed_s4.WG14b
p172
aVtc_239_151_inter_rau_new_with_bearer_sgw_changed_s4.WG14b
p173
aVtc_312_002_inter_old_srns_reloc_s16_with_sgw_change.WG14b
p174
aVtc_59_9_mtmsi_restart_counter.LWG
p175
aVtc_95_4_load_lkf2.LWG
p176
aVtc_346_378_handover_inter_target_establish_sx_session.LWG
p177
aVtc_183_005_itc_folder_file_names.LWG
p178
aVtc_194_506_Notification_during_Intra_MME_TAU_without_SGW_Relocation_Procedure.LWG
p179
aVtc_231_173_ms_init_detach_interfered_by_cancel_location_withdraw.LW
p180
aVtc_220_025_csfb_to_1xrtt_ue_suspended_hss_reset.LW
p181
aVtc_298_723_service_request_ef_ms_deact_ti_default_wf_rab_assignment_response.LW
p182
aVtc_318_022_pgw_restart_notification_ef_pdn_disconn_wf_paging_interfer_by_tau.LW
p183
aVtc_326_662_tau_intra_periodic_SGW_unavailable_after_MME_large_restart__two_pdn_one_fail.LW
p184
aVtc_275_073_tau_inter_new_no_update_location_response_sgsn00040258.LW
p185
aVtc_578_02_check_parse_ebm_and_ci_eci_w.LW
p186
aVtc_321_118_ms_init_modification_request_network_reject.LW
p187
aVtc_321_051_s4_logging_ptmsi_attach_with_imsi_in_ranap.LW
p188
aVtc_321_098_provide_subscriber_location_report_control_mf.LW
p189
aVtc_321_077_gn_logging_smooth_move_idle_no_pdp_source.LW
p190
aVtc_194_006_cl_update_procedure_coop_mme.LW
p191
aVtc_274_441_Intra_TAU_Detach_Request_while_waiting_for_Create_Session_Response_2PDNs_partially_failure_sgw_unavailable.LWG
p192
aVtc_327_036_recovery_intra_TAU__initial_intra_TAU_Request_while_waiting_for_Modify_Bearer_Response.LWG
p193
aVtc_327_211_recovery_service_request_emergency__Cancel_Location_subscription_withdrawal_while_waiting_for_Guti_Reallocation_Complete.LWG
p194
aVtc_327_037_recovery_intra_TAU_active_off_sgw_unchanged__RAR_wf_CSR_due_to_S11_linkdown.LWG
p195
aVtc_11_369_activate_ipv6_pdp_context_isd_pdp_type_dynamic.LWG
p196
aVtc_250_105_ignore_IDR_when_EPS_sub_downgrade_GPRS_sub.LWG
p197
aVtc_256_175_mme_eps_srvcc_ho_source_cs_only_ue_release_request_wf_srvcc_ps_to_cs_response.LWG
p198
aVtc_77_5_attach_activate2_g_crash.LWG
p199
aVtc_282_136_deactivate_non_last_default_bearer_with_cause_9.LWG
p200
aVtc_275_073_tau_inter_new_no_update_location_response_sgsn00040258.LWG
p201
aVtc_275_310_tau_inter_new_active_flag_keep_two_pdns_one_default_bearer_fail_in_eNB.LWG
p202
aVtc_194_100_check_gauge_unstable_not_parked.LWG
p203
aVtc_06_651_dualstack_activate_ipv4v6_requested_ipv4v6_subscribed_ipv4v6_dsg_true_daf_on_preferPgwForLteUe_no_epc.LWG
p204
aVtc_23_09_transfer_to_primary_and_change_vip_addr.LWG
p205
aVtc_220_605_csfb_to_1xrtt_in_ecm_connected_extended_service_request_during_downlink_data_notification.LWG
p206
aVtc_304_500_intra_tau_success_control_mode_threshold_exceeded_dgn.LWG
p207
aVtc_43_101__removal_of_disconnected_eNodeBs__CLI_removal.LWG
p208
aVtc_73_21_itc_gtpu_s4_sgsn_send_echo_request_w.LWG
p209
aVtc_202_17_service_request_during_release_access_bearers.LWG
p210
aVtc_202_42_type_c_emergency_pdn_ecm_idle.LWG
p211
aVtc_326_233_Intra_TAU_Recovery_fail_Security_Mode_Reject_then_Reattach.LWG
p212
aVtc_349_308_Inter_new_srns_reloc__Fwd_Reloc_Req_while_waiting_for_CCA_initial.WG14a
p213
aVtc_322_161_smooth_move_ef_nas_after_paging_response_ignore.WG14a
p214
aVtc_348_050_large_restart.WG14a
p215
aVtc_311_204_intra_srns_reloc_s4_sgw_change_wf_reloc_req_ack_interrupted_by_cancel_loc_subscrip_withdrawn.W14b
p216
aVtc_320_024_gn_logging_ptmsi_attach_detach_identification_req_resp_gtpv0.G14b
p217
aVtc_103_1101_resending_AIR_interfering_CLR.L14b
p218
aVtc_346_728_pra_cn_predefined_lrc_optimization_x2_ho__continuous_ho_all_enbs_lrc_needed.L14b
p219
aVtc_346_726_pra_cn_predefined_lrc_optimization_x2_ho__lrc_failure_in_source_enb_ulc.L14b
p220
aVtc_304_472_uplink_nas_csfb_to_wg_control_mode_threshold_exceeded_usc_ignore_in_ecm_connected_wf_icsr.L14b
p221
aVtc_44_860_mme_assoc_reestablish__sctp_fe_restart_s1_mme.L14b
p222
aVtc_256_367_srvcc_ho_source_cs_only_gsm_2_msc_available.L14b
p223
aVtc_266_026_DownlinkDataFailureInd_repeat_paging_timer_small_local_restart.L14b
p224
aVtc_327_012_recovery_intra_TAU__initial_Attach_Request_while_waiting_for_Ue_Backup_Response.L14b
p225
aVtc_327_022_recovery_intra_TAU__initial_Detach_Request_while_waiting_for_Ue_Backup_Response.L14b
p226
aVtc_203_107_mme_eps_handover_source_inter__detach_wf_forw_rel_resp.L14b
p227
aVtc_326_836_Intra_TAU_Recovery_after_Node_Restart_SGW_Change_active_flag_on_no_modify_bearer_response.L14b
p228
aVtc_220_411_csfb_to_1xrtt_in_ecm_connected_path_switch_request_subscription_cancelled.L14b
p229
aVtc_202_01_ecm_connected_s1_release.L14b
p230
aVtc_202_42_type_c_emergency_pdn_ecm_idle.L14b
p231
aVtc_202_43_type_d_emergency_pdn_ecm_idle.L14b
p232
aVtc_324_225_ef_detach_request_abort_wf_rab_assignment_response_wf_update_location_hss_service_req_data.WG14a
p233
aVtc_324_455_ef_detach_request_poweroff_abort_wf_rab_assignment_response_wf_update_location_hss_service_req_data.WG14a
p234
aVtc_98_100_inter_sgsn_new_psho_main_flow_with_camel.G14b
p235
aVtc_320_004_s4_logging_inter_rau_new_gtpv1_identification_response_with_imsi_traced_by_imsi.G14b
p236
aVtc_213_017_network_init_secondary_pdp_context_estack_tdp.G14b
p237
aVtc_193_402_auth_vectors_answer_from_hss_with_more_vectors_than_requested.L14b
p238
aVtc_220_411_csfb_to_1xrtt_in_ecm_connected_path_switch_request_subscription_cancelled.L14b
p239
aVtc_288_233_pgw_init_bearer_mod_QoS_UE_timeout_for_default_bearer_one_conn.L14b
p240
aVtc_268_039_Timer_Based_GBR_Deact__Receive_DDN_before_Release_Access_Bearer_Response.L14b
p241
aVtc_244_700_mt_lr_LPPa_main_flow.L14b
p242
aVtc_266_011_DownlinkDataNotification_interfering_ISD_sgsn00026976.L14b
p243
aVtc_266_026_DownlinkDataFailureInd_repeat_paging_timer_small_local_restart.L14b
p244
aVtc_202_41_type_a_emergency_pdn_ecm_idle.L14b
p245
aVtc_256_047_mme_eps_srvcc_ho_source_cs_only_normal_attach_emergency_call_delete_bearer_request_not_received.L14b
p246
aVtc_292_001_x2_based_ho_main_flow.L14b
p247
aVtc_295_124_tau_after_ho_tz_change_emm_information_meanwhile_handover_required_HO_success.L14b
p248
aVtc_341_510_x2_activity_event_attach_detach_imsi.L14b
p249
aVtc_341_682_x2_activity_event_handover_inter_s1_new.L14b
p250
aVtc_103_1000_modify_diameter_peer_prio.L14b
p251
aVtc_210_046_mme_initiated_detach_with_reattach_required.L14b
p252
aVtc_294_412_mme_handle_eps_handover_SGW_unavailable_DNS_query_failure.L14b
p253
aVtc_294_1100_x2_based_ho_intra_tau_new_plmn_cc90_with_hrl.L14b
p254
aVtc_327_252_recovery_service_request_MBR_timeout__TAU_Request_wf_Guti_Reallocation_Complete.L14b
p255
aVtc_214_028_combined_attach_interfering_s1_reset.L14b
p256
aVtc_262_1055_imsi_attach_with_csg_id_is_rejected.L14b
p257
aVtc_332_062_1_mf__paging_due_to_UBR_during_paging_due_to_cs_sms_latest_with_no_prio.L14b
p258
aVtc_44_301_sctp_counter_MessageSent_Received.L14b
p259
aVtc_44_551_s1ap_reset_reset_resource__ue_id.L14b
p260
aVtc_273_363_tau_intra_normal_between_ipv4_and_ipv6.L14b
p261
aVtc_273_521_TAU_intra_sgw_no_change_rabr_context_not_exist__no_impact.L14b
p262
aVtc_346_493_Small_Local_Restart__Terminate_when_UE_S1_release.L14b
p263
aVtc_219_131_s3_handover_w_to_l_with_cl_two_pdns_one_failed_sgw_relocation.LW
p264
aVtc_11_369_activate_ipv6_pdp_context_isd_pdp_type_dynamic.LW
p265
aVtc_346_022_PGW_Selection__PDN_Connectivity__no_PGW_provided_by_SAPC_snaptr.LW
p266
aVtc_346_131_Location_Based_Policies__User_Location_Change_Sx_Only__Intra_TAU_ActiveFlag_2_PDNs.LW
p267
aVtc_276_373_Inter_TAU_New_MME__New_TAU_Request_while_waiting_for_Create_Session_Response.LW
p268
aVtc_294_336_mme_handle_eps_handover_with_tla_mismatch1.LW
p269
aVtc_289_031_Modify_bearer__Downlink_nas_transport_meanwhile_path_switch_request_HO_success.LW
p270
aVtc_23_09_transfer_to_primary_and_change_vip_addr.LW
p271
aVtc_44_850_mme_assoc_reestablish__board_restart_s1_mme.LW
p272
aVtc_321_070_gn_logging_network_request_secondary_pdp_ctx_activation.LW
p273
aVtc_304_102_emergency_intra_tau_success__control_mode_threshold_exceeded.LW
p274
aVtc_194_505_Notification_during_Intra_TAU_without_SGW_Relocation_HSS_Reset_Before_TAU.LW
p275
aVtc_256_135_mme_eps_srvcc_ho_source_cs_only_initial_ue_detach_request_wf_srvcc_ps_to_cs_complete_notification.LW
p276
aVtc_275_073_tau_inter_new_no_update_location_response_sgsn00040258.LW
p277
aVtc_250_182_s6d_inter_new_rau_ul_rejected_roaming_not_allowed_remap_on_with_err_diag.LW
p278
aVtc_298_697_S4_3GDT_Service_request_wait_MBR_ef_deactivate_pdp_context_request_dedicate.LWG
p279
aVtc_280_160_activated_dedicated_bearer_after_configured_max_bearers_setup.LWG
p280
aVtc_98_100_inter_sgsn_new_psho_main_flow_with_camel.LWG
p281
aVtc_183_005_itc_folder_file_names.LWG
p282
aVtc_179_318_Ccheck_TraceCollectionIpv6server.LWG
p283
aVtc_195_300_mme_logging_generic_nas_transport.LWG
p284
aVtc_348_028_deactivation__activate_primary_secondary_ms_deactivate_secondary_tdi_set.LWG
p285
aVtc_348_169_israu_af__new_sgsn_partial_pdp_inactive.LWG
p286
aVtc_348_360_inter_srns_reloc_af__new_sgsn_CCA_I_with_failure_cause_5011.LWG
p287
aVtc_208_43_interception_after_small_restart.LWG
p288
aVtc_349_103_RAU_new_sgsn__Iu_Release_Req_while_waiting_for_CCA_initial.LWG
p289
aVtc_349_303_Inter_new_srns_reloc__Attach_Req_while_waiting_for_CCA_initial.LWG
p290
aVtc_275_815_tau_inter_emergency_tac_based_roaming_restriction_table_matched_blacklist.LWG
p291
aVtc_43_101__removal_of_disconnected_eNodeBs__CLI_removal.LWG
p292
aVtc_219_136_s3_handover_w_to_l_cl_time_out_s6d.LWG
p293
aVtc_23_09_transfer_to_primary_and_change_vip_addr.LWG
p294
aVtc_262_002_imsi_attach_emm_registered.LWG
p295
aVtc_59_9_mtmsi_restart_counter.LWG
p296
aVtc_277_004_tau_inter_old_sgw_changed.LWG
p297
aVtc_320_023_gn_logging_inter_rau_target_gtpv0.G14b
p298
aVtc_213_016_network_init_secondary_pdp_context_estab_tdp.G14b
p299
aVtc_98_105_inter_sgsn_new_psho_camel_dp_release_of_pdp_context.G14b
p300
aVtc_90_005_camel_disconnect_event_ie_hlr.G14b
p301
aVtc_103_855_error_code_DIAMETER_CONTRADICTING_AVPS.LW
p302
aVtc_103_1101_resending_AIR_interfering_CLR.LW
p303
aVtc_103_1109_attach_resend_of_AIR_no_more_peers.LW
p304
aVtc_103_1120_attach_ula_dia_unable_to_deliver.LW
p305
aVtc_294_1000_intra_mme_handover_with_ta_change_with_wrong_selected_tai.LW
p306
aVtc_195_517_mme_logging_eps_handover_source_inter_relocation_cancel_Request.LW
p307
aVtc_91_012_intra_rau_ul_req_while_spont_ul.LW
p308
aVtc_47_004_mobile_reachble_timer_ap_loss.LW
p309
aVtc_194_600_DSD__Complete_APN_Configuration_Profile_Withdrawal.LW
p310
aVtc_298_073_s4_nrspca_activate_same_nsapi_of_dedicated_bearer_rab_released.LW
p311
aVtc_322_123_smooth_move_ef_cancel_location_wf_ptmsi_relocation_complete.LW
p312
aVtc_214_800_mo_sms_active_nas_non_delivery_x2_handover_triggered.LW
p313
aVtc_23_13_israu_out.LW
p314
aVtc_276_262_Inter_TAU_New_MME__Update_Bearer_Request_while_waiting_for_TAU_Complete.LW
p315
aVtc_321_081_gn_logging_ptmsi_attach_detach_identification_req_resp_gtpv1.LW
p316
aVtc_321_121_sgsn_send_gmm_status.LW
p317
aVtc_295_029_Intra_S1_HO__Path_switch_request_while_wf_handover_notify.LW
p318
aVtc_202_01_ecm_connected_s1_release.LW
p319
aVtc_231_111_ms_in_noiu_switch_to_gn_due_to_camel_changed.LW
p320
aVtc_11_369_activate_ipv6_pdp_context_isd_pdp_type_dynamic.W14b
p321
aVtc_248_303_inter_l_to_w_new_ms_connected_handover_from_mme.W14b
p322
aVtc_12_512_pmm_undefined_attach_when_updating_location_interfered_by_rnc_reset.W14b
p323
aVtc_342_918_x2_inter_rau_new_with_camel.W14b
p324
aVtc_322_021_smooth_move_af_frr_with_service_not_supported.W14b
p325
aVtc_322_161_smooth_move_ef_nas_after_paging_response_ignore.W14b
p326
aVtc_348_167_israu_af__new_sgsn_camel_release.W14b
p327
aVtc_578_33_check_ebm_para_statistics_enb_sn.LWG
p328
aVtc_578_32_check_ebm_para_statistics_ue_return_duration.LWG
p329
aVtc_276_373_Inter_TAU_New_MME__New_TAU_Request_while_waiting_for_Create_Session_Response.LWG
p330
aVtc_276_374_Inter_TAU_New_MME__New_TAU_Request_while_waiting_for_Location_Update_Response.LWG
p331
aVtc_73_41_gtpu_sgsn_dont_send_gpu_echo_request_w.LWG
p332
aVtc_11_369_activate_ipv6_pdp_context_isd_pdp_type_dynamic.LWG
p333
aVtc_12_134_attach_with_extended_mmumoc_iu_inactivity_timer.LWG
p334
aVtc_329_058_attach_rs_restricted_rr_restricted_emergency_type_b.LWG
p335
aVtc_211_015_streamed_cell_trace_mapping_alarm_cease.LWG
p336
aVtc_213_301_network_init_secondary_pdp_context_estab_tdp_hsdpa_84m.LWG
p337
aVtc_23_09_transfer_to_primary_and_change_vip_addr.LWG
p338
aVtc_361_410_s3_handover_l_to_w_s1rh_timeout_without_cl.LWG
p339
aVtc_361_510_rau_l_to_w_S4SGSN_check_old_qos_failed_node_function_deactivate_pdp_after_rau_on.LWG
p340
aVtc_99_157_intra_g_to_w_camel.LWG
p341
aVtc_348_001_activation_mf__primary_pdp_with_sx.LWG
p342
aVtc_348_042_sapc_restarted__irat_ms.LWG
p343
aVtc_348_165_israu_af__new_sgsn_imei_check_black_listed.LWG
p344
aVtc_348_261_smooth_move_af__new_sgsn_CCA_I_with_failure_cause_5011.LWG
p345
aVtc_348_373_intra_psho_af__l_to_w_CCA_I_with_failure_cause_5003_partially.LWG
p346
aVtc_298_440_ms_init_deact_ef_default_bearer_deact_with_rab_interfered_by_dedicate_bearer_deact_request.LWG
p347
aVtc_298_783_S4_3GDT_downlink_data_notification_wait_MBR_ef_detach.LWG
p348
aVtc_321_116_network_init_secondary_pdp_context_activation_ms_reject.LWG
p349
aVtc_59_11_sequence_check_replica_values.LWG
p350
aVtc_220_403_csfb_to_1xrtt_in_ecm_connected_path_switch_request_HO_success.LWG
p351
aVtc_311_24_intra_srns_reloc_s4_with_sgw_change_with_11_pdns.LWG
p352
aVtc_319_028_pdn_connectivity_ef_static_selection_on_table_not_matched_stop_by_detach.LWG
p353
aVtc_341_532_x2_activity_event_attach_detach_imei.LWG
p354
aVtc_349_110_RAU_new_sgsn__RAU_Req_on_new_iu_no_response_while_waiting_for_CCA_initial.LWG
p355
aVtc_349_324_Intra_psho_g_to_w__DSD_while_waiting_for_CCA_initial.LWG
p356
aVtc_326_210_Intra_TAU_combined_after_large_restart_after_EPS_attach.LWG
p357
aVtc_326_251_Intra_TAU_with_unknown_GUTI_with_active_flag_then_s1_Intra_HO.LWG
p358
aVtc_326_836_Intra_TAU_Recovery_after_Node_Restart_SGW_Change_active_flag_on_no_modify_bearer_response.LWG
p359
aVtc_183_005_itc_folder_file_names.LWG
p360
aVtc_47_003_unstable_ue_ap_loss.LWG
p361
aVtc_103_701_MME_restarts.LWG
p362
aVtc_221_42_paging_in_connected_mode_early_reply.LWG
p363
aVtc_166_242_switch_back_to_two_tunnels_streaming_changed_qos.LWG
p364
aVtc_208_43_interception_after_small_restart.LWG
p365
aVtc_208_44_attach_detach_imsi_ap_takeover.LWG
p366
aVtc_236_039_s4_3gdt_detach_during_waiting_for_modify_bearer_rsp_in_active_procedure.LWG
p367
aVtc_347_282_Delete_Bearer__RAR_while_waiting_ERAB_Release_Response.LWG
p368
aVtc_578_51_check_parse_compressed_ebm.WG14a
p369
aVtc_276_373_Inter_TAU_New_MME__New_TAU_Request_while_waiting_for_Create_Session_Response.L14b
p370
aVtc_273_220_cell_trace_start_stop_when_tau_intra_periodic_idle_not_active.L14b
p371
aVtc_275_402_tau_inter_new_high_subscribed_rau_tau_timer_no_support_t3412_extended.L14b
p372
aVtc_306_1003_ef_seamless_move_target_handle_ddn_wf_lur.L14b
p373
aVtc_44_850_mme_assoc_reestablish__board_restart_s1_mme.L14b
p374
aVtc_304_102_emergency_intra_tau_success__control_mode_threshold_exceeded.L14b
p375
aVtc_194_506_Notification_during_Intra_MME_TAU_without_SGW_Relocation_Procedure.L14b
p376
aVtc_266_026_DownlinkDataFailureInd_repeat_paging_timer_small_local_restart.L14b
p377
aVtc_243_330_tau_from_sgsn_s3_emergency_type_a_no_restriction.LWG
p378
aVtc_243_770_tau_from_sgsn_s3_active_flag_true_SGW_unchange_no_2nd_modify_bearer_response.LWG
p379
aVtc_298_137_EF_NRSPCA_S4_Create_Bearer_Request_2_PDN_10_PDP.LWG
p380
aVtc_327_021_recovery_intra_TAU__uplink_Detach_Request_while_waiting_for_Update_Location_Response.LWG
p381
aVtc_311_204_intra_srns_reloc_s4_sgw_change_wf_reloc_req_ack_interrupted_by_cancel_loc_subscrip_withdrawn.LWG
p382
aVtc_196_251_ms_init_secondary_pdp_context_estack_tdp.LWG
p383
aVtc_59_9_mtmsi_restart_counter.LWG
p384
aVtc_320_020_gp_logging_pdp_context_activation_and_modification_gtpv0.LWG
p385
aVtc_320_027_gn_logging_inter_rau_target_transfer.LWG
p386
aVtc_320_000_s4_logging_s6d_inter_rau_g2g_old_purge_ue.LWG
p387
aVtc_292_170_inter_handover_before_timer_expiration_of_x2_ho.LWG
p388
aVtc_285_015_PDN_Connectivity__Handover_Required_while_wf_erab_setup_response.LWG
p389
aVtc_208_156_dl_payload_msisdn_imsi_imei_udp.LWG
p390
aVtc_95_3_load_lkf.LWG
p391
aVtc_95_7_negative_tests.LWG
p392
aVtc_276_375_Inter_TAU_New_MME__New_TAU_Request_while_waiting_for_tau_complete_old_guti.LWG
p393
aVtc_276_376_Inter_TAU_New_MME__New_TAU_Request_while_waiting_for_tau_complete_new_guti.LWG
p394
aVtc_244_050_mt_lr_imei_check_answer_received_wf_location_report.LWG
p395
aVtc_295_183_Intra_S1_HO__Location_report_while_wf_location_update_response.LWG
p396
aVtc_47_005_implict_detach_timer_ap_loss.LWG
p397
aVtc_73_21_itc_gtpu_s4_sgsn_send_echo_request_w.LWG
p398
aVtc_73_41_gtpu_sgsn_dont_send_gpu_echo_request_w.LWG
p399
aVtc_326_849_Geo_Service_Request_node_restart_Modify_Bearer_timeout_rollback_GUTI_followed_by_intra_tau.LWG
p400
aVtc_310_310_S3_new_SGW_emergency_attach_sv_pool_on_msc_one_offloading_one_available.LWG
p401
aVtc_320_000_s4_logging_s6d_inter_rau_g2g_old_purge_ue.G14b
p402
aVtc_298_792_S4_3GDT_rab_reestablish_on_second_service_request_data.LW
p403
aVtc_294_335_mme_handle_eps_handover_with_tla_mismatch0.LW
p404
aVtc_294_411_mme_handle_eps_handover_SGW_unavailable_with_ta_change.LW
p405
aVtc_23_09_transfer_to_primary_and_change_vip_addr.LW
p406
aVtc_342_864_online_change_LI_U.LW
p407
aVtc_262_011_guti_attach_unknown_imsi.LW
p408
aVtc_202_431_mf_seamless_move_target_service_request_modifyBearerReq_onePdnMultiBearer_oneBearerFail.LW
p409
aVtc_243_773_tau_from_sgsn_s3_active_flag_true_SGW_change_no_modify_bearer_response_two_pdn.LW
p410
aVtc_326_622_S6a_Throttling_Service_Request_recovery_UL_successful_and_Emergency_Attach_not_throttled.LW
p411
aVtc_241_1681_inter_rau_new_gn_to_s4_deactivation_init_by_odb_bit0.LW
p412
aVtc_275_400_tau_inter_new_low_subscribed_rau_tau_timer.LW
p413
aVtc_38_65_israu_old_sgsn_interfering_after_acknowledge.LW
p414
aVtc_276_373_Inter_TAU_New_MME__New_TAU_Request_while_waiting_for_Create_Session_Response.LW
p415
aVtc_103_1101_resending_AIR_interfering_CLR.LW
p416
aVtc_103_860_ue_trace_retransmit.LW
p417
aVtc_327_265_recovery_service_request_MBR_timeout__ho_to_non_3gpp_wf_Guti_Reallocation_Complete.LW
p418
aVtc_287_004_PDN_Disconnect__Handover_Required_while_wf_ERAB_release_command.LW
p419
aVtc_321_122_sgsn_send_sm_status.LW
p420
aVtc_316_203_IMSI_Attach_Emergency_Authentication_Fail__Backup_UE.LW
p421
aVtc_11_369_activate_ipv6_pdp_context_isd_pdp_type_dynamic.W14b
p422
aVtc_231_113_rnc_reset_during_ms_act_si_ms_deact_rnc_contact.W14b
p423
aVtc_348_006_activation_mf__same_nsapi_secondary_exists_with_sx.WG14a
p424
aVtc_324_328_ef_service_req_data_direct_transfer_ingore_wf_update_location.WG14a
p425
aVtc_194_100_check_gauge_unstable_not_parked.L14b
p426
aVtc_289_107_Modify_Bearer__Create_Bearer_Request_wf_UE_Context_Modification_Resp_aborted_by_handover_required.L14b
p427
aVtc_202_43_type_d_emergency_pdn_ecm_idle.L14b
p428
aVtc_304_114_initial_ue_intra_tau_control_mode_threshold_exceeded_usc_ignore_replace_s1.L14b
p429
aVtc_263_020_Attach_Flow__Attach_Request_Different_IEs_IP_OK_while_waiting_for_Delete_Session_Response.L14b
p430
aVtc_225_416_recv_service_while_waiting_extended_service_request.L14b
p431
aVtc_327_312_recovery_service_request__initial_Attach_Request_while_waiting_for_Ue_Backup_Response.L14b
p432
aVtc_327_252_recovery_service_request_MBR_timeout__TAU_Request_wf_Guti_Reallocation_Complete.L14b
p433
aVtc_44_071_attach_long_imsi.L14b
p434
aVtc_44_301_sctp_counter_MessageSent_Received.L14b
p435
aVtc_292_061_x2_handover_type_b_new_plmn_roaming_restricted_emc_sup_same_profile.L14b
p436
aVtc_276_375_Inter_TAU_New_MME__New_TAU_Request_while_waiting_for_tau_complete_old_guti.L14b
p437
aVtc_276_376_Inter_TAU_New_MME__New_TAU_Request_while_waiting_for_tau_complete_new_guti.L14b
p438
aVtc_304_102_emergency_intra_tau_success__control_mode_threshold_exceeded.L14b
p439
aVtc_275_711_tau_inter_without_SGW_Change_receive_TZCR_flag_set_in_context_response_SN_change.L14b
p440
aVtc_225_416_recv_service_while_waiting_extended_service_request.L14b
p441
aVtc_347_262_PDN_Connectivity__Location_Report_while_waiting_CCA_initial.LWG
p442
aVtc_321_011_s4_logging_inter_rau_w2w_new_ddn.LWG
p443
aVtc_321_096_rab_modify_request_main_flow.LWG
p444
aVtc_321_118_ms_init_modification_request_network_reject.LWG
p445
aVtc_220_004_csfb_to_1xrtt_ue_return_with_intra_tau_request.LWG
p446
aVtc_220_411_csfb_to_1xrtt_in_ecm_connected_path_switch_request_subscription_cancelled.LWG
p447
aVtc_326_223_Intra_TAU_Recovery_fail_Identity_Response_timeout_then_Recover_successful.LWG
p448
aVtc_179_318_Ccheck_TraceCollectionIpv6server.LWG
p449
aVtc_250_152_attach_activate_with_inconsistent_odb_data.LWG
p450
aVtc_289_107_Modify_Bearer__Create_Bearer_Request_wf_UE_Context_Modification_Resp_aborted_by_handover_required.LWG
p451
aVtc_195_311_mme_logging_attach_transfer_due_to_wrong_ap_index.LWG
p452
aVtc_195_516_mme_logging_eps_handover_target_inter_relocation_cancel_Request.LWG
p453
aVtc_178_830_action_ss7_sys_tclear.LWG
p454
aVtc_196_401_network_init_secondary_pdp_context_with_camel_hsdpa_84m.LWG
p455
aVtc_23_09_transfer_to_primary_and_change_vip_addr.LWG
p456
aVtc_208_43_interception_after_small_restart.LWG
p457
aVtc_208_44_attach_detach_imsi_ap_takeover.LWG
p458
aVtc_304_236_isc_active_flag_on_control_mode_threshold_exceeded_ignore_replace_s1_wf_initial_context_setup_response.LWG
p459
aVtc_295_124_tau_after_ho_tz_change_emm_information_meanwhile_handover_required_HO_success.LWG
p460
aVtc_295_182_Intra_S1_HO__Location_report_while_wf_update_location_response.LWG
p461
aVtc_241_1636_israu_new_modify_bearer_response_timeout_followed_by_ms_init_deac.LWG
p462
aVtc_73_44_ue_init_service_request_buffer_packets_with_3gdt.LWG
p463
aVtc_236_267_IRAT_HO_for_combined_node_DtSelMode_6_APN_not_in_APN_list_TAC_in_TAC_list.LWG
p464
aVtc_11_369_activate_ipv6_pdp_context_isd_pdp_type_dynamic.LWG
p465
aVtc_261_58_isd_ef_slg_location_request.LWG
p466
aVtc_324_112_af_service_request_default_bearer_fail_in_rab_assignment_non_3gdt.WG14a
p467
aVtc_321_093_mt_sms_segmented_tc_u_abort_after_second_segment.LW
p468
aVtc_220_411_csfb_to_1xrtt_in_ecm_connected_path_switch_request_subscription_cancelled.LW
p469
aVtc_289_070_GW_Init_Bearer_Modification_Flow_two_CBR_one_UBR_while_wf_modify_eps_bearer_context_accept.LW
p470
aVtc_103_1101_resending_AIR_interfering_CLR.LW
p471
aVtc_23_09_transfer_to_primary_and_change_vip_addr.LW
p472
aVtc_327_010_recovery_intra_TAU__uplink_Attach_Request_while_waiting_for_TAU_Complete.LW
p473
aVtc_327_037_recovery_intra_TAU_active_off_sgw_unchanged__RAR_wf_CSR_due_to_S11_linkdown.LW
p474
aVtc_241_431_intra_rau_with_bearer_sgw_unchange_2_pdns_with_one_modify_no_response.LW
p475
aVtc_304_102_emergency_intra_tau_success__control_mode_threshold_exceeded.LW
p476
aVtc_11_369_activate_ipv6_pdp_context_isd_pdp_type_dynamic.LW
p477
aVtc_214_221_mo_sms_idle_interfering_secondary_sms_sp_off.LW
p478
aVtc_214_503_mt_sms_while_wf_lu_accept.LW
p479
aVtc_292_060_x2_handover_type_a_new_plmn_roaming_restricted_emc_sup_same_profile.LW
p480
aVtc_194_508_Notification_during_Intra_TAU_without_SGW_Relocation_HSS_Reset_after_SMC.LW
p481
aVtc_326_263_Intra_TAU_with_unknown_GUTI_Restriction_2_pdn_roaming_restriction_emergency_pdn_recovered.LW
p482
aVtc_195_406_ue_trace_start_meanwhile_handover_required.LW
p483
aVtc_195_540_mme_logging_eps_handover_target_inter_relocation_cancel_Request_imeisv_using_imeisv_trace.LW
p484
aVtc_195_501_mme_logging_tau_inter_old_sgw_unchanged.LW
p485
aVtc_195_551_mme_logging_irat_handover_w_to_l_target_over_gn.LW
p486
aVtc_298_201_SIBD_S4_RAB_Release_3GDT_GTP_Resource_Unavailable.LW
p487
aVtc_298_600_sgsn_init_bearer_deact_ef_ms_deact_req_for_dedicated_bearer_wf_delete_req.LW
p488
aVtc_260_070_mbms_session_start_af_gw_resend_request_msg_diff_absolute_time.LW
p489
aVtc_47_005_implict_detach_timer_ap_loss.LW
p490
aVtc_320_027_gn_logging_inter_rau_target_transfer.G14b
p491
aVtc_98_105_inter_sgsn_new_psho_camel_dp_release_of_pdp_context.G14b
p492
aVtc_213_301_network_init_secondary_pdp_context_estab_tdp_hsdpa_84m.G14b
p493
aVtc_208_43_interception_after_small_restart.G14b
p494
aVtc_298_690_S4_3GDT_Service_request_wait_MBR_ef_delete_bearer_request_lbi.W14b
p495
aVtc_28_042_mo_sms_ok_for_home_when_blocked_for_visiting.W14b
p496
aVtc_31_064_activate_loc_not_confirmed_ul_fails_network_failure.W14b
p497
aVtc_578_32_check_ebm_para_statistics_ue_return_duration.LW
p498
aVtc_284_351_pdn_connectivity_pb_activate_1_dedicated_bearer_interrupted_by_path_switch_request.LW
p499
aVtc_241_431_intra_rau_with_bearer_sgw_unchange_2_pdns_with_one_modify_no_response.LW
p500
aVtc_219_025_tau_w_to_l_with_gbr_bearers.LW
p501
aVtc_295_124_tau_after_ho_tz_change_emm_information_meanwhile_handover_required_HO_success.LW
p502
aVtc_103_1101_resending_AIR_interfering_CLR.LW
p503
aVtc_236_048_s4_3gdt_deactivation_during_waiting_for_modify_bearer_rsp_in_activation_procedure_no_context.LW
p504
aVtc_260_062_mbms_session_start_af_one_mce_response_failure.LW
p505
aVtc_260_216_receive_m3_setup_req_while_wf_m3_start_resp.LW
p506
aVtc_326_218_Intra_TAU_Recovery_two_PDN_partial_fail.LW
p507
aVtc_262_201_reject_due_to_too_high_qos_from_sgw.LW
p508
aVtc_248_09_inter_l_to_w_new_3gdt.LW
p509
aVtc_293_009_X2_Based_HO__TAU_Request_in_uplink_NAS_from_source_while_wf_Modify_Bearer_Response.LW
p510
aVtc_11_369_activate_ipv6_pdp_context_isd_pdp_type_dynamic.LW
p511
aVtc_196_401_network_init_secondary_pdp_context_with_camel_hsdpa_84m.W14b
p512
aVtc_342_950_3gdt_one_tunnel_to_two_tunnel.W14b
p513
aVtc_348_167_israu_af__new_sgsn_camel_release.W14b
p514
aVtc_231_111_ms_in_noiu_switch_to_gn_due_to_camel_changed.W14b
p515
aVtc_274_442_Intra_TAU_Context_request_while_waiting_for_Create_Session_Response_3PDNs_partially_failure_sgw_unavailable.L14b
p516
aVtc_304_102_emergency_intra_tau_success__control_mode_threshold_exceeded.L14b
p517
aVtc_304_121_initial_ue_intra_tau_control_mode_threshold_exceeded_usc_detach_wf_release_request_response.L14b
p518
aVtc_304_236_isc_active_flag_on_control_mode_threshold_exceeded_ignore_replace_s1_wf_initial_context_setup_response.L14b
p519
aVtc_276_375_Inter_TAU_New_MME__New_TAU_Request_while_waiting_for_tau_complete_old_guti.L14b
p520
aVtc_290_018_Timer_Based_GBR_Deact__ue_context_release_request_wf_release_access_bearer_response_before_timer_expires.L14b
p521
aVtc_266_127_emergency_service_request_without_emergency_pdn.L14b
p522
aVtc_326_846_Geo_Service_Request_node_restart_Modify_Bearer_timeout_rollback_GUTI_release_s1_no_response.L14b
p523
aVtc_347_033_Inter_HO_Target__Location_Report_BCM_Sx_only_while_waiting_for_Handover_Notify.L14b
p524
aVtc_347_040_Inter_HO_Target_from_gn__Location_Report_while_waiting_for_Forward_Relocation_Complete_Notification.L14b
p525
aVtc_347_103_Inter_HO_Source_to_gn__RAR_while_waiting_for_timer_out.L14b
p526
aVtc_347_124_Seamless_Move_Target__Detach_Request_with_switchoff_while_waiting_for_CCA_initial.L14b
p527
aVtc_347_132_Seamless_Move_Target__S1_Reset_while_waiting_for_CCA_initial.L14b
p528
aVtc_347_203_Attach__UE_Context_Release_Request_while_waiting_for_CCA_Initial.L14b
p529
aVtc_347_208_Attach__Delete_Subscriber_Data_while_waiting_for_CCA_Initial.L14b
p530
aVtc_347_223_Service_Request__RAR_while_waiting_for_Modify_Bearer_Response.L14b
p531
aVtc_347_237_GW_Dedicated_Bearer_Deactivate__Location_Report_while_waiting_for_Deactiavte_EPS_Bearer_Context_Accept.L14b
p532
aVtc_347_256_NW_initiated_detach__RAR_while_waiting_for_delete_session_response.L14b
p533
aVtc_347_264_PDN_Connectivity__Location_Report_while_waiting_CSR_CCR_update_sent_for_2_Sx_Session.L14b
p534
aVtc_347_270_PDN_Connectivity__CCA_Update_while_waiting_CCA_Initial.L14b
p535
aVtc_347_300_mme_dedicated_bearer_deactivate__RAR_while_waiting_delete_bearer_request.L14b
p536
aVtc_347_320_HSS_init_Bearer_Modification__Location_Report_while_waiting_update_Bearer_request.L14b
p537
aVtc_327_312_recovery_service_request__initial_Attach_Request_while_waiting_for_Ue_Backup_Response.L14b
p538
aVtc_239_620_inter_rau_new_with_bearer_sgw_not_change_isd_odb_bit0_wf_rau_compl_deactivation.G14b
p539
aVtc_97_040_inter_sgsn_psho_main_flow_with_camel.G14b
p540
aVtc_90_004_camel_disconnect_event_ie_sgsn.G14b
p541
aVtc_73_40_gtpu_sgsn_send_gpu_echo_request_w.LWG
p542
aVtc_103_1101_resending_AIR_interfering_CLR.LWG
p543
aVtc_260_218_receive_m3_reset_req_while_wf_m3_start_resp_with_resp.LWG
p544
aVtc_342_125_delete_target_different_connection_three_targets.LWG
p545
aVtc_327_035_recovery_intra_TAU__initial_intra_TAU_Request_while_waiting_for_CSR_due_to_S11_linkdown.LWG
p546
aVtc_327_220_recovery_service_request__Insert_Subscriber_Data_while_waiting_for_Create_Session_Response.LWG
p547
aVtc_310_241_ef__S1_Reset_wf_PS_to_CS_Response.LWG
p548
aVtc_310_310_S3_new_SGW_emergency_attach_sv_pool_on_msc_one_offloading_one_available.LWG
p549
aVtc_208_44_attach_detach_imsi_ap_takeover.LWG
p550
aVtc_23_09_transfer_to_primary_and_change_vip_addr.LWG
p551
aVtc_39_771_mas_rnc_reset_when_wf_ptmsi_realloc_cmpl_source.LWG
p552
aVtc_231_444_activate_ipv6_visitor_requested_ipv6_subscribed_ipv6_aifav_true_aifv_false.LWG
p553
aVtc_282_018_delete_bearer_request_lbi_is_a_dedicated_bearer.LWG
p554
aVtc_321_072_gn_logging_attach_and_inter_srns_relocation_source.LWG
p555
aVtc_236_307_Activation_DtSelMode_5_APN_requested_wrong_SGSN_default_APN_in_APN_list_TAC_in_TAC_list.LWG
p556
aVtc_324_327_ef_service_req_data_direct_transfer_ingore.LWG
p557
aVtc_195_416_ue_trace_deactivate_trace_s1_intra_system_handover_triggered.LWG
p558
aVtc_11_369_activate_ipv6_pdp_context_isd_pdp_type_dynamic.LWG
p559
aVtc_166_431_ggsn_initiated_modification_qos_not_changed_informing_ms_paging_failed.WG14a
p560
aVtc_38_81_intra_rau_new_rnc_with_authentication_no_ptmsi_signature.W14b
p561
aVtc_196_252_network_init_secondary_pdp_context_estab_tdp.W14b
p562
aVtc_321_080_gn_logging_deactivate_error_indication_from_ggsn.W14b
p563
aVtc_298_654_pgw_init_modification_mf_3gdt_enable.W14b
p564
aVtc_209_61_start_interception_during_new_inter_rau_with_camel.W14b
p565
aVtc_327_201_recovery_service_request__Cancel_Location_update_procedure_while_waiting_for_Ue_Backup_Response.L14b
p566
aVtc_327_252_recovery_service_request_MBR_timeout__TAU_Request_wf_Guti_Reallocation_Complete.L14b
p567
aVtc_275_073_tau_inter_new_no_update_location_response_sgsn00040258.L14b
p568
aVtc_266_020_DownlinkDataFailureInd_repeat_paging_timer_on.L14b
p569
aVtc_202_01_ecm_connected_s1_release.L14b
p570
aVtc_289_107_Modify_Bearer__Create_Bearer_Request_wf_UE_Context_Modification_Resp_aborted_by_handover_required.L14b
p571
aVtc_304_102_emergency_intra_tau_success__control_mode_threshold_exceeded.L14b
p572
aVtc_195_554_mme_logging_eps_handover_target_over_gn_inter_relocation_cancel_Request_received.L14b
p573
aVtc_256_382_Sv_Path_Mgt__available_MSC_disable_Sv.L14b
p574
aVtc_214_910_combined_tau_intra_insert_subscriber_data_interference.L14b
p575
aVtc_578_32_check_ebm_para_statistics_ue_return_duration.L14b
p576
aVtc_340_112_ef_g_s4_intra_rau_trigger_interfering_intra_rau_outside_wf_rau_complete.G14b
p577
aVtc_363_011_cli_get_ra.LWG
p578
aVtc_247_70_inter_w_to_l_old_3gdt_forward_relocation_complete_notify_timeout.LWG
p579
aVtc_231_738_failed_rab_reestablish_on_second_service_request_data_s4.LWG
p580
aVtc_195_406_ue_trace_start_meanwhile_handover_required.LWG
p581
aVtc_275_073_tau_inter_new_no_update_location_response_sgsn00040258.LWG
p582
aVtc_340_03_validation_move_g_filter_imsi_all_detach_trigger.LWG
p583
aVtc_220_623_Extended_Service_Request__HSS_Reset_while_waiting_for_Initial_Context_Setup_Response.LWG
p584
aVtc_327_038_recovery_intra_TAU_active_off_sgw_unchanged__downlink_A21_AIS_wf_CSR_due_to_S11_linkdown.LWG
p585
aVtc_43_101__removal_of_disconnected_eNodeBs__CLI_removal.LWG
p586
aVtc_52_16_inter_old_relocation_cancel_even_later.LWG
p587
aVtc_250_105_ignore_IDR_when_EPS_sub_downgrade_GPRS_sub.LWG
p588
aVtc_349_121_RAU_back_in_20s__sx_reestablish_camel_subscriber.LWG
p589
aVtc_59_9_mtmsi_restart_counter.LWG
p590
aVtc_265_102_Detach_Flow_NW_init__Reattach_Required_Attach_Request_while_waiting_for_Context_Release_Complete.LWG
p591
aVtc_246_061_israu_new_l_to_g_sgw_change_one_pdn_ubr_before_rau_complete_interfered_by_inter_rau_request.LWG
p592
aVtc_284_351_pdn_connectivity_pb_activate_1_dedicated_bearer_interrupted_by_path_switch_request.LW
p593
aVtc_304_121_initial_ue_intra_tau_control_mode_threshold_exceeded_usc_detach_wf_release_request_response.LW
p594
aVtc_250_105_ignore_IDR_when_EPS_sub_downgrade_GPRS_sub.LW
p595
aVtc_318_201_idle_deactivate_dedicated_bearers_one_by_one_reactivate_req.LW
p596
aVtc_11_369_activate_ipv6_pdp_context_isd_pdp_type_dynamic.LW
p597
aVtc_23_09_transfer_to_primary_and_change_vip_addr.LW
p598
aVtc_28_044_mo_sms_two_mo_messages.LW
p599
aVtc_327_024_recovery_intra_TAU__initial_Detach_Request_while_waiting_for_Modify_Bearer_Response.LW
p600
aVtc_321_112_attach_auth_fail.LW
p601
aVtc_321_113_rau_auth_fail.LW
p602
aVtc_321_084_gn_logging_error_indication_from_sgw.LW
p603
aVtc_321_115_ms_init_primary_pdp_context_activation_reject.LW
p604
aVtc_103_701_MME_restarts.LW
p605
aVtc_29_034_activate_w_rau_g_delete_subscriber.WG14a
p606
aVtc_183_005_itc_folder_file_names.LWG
p607
aVtc_220_403_csfb_to_1xrtt_in_ecm_connected_path_switch_request_HO_success.LWG
p608
aVtc_73_41_gtpu_sgsn_dont_send_gpu_echo_request_w.LWG
p609
aVtc_73_40_gtpu_sgsn_send_gpu_echo_request_w.LWG
p610
aVtc_298_103_EF_NRSPCA_S4_another_NRSPCA.LWG
p611
aVtc_295_006_Intra_S1_HO_Attach_request_from_source_eNB_while_wf_handover_notify.LWG
p612
aVtc_208_43_interception_after_small_restart.LWG
p613
aVtc_178_690_action_sctp_sys_assoc_move_command.LWG
p614
aVtc_319_124_pdn_connectivity_mf_gw_blacklisting_blocked_to_available.LWG
p615
aVtc_243_722_tau_from_sgsn_s3_active_flag_false_ddn_with_imsi_wf_ula.LWG
p616
aVtc_243_770_tau_from_sgsn_s3_active_flag_true_SGW_unchange_no_2nd_modify_bearer_response.LWG
p617
aVtc_327_042_recovery_intra_TAU_active_off_sgw_unchanged__gtpv2_identify_request_wf_CSR_due_to_S11_linkdown.LWG
p618
aVtc_262_043_imsi_attach_NOK_emm_registered_ecm_connected.LWG
p619
aVtc_324_006_mf_ser_req_signaling_after_ack_3gdt.LWG
p620
aVtc_324_239_ef_nas_ignore_update_loc_received_wf_modify_bearer_response.LWG
p621
aVtc_11_369_activate_ipv6_pdp_context_isd_pdp_type_dynamic.LWG
p622
aVtc_12_134_attach_with_extended_mmumoc_iu_inactivity_timer.LWG
p623
aVtc_304_102_emergency_intra_tau_success__control_mode_threshold_exceeded.LWG
p624
aVtc_342_115_set_three_target_with_same_connection.LWG
p625
aVtc_342_864_online_change_LI_U.LWG
p626
aVtc_204_901_mme_eps_ho_target_insert_subscriber_data_with_odb_bit0_during_wf_tau_complete.LWG
p627
aVtc_23_09_transfer_to_primary_and_change_vip_addr.LWG
p628
aVtc_311_204_intra_srns_reloc_s4_sgw_change_wf_reloc_req_ack_interrupted_by_cancel_loc_subscrip_withdrawn.WG14a
p629
aVtc_195_204_mme_logging_maximum_pdn_connectivity_default_bearer.LW
p630
aVtc_195_201_mme_logging_maximum_attach_auth_ul_sec_esm_info_ue_detach.LW
p631
aVtc_195_512_mme_logging_old_mme_integrity_check_failed.LW
p632
aVtc_260_218_receive_m3_reset_req_while_wf_m3_start_resp_with_resp.LW
p633
aVtc_44_860_mme_assoc_reestablish__sctp_fe_restart_s1_mme.LW
p634
aVtc_202_412_af_seamless_move_target_lur_resp_timeout_from_msc.LW
p635
aVtc_298_424_ms_init_deact_ef_delicated_non_gbr_bearer_deact_interfered_by_rab_release_request.LW
p636
aVtc_236_026_s4_3gdt_rnc_reset.LW
p637
aVtc_276_373_Inter_TAU_New_MME__New_TAU_Request_while_waiting_for_Create_Session_Response.LW
p638
aVtc_231_736_handle_outdated_triggered_delete_bearer_request_2_bearers_1_exist.LW
p639
aVtc_23_09_transfer_to_primary_and_change_vip_addr.LW
p640
aVtc_345_211_af__mt_csfb_with_psho__ecm_idle_no_cancel_location_from_hss.LW
p641
aVtc_324_006_mf_ser_req_signaling_after_ack_3gdt.LW
p642
aVtc_321_051_s4_logging_ptmsi_attach_with_imsi_in_ranap.LW
p643
aVtc_321_054_s4_logging_ptmsi_attach_new_gtpv1_identification_response_with_imsi_traced_by_imsi.LW
p644
aVtc_321_057_s4_logging_inter_handover_target_forward_relocation_request_with_imeisv_traced_by_imeisv.LW
p645
aVtc_321_073_gn_logging_inter_srns_relocation_target_with_imeisv_using_imei_trace.LW
p646
aVtc_321_090_mo_sms_mf.LW
p647
aVtc_321_079_gn_logging_gtpv0_error_indication_from_ggsn.LW
p648
aVtc_321_078_gn_logging_smooth_move_idle_no_pdp_target.LW
p649
aVtc_318_214_idle_deactivate_non_last_pdn_reactivate_req_not_enough_resource_in_enodeb.LW
p650
aVtc_288_221_pgw_init_bearer_mod_QoS_paging_partly_fail_modification_partly_fails.LW
p651
aVtc_326_246_Intra_TAU_Recovery_fail_Modify_Bearer_fail_active_flag_SGW_Change.LW
p652
aVtc_326_270_Periodic_Intra_TAU_with_unknown_GUTI_then_Service_Request.LW
p653
aVtc_282_009_deactivate_bearer_2_of_4_idle_mode.LW
p654
aVtc_194_974_delete_bearer_request_during_waiting_location_report__idr_flags_ef.L14b
p655
aVtc_262_1031_emergency_imsi_attach_multiple_pgw_try_next_pgw_fqdn_error.L14b
p656
aVtc_310_119_af__HO_Cancel_after_HO_Command_before_Complete_from_MSC_after_Complete_from_SGSN.L14b
p657
aVtc_211_014_streamed_cell_trace_mapping_alarm.L14b
p658
aVtc_346_354_SAPC_Restart_Detected_in_CCA_Initial_Inter_TAU.L14b
p659
aVtc_304_102_emergency_intra_tau_success__control_mode_threshold_exceeded.L14b
p660
aVtc_327_022_recovery_intra_TAU__initial_Detach_Request_while_waiting_for_Ue_Backup_Response.L14b
p661
aVtc_204_1150_mme_eps_handover_target_multi_pdns_same_apn_pdntype.L14b
p662
aVtc_103_904_relay_node_S6a_S13.L14b
p663
aVtc_218_207_3_TAU_from_SGSN__create_bearer_request_while_waiting_for_Create_Session_Resp.L14b
p664
aVtc_218_501__TAU_from_SGSN__with_old_guti_type_mapped.L14b
p665
aVtc_348_101_israu_mf__new_sgsn_multiple_pdp_with_sx.W14b
p666
aVtc_348_050_large_restart.W14b
p667
aVtc_241_705_intra_rau_with_sgw_change_isd_with_odb_bit_15_EF_interfer_by_update_bearer_req.W14b
p668
aVtc_321_075_gn_logging_inter_srns_relocation_target_relocation_cancel_request_with_imeisv_using_imeisv_trace.W14b
p669
aVtc_321_071_gn_logging_ggsn_initiate_pdp_ctx_modification_and_deactivation.W14b
p670
aVtc_321_099_reset_resource_rnc_initiated.W14b
p671
aVtc_208_43_interception_after_small_restart.G14b
p672
aVtc_97_040_inter_sgsn_psho_main_flow_with_camel.G14b
p673
aVtc_213_017_network_init_secondary_pdp_context_estack_tdp.G14b
p674
aVtc_348_369_inter_srns_reloc_af__new_sgsn_update_location_ack_failed.WG14a
p675
aVtc_231_281_activate_pdp_request_ignore_during_s4_pdp_deactivating.LW
p676
aVtc_268_072_Timer_Based_GBR_Deact__receive_first_DDN_contains_only_GBR_second_DDN_contains_non_GBR.LW
p677
aVtc_219_013_tau_w_to_l_without_cl_several_pdp_contexts.LW
p678
aVtc_327_208_recovery_service_request__Cancel_Location_subscription_withdrawal_while_waiting_for_Guti_Reallocation_Complete.LW
p679
aVtc_12_512_pmm_undefined_attach_when_updating_location_interfered_by_rnc_reset.LW
p680
aVtc_38_65_israu_old_sgsn_interfering_after_acknowledge.LW
p681
aVtc_195_208_mme_logging_maximum_modify_eps_bearer_context.LW
p682
aVtc_195_506_mme_logging_hss_initiated_QoS_modification_procedure.LW
p683
aVtc_195_519_mme_logging_downlinkdataNotification_paging_failure_ue_not_responding.LW
p684
aVtc_326_622_S6a_Throttling_Service_Request_recovery_UL_successful_and_Emergency_Attach_not_throttled.LW
p685
aVtc_248_165_inter_l_to_w_new_iu_release_request_none_user_inactivity_received_wf_modify_bearer_response.LW
p686
aVtc_39_601_mas_unsucc_fwd_reloc_resp_mandatory_ie_missing_stop_source.LW
p687
aVtc_263_023_Attach_Flow__Attach_Request_Different_IEs_IP_OK_while_waiting_for_Modify_Bearer_Response.LW
p688
aVtc_242_003_rau_to_sgsn_s3_new_sgw.LW
p689
aVtc_310_244_ef__S1_Reset_wf_FR_Complete_PS_to_CS_Complete_received.LW
p690
aVtc_313_001_inter_new_srns_reloc_s16_without_sgw_change.W14b
p691
aVtc_321_077_gn_logging_smooth_move_idle_no_pdp_source.W14b
p692
aVtc_321_102_inter_relocation_cancel.W14b
p693
aVtc_53_15_inter_new_srns_reloc_t_reloc_rau_timeout2.W14b
p694
aVtc_11_369_activate_ipv6_pdp_context_isd_pdp_type_dynamic.W14b
p695
aVtc_11_645_downlink_gtpu_wf_paging_resp_ef_transfer_service_req_data.W14b
p696
aVtc_76_008_ms_init_deactivation_tdi_ggsn_deactivate_other_nsapi.W14b
p697
aVtc_103_850_error_code_DIAMETER_REALM_NOT_SERVED.L14b
p698
aVtc_103_903_primary_or_secondary_realm_routing_own_realm.L14b
p699
aVtc_103_860_ue_trace_retransmit.L14b
p700
aVtc_266_127_emergency_service_request_without_emergency_pdn.L14b
p701
aVtc_276_373_Inter_TAU_New_MME__New_TAU_Request_while_waiting_for_Create_Session_Response.L14b
p702
aVtc_276_375_Inter_TAU_New_MME__New_TAU_Request_while_waiting_for_tau_complete_old_guti.L14b
p703
aVtc_304_114_initial_ue_intra_tau_control_mode_threshold_exceeded_usc_ignore_replace_s1.L14b
p704
aVtc_304_236_isc_active_flag_on_control_mode_threshold_exceeded_ignore_replace_s1_wf_initial_context_setup_response.L14b
p705
aVtc_217_901_rau_to_sgsn_get_subscriber_with_ppf_set_after_sgsn_context_ack.L14b
p706
aVtc_220_593_csfb_to_1xrtt_context_request_during_extended_service_request.L14b
p707
aVtc_262_1055_imsi_attach_with_csg_id_is_rejected.L14b
p708
aVtc_44_071_attach_long_imsi.L14b
p709
aVtc_23_09_transfer_to_primary_and_change_vip_addr.LWG
p710
aVtc_247_92_inter_w_to_l_old_initial_ue_rau_wf_forward_relocation_complete.LWG
p711
aVtc_327_034_recovery_intra_TAU__initial_intra_TAU_Request_while_waiting_for_Ue_Backup_Response.LWG
p712
aVtc_327_267_recovery_service_request_MBR_timeout__Context_Request_wf_Guti_Reallocation_Complete.LWG
p713
aVtc_220_004_csfb_to_1xrtt_ue_return_with_intra_tau_request.LWG
p714
aVtc_103_1103_fallback_to_imsins_resend_no_more_peers.LWG
p715
aVtc_103_1107_fallback_to_imsins_resend_fail_due_to_result_code.LWG
p716
aVtc_262_1055_imsi_attach_with_csg_id_is_rejected.LWG
p717
aVtc_231_738_failed_rab_reestablish_on_second_service_request_data_s4.LWG
p718
aVtc_11_369_activate_ipv6_pdp_context_isd_pdp_type_dynamic.LWG
p719
aVtc_195_542_mme_logging_tau_inter_new_traced_by_imeisv.LWG
p720
aVtc_39_063_attach_move_resend_attach_accept_move_stopped.LWG
p721
aVtc_232_202_bfd__bfd_v4_session_non_symmetric.LWG
p722
aVtc_347_236_GW_Dedicated_Bearer_Deactivate__Location_Report_while_waiting_for_eRAB_Release_Response.LWG
p723
aVtc_326_835_Intra_TAU_Recovery_after_Node_Restart_SGW_Unchange_active_flag_on_no_modify_bearer_response_two_pdn.LWG
p724
aVtc_95_3_load_lkf.LWG
p725
aVtc_95_10_fingerprint.LWG
p726
aVtc_95_7_negative_tests.LWG
p727
aVtc_59_9_mtmsi_restart_counter.LWG
p728
aVtc_166_242_switch_back_to_two_tunnels_streaming_changed_qos.LWG
p729
aVtc_166_428_rnc_initiated_rab_release_interfered_by_rnc_initiated_iu_release_request.LWG
p730
aVtc_298_783_S4_3GDT_downlink_data_notification_wait_MBR_ef_detach.LWG
p731
aVtc_238_026_mme_eps_irat_ho_target__multi_pdn_sgw_relocation_setup_fails.LWG
p732
aVtc_183_005_itc_folder_file_names.LWG
p733
aVtc_259_67_ef_provide_subscriber_information_attach_old_w.LWG
p734
aVtc_202_431_mf_seamless_move_target_service_request_modifyBearerReq_onePdnMultiBearer_oneBearerFail.LWG
p735
aVtc_275_073_tau_inter_new_no_update_location_response_sgsn00040258.LWG
p736
aVtc_59_9_mtmsi_restart_counter.LWG
p737
aVtc_183_005_itc_folder_file_names.LWG
p738
aVtc_298_201_SIBD_S4_RAB_Release_3GDT_GTP_Resource_Unavailable.LWG
p739
aVtc_23_09_transfer_to_primary_and_change_vip_addr.LWG
p740
aVtc_73_41_gtpu_sgsn_dont_send_gpu_echo_request_w.LWG
p741
aVtc_225_416_recv_service_while_waiting_extended_service_request.LWG
p742
aVtc_341_515_x2_activity_event_mme_initiated_detach_with_reattach_required.LWG
p743
aVtc_39_717_identification_request_before_complete_ack_ignore_target_sgsn.LWG
p744
aVtc_103_1101_resending_AIR_interfering_CLR.LWG
p745
aVtc_324_084_af_sec_modify_bearer_response_with_s4_interface_3gdt.LWG
p746
aVtc_324_144_af_rab_assignment_resp_downgrade_qos_dedicated_bearer.LWG
p747
aVtc_265_125_Detach_Flow_NW_init__Reattach_Not_Required_Emergency_Attach_Request_while_waiting_for_Detach_Accept.LWG
p748
aVtc_194_502_Different_Notification_during_Attach_Procedure.LWG
p749
aVtc_179_318_Ccheck_TraceCollectionIpv6server.LWG
p750
aVtc_243_722_tau_from_sgsn_s3_active_flag_false_ddn_with_imsi_wf_ula.LWG
p751
aVtc_243_773_tau_from_sgsn_s3_active_flag_true_SGW_change_no_modify_bearer_response_two_pdn.LWG
p752
aVtc_327_037_recovery_intra_TAU_active_off_sgw_unchanged__RAR_wf_CSR_due_to_S11_linkdown.LWG
p753
aVtc_220_403_csfb_to_1xrtt_in_ecm_connected_path_switch_request_HO_success.LWG
p754
aVtc_326_661_tau_intra_periodic_SGW_unavailable_after_MME_large_restart__two_pdn_one_timeout.LWG
p755
aVtc_320_027_gn_logging_inter_rau_target_transfer.LWG
p756
aVtc_208_43_interception_after_small_restart.LWG
p757
aVtc_193_216_intruder_auth_rej_non_eps_auth_unaccept.LWG
p758
aVtc_321_001_s4_logging_nrspca_s4_idle_no_security_3gdt.LWG
p759
aVtc_329_055_attach_rs_restricted_unknown_guti.LWG
p760
aVtc_12_4_attach_ptmsi_signalling_connection_release.W14b
p761
aVtc_322_161_smooth_move_ef_nas_after_paging_response_ignore.W14b
p762
aVtc_209_39_inter_srns_old_sgsn.W14b
p763
aVtc_39_422_mas_one_pdp_srv_req_b4_fwd_ack_upd_loc_ack_after_rab_assign_rsp_target.W14b
p764
aVtc_327_166_recovery_intra_TAU_SGSN_Context_Request_while_waiting_for_Update_Location_Answer_sgw_change.L14b
p765
aVtc_265_160_Detach_Flow_NW_init__Ue_moved_to_non_3gpp_while_imsi_detach.L14b
p766
aVtc_103_1101_resending_AIR_interfering_CLR.L14b
p767
aVtc_103_1107_fallback_to_imsins_resend_fail_due_to_result_code.L14b
p768
aVtc_578_02_check_parse_ebm_and_ci_eci_l.L14b
p769
aVtc_578_33_check_ebm_para_statistics_enb_sn.L14b
p770
aVtc_202_40_emergency_pdn_ecm_connected.L14b
p771
aVtc_193_103_service_req_no_answer_from_hss_emm_cause_17.L14b
p772
aVtc_195_203_mme_logging_medium_dedicated_bearer.L14b
p773
aVtc_214_060_combined_attach_combined_detach_interfering_combined_attach.L14b
p774
aVtc_304_020_intruder_imsi_attach_when_correct_ue_attaching__control_mode_threshold_exceeded_usc_reject_congestion.L14b
p775
aVtc_91_025_attach_send_authentication_timeout_vector_received.LW
p776
aVtc_243_770_tau_from_sgsn_s3_active_flag_true_SGW_unchange_no_2nd_modify_bearer_response.LW
p777
aVtc_103_850_error_code_DIAMETER_REALM_NOT_SERVED.LW
p778
aVtc_103_1101_resending_AIR_interfering_CLR.LW
p779
aVtc_293_230_X2_Based_HO_with_SGW_change__S1_reset_Emergency.LW
p780
aVtc_326_311_Service_Request_with_unknown_STMSI_large_restart_sgs_then_csfb_to_UTRAN.LW
p781
aVtc_23_09_transfer_to_primary_and_change_vip_addr.LW
p782
aVtc_12_512_pmm_undefined_attach_when_updating_location_interfered_by_rnc_reset.LW
p783
aVtc_346_498_Small_Restart__rollback_gauge.LW
p784
aVtc_327_610_Inter_TAU_SGW_Changed_then_Intra_TAU_while_waiting_for_20s_timeout.LW
p785
aVtc_38_214_own_ra_nri_query_success_timeout_imsi_defined_having_context.LW
p786
aVtc_294_082_mme_handle_eps_handover_with_hrl_no_apl.LW
p787
aVtc_295_183_Intra_S1_HO__Location_report_while_wf_location_update_response.LW
p788
aVtc_11_369_activate_ipv6_pdp_context_isd_pdp_type_dynamic.LW
p789
aVtc_195_208_mme_logging_maximum_modify_eps_bearer_context.LW
p790
aVtc_44_406_s1ap_id_error_indication__unknown_mme_ue_id_not_found.LW
p791
aVtc_321_090_mo_sms_mf.LW
p792
aVtc_321_085_gp_logging_inter_rau_target.LW
p793
aVtc_321_058_s4_logging_two_ue_inter_rau_new_context_response_with_imeisv_traced_by_same_imei.LW
p794
aVtc_276_373_Inter_TAU_New_MME__New_TAU_Request_while_waiting_for_Create_Session_Response.LW
p795
aVtc_304_102_emergency_intra_tau_success__control_mode_threshold_exceeded.L14b
p796
aVtc_103_1101_resending_AIR_interfering_CLR.L14b
p797
aVtc_194_506_Notification_during_Intra_MME_TAU_without_SGW_Relocation_Procedure.L14b
p798
aVtc_202_17_service_request_during_release_access_bearers.L14b
p799
aVtc_202_41_type_a_emergency_pdn_ecm_idle.L14b
p800
aVtc_44_301_sctp_counter_MessageSent_Received.L14b
p801
aVtc_244_602_delete_eslmc.L14b
p802
aVtc_262_1031_emergency_imsi_attach_multiple_pgw_try_next_pgw_fqdn_error.L14b
p803
aVtc_285_015_PDN_Connectivity__Handover_Required_while_wf_erab_setup_response.LW
p804
aVtc_203_327_mme_eps_ho_source_type_d__S1_Reset_while_wf_Forw_Reloc_Response.LW
p805
aVtc_196_305_nrspca_iu_satellite_hpa_on_with_arp2_normal_af_paging_timeout.LW
p806
aVtc_194_079_cl_subscription_withdrawn_during_ul.LW
p807
aVtc_194_505_Notification_during_Intra_TAU_without_SGW_Relocation_HSS_Reset_Before_TAU.LW
p808
aVtc_194_1550_HSS_initiated_ISD_in_Connected_mode_when_current_CSG_Id_removed__S1_Handover.LW
p809
aVtc_262_202_attach_emergency_call_too_high_qos.LW
p810
aVtc_44_071_attach_long_imsi.LW
p811
aVtc_321_031_s4_logging_inter_new_srns_reloc_s16_without_sgw_change.LW
p812
aVtc_101_030_mbms.LW
p813
aVtc_294_1000_intra_mme_handover_with_ta_change_with_wrong_selected_tai.LW
p814
aVtc_578_32_check_ebm_para_statistics_ue_return_duration.LW
p815
aVtc_11_369_activate_ipv6_pdp_context_isd_pdp_type_dynamic.W14b
p816
aVtc_241_734_service_request_wf_modify_bearer_response_interfered_by_deactivate_pdp_context.W14b
p817
aVtc_298_654_pgw_init_modification_mf_3gdt_enable.W14b
p818
aVtc_321_030_s4_logging_inter_old_srns_reloc_s16_without_sgw_change.W14b
p819
aVtc_321_077_gn_logging_smooth_move_idle_no_pdp_source.W14b
p820
aVtc_322_050_smooth_move_ebt_rau_after_move.W14b
p821
aVtc_322_161_smooth_move_ef_nas_after_paging_response_ignore.W14b
p822
aVtc_334_116_sgw_restart_mf_restoration_trigger_by_ModifyBearerResponse.W14b
p823
aVtc_236_049_s4_3gdt_rnc_reset_during_waiting_for_modify_beaer_rsp_in_service_request_procedure.W14b
p824
aVtc_232_401_bfd__ipv4_alarm.LWG
p825
aVtc_298_424_ms_init_deact_ef_delicated_non_gbr_bearer_deact_interfered_by_rab_release_request.LWG
p826
aVtc_316_203_IMSI_Attach_Emergency_Authentication_Fail__Backup_UE.LWG
p827
aVtc_11_369_activate_ipv6_pdp_context_isd_pdp_type_dynamic.LWG
p828
aVtc_275_073_tau_inter_new_no_update_location_response_sgsn00040258.LWG
p829
aVtc_29_036_attach_g_attach_w_delete_subscriber_during_auth.LWG
p830
aVtc_211_024_streamed_cell_trace_mapping_alarm_ipv6.LWG
p831
aVtc_103_1131_sx_resend__CCR_I_diameter_unable_to_deliver_then_diameter_too_busy_host_and_realm.LWG
p832
aVtc_218_110_tau_from_sgsn_equivalent_plmns.LWG
p833
aVtc_23_09_transfer_to_primary_and_change_vip_addr.LWG
p834
aVtc_95_3_load_lkf.LWG
p835
aVtc_95_10_fingerprint.LWG
p836
aVtc_239_506_intra_rau_detach_poweroff_waiting_creat_session_response_from_sgw_s4.LWG
p837
aVtc_214_1099_la_selection_mf_reselection_combined_tau_with_imsi_attach_after_mme_triggered_imsi_detach_when_handling_sgs_paging.LWG
p838
aVtc_282_020_delete_bearer_request_handover_to_non_3GPP_ecm_connected_multi_pdn.LWG
p839
aVtc_262_1055_imsi_attach_with_csg_id_is_rejected.LWG
p840
aVtc_156_05_ap_loss_w_mobile_reachable_timer_expires.LWG
p841
aVtc_665_55_repeated_cm_restart.LWG
p842
aVtc_324_006_mf_ser_req_signaling_after_ack_3gdt.LW
p843
aVtc_294_001_mme_handle_eps_handover_main_flow.LW
p844
aVtc_294_335_mme_handle_eps_handover_with_tla_mismatch0.LW
p845
aVtc_237_022_mme_eps_irat_ho_source__relocation_cancel_request_before_forw_rel_complete.LW
p846
aVtc_326_622_S6a_Throttling_Service_Request_recovery_UL_successful_and_Emergency_Attach_not_throttled.LW
p847
aVtc_361_022_rau_l_to_w_qos_neg_after_service_request.LW
p848
aVtc_241_480_intra_rau_with_dedicated_bearer_initial_ue_sgw_unchange_mf_s4.LW
p849
aVtc_256_176_mme_eps_srvcc_ho_source_cs_only_ue_release_request_wf_srvcc_ps_to_cs_complete_notification.LW
p850
aVtc_284_411_pdn_connectivity__check_unsorted_bearer_ids_after_newly_adding_default_bearers_with_another_pdn.LW
p851
aVtc_327_220_recovery_service_request__Insert_Subscriber_Data_while_waiting_for_Create_Session_Response.LW
p852
aVtc_28_002_mo_sms_service_request.W14b
p853
aVtc_298_654_pgw_init_modification_mf_3gdt_enable.W14b
p854
aVtc_298_723_service_request_ef_ms_deact_ti_default_wf_rab_assignment_response.W14b
p855
aVtc_248_204_inter_l_to_w_new_with_sgw_reloc_new_handover_interfere_relocation_failed.W14b
p856
aVtc_324_455_ef_detach_request_poweroff_abort_wf_rab_assignment_response_wf_update_location_hss_service_req_data.W14b
p857
aVtc_346_644_pra_cn_predefined_all_list__inter_tau__2pdns_active_flag_off__cca_u_with_rfsp.L14b
p858
aVtc_276_376_Inter_TAU_New_MME__New_TAU_Request_while_waiting_for_tau_complete_new_guti.L14b
p859
aVtc_295_136_mo_call_during_s1_ho_tau_request_when_wf_handover_notify.L14b
p860
aVtc_262_1031_emergency_imsi_attach_multiple_pgw_try_next_pgw_fqdn_error.L14b
p861
aVtc_220_593_csfb_to_1xrtt_context_request_during_extended_service_request.L14b
p862
aVtc_294_010_intra_handover_with_sgw_relocation_2_pdns_main_flow.L14b
p863
aVtc_294_336_mme_handle_eps_handover_with_tla_mismatch1.L14b
p864
aVtc_292_020_x2_based_ho_using_zuc_algorithm_eea3_eia3.L14b
p865
aVtc_292_101_x2_based_ho_no_sgw_answer.L14b
p866
aVtc_44_301_sctp_counter_MessageSent_Received.L14b
p867
aVtc_44_811_mme_assoc_reestablish__abort_sbc.L14b
p868
aVtc_304_121_initial_ue_intra_tau_control_mode_threshold_exceeded_usc_detach_wf_release_request_response.L14b
p869
aVtc_265_101_Detach_Flow_NW_init__Reattach_Required_Attach_Request_while_waiting_for_Detach_Accept.L14b
p870
aVtc_284_362_pdn_connectivity_handover_indication_no_override_other_apn.L14b
p871
aVtc_166_103_israu_new_streaming_two_tunnel_since_ggsn_answers_with_gtpv0.WG14a
p872
aVtc_292_105_x2_based_ho_no_default_bearer_present.LWG
p873
aVtc_110_005_inbound_outbound_pf_rule_cli_ip.LWG
p874
aVtc_337_005_validation_move_manually_stopped_between_two_pool_moves_smooth_move.LWG
p875
aVtc_263_023_Attach_Flow__Attach_Request_Different_IEs_IP_OK_while_waiting_for_Modify_Bearer_Response.LWG
p876
aVtc_56_2_restart.LWG
p877
aVtc_56_10_cm_restart_during_SR.LWG
p878
aVtc_202_41_type_a_emergency_pdn_ecm_idle.LWG
p879
aVtc_202_524_seamless_move_target_sgw_unavailable_service_request_DNS_failure.LWG
p880
aVtc_226_502_Inter_RAU_W2W_Gn_SGSN_ControlMode_On_reject_Congestion_wf_20s_delay.LWG
p881
aVtc_183_005_itc_folder_file_names.LWG
p882
aVtc_23_09_transfer_to_primary_and_change_vip_addr.LWG
p883
aVtc_321_021_s4_logging_inter_handover_l2w_target.LWG
p884
aVtc_321_003_s4_logging_nrspca_deactivate_dedicated_bearer_failure.LWG
p885
aVtc_321_011_s4_logging_inter_rau_w2w_new_ddn.LWG
p886
aVtc_194_084_hss_reset_after_large_restart.LWG
p887
aVtc_307_010_HSS_Init_QoS_Modification__UEAMBR_Changed_When_2PDN_CONNECTED.LWG
p888
aVtc_103_1132_sx_resend__CCR_I_diameter_out_of_space_another_pdn_timeout_diameter_too_busy_host_and_realm.LWG
p889
aVtc_250_74_s6d_EF_hss_reset_waiting_delete_session_response.LWG
p890
aVtc_250_105_ignore_IDR_when_EPS_sub_downgrade_GPRS_sub.LWG
p891
aVtc_73_41_gtpu_sgsn_dont_send_gpu_echo_request_w.LWG
p892
aVtc_324_006_mf_ser_req_signaling_after_ack_3gdt.LWG
p893
aVtc_243_722_tau_from_sgsn_s3_active_flag_false_ddn_with_imsi_wf_ula.LWG
p894
aVtc_297_161_inter_rau_af_sgsn_context_response_signature_mismatch.G14b
p895
aVtc_324_069_af_modify_bearer_dedicated_bearer_fail.WG14a
p896
aVtc_194_506_Notification_during_Intra_MME_TAU_without_SGW_Relocation_Procedure.L14b
p897
aVtc_103_800_device_watchdog_request_to_SGSN_MME.L14b
p898
aVtc_273_240_tau_intra__sgw_relocation.L14b
p899
aVtc_280_001_activate_1_dedicated_bearer.L14b
p900
aVtc_306_112_ef_seamless_move_source_receive_sgsn_context_request_wf_frr_ecm_idle.L14b
p901
aVtc_282_020_delete_bearer_request_handover_to_non_3GPP_ecm_connected_multi_pdn.L14b
p902
aVtc_346_311_Combination__Emergency_PDN__no_Sx_session_initiated.L14b
p903
aVtc_295_124_tau_after_ho_tz_change_emm_information_meanwhile_handover_required_HO_success.L14b
p904
aVtc_276_375_Inter_TAU_New_MME__New_TAU_Request_while_waiting_for_tau_complete_old_guti.L14b
p905
aVtc_276_376_Inter_TAU_New_MME__New_TAU_Request_while_waiting_for_tau_complete_new_guti.L14b
p906
aVtc_347_135_Seamless_Move_Target__Identification_Request_v1_while_waiting_for_CCA_initial.L14b
p907
aVtc_347_201_Attach__Attach_Request_Different_IEs_IP_OK_while_waiting_for_CCA_Initial.L14b
p908
aVtc_347_227_Extended_Service_Request__RAR_while_waiting_for_UE_Context_Release_Request_csfb_to_1xrtt_in_ecm_idle.L14b
p909
aVtc_347_238_GW_Dedicated_Bearer_Deactivate__RAR_while_waiting_for_eRAB_Release_Response.L14b
p910
aVtc_347_268_PDN_Connectivity__ISD_while_waiting_CCA_Initial.L14b
p911
aVtc_347_290_activate_dedicated_bearer__RAR_while_waiting_erab_setup_response.L14b
p912
aVtc_347_333_Intra_TAU_With_Active_Flag__RAR_while_waiting_ICS_Response.L14b
p913
aVtc_250_105_ignore_IDR_when_EPS_sub_downgrade_GPRS_sub.LW
p914
aVtc_326_210_Intra_TAU_combined_after_large_restart_after_EPS_attach.LW
p915
aVtc_326_211_Intra_TAU_with_unknown_GUTI_backup_no_vector_change_Replication_Option.LW
p916
aVtc_195_554_mme_logging_eps_handover_target_over_gn_inter_relocation_cancel_Request_received.LW
p917
aVtc_342_864_online_change_LI_U.LW
p918
aVtc_202_102_small_restart.LW
p919
aVtc_276_373_Inter_TAU_New_MME__New_TAU_Request_while_waiting_for_Create_Session_Response.LW
p920
aVtc_103_1003_highest_prio_peer_unavailable_lower_prio_peer_chosen.LW
p921
aVtc_321_053_s4_logging_inter_rau_new_sgsn_context_response_with_imeisv_traced_by_imei.LW
p922
aVtc_236_043_s4_3gdt_detach_during_waiting_for_release_bearer_rsp_in_rab_release_procedure.LW
p923
aVtc_219_131_s3_handover_w_to_l_with_cl_two_pdns_one_failed_sgw_relocation.LWG
p924
aVtc_326_219_Intra_TAU_Recovery_then_rim_source_mme_gn_sgsn_selection_table_not_matched_dns_query_success.LWG
p925
aVtc_59_9_mtmsi_restart_counter.LWG
p926
aVtc_103_704_delete_peer_send_DPR.LWG
p927
aVtc_103_860_ue_trace_retransmit.LWG
p928
aVtc_103_1006_secondary_dpl_used_when_all_peers_in_dpl_unavailable_no_sls_peers_same_prio.LWG
p929
aVtc_218_090_tau_from_sgsn_when_emm_registered.LWG
p930
aVtc_218_122_tau_from_sgsn_two_pdn_connections_ue_bearer_status_mismatch_idle.LWG
p931
aVtc_311_204_intra_srns_reloc_s4_sgw_change_wf_reloc_req_ack_interrupted_by_cancel_loc_subscrip_withdrawn.LWG
p932
aVtc_23_09_transfer_to_primary_and_change_vip_addr.LWG
p933
aVtc_309_108_modify_event_job_notification.LWG
p934
aVtc_320_025_gn_logging_inter_rau_source_gtpv0.LWG
p935
aVtc_209_180_handover_w_to_l_source_s4_sgsn.LWG
p936
aVtc_284_351_pdn_connectivity_pb_activate_1_dedicated_bearer_interrupted_by_path_switch_request.LWG
p937
aVtc_321_074_gn_logging_inter_rau_target.LWG
p938
aVtc_321_091_mt_sms_mf.LWG
p939
aVtc_321_010_s4_logging_s6d_inter_rau_w2l_old_hss_reset.LWG
p940
aVtc_321_059_s4_logging_reattach_with_ue_trace.LWG
p941
aVtc_321_083_gn_logging_inter_rau_source_gtpv1.LWG
p942
aVtc_262_1055_imsi_attach_with_csg_id_is_rejected.LWG
p943
aVtc_363_021_gbip_feature_off_nses_bscconfirmed_trun_to_false.LWG
p944
aVtc_195_527_mme_logging_combined_attach_eps_detach.LWG
p945
aVtc_342_864_online_change_LI_U.LWG
p946
aVtc_276_375_Inter_TAU_New_MME__New_TAU_Request_while_waiting_for_tau_complete_old_guti.LWG
p947
aVtc_276_376_Inter_TAU_New_MME__New_TAU_Request_while_waiting_for_tau_complete_new_guti.LWG
p948
aVtc_183_005_itc_folder_file_names.LWG
p949
aVtc_341_603_x2_activity_event_tau_inter_new_sgw_unchanged.LWG
p950
aVtc_82_022_rab_modify_interrupted_by_israu_II.W14b
p951
aVtc_38_80_intra_rau_new_rnc_with_authentication_wrong_ptmsi_signature.W14b
p952
aVtc_321_021_s4_logging_inter_handover_l2w_target.W14b
p953
aVtc_321_055_s4_logging_inter_rau_new_context_response_with_imeisv_traced_by_imeisv.W14b
p954
aVtc_321_085_gp_logging_inter_rau_target.W14b
p955
aVtc_321_084_gn_logging_error_indication_from_sgw.W14b
p956
aVtc_321_114_intra_rau_no_authentication_nrr_rejected.W14b
p957
aVtc_321_127_ms_attach_auth_cipher_resp_with_imeisv.W14b
p958
aVtc_241_711_inter_rau_dedicate_bearer_feature_off_and_pgw_delete_bearer_after_rau.W14b
p959
aVtc_12_512_pmm_undefined_attach_when_updating_location_interfered_by_rnc_reset.W14b
p960
aVtc_38_80_intra_rau_new_rnc_with_authentication_wrong_ptmsi_signature.W14b
p961
aVtc_295_124_tau_after_ho_tz_change_emm_information_meanwhile_handover_required_HO_success.L14b
p962
aVtc_195_311_mme_logging_attach_transfer_due_to_wrong_ap_index.L14b
p963
aVtc_195_539_mme_logging_eps_handover_target_inter_relocation_cancel_Request_with_imeisv_using_imei_trace.L14b
p964
aVtc_273_565_tau_intra_tac_based_roaming_restriction_blacklist_tac_matched_but_ta.L14b
p965
aVtc_202_02_ecm_idle_s1_release.L14b
p966
aVtc_194_119_cli_list_subscribers.L14b
p967
aVtc_194_505_Notification_during_Intra_TAU_without_SGW_Relocation_HSS_Reset_Before_TAU.L14b
p968
aVtc_304_005_attach_reject__control_mode_log_status_off.L14b
p969
aVtc_304_236_isc_active_flag_on_control_mode_threshold_exceeded_ignore_replace_s1_wf_initial_context_setup_response.L14b
p970
aVtc_275_073_tau_inter_new_no_update_location_response_sgsn00040258.L14b
p971
aVtc_275_160_tau_inter_new_additional_guti_eqs_guti.L14b
p972
aVtc_347_036_Inter_HO_Target__Service_Request_while_waiting_for_TAU_Request.L14b
p973
aVtc_347_054_Intra_HO_S1__RAR_while_waiting_for_Handover_Notify_and_TAU_Request.L14b
p974
aVtc_347_055_Intra_HO_S1__Location_Report_from_source_BCM_Sx_only_while_waiting_for_Handover_Request_Ack.L14b
p975
aVtc_347_130_Seamless_Move_Target__Extended_Service_Request_while_waiting_for_CCA_initial.L14b
p976
aVtc_347_133_Seamless_Move_Target__eNB_Configuration_Update_while_waiting_for_CCA_initial.L14b
p977
aVtc_347_140_Seamless_Move_Target__RAR_while_waiting_for_modify_bearer_response_and_update_location_answer.L14b
p978
aVtc_347_141_Seamless_Move_Target__RAR_while_waiting_for_service_req_and_modify_bearer_response.L14b
p979
aVtc_347_205_Attach__Cancel_Location_Subscription_Withdrawal_while_waiting_for_CCA_Initial.L14b
p980
aVtc_347_207_Attach__Insert_Subscriber_Data_while_waiting_for_CCA_Initial.L14b
p981
aVtc_347_224_Service_Request__RAR_while_waiting_for_Create_Session_Response_SGW_unavailable__two_pdn.L14b
p982
aVtc_347_228_Extended_Service_Request__RAR_while_waiting_for_Forward_Relocation_Response_MT_Connected_With_PS_HO.L14b
p983
aVtc_347_237_GW_Dedicated_Bearer_Deactivate__Location_Report_while_waiting_for_Deactiavte_EPS_Bearer_Context_Accept.L14b
p984
aVtc_347_250_UE_initiated_detach__location_report_while_waiting_for_delete_session_response_ue_context_release_complete.L14b
p985
aVtc_347_264_PDN_Connectivity__Location_Report_while_waiting_CSR_CCR_update_sent_for_2_Sx_Session.L14b
p986
aVtc_347_265_PDN_Connectivity__Location_Report_while_waiting_ERAB_Setup_Response_CCR_update_sent_for_2_Sx_Session.L14b
p987
aVtc_347_280_PDN_Disconnect__Location_Report_while_waiting_Delete_Session_Response.L14b
p988
aVtc_347_283_Delete_Bearer__Location_Report_while_waiting_ERAB_Release_Response.L14b
p989
aVtc_347_301_mme_dedicated_bearer_deactivate__RAR_while_waiting_erab_release_response.L14b
p990
aVtc_347_311_Location_reporting_control_RAR_while_waiting_location_report.L14b
p991
aVtc_347_332_Intra_TAU_With_Active_Flag__RAR_while_waiting_MBR.L14b
p992
aVtc_347_333_Intra_TAU_With_Active_Flag__RAR_while_waiting_ICS_Response.L14b
p993
aVtc_341_515_x2_activity_event_mme_initiated_detach_with_reattach_required.L14b
p994
aVtc_341_516_x2_activity_event_mme_initiated_detach_with_reattach_not_required.L14b
p995
aVtc_341_601_x2_activity_event_tau_event_intra_sgw_unchanged_connected.L14b
p996
aVtc_103_860_ue_trace_retransmit.L14b
p997
aVtc_276_375_Inter_TAU_New_MME__New_TAU_Request_while_waiting_for_tau_complete_old_guti.L14b
p998
aVtc_276_376_Inter_TAU_New_MME__New_TAU_Request_while_waiting_for_tau_complete_new_guti.L14b
p999
aVtc_295_124_tau_after_ho_tz_change_emm_information_meanwhile_handover_required_HO_success.LWG
p1000
aVtc_220_411_csfb_to_1xrtt_in_ecm_connected_path_switch_request_subscription_cancelled.LWG
p1001
aVtc_59_9_mtmsi_restart_counter.LWG
p1002
aVtc_318_188_sgw_restart_ef_relocate_interrupt_by_UpdateBearerReq.LWG
p1003
aVtc_103_903_primary_or_secondary_realm_routing_own_realm.LWG
p1004
aVtc_103_1004_secondary_dpl_used_when_all_peers_in_dpl_unavailable_no_sls.LWG
p1005
aVtc_103_1132_sx_resend__CCR_I_diameter_out_of_space_another_pdn_timeout_diameter_too_busy_host_and_realm.LWG
p1006
aVtc_327_013_recovery_intra_TAU__initial_Attach_Request_while_waiting_for_Create_Session_Response.LWG
p1007
aVtc_327_017_recovery_intra_TAU__uplink_Detach_Request_while_waiting_for_Ue_Backup_Response.LWG
p1008
aVtc_178_942_modify_ss7_m3ua_cprsgp_tscon.LWG
p1009
aVtc_316_231_Max_Data_Generated__Backup_UE.LWG
p1010
aVtc_23_09_transfer_to_primary_and_change_vip_addr.LWG
p1011
aVtc_304_102_emergency_intra_tau_success__control_mode_threshold_exceeded.LWG
p1012
aVtc_321_108_service_request_accept.LWG
p1013
aVtc_183_005_itc_folder_file_names.LWG
p1014
aVtc_341_531_x2_activity_event_emergency_attach_detach_simless_ue_imei.LWG
p1015
aVtc_232_511_static_routes__bfd_supervision_of_static_route_v6_on_Gom.LWG
p1016
aVtc_195_208_mme_logging_maximum_modify_eps_bearer_context.LWG
p1017
aVtc_195_312_mme_logging_tau_inter_new_transfer_due_to_wrong_ap_index.LWG
p1018
aVtc_195_520_mme_logging_initiated_deactivate_bearer_failure_indication_all_bearers_from_sgw.LWG
p1019
aVtc_195_523_mme_logging_eps_srvcc_ho_source_cs_only_release_access_bearers_response_not_received.LWG
p1020
aVtc_179_318_Ccheck_TraceCollectionIpv6server.LWG
p1021
aVtc_319_125_pdn_connectivity_mf_gw_blacklisting_tmp_unavailable_event.LWG
p1022
aVtc_211_023_streamed_cell_trace_mapping_log_only_ipv6.LWG
p1023
aVtc_262_161_new_mme_identification_procedure_with_cause_imsi_not_known.LWG
p1024
aVtc_262_1055_imsi_attach_with_csg_id_is_rejected.LWG
p1025
aVtc_259_77_ef_isd_paging_s4_w.LWG
p1026
aVtc_289_041_Modify_bearer__Downlink_nas_non_delivery_x2_handover_triggered_two_pdn_HO_fails_for_all_sessions_SGW_change.LW
p1027
aVtc_243_770_tau_from_sgsn_s3_active_flag_true_SGW_unchange_no_2nd_modify_bearer_response.LW
p1028
aVtc_341_230_x2_connection_restarted_due_to_modify_pwx2_command.LW
p1029
aVtc_341_231_x2_connection_restarted_due_to_modify_px2_command.LW
p1030
aVtc_341_602_x2_activity_event_tau_intra_sgw_changed.LW
p1031
aVtc_341_604_x2_activity_event_tau_inter_old_sgw_unchanged.LW
p1032
aVtc_292_020_x2_based_ho_using_zuc_algorithm_eea3_eia3.LW
p1033
aVtc_348_015_activation_af__camel_release.LW
p1034
aVtc_348_027_deactivation__activate_primary_secondary_ms_deactivate_primary.LW
p1035
aVtc_348_042_sapc_restarted__irat_ms.LW
p1036
aVtc_348_105_israu_mf__new_sgsn_imei_fetching_with_sx.LW
p1037
aVtc_348_170_israu_af__new_sgsn_partial_apn_with_3gdt_prefix.LW
p1038
aVtc_348_203_smooth_move_mf__old_sgsn_multiple_pdp_no_cl_with_sx.LW
p1039
aVtc_348_267_smooth_move_af__new_sgsn_CCA_I_with_failure_cause_5003.LW
p1040
aVtc_348_362_inter_srns_reloc_af__new_sgsn_relocation_request_ack_failure.LW
p1041
aVtc_348_368_inter_srns_reloc_af__new_sgsn_rau_request_timeout.LW
p1042
aVtc_349_004_Activation__Subscriber_Modified_Qos_Changed_while_waiting_for_CCA_initial.LW
p1043
aVtc_349_110_RAU_new_sgsn__RAU_Req_on_new_iu_no_response_while_waiting_for_CCA_initial.LW
p1044
aVtc_349_202_Smooth_move__Detach_Req_while_waiting_for_Update_Pdp_Context_Response_after_cause_5003.LW
p1045
aVtc_103_860_ue_trace_retransmit.LW
p1046
aVtc_276_374_Inter_TAU_New_MME__New_TAU_Request_while_waiting_for_Location_Update_Response.LW
p1047
aVtc_276_376_Inter_TAU_New_MME__New_TAU_Request_while_waiting_for_tau_complete_new_guti.LW
p1048
aVtc_347_204_Attach__S1_Reset_while_waiting_for_CCA_Initial.LW
p1049
aVtc_347_227_Extended_Service_Request__RAR_while_waiting_for_UE_Context_Release_Request_csfb_to_1xrtt_in_ecm_idle.LW
p1050
aVtc_347_256_NW_initiated_detach__RAR_while_waiting_for_delete_session_response.LW
p1051
aVtc_347_280_PDN_Disconnect__Location_Report_while_waiting_Delete_Session_Response.LW
p1052
aVtc_347_310_Location_Report_RAR_while_waiting_update_credit_control_answer.LW
p1053
aVtc_347_340_PGW_Restart_Notification__RAR_while_waiting_paging_response.LW
p1054
aVtc_202_431_mf_seamless_move_target_service_request_modifyBearerReq_onePdnMultiBearer_oneBearerFail.LW
p1055
aVtc_321_080_gn_logging_deactivate_error_indication_from_ggsn.LW
p1056
aVtc_23_09_transfer_to_primary_and_change_vip_addr.LW
p1057
a.