(lp0
Vtc_324_043_af_mbr_higher_than_policymap.W14b
p1
aVtc_11_630_rau_new_sgsn_init_deactivation_ggsn_restarted_create_response.W14b
p2
aVtc_220_587_csfb_to_1xrtt_in_extended_service_request_during_attach_waiting_for_modify_bearer_response.LWG
p3
aVtc_305_040_oms_mmi.LWG
p4
aVtc_295_183_Intra_S1_HO__Location_report_while_wf_location_update_response.LWG
p5
aVtc_204_901_mme_eps_ho_target_insert_subscriber_data_with_odb_bit0_during_wf_tau_complete.LWG
p6
aVtc_322_023_smooth_move_af_frr_with_request_rejected.LWG
p7
aVtc_178_690_action_sctp_sys_assoc_move_command.LWG
p8
aVtc_310_312_S3_same_SGW_combine_attach_msc_unavailable_offloading_select_another_one.LWG
p9
aVtc_166_428_rnc_initiated_rab_release_interfered_by_rnc_initiated_iu_release_request.LWG
p10
aVtc_12_134_attach_with_extended_mmumoc_iu_inactivity_timer.LWG
p11
aVtc_195_208_mme_logging_maximum_modify_eps_bearer_context.LWG
p12
aVtc_179_318_Ccheck_TraceCollectionIpv6server.LWG
p13
aVtc_262_1055_imsi_attach_with_csg_id_is_rejected.LWG
p14
aVtc_79_007_activate_reject_rab_fail.LWG
p15
aVtc_79_077_rab_release_request_check_cause_code.LWG
p16
aVtc_304_102_emergency_intra_tau_success__control_mode_threshold_exceeded.LWG
p17
aVtc_578_02_check_parse_ebm_and_ci_eci_l.LWG
p18
aVtc_218_209_4_TAU_from_SGSN__update_bearer_request_while_waiting_for_Initial_Context_Setup_Response.LWG
p19
aVtc_218_332_tau_from_sgsn_active_flag_on_tau_complete_come_first_detach_odb_bit0.LWG
p20
aVtc_319_073_path_management_configured_timer_expired.LWG
p21
aVtc_341_512_x2_activity_event_attached_user_notification_multi_pdn.LWG
p22
aVtc_80_004_activate_conversational_sub_streaming.LWG
p23
aVtc_23_09_transfer_to_primary_and_change_vip_addr.LWG
p24
aVtc_578_02_check_parse_ebm_and_ci_eci_g.G14b
p25
aVtc_341_532_x2_activity_event_attach_detach_imei.LW
p26
aVtc_342_864_online_change_LI_U.LW
p27
aVtc_327_166_recovery_intra_TAU_SGSN_Context_Request_while_waiting_for_Update_Location_Answer_sgw_change.LW
p28
aVtc_211_023_streamed_cell_trace_mapping_log_only_ipv6.LW
p29
aVtc_310_321_af_timeout_wf_relocation_cancel_response_from_Gn_SGSN.LW
p30
aVtc_276_373_Inter_TAU_New_MME__New_TAU_Request_while_waiting_for_Create_Session_Response.LW
p31
aVtc_103_1101_resending_AIR_interfering_CLR.LW
p32
aVtc_23_09_transfer_to_primary_and_change_vip_addr.LW
p33
aVtc_304_102_emergency_intra_tau_success__control_mode_threshold_exceeded.LW
p34
aVtc_262_1055_imsi_attach_with_csg_id_is_rejected.LW
p35
aVtc_238_162_mme_eps_irat_Gn_ho_target__Relocation_cancel_when_wf_handover_notify.L14b
p36
aVtc_273_005_tau_intra_deregistered.L14b
p37
aVtc_256_176_mme_eps_srvcc_ho_source_cs_only_ue_release_request_wf_srvcc_ps_to_cs_complete_notification.L14b
p38
aVtc_103_860_ue_trace_retransmit.L14b
p39
aVtc_44_301_sctp_counter_MessageSent_Received.L14b
p40
aVtc_327_316_recovery_service_request__initial_Attach_Request_while_waiting_for_Sub_Procedure__Create_Session_Response_Old_Sgw_Unavailable.L14b
p41
aVtc_244_602_delete_eslmc.L14b
p42
aVtc_262_1031_emergency_imsi_attach_multiple_pgw_try_next_pgw_fqdn_error.L14b
p43
aVtc_241_1636_israu_new_modify_bearer_response_timeout_followed_by_ms_init_deac.W14b
p44
aVtc_243_722_tau_from_sgsn_s3_active_flag_false_ddn_with_imsi_wf_ula.LWG
p45
aVtc_236_181_hard_ho_intra_rau_with_3gdt_wf_release_access_bearer_resp_si_cancel_location_update.LWG
p46
aVtc_326_267_Intra_TAU_with_unknown_GUTI_Restriction_2_pdn_SAU_license_limit_reached.LWG
p47
aVtc_326_670_tau_intra_SGW_unavailable_active_flag_off_after_MME_large_restart_main_flow.LWG
p48
aVtc_220_593_csfb_to_1xrtt_context_request_during_extended_service_request.LWG
p49
aVtc_341_609_x2_activity_event_isc_tau_from_gn_sgsn.LWG
p50
aVtc_183_005_itc_folder_file_names.LWG
p51
aVtc_256_175_mme_eps_srvcc_ho_source_cs_only_ue_release_request_wf_srvcc_ps_to_cs_response.LWG
p52
aVtc_103_1000_modify_diameter_peer_prio.LWG
p53
aVtc_103_1100_resending_AIR_dpl_changed.LWG
p54
aVtc_59_11_sequence_check_replica_values.LWG
p55
aVtc_23_09_transfer_to_primary_and_change_vip_addr.LWG
p56
aVtc_231_281_activate_pdp_request_ignore_during_s4_pdp_deactivating.LWG
p57
aVtc_218_112_tau_from_sgsn_ue_context_release_when_wf_modify_bearer_resp.LWG
p58
aVtc_103_701_MME_restarts.L14b
p59
aVtc_202_02_ecm_idle_s1_release.L14b
p60
aVtc_285_016_PDN_Connectivity__Handover_Required_while_pdn_disconnectivity.L14b
p61
aVtc_204_1211_mme_eps_handover_target__initial_ue_TAU_while_wf_TAU_after_handover.L14b
p62
aVtc_243_753_tau_from_sgsn_s3_change_sgw_emergency_type_a_not_allowed_in_csg.L14b
p63
aVtc_276_374_Inter_TAU_New_MME__New_TAU_Request_while_waiting_for_Location_Update_Response.L14b
p64
aVtc_304_236_isc_active_flag_on_control_mode_threshold_exceeded_ignore_replace_s1_wf_initial_context_setup_response.L14b
p65
aVtc_262_1055_imsi_attach_with_csg_id_is_rejected.L14b
p66
aVtc_218_501__TAU_from_SGSN__with_old_guti_type_mapped.L14b
p67
aVtc_195_554_mme_logging_eps_handover_target_over_gn_inter_relocation_cancel_Request_received.L14b
p68
aVtc_298_783_S4_3GDT_downlink_data_notification_wait_MBR_ef_detach.LW
p69
aVtc_195_532_mme_logging_ue_unrechable.LW
p70
aVtc_304_009_attach_reject__turn_off_feature_during_control_period.LW
p71
aVtc_304_102_emergency_intra_tau_success__control_mode_threshold_exceeded.LW
p72
aVtc_256_175_mme_eps_srvcc_ho_source_cs_only_ue_release_request_wf_srvcc_ps_to_cs_response.LW
p73
aVtc_202_41_type_a_emergency_pdn_ecm_idle.LW
p74
aVtc_23_09_transfer_to_primary_and_change_vip_addr.LW
p75
aVtc_103_850_error_code_DIAMETER_REALM_NOT_SERVED.LW
p76
aVtc_103_860_ue_trace_retransmit.LW
p77
aVtc_341_609_x2_activity_event_isc_tau_from_gn_sgsn.LW
p78
aVtc_243_770_tau_from_sgsn_s3_active_flag_true_SGW_unchange_no_2nd_modify_bearer_response.LW
p79
aVtc_101_004_single_mbms_session_rnc_rab_and_iu_release.LW
p80
aVtc_288_112_pgw_init_bearer_mod_paging_default_bearer_fails_to_set_up.LW
p81
aVtc_199_84_echo_ping.L14b
p82
aVtc_326_622_S6a_Throttling_Service_Request_recovery_UL_successful_and_Emergency_Attach_not_throttled.L14b
p83
aVtc_345_210_af__mo_csfb_with_psho__ecm_connected_no_cancel_location_from_hss.L14b
p84
aVtc_194_505_Notification_during_Intra_TAU_without_SGW_Relocation_HSS_Reset_Before_TAU.L14b
p85
aVtc_335_35_wifi_to_mobility_in_ecm_idle_af__no_estimation_response_from_eNB_timeout_max_3000.L14b
p86
aVtc_346_644_pra_cn_predefined_all_list__inter_tau__2pdns_active_flag_off__cca_u_with_rfsp.L14b
p87
aVtc_266_026_DownlinkDataFailureInd_repeat_paging_timer_small_local_restart.L14b
p88
aVtc_262_137_gummei_cli_config_boundaries.L14b
p89
aVtc_304_014_guti_attach_reject__not_known_in_old_mme_control_mode_threshold_exceeded.L14b
p90
aVtc_195_416_ue_trace_deactivate_trace_s1_intra_system_handover_triggered.L14b
p91
aVtc_195_532_mme_logging_ue_unrechable.L14b
p92
aVtc_208_43_interception_after_small_restart.G14b
p93
aVtc_97_009_psho_reject_fwd_rel_resp_cause_code_not_ok.G14b
p94
aVtc_304_102_emergency_intra_tau_success__control_mode_threshold_exceeded.LW
p95
aVtc_202_43_type_d_emergency_pdn_ecm_idle.LW
p96
aVtc_12_512_pmm_undefined_attach_when_updating_location_interfered_by_rnc_reset.LW
p97
aVtc_250_105_ignore_IDR_when_EPS_sub_downgrade_GPRS_sub.LW
p98
aVtc_326_650_tau_intra_periodic_SGW_unavailable_after_MME_large_restart_main_flow.LW
p99
aVtc_324_006_mf_ser_req_signaling_after_ack_3gdt.LW
p100
aVtc_204_703_handover_qos_new_sgw_mainflow.LW
p101
aVtc_241_432_intra_rau_with_bearer_sgw_unchange_2_pdns_3gdt.LW
p102
aVtc_266_203_service_request_2_dedicated_bearers_one_bearer_rejected.LW
p103
aVtc_247_11_inter_w_to_l_old_sgsn_sgw_change_two_pdn_with_one_create_session_failed.W14b
p104
aVtc_348_365_inter_srns_reloc_af__new_sgsn_ggsn_timeout_partially.W14b
p105
aVtc_578_02_check_parse_ebm_and_ci_eci_w.W14b
p106
aVtc_221_122_Downlink_Data_Notification_1_EBI_unknown_without_private_extension.LWG
p107
aVtc_179_318_Ccheck_TraceCollectionIpv6server.LWG
p108
aVtc_231_173_ms_init_detach_interfered_by_cancel_location_withdraw.LWG
p109
aVtc_183_005_itc_folder_file_names.LWG
p110
aVtc_101_003_single_mbms_session_small_restart.LWG
p111
aVtc_241_301_israu_new_create_session_failed_and_paging_timeout.LWG
p112
aVtc_202_40_emergency_pdn_ecm_connected.LWG
p113
aVtc_288_221_pgw_init_bearer_mod_QoS_paging_partly_fail_modification_partly_fails.LWG
p114
aVtc_208_43_interception_after_small_restart.LWG
p115
aVtc_327_016_recovery_intra_TAU__uplink_Detach_Request_while_waiting_for_Identity_Response.LWG
p116
aVtc_56_2_restart.LWG
p117
aVtc_95_3_load_lkf.LWG
p118
aVtc_261_42_isd_ef_mme_s1_ho_target_inter.LWG
p119
aVtc_251_66_w_to_l_to_w_with_cl_type_initialAttach_cl_after_sgsn_con_req.LWG
p120
aVtc_47_003_unstable_ue_ap_loss.LW
p121
aVtc_12_512_pmm_undefined_attach_when_updating_location_interfered_by_rnc_reset.LW
p122
aVtc_342_864_online_change_LI_U.LW
p123
aVtc_327_258_recovery_service_request_MBR_timeout__eNodeB_Configuration_Update_wf_Guti_Reallocation_Complete.LW
p124
aVtc_275_073_tau_inter_new_no_update_location_response_sgsn00040258.LW
p125
aVtc_282_114_mme_initiated_deactivate_bearer_1_of_2_default_bearer.LW
p126
aVtc_231_281_activate_pdp_request_ignore_during_s4_pdp_deactivating.LW
p127
aVtc_361_166_attach_l_to_w_s4_sgsn.LW
p128
aVtc_349_107_RAU_new_sgsn__Detach_Req_with_power_off_while_waiting_for_CCA_initial.LW
p129
aVtc_298_424_ms_init_deact_ef_delicated_non_gbr_bearer_deact_interfered_by_rab_release_request.LW
p130
aVtc_310_244_ef__S1_Reset_wf_FR_Complete_PS_to_CS_Complete_received.LW
p131
aVtc_326_204_Intra_TAU_combined_type_with_LA_served_by_old_msc_after_large_restart_after_combined_attach.LW
p132
aVtc_326_275_Periodic_Intra_TAU_with_unknown_GUTI_with_normal_and_emergency_PDN.LW
p133
aVtc_276_374_Inter_TAU_New_MME__New_TAU_Request_while_waiting_for_Location_Update_Response.LW
p134
aVtc_202_40_emergency_pdn_ecm_connected.L14b
p135
aVtc_202_102_small_restart.L14b
p136
aVtc_275_073_tau_inter_new_no_update_location_response_sgsn00040258.L14b
p137
aVtc_346_449_AF__Intra_TAU_CCA_Update_unknown_session_id_5002.L14b
p138
aVtc_304_020_intruder_imsi_attach_when_correct_ue_attaching__control_mode_threshold_exceeded_usc_reject_congestion.L14b
p139
aVtc_304_114_initial_ue_intra_tau_control_mode_threshold_exceeded_usc_ignore_replace_s1.L14b
p140
aVtc_304_121_initial_ue_intra_tau_control_mode_threshold_exceeded_usc_detach_wf_release_request_response.L14b
p141
aVtc_304_236_isc_active_flag_on_control_mode_threshold_exceeded_ignore_replace_s1_wf_initial_context_setup_response.L14b
p142
aVtc_195_416_ue_trace_deactivate_trace_s1_intra_system_handover_triggered.L14b
p143
aVtc_342_930_x2_eventsn_continuous_after_x2_reconnect.W14b
p144
aVtc_298_790_S4_3GDT_Service_request_partial_rab_reestablish_MBR_failed.W14b
p145
aVtc_262_1055_imsi_attach_with_csg_id_is_rejected.LWG
p146
aVtc_241_301_israu_new_create_session_failed_and_paging_timeout.LWG
p147
aVtc_326_240_Intra_TAU_Recovery_after_node_restart_fail_Update_Location_fail_SGW_Change.LWG
p148
aVtc_326_203_Intra_TAU_after_node_restart_with_two_retrieval_responses_with_SGW_change_with_emergency_PDN.LWG
p149
aVtc_297_407_move_at_periodic_rau.LWG
p150
aVtc_256_133_mme_eps_srvcc_ho_source_cs_only_uplink_attach_request_wf_srvcc_ps_to_cs_cancel_acknowledge.LWG
p151
aVtc_256_176_mme_eps_srvcc_ho_source_cs_only_ue_release_request_wf_srvcc_ps_to_cs_complete_notification.LWG
p152
aVtc_342_864_online_change_LI_U.LWG
p153
aVtc_212_044_Ccheck_apn_resolution_infix_order.LWG
p154
aVtc_244_049_mt_lr_cancel_location_with_subscription_withdraw_received_wf_location_report.LWG
p155
aVtc_204_1235_mme_eps_ho_tac_based_roaming_restriction_table_matched_blacklist_no_imei.LWG
p156
aVtc_220_213_csfb_to_1xrtt_in_ecm_connected_tau_request_wf_suspend_response.LWG
p157
aVtc_103_1137_sx_resend__CCR_I_retransmit_then_diameter_too_busy_then_timeout_resend_no_more_peers_only_realm.LWG
p158
aVtc_166_428_rnc_initiated_rab_release_interfered_by_rnc_initiated_iu_release_request.LWG
p159
aVtc_59_9_mtmsi_restart_counter.LWG
p160
aVtc_31_063_hlr_reset.LWG
p161
aVtc_361_510_rau_l_to_w_S4SGSN_check_old_qos_failed_node_function_deactivate_pdp_after_rau_on.LWG
p162
aVtc_179_318_Ccheck_TraceCollectionIpv6server.LWG
p163
aVtc_208_43_interception_after_small_restart.LWG
p164
aVtc_298_424_ms_init_deact_ef_delicated_non_gbr_bearer_deact_interfered_by_rab_release_request.LWG
p165
aVtc_202_42_type_c_emergency_pdn_ecm_idle.LWG
p166
aVtc_327_016_recovery_intra_TAU__uplink_Detach_Request_while_waiting_for_Identity_Response.LWG
p167
aVtc_327_037_recovery_intra_TAU_active_off_sgw_unchanged__RAR_wf_CSR_due_to_S11_linkdown.LWG
p168
aVtc_337_005_validation_move_manually_stopped_between_two_pool_moves_smooth_move.LWG
p169
aVtc_232_511_static_routes__bfd_supervision_of_static_route_v6_on_Gom.LWG
p170
aVtc_214_1126_la_selection_mf_oldlapreferred_combined_intra_tau_after_imsi_detach_triggered_by_sgs_paging.LWG
p171
aVtc_298_783_S4_3GDT_downlink_data_notification_wait_MBR_ef_detach.LWG
p172
aVtc_326_654_tau_intra_periodic_SGW_unavailable_after_MME_large_restart__DNS_fail.LWG
p173
aVtc_326_657_tau_intra_periodic_SGW_unavailable_after_MME_large_restart__create_session_fail.LWG
p174
aVtc_324_006_mf_ser_req_signaling_after_ack_3gdt.LWG
p175
aVtc_324_327_ef_service_req_data_direct_transfer_ingore.LWG
p176
aVtc_250_150_isd_with_odb_init_deactivation.LWG
p177
aVtc_250_105_ignore_IDR_when_EPS_sub_downgrade_GPRS_sub.LWG
p178
aVtc_365_03_seq_num_overflow_update_pdp_context_req.LWG
p179
aVtc_179_318_Ccheck_TraceCollectionIpv6server.LWG
p180
aVtc_166_305_apn_resolve_selmode_1_sgsn_default_miss_one.LWG
p181
aVtc_82_021_rab_modify_interrupted_by_israu.LWG
p182
aVtc_242_123_rau_to_sgsn_s3_keep_sgw_dedicated_bearer_unstable.LWG
p183
aVtc_95_4_load_lkf2.LWG
p184
aVtc_193_400_auth_vectors_mf_4_vectors.L14b
p185
aVtc_327_037_recovery_intra_TAU_active_off_sgw_unchanged__RAR_wf_CSR_due_to_S11_linkdown.L14b
p186
aVtc_327_229_recovery_Service_Request__Transfer_with_unknown_STMSI_followed_by_Attach.L14b
p187
aVtc_304_102_emergency_intra_tau_success__control_mode_threshold_exceeded.L14b
p188
aVtc_304_121_initial_ue_intra_tau_control_mode_threshold_exceeded_usc_detach_wf_release_request_response.L14b
p189
aVtc_304_434_Service_Request_UE_Initiated__control_mode_threshold_exceeded_explicit_detach_int_prot_nok.L14b
p190
aVtc_282_020_delete_bearer_request_handover_to_non_3GPP_ecm_connected_multi_pdn.L14b
p191
aVtc_195_416_ue_trace_deactivate_trace_s1_intra_system_handover_triggered.L14b
p192
aVtc_260_272_receive_sm_stop_req_while_wf_setup_iteration.L14b
p193
aVtc_009_003_attach_cache_full.L14b
p194
aVtc_294_412_mme_handle_eps_handover_SGW_unavailable_DNS_query_failure.L14b
p195
aVtc_44_071_attach_long_imsi.L14b
p196
aVtc_23_09_transfer_to_primary_and_change_vip_addr.LW
p197
aVtc_241_618_intra_rau_with_dedicated_bearer_sgw_change_wait_rau_complete_handle_dbr.LW
p198
aVtc_250_105_ignore_IDR_when_EPS_sub_downgrade_GPRS_sub.LW
p199
aVtc_316_203_IMSI_Attach_Emergency_Authentication_Fail__Backup_UE.LW
p200
aVtc_316_211_Inter_MME_HO_SUT_As_Target__Backup_UE.LW
p201
aVtc_195_208_mme_logging_maximum_modify_eps_bearer_context.LW
p202
aVtc_202_18_downlink_data_after_s1_release.LW
p203
aVtc_39_601_mas_unsucc_fwd_reloc_resp_mandatory_ie_missing_stop_source.LW
p204
aVtc_39_701_interfering_attach_request_source.LW
p205
aVtc_217_850_rau_to_sgsn_and_tau_back_to_mme_check_detach_register_table.LW
p206
aVtc_243_773_tau_from_sgsn_s3_active_flag_true_SGW_change_no_modify_bearer_response_two_pdn.LW
p207
aVtc_241_1636_israu_new_modify_bearer_response_timeout_followed_by_ms_init_deac.W14b
p208
aVtc_359_142_handover_from_3gpp_pgw_init_deletion_ef_ms_deact_Notify_ue_false.W14b
p209
aVtc_78_058_intra_rau_intra_plmn_forced_csps_coord_accept_foreign_ms.W14b
p210
aVtc_166_451_rab_release_interfered_by_detach.LWG
p211
aVtc_262_079_guti_attach_with_additional_guti_neqs_guti.LWG
p212
aVtc_28_006_mo_sms_no_cp_ack.LWG
p213
aVtc_239_160_inter_rau_new_sgw_changed_multi_pdn_beyond_limitation_s4.LWG
p214
aVtc_59_9_mtmsi_restart_counter.LWG
p215
aVtc_103_602_georedundant_realm_routing.LWG
p216
aVtc_81_013_israu_conversational_use_sub_ggsn_modifies_to_conv.LWG
p217
aVtc_241_150_intra_rau_wait_for_create_session_resp_interfere_by_poweroff_detach.LWG
p218
aVtc_195_022_deactivate_ue_trace.LWG
p219
aVtc_251_010_rau_w_to_g_after_hss_reset_storm.LWG
p220
aVtc_244_050_mt_lr_imei_check_answer_received_wf_location_report.LWG
p221
aVtc_236_048_s4_3gdt_deactivation_during_waiting_for_modify_bearer_rsp_in_activation_procedure_no_context.LWG
p222
aVtc_256_176_mme_eps_srvcc_ho_source_cs_only_ue_release_request_wf_srvcc_ps_to_cs_complete_notification.LWG
p223
aVtc_208_43_interception_after_small_restart.LWG
p224
aVtc_157_4_snmp_consistent.LWG
p225
aVtc_204_1111_mme_eps_handover_target_SGW_unavailable_DNS_query_failure.LWG
p226
aVtc_342_864_online_change_LI_U.LWG
p227
aVtc_220_585_csfb_to_1xrtt_in_ecm_idle_extended_service_request_as_paging_response_downlink_data_notification.LWG
p228
aVtc_183_005_itc_folder_file_names.LWG
p229
aVtc_166_300_ggsn_initiated_deactivation_interfered_by_rab_release_request.WG14a
p230
aVtc_15_056_unsuccessful_inter_normal_rau_update_location_fails_new_sgsn.G14b
p231
aVtc_260_031_mbms_session_start_mf.LW
p232
aVtc_202_10_downlink_data_during_paging.LW
p233
aVtc_202_464_af_seamless_move_source_unsuccessful_no_FRCN_ModifyBearerResponse_unsuccessful_cause.LW
p234
aVtc_103_1101_resending_AIR_interfering_CLR.LW
p235
aVtc_12_512_pmm_undefined_attach_when_updating_location_interfered_by_rnc_reset.LW
p236
aVtc_219_131_s3_handover_w_to_l_with_cl_two_pdns_one_failed_sgw_relocation.LW
p237
aVtc_326_210_Intra_TAU_combined_after_large_restart_after_EPS_attach.LW
p238
aVtc_194_506_Notification_during_Intra_MME_TAU_without_SGW_Relocation_Procedure.LW
p239
aVtc_245_301_inter_rau_insert_entry_into_interface_cache.LW
p240
aVtc_103_602_georedundant_realm_routing.L14b
p241
aVtc_262_1055_imsi_attach_with_csg_id_is_rejected.L14b
p242
aVtc_266_020_DownlinkDataFailureInd_repeat_paging_timer_on.L14b
p243
aVtc_326_657_tau_intra_periodic_SGW_unavailable_after_MME_large_restart__create_session_fail.L14b
p244
aVtc_326_834_Intra_TAU_Recovery_after_Node_Restart_SGW_Unchange_active_flag_on_no_modify_bearer_response.L14b
p245
aVtc_103_1101_resending_AIR_interfering_CLR.L14b
p246
aVtc_103_1143_sx_resend__timeout_timeout_duplicate_CCA_I.L14b
p247
aVtc_195_417_ue_trace_deactivate_trace_s1_intra_system_handover_triggered_HO_ongoing_timeout.L14b
p248
aVtc_282_150_deactivate_SGW_unavailable__create_session_dedicated_bearer_failed.L14b
p249
aVtc_318_113_sgw_restart_mf_one_pdn_with_relocate_by_echoResponse.L14b
p250
aVtc_276_374_Inter_TAU_New_MME__New_TAU_Request_while_waiting_for_Location_Update_Response.L14b
p251
aVtc_275_633_tau_inter_new_sgw_unavailable_too_high_QoS_for_one_default_and_one_dedicated_bearer.L14b
p252
aVtc_284_351_pdn_connectivity_pb_activate_1_dedicated_bearer_interrupted_by_path_switch_request.L14b
p253
aVtc_202_01_ecm_connected_s1_release.L14b
p254
aVtc_23_09_transfer_to_primary_and_change_vip_addr.LWG
p255
aVtc_237_062_mme_eps_irat_ho_source__equipement_blacklisted_wwf_Cancel_Location.LWG
p256
aVtc_298_783_S4_3GDT_downlink_data_notification_wait_MBR_ef_detach.LWG
p257
aVtc_274_042_Intra_and_pTAU__Intra_TAU_other_ta_while_waiting_for_Ue_Release_Complete.LWG
p258
aVtc_284_108_pdn_connectivity_connection_already_exists.LWG
p259
aVtc_327_043_recovery_intra_TAU_active_off_sgw_unchanged__gtpv2_FRR_wf_CSR_due_to_S11_linkdown.LWG
p260
aVtc_342_864_online_change_LI_U.LWG
p261
aVtc_357_012_gsm_iterator_ipAllocEnabled_modify_to_false_ipAddressReset_modify_to_true_while_one_pdp_in_white_area.LWG
p262
aVtc_183_005_itc_folder_file_names.LWG
p263
aVtc_318_265_sgw_restart_af_relocation_triggered_by_DDN_modify_bearer_request_timeout.LWG
p264
aVtc_59_9_mtmsi_restart_counter.LWG
p265
aVtc_322_161_smooth_move_ef_nas_after_paging_response_ignore.W14b
p266
aVtc_22_033_cl_attach_while_attached.LW
p267
aVtc_304_102_emergency_intra_tau_success__control_mode_threshold_exceeded.LW
p268
aVtc_310_310_S3_new_SGW_emergency_attach_sv_pool_on_msc_one_offloading_one_available.LW
p269
aVtc_195_208_mme_logging_maximum_modify_eps_bearer_context.LW
p270
aVtc_204_207_mme_eps_ho_target__multi_pdn_sgw_relocation__failed_modify_bearer_request.LW
p271
aVtc_326_251_Intra_TAU_with_unknown_GUTI_with_active_flag_then_s1_Intra_HO.LW
p272
aVtc_349_108_RAU_new_sgsn__RAU_Req_on_new_iu_while_waiting_for_CCA_initial_transfer.LW
p273
aVtc_297_407_move_at_periodic_rau.G14b
p274
aVtc_23_09_transfer_to_primary_and_change_vip_addr.LWG
p275
aVtc_304_102_emergency_intra_tau_success__control_mode_threshold_exceeded.LWG
p276
aVtc_304_121_initial_ue_intra_tau_control_mode_threshold_exceeded_usc_detach_wf_release_request_response.LWG
p277
aVtc_304_431_Service_Request_UE_Initiated__control_mode_threshold_exceeded_explicit_detach_connected_mode.LWG
p278
aVtc_342_864_online_change_LI_U.LWG
p279
aVtc_73_21_itc_gtpu_s4_sgsn_send_echo_request_w.LWG
p280
aVtc_73_41_gtpu_sgsn_dont_send_gpu_echo_request_w.LWG
p281
aVtc_327_035_recovery_intra_TAU__initial_intra_TAU_Request_while_waiting_for_CSR_due_to_S11_linkdown.LWG
p282
aVtc_196_101_nrspca_initiate_pdpctxt_secondary_activate_request_decode_error.LWG
p283
aVtc_59_9_mtmsi_restart_counter.LWG
p284
aVtc_183_005_itc_folder_file_names.LWG
p285
aVtc_31_025_rau_ul_fails_operator_determined_barring_when_data_not_confirmed.LWG
p286
aVtc_103_1155_sx_retransmit__Small_restart_terminate_request.LWG
p287
aVtc_319_067_ho_af_table_not_matched_from_s4_sgsn_to_mme_no_csr_response.LWG
p288
aVtc_250_105_ignore_IDR_when_EPS_sub_downgrade_GPRS_sub.LW
p289
aVtc_23_09_transfer_to_primary_and_change_vip_addr.LW
p290
aVtc_243_722_tau_from_sgsn_s3_active_flag_false_ddn_with_imsi_wf_ula.LW
p291
aVtc_322_172_smooth_move_ef_gr_cli_delete_subscriber_data_wf_security_mode_complete.LW
p292
aVtc_103_1102_fallback_to_imsins_success.LW
p293
aVtc_327_007_recovery_intra_TAU__uplink_Attach_Request_while_waiting_for_Location_Update_Response.LW
p294
aVtc_39_601_mas_unsucc_fwd_reloc_resp_mandatory_ie_missing_stop_source.LW
p295
aVtc_311_204_intra_srns_reloc_s4_sgw_change_wf_reloc_req_ack_interrupted_by_cancel_loc_subscrip_withdrawn.LW
p296
aVtc_304_113_initial_ue_intra_tau_control_mode_threshold_exceeded_usc_detach_intruder.LW
p297
aVtc_241_201_s4_sgsn_pool_ms_move_target_sgsn_mf.LW
p298
aVtc_260_212_receive_sm_start_req_while_wf_m3_start_resp_diff_abs_time.LW
p299
aVtc_260_070_mbms_session_start_af_gw_resend_request_msg_diff_absolute_time.LW
p300
aVtc_52_10_inter_old_relocation_cancel_later.W14b
p301
aVtc_248_128_inter_l_to_w_new_rau_request_intial_ue_received_wf_update_location_resp.W14b
p302
aVtc_236_091_service_request_si_iu_release_at_sgw_flow_si_cancel_location.W14b
p303
aVtc_284_350_pdn_connectivity_interrupted_by_path_switch_request.L14b
p304
aVtc_266_026_DownlinkDataFailureInd_repeat_paging_timer_small_local_restart.L14b
p305
aVtc_304_114_initial_ue_intra_tau_control_mode_threshold_exceeded_usc_ignore_replace_s1.L14b
p306
aVtc_195_204_mme_logging_maximum_pdn_connectivity_default_bearer.L14b
p307
aVtc_194_100_check_gauge_unstable_not_parked.L14b
p308
aVtc_194_1502_apn_oi_replacment_ue_level_isc_w2l_new.L14b
p309
aVtc_202_40_emergency_pdn_ecm_connected.L14b
p310
aVtc_335_40_wifi_to_mobility_in_ecm_idle_af__two_cell_infos_from_wic__one_eNB_not_support.L14b
p311
aVtc_295_131_mt_call_during_Intra_S1_HO_s1_reset_while_wf_the_tau.L14b
p312
aVtc_326_622_S6a_Throttling_Service_Request_recovery_UL_successful_and_Emergency_Attach_not_throttled.L14b
p313
aVtc_207_023_ebm_server_connection_failure.WG14a
p314
aVtc_324_326_ef_service_req_paging_response_initial_ue_ignore.WG14a
p315
aVtc_208_43_interception_after_small_restart.G14b
p316
aVtc_275_073_tau_inter_new_no_update_location_response_sgsn00040258.LW
p317
aVtc_276_373_Inter_TAU_New_MME__New_TAU_Request_while_waiting_for_Create_Session_Response.LW
p318
aVtc_327_023_recovery_intra_TAU__initial_Detach_Request_while_waiting_for_Create_Session_Response.LW
p319
aVtc_326_622_S6a_Throttling_Service_Request_recovery_UL_successful_and_Emergency_Attach_not_throttled.LW
p320
aVtc_304_215_inter_tau_same_ie_control_mode_threshold_exceeded_reject_wf_icsr.LW
p321
aVtc_284_351_pdn_connectivity_pb_activate_1_dedicated_bearer_interrupted_by_path_switch_request.LW
p322
aVtc_310_123_af__SGSN_accepted_only_a_subset_of_PDN_Connections_in_FRResponse_same_SGW.LW
p323
aVtc_324_144_af_rab_assignment_resp_downgrade_qos_dedicated_bearer.W14b
p324
aVtc_266_011_DownlinkDataNotification_interfering_ISD_sgsn00026976.L14b
p325
aVtc_304_102_emergency_intra_tau_success__control_mode_threshold_exceeded.L14b
p326
aVtc_304_121_initial_ue_intra_tau_control_mode_threshold_exceeded_usc_detach_wf_release_request_response.L14b
p327
aVtc_194_506_Notification_during_Intra_MME_TAU_without_SGW_Relocation_Procedure.L14b
p328
aVtc_195_416_ue_trace_deactivate_trace_s1_intra_system_handover_triggered.L14b
p329
aVtc_195_417_ue_trace_deactivate_trace_s1_intra_system_handover_triggered_HO_ongoing_timeout.L14b
p330
aVtc_327_012_recovery_intra_TAU__initial_Attach_Request_while_waiting_for_Ue_Backup_Response.L14b
p331
aVtc_327_022_recovery_intra_TAU__initial_Detach_Request_while_waiting_for_Ue_Backup_Response.L14b
p332
aVtc_295_124_tau_after_ho_tz_change_emm_information_meanwhile_handover_required_HO_success.L14b
p333
aVtc_44_057_sctp_s1ap_mdholpap_emergency.L14b
p334
aVtc_103_701_MME_restarts.L14b
p335
aVtc_319_067_ho_af_table_not_matched_from_s4_sgsn_to_mme_no_csr_response.LWG
p336
aVtc_73_41_gtpu_sgsn_dont_send_gpu_echo_request_w.LWG
p337
aVtc_291_40_action_ue_trace.LWG
p338
aVtc_326_487_Inter_TAU_Recovery_Unknown_GUTI__Retrieval_Response_After_Timer_Expires.LWG
p339
aVtc_311_34_intra_srns_reloc_s4_roaming_user_with_eps_subscription_with_local_rfsp.LWG
p340
aVtc_195_406_ue_trace_start_meanwhile_handover_required.LWG
p341
aVtc_220_411_csfb_to_1xrtt_in_ecm_connected_path_switch_request_subscription_cancelled.LWG
p342
aVtc_293_010_X2_Based_HO__Cancel_Location_Subscription_Withdrawal_while_wf_Modify_Bearer_Response.LWG
p343
aVtc_324_006_mf_ser_req_signaling_after_ack_3gdt.LWG
p344
aVtc_103_1100_resending_AIR_dpl_changed.LWG
p345
aVtc_103_708_modify_peer_send_DPR.LWG
p346
aVtc_183_005_itc_folder_file_names.LWG
p347
aVtc_304_263_tau_from_gnsgsn_when_wf_tau_complete_control_mode_reject_congestion.LWG
p348
aVtc_23_09_transfer_to_primary_and_change_vip_addr.LWG
p349
aVtc_178_690_action_sctp_sys_assoc_move_command.LWG
p350
aVtc_322_161_smooth_move_ef_nas_after_paging_response_ignore.WG14a
p351
aVtc_322_161_smooth_move_ef_nas_after_paging_response_ignore.W14b
p352
aVtc_236_048_s4_3gdt_deactivation_during_waiting_for_modify_bearer_rsp_in_activation_procedure_no_context.W14b
p353
aVtc_298_826_NRSPCA_S4_nsapi_collision_receiving_detach_request_while_waiting_for_delete_bearer_request.W14b
p354
aVtc_284_350_pdn_connectivity_interrupted_by_path_switch_request.L14b
p355
aVtc_304_114_initial_ue_intra_tau_control_mode_threshold_exceeded_usc_ignore_replace_s1.L14b
p356
aVtc_266_026_DownlinkDataFailureInd_repeat_paging_timer_small_local_restart.L14b
p357
aVtc_268_023_UE_Release_Flow__Downlink_Data_Notification_while_waiting_for_UE_Context_Release_Complete.L14b
p358
aVtc_327_503_recovery_service_request__s1_reset_while_waiting_for_Update_Location_Answer.L14b
p359
aVtc_262_084_emergency_imsi_attach_unauthentication_fails_in_hss.L14b
p360
aVtc_217_061_rau_to_sgsn_create_bearer_request_when_wf_20s_timeout.L14b
p361
aVtc_217_060_rau_to_sgsn_create_bearer_request_when_wf_sgsn_context_ack.L14b
p362
aVtc_332_061_1_mf__paging_due_to_CBR_during_paging_due_to_UBR_latest_with_lower_prio.LW
p363
aVtc_39_153_move_to_our_sgsn_service_request_before_rau.LW
p364
aVtc_23_09_transfer_to_primary_and_change_vip_addr.LW
p365
aVtc_316_215_Service_Request_With_Dedicated_Bearers_Partial_Success__Backup_UE.LW
p366
aVtc_217_033_rau_to_sgsn_detach_request_nw_initiated_when_wf_session_response.LW
p367
aVtc_194_078_cl_update_procedure_during_ul.LW
p368
aVtc_322_170_smooth_move_ef_gr_cli_delete_subscriber_data_wf_frr.LW
p369
aVtc_243_722_tau_from_sgsn_s3_active_flag_false_ddn_with_imsi_wf_ula.LW
p370
aVtc_219_131_s3_handover_w_to_l_with_cl_two_pdns_one_failed_sgw_relocation.LW
p371
aVtc_298_783_S4_3GDT_downlink_data_notification_wait_MBR_ef_detach.LW
p372
aVtc_327_034_recovery_intra_TAU__initial_intra_TAU_Request_while_waiting_for_Ue_Backup_Response.LW
p373
aVtc_327_008_recovery_intra_TAU__uplink_Attach_Request_while_waiting_for_Initial_Context_Setup_Response.LWG
p374
aVtc_220_036_csfb_to_1xrtt_in_ecm_connected_release_access_bearers_response_with_context_not_found.LWG
p375
aVtc_326_622_S6a_Throttling_Service_Request_recovery_UL_successful_and_Emergency_Attach_not_throttled.LWG
p376
aVtc_304_029_guti_attach_reject__control_mode_threshold_exceeded_then_action_stop.LWG
p377
aVtc_666_03_block_ss7_board.LWG
p378
aVtc_310_310_S3_new_SGW_emergency_attach_sv_pool_on_msc_one_offloading_one_available.LWG
p379
aVtc_232_403_bfd__ipv4ipv6_alarm.LWG
p380
aVtc_97_035_inter_sgsn_psho_mf_with_lawful_intercept.LWG
p381
aVtc_267_229_Service_Request__PDN_connectivity_request_while_wf_authentication_response.LWG
p382
aVtc_231_281_activate_pdp_request_ignore_during_s4_pdp_deactivating.LWG
p383
aVtc_23_09_transfer_to_primary_and_change_vip_addr.LWG
p384
aVtc_316_272_Inter_RAT_S3_HO_SUT_As_Source_With_Dedicated_Bearer_Subpool_ID_Change__Delete_UE_Backup.LWG
p385
aVtc_103_1107_fallback_to_imsins_resend_fail_due_to_result_code.LWG
p386
aVtc_209_101_dual_stack_supported_ipv6.LWG
p387
aVtc_288_232_pgw_init_bearer_mod_QoS_UE_reject_default_cc_neqs_invalid_bearer_two_conns.LWG
p388
aVtc_12_183_wcdma_repeat_paging_with_old_ptmsi_N3313_oldptmsi_0.LWG
p389
aVtc_250_154_attach_eps_sub_no_odb_activation_insert_gprs_sub_with_odb_deact.LWG
p390
aVtc_183_005_itc_folder_file_names.LWG
p391
aVtc_208_43_interception_after_small_restart.G14b
p392
aVtc_357_306_gsm_local_user_reactivate_pdp_intra_rau_non_ip_area_to_ip_area.G14b
p393
aVtc_208_43_interception_after_small_restart.G14b
p394
aVtc_324_239_ef_nas_ignore_update_loc_received_wf_modify_bearer_response.LW
p395
aVtc_219_131_s3_handover_w_to_l_with_cl_two_pdns_one_failed_sgw_relocation.LW
p396
aVtc_342_069_x2_receive_event_after_pdp_activate_deactivate.LW
p397
aVtc_250_105_ignore_IDR_when_EPS_sub_downgrade_GPRS_sub.LW
p398
aVtc_225_416_recv_service_while_waiting_extended_service_request.LW
p399
aVtc_225_601_exp_flow_path_swith_request_while_wf_modification_context_response.LW
p400
aVtc_289_025_Modify_bearer__ERAB_modify_request_meanwhile_handover_required_HO_cancel.LW
p401
aVtc_202_43_type_d_emergency_pdn_ecm_idle.LW
p402
aVtc_199_91_echo_ping_auto_echo_independence.LW
p403
aVtc_236_044_s4_3gdt_detach_during_waiting_for_release_bearer_rsp_in_rab_release_procedure_no_context.LW
p404
aVtc_23_09_transfer_to_primary_and_change_vip_addr.LW
p405
aVtc_194_078_cl_update_procedure_during_ul.LW
p406
aVtc_314_018_hss_init_qos_modification_apn_ambr_3gdt.LW
p407
aVtc_103_701_MME_restarts.LW
p408
aVtc_268_025_UE_Release__initial_ue_tau_request_wf_release_access_bearer_resp.L14b
p409
aVtc_220_403_csfb_to_1xrtt_in_ecm_connected_path_switch_request_HO_success.L14b
p410
aVtc_327_467_recovery_service_request__DDN_with_IMSI_while_waiting_for_authentication_response.L14b
p411
aVtc_306_310_ef_seamless_move_source_receive_connection_oriented_information_lppa_wf_frr.L14b
p412
aVtc_103_1102_fallback_to_imsins_success.L14b
p413
aVtc_335_153_Locator_Restart__iterator_mechanism_multiple_UEs.L14b
p414
aVtc_284_350_pdn_connectivity_interrupted_by_path_switch_request.LWG
p415
aVtc_275_811_tau_inter_tac_based_roaming_restriction_table_matched_blacklist_exemptedlist.LWG
p416
aVtc_208_43_interception_after_small_restart.LWG
p417
aVtc_59_9_mtmsi_restart_counter.LWG
p418
aVtc_194_505_Notification_during_Intra_TAU_without_SGW_Relocation_HSS_Reset_Before_TAU.LWG
p419
aVtc_342_864_online_change_LI_U.LWG
p420
aVtc_179_318_Ccheck_TraceCollectionIpv6server.LWG
p421
aVtc_202_522_seamless_move_target_sgw_unavailable_service_request_partially_failure.LWG
p422
aVtc_250_105_ignore_IDR_when_EPS_sub_downgrade_GPRS_sub.LWG
p423
aVtc_297_407_move_at_periodic_rau.LWG
p424
aVtc_103_1004_secondary_dpl_used_when_all_peers_in_dpl_unavailable_no_sls.LWG
p425
aVtc_23_09_transfer_to_primary_and_change_vip_addr.LWG
p426
aVtc_322_096_smooth_move_ef_reset_wf_frr_idle.WG14a
p427
aVtc_298_713_pgw_init_modification_ef_rnc_reset_wf_ms_modify_and_rab_create.W14b
p428
aVtc_298_826_NRSPCA_S4_nsapi_collision_receiving_detach_request_while_waiting_for_delete_bearer_request.W14b
p429
aVtc_81_042_israu_streaming_no_lics.W14b
p430
aVtc_38_80_intra_rau_new_rnc_with_authentication_wrong_ptmsi_signature.W14b
p431
aVtc_357_101_wcdma_iterator_caused_by_config_creation_with_ipAddressReset_true_irrEnabled_nrrEnabled_false.W14b
p432
aVtc_239_620_inter_rau_new_with_bearer_sgw_not_change_isd_odb_bit0_wf_rau_compl_deactivation.G14b
p433
aVtc_166_103_israu_new_streaming_two_tunnel_since_ggsn_answers_with_gtpv0.WG14a
p434
aVtc_349_104_RAU_new_sgsn__Relocation_Req_while_waiting_for_CCA_initial.WG14a
p435
aVtc_304_114_initial_ue_intra_tau_control_mode_threshold_exceeded_usc_ignore_replace_s1.L14b
p436
aVtc_304_121_initial_ue_intra_tau_control_mode_threshold_exceeded_usc_detach_wf_release_request_response.L14b
p437
aVtc_294_410_mme_handle_eps_handover_SGW_unavailable.L14b
p438
aVtc_327_022_recovery_intra_TAU__initial_Detach_Request_while_waiting_for_Ue_Backup_Response.L14b
p439
aVtc_326_211_Intra_TAU_with_unknown_GUTI_backup_no_vector_change_Replication_Option.L14b
p440
aVtc_326_235_Intra_TAU_Recovery_fail_Modify_Bearer_timeout_with_active_flag.L14b
p441
aVtc_326_263_Intra_TAU_with_unknown_GUTI_Restriction_2_pdn_roaming_restriction_emergency_pdn_recovered.L14b
p442
aVtc_276_373_Inter_TAU_New_MME__New_TAU_Request_while_waiting_for_Create_Session_Response.L14b
p443
aVtc_276_374_Inter_TAU_New_MME__New_TAU_Request_while_waiting_for_Location_Update_Response.L14b
p444
aVtc_276_376_Inter_TAU_New_MME__New_TAU_Request_while_waiting_for_tau_complete_new_guti.L14b
p445
aVtc_44_004_small_restart__sctp_fe_restart.L14b
p446
aVtc_44_301_sctp_counter_MessageSent_Received.L14b
p447
aVtc_44_821_mme_assoc_reestablish__shutdown_sbc.L14b
p448
aVtc_194_505_Notification_during_Intra_TAU_without_SGW_Relocation_HSS_Reset_Before_TAU.L14b
p449
aVtc_220_587_csfb_to_1xrtt_in_extended_service_request_during_attach_waiting_for_modify_bearer_response.L14b
p450
aVtc_250_105_ignore_IDR_when_EPS_sub_downgrade_GPRS_sub.LW
p451
aVtc_276_373_Inter_TAU_New_MME__New_TAU_Request_while_waiting_for_Create_Session_Response.LW
p452
aVtc_290_014_Timer_Based_GBR_Deact__service_request_wf_release_access_bearer_response_before_timer_expire.LW
p453
aVtc_304_236_isc_active_flag_on_control_mode_threshold_exceeded_ignore_replace_s1_wf_initial_context_setup_response.LW
p454
aVtc_51_037_reloc_wf_reloc_comp_interrupted_by_power_off_detach_on_source_iu.LW
p455
aVtc_103_701_MME_restarts.LW
p456
aVtc_103_1007_secondary_dpl_set_and_then_emptied.LW
p457
aVtc_103_1101_resending_AIR_interfering_CLR.LW
p458
aVtc_12_512_pmm_undefined_attach_when_updating_location_interfered_by_rnc_reset.LW
p459
aVtc_53_101_inter_new_srns_reloc_interfere_service_request_data_same_iu.LW
p460
aVtc_214_503_mt_sms_while_wf_lu_accept.LW
p461
aVtc_341_220_x1_x2_connection_restarted_due_to_modify_neid_command.LW
p462
aVtc_103_024_modify_diameter_peer_switch_peer_numbers.LWG
p463
aVtc_52_17_inter_old_treloccomplete_timeout_before_ack.LWG
p464
aVtc_205_71_01_ss7_SCCP_CR_DT1_RLSD.LWG
p465
aVtc_204_901_mme_eps_ho_target_insert_subscriber_data_with_odb_bit0_during_wf_tau_complete.LWG
p466
aVtc_298_829_NRSPCA_S4_nsapi_collision_iu_release_request_while_waiting_for_delete_bearer_request.LWG
p467
aVtc_316_212_Intra_MME_S1_HO_With_SGW_Change_With_Two_PDN_Connections_Different_APN__Backup_UE.LWG
p468
aVtc_284_351_pdn_connectivity_pb_activate_1_dedicated_bearer_interrupted_by_path_switch_request.LWG
p469
aVtc_284_350_pdn_connectivity_interrupted_by_path_switch_request.LWG
p470
aVtc_183_005_itc_folder_file_names.LWG
p471
aVtc_95_7_negative_tests.LWG
p472
aVtc_238_026_mme_eps_irat_ho_target__multi_pdn_sgw_relocation_setup_fails.LWG
p473
aVtc_179_318_Ccheck_TraceCollectionIpv6server.LWG
p474
aVtc_219_232_TAU_Dual_Access_WtoL_without_SGW_Change_SGW_unavailable.LWG
p475
aVtc_324_144_af_rab_assignment_resp_downgrade_qos_dedicated_bearer.LWG
p476
aVtc_357_004_gsm_iterator_ipAddressReset_modify_to_true_while_one_pdp_already_in_target_area.LWG
p477
aVtc_357_500_gsm_iterator_EF_RAU_Request_WF_deactivate_pdp_context_accept.LWG
p478
aVtc_322_126_smooth_move_ef_cancel_location_initialAttach_wf_cancel_location.LWG
p479
aVtc_346_026_PDN_Connectivity__CCA_I_using_configured_timer_interval.LWG
p480
aVtc_342_864_online_change_LI_U.LWG
p481
aVtc_342_950_3gdt_one_tunnel_to_two_tunnel.LWG
p482
aVtc_39_601_mas_unsucc_fwd_reloc_resp_mandatory_ie_missing_stop_source.LWG
p483
aVtc_178_970_m3_ietf_set_prim_ip_path.LWG
p484
aVtc_326_263_Intra_TAU_with_unknown_GUTI_Restriction_2_pdn_roaming_restriction_emergency_pdn_recovered.LWG
p485
aVtc_326_670_tau_intra_SGW_unavailable_active_flag_off_after_MME_large_restart_main_flow.LWG
p486
aVtc_326_671_tau_intra_SGW_unavailable_active_flag_off_after_MME_large_restart__with_emergency_PDN.LWG
p487
aVtc_59_11_sequence_check_replica_values.LWG
p488
aVtc_213_057_nrspca_with_limit_of_pdp_context_is_exceeded_downlink.LWG
p489
aVtc_340_05_validation_move_g_filter_apn_intrarau_trigger.LWG
p490
aVtc_208_44_attach_detach_imsi_ap_takeover.LWG
p491
aVtc_243_770_tau_from_sgsn_s3_active_flag_true_SGW_unchange_no_2nd_modify_bearer_response.LWG
p492
aVtc_53_43_inter_new_srns_reloc_ef_reset3.W14b
p493
aVtc_79_035_israu_new_streaming_context_MBR_not_zero.W14b
p494
aVtc_28_052_mo_sms_homer_block_visiting_redirection.W14b
p495
aVtc_241_500_israu_new_gn_to_s4_pdp_to_bearer_one_pdp_conversational_mbr_0.W14b
p496
aVtc_196_152_nrspca_ongoing_when_inter_w_to_g_old.W14b
p497
aVtc_250_161_s6d_IDR_IDA_Change_GPRS_to_eps_subscription_re_attach.W14b
p498
aVtc_322_161_smooth_move_ef_nas_after_paging_response_ignore.W14b
p499
aVtc_311_204_intra_srns_reloc_s4_sgw_change_wf_reloc_req_ack_interrupted_by_cancel_loc_subscrip_withdrawn.W14b
p500
aVtc_43_101__removal_of_disconnected_eNodeBs__CLI_removal.LW
p501
aVtc_243_770_tau_from_sgsn_s3_active_flag_true_SGW_unchange_no_2nd_modify_bearer_response.LW
p502
aVtc_298_783_S4_3GDT_downlink_data_notification_wait_MBR_ef_detach.LW
p503
aVtc_275_073_tau_inter_new_no_update_location_response_sgsn00040258.LW
p504
aVtc_241_201_s4_sgsn_pool_ms_move_target_sgsn_mf.LW
p505
aVtc_202_42_type_c_emergency_pdn_ecm_idle.LW
p506
aVtc_194_063_hss_reset.LW
p507
aVtc_218_008_tau_from_sgsn_security_procedure_failed.LW
p508
aVtc_103_602_georedundant_realm_routing.LW
p509
aVtc_294_410_mme_handle_eps_handover_SGW_unavailable.LW
p510
aVtc_304_002_attach_reject__control_mode_threshold_exceeded.L14b
p511
aVtc_304_102_emergency_intra_tau_success__control_mode_threshold_exceeded.L14b
p512
aVtc_304_236_isc_active_flag_on_control_mode_threshold_exceeded_ignore_replace_s1_wf_initial_context_setup_response.L14b
p513
aVtc_221_053__Emergency_type_a_notification_on_emergency_ebi_id_3_default.L14b
p514
aVtc_44_301_sctp_counter_MessageSent_Received.L14b
p515
aVtc_266_026_DownlinkDataFailureInd_repeat_paging_timer_small_local_restart.L14b
p516
aVtc_202_02_ecm_idle_s1_release.L14b
p517
aVtc_202_102_small_restart.L14b
p518
aVtc_342_864_online_change_LI_U.LWG
p519
aVtc_214_1099_la_selection_mf_reselection_combined_tau_with_imsi_attach_after_mme_triggered_imsi_detach_when_handling_sgs_paging.LWG
p520
aVtc_665_55_repeated_cm_restart.LWG
p521
aVtc_289_072_Modify_Bearer__pdn_connectivity_while_wf_modify_bearer_response_idle.LWG
p522
aVtc_246_061_israu_new_l_to_g_sgw_change_one_pdn_ubr_before_rau_complete_interfered_by_inter_rau_request.LWG
p523
aVtc_219_131_s3_handover_w_to_l_with_cl_two_pdns_one_failed_sgw_relocation.LWG
p524
aVtc_179_318_Ccheck_TraceCollectionIpv6server.LWG
p525
aVtc_208_43_interception_after_small_restart.LWG
p526
aVtc_208_44_attach_detach_imsi_ap_takeover.LWG
p527
aVtc_291_40_action_ue_trace.LWG
p528
aVtc_326_206_Intra_TAU_Recovery_with_old_GUTI.LWG
p529
aVtc_241_711_inter_rau_dedicate_bearer_feature_off_and_pgw_delete_bearer_after_rau.LWG
p530
aVtc_241_720_israu_new_sgw_unchange_with_charging_id_deactivate_tz_change.LWG
p531
aVtc_103_1133_sx_resend__CCR_I_diameter_too_busy_no_more_peers_failed_only_realm.LWG
p532
aVtc_103_708_modify_peer_send_DPR.LWG
p533
aVtc_322_023_smooth_move_af_frr_with_request_rejected.LWG
p534
aVtc_256_176_mme_eps_srvcc_ho_source_cs_only_ue_release_request_wf_srvcc_ps_to_cs_complete_notification.LWG
p535
aVtc_578_51_check_parse_compressed_ebm.G14b
p536
aVtc_578_02_check_parse_ebm_and_ci_eci_g.G14b
p537
aVtc_297_427_ef_irat_w_to_g_attach_request_received.G14b
p538
aVtc_208_43_interception_after_small_restart.G14b
p539
aVtc_31_064_activate_loc_not_confirmed_ul_fails_network_failure.W14b
p540
aVtc_250_105_ignore_IDR_when_EPS_sub_downgrade_GPRS_sub.W14b
p541
aVtc_241_301_israu_new_create_session_failed_and_paging_timeout.W14b
p542
aVtc_12_512_pmm_undefined_attach_when_updating_location_interfered_by_rnc_reset.W14b
p543
aVtc_262_1031_emergency_imsi_attach_multiple_pgw_try_next_pgw_fqdn_error.LW
p544
aVtc_276_282_Inter_TAU_New_MME__Delete_Bearer_Request_change_to_non_3gpp_while_waiting_for_Modify_Bearer_Response.LW
p545
aVtc_324_121_af_service_request_with_data_only_ulr_timeout_3gdt.LW
p546
aVtc_324_327_ef_service_req_data_direct_transfer_ingore.LW
p547
aVtc_324_239_ef_nas_ignore_update_loc_received_wf_modify_bearer_response.LW
p548
aVtc_195_416_ue_trace_deactivate_trace_s1_intra_system_handover_triggered.LW
p549
aVtc_103_1101_resending_AIR_interfering_CLR.LW
p550
aVtc_318_203_idle_deactivate_last_pdn_with_reactivate_req.LW
p551
aVtc_326_251_Intra_TAU_with_unknown_GUTI_with_active_flag_then_s1_Intra_HO.LW
p552
aVtc_294_410_mme_handle_eps_handover_SGW_unavailable.LW
p553
aVtc_294_411_mme_handle_eps_handover_SGW_unavailable_with_ta_change.LW
p554
aVtc_316_253_Combined_Attach_UE_Init_IMSI_Detach_Remove_Sgs_Association__Update_UE_Backup.LW
p555
aVtc_341_691_x2_activity_event_guti_reallocation_during_ue_restoration.L14b
p556
aVtc_204_011_mme_eps_handover_target_inter_main_flow_with_sgw_relocation__dedicated_bearer.L14b
p557
aVtc_276_376_Inter_TAU_New_MME__New_TAU_Request_while_waiting_for_tau_complete_new_guti.L14b
p558
aVtc_103_1101_resending_AIR_interfering_CLR.L14b
p559
aVtc_263_003_Attach_Flow__Attach_Request_Same_IEs_IP_NOK_while_waiting_for_Delete_Session_Response.L14b
p560
aVtc_194_506_Notification_during_Intra_MME_TAU_without_SGW_Relocation_Procedure.L14b
p561
aVtc_103_708_modify_peer_send_DPR.LWG
p562
aVtc_103_704_delete_peer_send_DPR.LWG
p563
aVtc_103_602_georedundant_realm_routing.LWG
p564
aVtc_204_207_mme_eps_ho_target__multi_pdn_sgw_relocation__failed_modify_bearer_request.LWG
p565
aVtc_220_420_csfb_to_1xrtt_ue_return_with_service_request_SGW_unavailable.LWG
p566
aVtc_262_1055_imsi_attach_with_csg_id_is_rejected.LWG
p567
aVtc_12_134_attach_with_extended_mmumoc_iu_inactivity_timer.LWG
p568
aVtc_342_864_online_change_LI_U.LWG
p569
aVtc_59_9_mtmsi_restart_counter.LWG
p570
aVtc_346_150_Location_Based_Policies__User_Location_Change_Sx_Gx_2nd_PDN.LWG
p571
aVtc_23_09_transfer_to_primary_and_change_vip_addr.LWG
p572
aVtc_263_204_Attach_Flow_Pb__Attach_Request_Same_IEs_while_waiting_for_Attach_Complete.LWG
p573
aVtc_256_175_mme_eps_srvcc_ho_source_cs_only_ue_release_request_wf_srvcc_ps_to_cs_response.LWG
p574
aVtc_326_216_Intra_TAU_Recovery_combined_type_Location_Update_Reject.LWG
p575
aVtc_183_011_itc_trace_file_wrap.LWG
p576
aVtc_327_268_recovery_service_request_MBR_timeout__Indentification_Request_wf_Guti_Reallocation_Complete.LWG
p577
aVtc_310_249_ef__S1_Reset_wf_Ue_Context_Release_Complete.LWG
p578
aVtc_305_057_oms_mmi_hwm.LWG
p579
aVtc_179_318_Ccheck_TraceCollectionIpv6server.LWG
p580
aVtc_202_431_mf_seamless_move_target_service_request_modifyBearerReq_onePdnMultiBearer_oneBearerFail.LWG
p581
aVtc_194_618_DSD__PDN_subscription_contexts_Withdrawal_All_PDN_Disconnect__ECM_IDLE.LWG
p582
aVtc_194_709_HSS_initiated_ISD_ue_context_modification_failure_x2_handover_triggered_HO_all_bearers_fail.LWG
p583
aVtc_39_141_attach_move_interfering_sgsn_context_request_move_stopped.LWG
p584
aVtc_218_501__TAU_from_SGSN__with_old_guti_type_mapped.LWG
p585
aVtc_73_44_ue_init_service_request_buffer_packets_with_3gdt.LWG
p586
aVtc_178_990_sctp_max_profile_number.LWG
p587
aVtc_232_403_bfd__ipv4ipv6_alarm.LWG
p588
aVtc_244_051_mt_lr_delete_bearer_request_received_wf_location_report.LWG
p589
aVtc_298_531_sgsn_init_pdn_deact_ef_deact_req_ti_dedicated_bearer_wf_delete_session_resp.LW
p590
aVtc_267_220_Service_Request__Delete_Bearer_Request_Default_B_while_waiting_for_Initial_Context_Setup_Response.LW
p591
aVtc_209_44_sgsn_init_pdp_modification.LW
p592
aVtc_23_09_transfer_to_primary_and_change_vip_addr.LW
p593
aVtc_103_1101_resending_AIR_interfering_CLR.LW
p594
aVtc_103_904_relay_node_S6a_S13.LW
p595
aVtc_220_311_csfb_to_1xrtt_return_with_periodic_tau.LW
p596
aVtc_334_292_service_req_relocation_rab_release_request_3gdt_when_wf_create_session_resp.LW
p597
aVtc_273_596_TAU_intra__active_flag_on_2nd_MBR_timeout_followed_by_Service_Request_SGW_unavailable_MBR_timeout.LW
p598
aVtc_326_622_S6a_Throttling_Service_Request_recovery_UL_successful_and_Emergency_Attach_not_throttled.LW
p599
aVtc_204_071_mme_eps_ho__ue_context_modification_failure.LW
p600
aVtc_342_125_delete_target_different_connection_three_targets.LW
p601
aVtc_342_864_online_change_LI_U.LW
p602
aVtc_322_161_smooth_move_ef_nas_after_paging_response_ignore.W14b
p603
aVtc_236_233_Inter_RAU_S4_over_S3_target_DtSelMode_3_wildcard_in_APN_list_TAC_in_TAC_list.W14b
p604
aVtc_282_020_delete_bearer_request_handover_to_non_3GPP_ecm_connected_multi_pdn.L14b
p605
aVtc_103_708_modify_peer_send_DPR.L14b
p606
aVtc_103_704_delete_peer_send_DPR.L14b
p607
aVtc_304_117_initial_ue_intra_tau_control_mode_threshold_exceeded_usc_detach_intruder_wf_release_request_response.L14b
p608
aVtc_304_236_isc_active_flag_on_control_mode_threshold_exceeded_ignore_replace_s1_wf_initial_context_setup_response.L14b
p609
aVtc_194_184_hss_reset_ue_activity_s1_ho.L14b
p610
aVtc_194_506_Notification_during_Intra_MME_TAU_without_SGW_Relocation_Procedure.L14b
p611
aVtc_326_242_Intra_TAU_Recovery_Initial_Context_Setup_timeout.L14b
p612
aVtc_44_301_sctp_counter_MessageSent_Received.L14b
p613
aVtc_44_750_s1_with_two_sctp_endpoints.L14b
p614
aVtc_341_531_x2_activity_event_emergency_attach_detach_simless_ue_imei.L14b
p615
aVtc_341_604_x2_activity_event_tau_inter_old_sgw_unchanged.L14b
p616
aVtc_346_713_pra_cn_predefined_lrc_optimization_TAIs_eCGIs_in_pra_eCGIs_intersection_with_eNB.L14b
p617
aVtc_346_715_pra_cn_predefined_lrc_optimization_all_list_in_pra_exclude_current_eNB_eCGIs_intersection_with_eNB.L14b
p618
aVtc_77_5_attach_activate2_g_crash.LWG
p619
aVtc_341_532_x2_activity_event_attach_detach_imei.LWG
p620
aVtc_341_940_change_li_c_address.LWG
p621
aVtc_321_120_ms_send_gmm_status_during_attach.LWG
p622
aVtc_103_708_modify_peer_send_DPR.LWG
p623
aVtc_23_09_transfer_to_primary_and_change_vip_addr.LWG
p624
aVtc_60_4_small_restart_during_hlr_reset.LWG
p625
aVtc_81_056_sgsn_modify_downgrade_to_streaming_no_lic.LWG
p626
aVtc_326_213_Intra_TAU_Recovery_multiple_retrieval_responses_with_different_revision_number.LWG
p627
aVtc_324_239_ef_nas_ignore_update_loc_received_wf_modify_bearer_response.LWG
p628
aVtc_342_864_online_change_LI_U.LWG
p629
aVtc_260_070_mbms_session_start_af_gw_resend_request_msg_diff_absolute_time.LWG
p630
aVtc_216_013_icmpv6_inNeighborSol.LWG
p631
aVtc_59_9_mtmsi_restart_counter.LWG
p632
aVtc_298_783_S4_3GDT_downlink_data_notification_wait_MBR_ef_detach.LWG
p633
aVtc_284_351_pdn_connectivity_pb_activate_1_dedicated_bearer_interrupted_by_path_switch_request.LWG
p634
aVtc_12_181_wcdma_repeat_paging_step_60_worker_parks.LWG
p635
aVtc_230_115_sgw_create_bearer_request_s4.LWG
p636
aVtc_179_318_Ccheck_TraceCollectionIpv6server.LWG
p637
aVtc_95_4_load_lkf2.LWG
p638
aVtc_318_155_sgw_restart_af_multi_pdns_relocation_all_fail.LWG
p639
aVtc_322_161_smooth_move_ef_nas_after_paging_response_ignore.WG14a
p640
aVtc_73_40_gtpu_sgsn_send_gpu_echo_request_w.LWG
p641
aVtc_23_13_israu_out.LWG
p642
aVtc_305_040_oms_mmi.LWG
p643
aVtc_220_411_csfb_to_1xrtt_in_ecm_connected_path_switch_request_subscription_cancelled.LWG
p644
aVtc_276_376_Inter_TAU_New_MME__New_TAU_Request_while_waiting_for_tau_complete_new_guti.LWG
p645
aVtc_276_374_Inter_TAU_New_MME__New_TAU_Request_while_waiting_for_Location_Update_Response.LWG
p646
aVtc_205_40_ss7_M3ua.LWG
p647
aVtc_341_940_change_li_c_address.LWG
p648
aVtc_183_005_itc_folder_file_names.LWG
p649
aVtc_219_131_s3_handover_w_to_l_with_cl_two_pdns_one_failed_sgw_relocation.LWG
p650
aVtc_251_010_rau_w_to_g_after_hss_reset_storm.LWG
p651
aVtc_326_245_Intra_TAU_Recovery_TAU_Complete_timeout.LWG
p652
aVtc_357_304_gsm_local_user_reactivate_pdp_intra_rau_ip_area_to_another_ip_area.LWG
p653
aVtc_361_410_s3_handover_l_to_w_s1rh_timeout_without_cl.LWG
p654
aVtc_59_9_mtmsi_restart_counter.LWG
p655
aVtc_342_864_online_change_LI_U.LWG
p656
aVtc_334_290_service_req_relocation_multi_3gdt_ef_iu_release_when_wf_rab_assignment_response.LWG
p657
aVtc_665_55_repeated_cm_restart.LWG
p658
aVtc_12_512_pmm_undefined_attach_when_updating_location_interfered_by_rnc_reset.W14b
p659
aVtc_11_329_serv_req_data_uplink_data_status_new_serv_req_before_rab_ass_resp.W14b
p660
aVtc_321_076_gn_logging_inter_srns_relocation_cancel_source.W14b
p661
aVtc_322_161_smooth_move_ef_nas_after_paging_response_ignore.W14b
p662
aVtc_44_850_mme_assoc_reestablish__board_restart_s1_mme.L14b
p663
aVtc_276_373_Inter_TAU_New_MME__New_TAU_Request_while_waiting_for_Create_Session_Response.L14b
p664
aVtc_346_449_AF__Intra_TAU_CCA_Update_unknown_session_id_5002.L14b
p665
aVtc_326_833_Inter_TAU_Recovery_Old_MME_Unavailable_SGW_Change_active_flag_on_no_modify_bearer_response_two_pdn.L14b
p666
aVtc_194_703_HSS_initiated_ISD_ue_context_modification_failure_s1_intra_system_handover_triggered_sgw_change_create_session_failed.L14b
p667
aVtc_103_704_delete_peer_send_DPR.L14b
p668
aVtc_103_408_diameterConnectionDown_ipv6_alarm.L14b
p669
aVtc_103_1000_modify_diameter_peer_prio.L14b
p670
aVtc_304_102_emergency_intra_tau_success__control_mode_threshold_exceeded.L14b
p671
aVtc_266_026_DownlinkDataFailureInd_repeat_paging_timer_small_local_restart.L14b
p672
aVtc_322_064_smooth_move_ef_detach_request_wf_security_mode_complete.WG14a
p673
aVtc_335_22_wifi_to_mobility_estimate_request_in_ecm_idle_unknown_user.LW
p674
aVtc_79_076_PL_service_request_instead_of_paging_resp_EABln31820.LW
p675
aVtc_342_864_online_change_LI_U.LW
p676
aVtc_275_073_tau_inter_new_no_update_location_response_sgsn00040258.LW
p677
aVtc_295_006_Intra_S1_HO_Attach_request_from_source_eNB_while_wf_handover_notify.LW
p678
aVtc_220_593_csfb_to_1xrtt_context_request_during_extended_service_request.LW
p679
aVtc_304_102_emergency_intra_tau_success__control_mode_threshold_exceeded.LW
p680
aVtc_39_771_mas_rnc_reset_when_wf_ptmsi_realloc_cmpl_source.LW
p681
aVtc_341_609_x2_activity_event_isc_tau_from_gn_sgsn.LW
p682
aVtc_341_604_x2_activity_event_tau_inter_old_sgw_unchanged.LW
p683
aVtc_243_770_tau_from_sgsn_s3_active_flag_true_SGW_unchange_no_2nd_modify_bearer_response.LW
p684
aVtc_263_204_Attach_Flow_Pb__Attach_Request_Same_IEs_while_waiting_for_Attach_Complete.LW
p685
aVtc_326_622_S6a_Throttling_Service_Request_recovery_UL_successful_and_Emergency_Attach_not_throttled.LW
p686
aVtc_326_670_tau_intra_SGW_unavailable_active_flag_off_after_MME_large_restart_main_flow.LW
p687
aVtc_23_09_transfer_to_primary_and_change_vip_addr.LW
p688
aVtc_103_1101_resending_AIR_interfering_CLR.LW
p689
aVtc_103_860_ue_trace_retransmit.LW
p690
aVtc_327_035_recovery_intra_TAU__initial_intra_TAU_Request_while_waiting_for_CSR_due_to_S11_linkdown.LW
p691
aVtc_12_512_pmm_undefined_attach_when_updating_location_interfered_by_rnc_reset.LW
p692
aVtc_322_161_smooth_move_ef_nas_after_paging_response_ignore.LW
p693
aVtc_349_202_Smooth_move__Detach_Req_while_waiting_for_Update_Pdp_Context_Response_after_cause_5003.W14b
p694
aVtc_298_138_EF_NRSPCA_S4_QoS_Modification.W14b
p695
aVtc_304_102_emergency_intra_tau_success__control_mode_threshold_exceeded.LW
p696
aVtc_243_770_tau_from_sgsn_s3_active_flag_true_SGW_unchange_no_2nd_modify_bearer_response.LW
p697
aVtc_195_406_ue_trace_start_meanwhile_handover_required.LW
p698
aVtc_256_014_mme_eps_srvcc_ho_source_cs_only_mf_after_intra_mme_ho.LW
p699
aVtc_194_505_Notification_during_Intra_TAU_without_SGW_Relocation_HSS_Reset_Before_TAU.LW
p700
aVtc_326_223_Intra_TAU_Recovery_fail_Identity_Response_timeout_then_Recover_successful.LW
p701
aVtc_326_263_Intra_TAU_with_unknown_GUTI_Restriction_2_pdn_roaming_restriction_emergency_pdn_recovered.LW
p702
aVtc_326_622_S6a_Throttling_Service_Request_recovery_UL_successful_and_Emergency_Attach_not_throttled.LW
p703
aVtc_103_708_modify_peer_send_DPR.LW
p704
aVtc_103_704_delete_peer_send_DPR.LW
p705
aVtc_103_602_georedundant_realm_routing.LW
p706
aVtc_243_334_tau_from_sgsn_s3_emergency_type_c_ptmsi_sign_mismatch.L14b
p707
aVtc_225_416_recv_service_while_waiting_extended_service_request.L14b
p708
aVtc_295_103_Intra_S1_HO__HSS_Reset_while_waiting_for_Create_Session_Response.L14b
p709
aVtc_304_102_emergency_intra_tau_success__control_mode_threshold_exceeded.L14b
p710
aVtc_327_271_recovery_service_request_MBR_timeout__Gn_Identification_Request_wf_Guti_Reallocation_Complete.L14b
p711
aVtc_266_012_paging_4_dedicated_bearers.LWG
p712
aVtc_73_41_gtpu_sgsn_dont_send_gpu_echo_request_w.LWG
p713
aVtc_342_864_online_change_LI_U.LWG
p714
aVtc_297_407_move_at_periodic_rau.LWG
p715
aVtc_59_12_sequence_on_demand_indexbased_replica_values_during_takeover.LWG
p716
aVtc_59_9_mtmsi_restart_counter.LWG
p717
aVtc_262_084_emergency_imsi_attach_unauthentication_fails_in_hss.LWG
p718
aVtc_294_412_mme_handle_eps_handover_SGW_unavailable_DNS_query_failure.LWG
p719
aVtc_304_236_isc_active_flag_on_control_mode_threshold_exceeded_ignore_replace_s1_wf_initial_context_setup_response.LWG
p720
aVtc_23_09_transfer_to_primary_and_change_vip_addr.LWG
p721
aVtc_232_401_bfd__ipv4_alarm.LWG
p722
aVtc_341_513_x2_activity_event_attached_user_notification_multi_target.LWG
p723
aVtc_341_682_x2_activity_event_handover_inter_s1_new.LWG
p724
aVtc_202_431_mf_seamless_move_target_service_request_modifyBearerReq_onePdnMultiBearer_oneBearerFail.LWG
p725
aVtc_103_708_modify_peer_send_DPR.LWG
p726
aVtc_103_704_delete_peer_send_DPR.LWG
p727
aVtc_357_318_gsm_local_user_reject_intra_ps_handover_ip_area_to_another_ip_area.LWG
p728
aVtc_44_070_sctp_large_message.LWG
p729
aVtc_44_860_mme_assoc_reestablish__sctp_fe_restart_s1_mme.LWG
p730
aVtc_194_505_Notification_during_Intra_TAU_without_SGW_Relocation_HSS_Reset_Before_TAU.LWG
p731
aVtc_56_2_restart.LWG
p732
aVtc_214_503_mt_sms_while_wf_lu_accept.L14b
p733
aVtc_346_703_pra_cn_predefined_lrc_optimization_current_eNB_area_out_of_pra.L14b
p734
aVtc_326_282_Intra_TAU_with_unknown_GUTI_SGW_unavailable_DNS_Query_failure.L14b
p735
aVtc_304_102_emergency_intra_tau_success__control_mode_threshold_exceeded.L14b
p736
aVtc_304_114_initial_ue_intra_tau_control_mode_threshold_exceeded_usc_ignore_replace_s1.L14b
p737
aVtc_266_026_DownlinkDataFailureInd_repeat_paging_timer_small_local_restart.L14b
p738
aVtc_256_254_srvcc_ho_source_cs_only_emergency_mf_after_emergency_attach_authenticated_imsi_mt_lr_slr_handover.L14b
p739
aVtc_202_01_ecm_connected_s1_release.L14b
p740
aVtc_202_18_downlink_data_after_s1_release.L14b
p741
aVtc_97_035_inter_sgsn_psho_mf_with_lawful_intercept.LWG
p742
aVtc_23_09_transfer_to_primary_and_change_vip_addr.LWG
p743
aVtc_204_236_mme_eps_ho__multi_pdn_sgw_relocation__default_bearers_fail_in_eNB.LWG
p744
aVtc_178_690_action_sctp_sys_assoc_move_command.LWG
p745
aVtc_24_69_comb_att_vlr_reset_com_update_new_ra_update_reject.LWG
p746
aVtc_103_1107_fallback_to_imsins_resend_fail_due_to_result_code.LWG
p747
aVtc_103_704_delete_peer_send_DPR.LWG
p748
aVtc_103_860_ue_trace_retransmit.LWG
p749
aVtc_202_17_service_request_during_release_access_bearers.LWG
p750
aVtc_183_005_itc_folder_file_names.LWG
p751
aVtc_316_300_GUTI_Attach_UnKnown_GUTI_In_Pool_Broadcast_Force_Delete_Among_Pool.LWG
p752
aVtc_166_428_rnc_initiated_rab_release_interfered_by_rnc_initiated_iu_release_request.LWG
p753
aVtc_241_431_intra_rau_with_bearer_sgw_unchange_2_pdns_with_one_modify_no_response.LWG
p754
aVtc_226_200_W_S4_Initial_UE_USC_IMSI_Attach_ControlMode_On_Reject_congestion.WG14a
p755
aVtc_273_080_tau_intra_normal_connected_active.LW
p756
aVtc_264_046_MME_Initiated_Detach__UE_ECM_Idle__Detach__Purge__Reattach_Not_Required.LW
p757
aVtc_326_226_Intra_TAU_Recovery_fail_Authentication_Reject_from_HSS.LW
p758
aVtc_103_708_modify_peer_send_DPR.LW
p759
aVtc_103_704_delete_peer_send_DPR.LW
p760
aVtc_327_113_recovery_intra_TAU__Insert_Subscriber_Data_while_waiting_for_Identity_Response.LW
p761
aVtc_327_037_recovery_intra_TAU_active_off_sgw_unchanged__RAR_wf_CSR_due_to_S11_linkdown.LW
p762
aVtc_304_126_initial_ue_intra_tau_ecm_idle_control_mode_threshold_exceeded_usc_detach.LW
p763
aVtc_290_071_Timer_Based_GBR_Deact__identification_request_over_s3_ecm_idle_before_timer_expires.LW
p764
aVtc_23_03_data_record_transfer_to_secondary_bs_after_timeout.LW
p765
aVtc_23_09_transfer_to_primary_and_change_vip_addr.LW
p766
aVtc_31_064_activate_loc_not_confirmed_ul_fails_network_failure.LW
p767
aVtc_27_016_mo_sms_fallback_v2_ok.G14b
p768
aVtc_27_018_mo_sms_fallback_v1_ok.G14b
p769
aVtc_27_021_mo_sms_visiting_ms.G14b
p770
aVtc_27_027_mt_sms_old_cdr_format_r6.G14b
p771
aVtc_230_571_dualstack_activate_ipv6_requested_ipv4v6_subscribed_ipv4v6_dsg_false_spt_ipv6_s4_fallback_to_gn.G14b
p772
aVtc_84_72_provide_subscriber_location_ef_plr_interrupted_by_rau_req.G14b
p773
aVtc_84_82_provide_subscriber_location_ef_paging_interrupted_by_transfer_attach.G14b
p774
aVtc_21_17_gsm_resettimer_release_camel.G14b
p775
aVtc_21_22_gsm_cancel_gprs.G14b
p776
aVtc_21_28_gsm_secondary_pdp.G14b
p777
aVtc_21_31_gsm_release_camel_rejected.G14b
p778
aVtc_21_34_gsm_abort_during_est_ack_MS_detach.G14b
p779
aVtc_21_38_gsm_disconnect_release.G14b
p780
aVtc_21_41_gsm_intra_ra_update_notify.G14b
p781
aVtc_21_49_gsm_FailDialoguesScf.G14b
p782
aVtc_19_49_attach_start_move_intra_rau_move_initiated_attach_req_after_complete_ignored.G14b
p783
aVtc_19_110_activate_gtpv1_ipv4v6_periodic_move_complete_in_target.G14b
p784
aVtc_30_025_rau_ul_fails_operator_determined_barring_when_data_not_confirmed.G14b
p785
aVtc_30_044_rau_ul_fails_semantic_error_when_data_not_confirmed.G14b
p786
aVtc_30_108_rau_ul_fails_access_restriction_same_plmn_when_data_not_confirmed.G14b
p787
aVtc_17_65_inter_rau_new_pdp_context_status_off_in_rau_accept.G14b
p788
aVtc_17_76_intra_rau_hz_no_ggsninfo_no_scdrinfo_to_hz_no_ggsninfo_scdrinfo.G14b
p789
aVtc_340_05_validation_move_g_filter_apn_intrarau_trigger.G14b
p790
aVtc_357_005_gsm_iterator_ipAllocEnabled_modify_to_true_with_ipAddressReset_irrEnabled_true_nrrEnabled_false.G14b
p791
aVtc_357_331_gsm_local_user_intra_rau_normally_between_white_area.G14b
p792
aVtc_11_150_rab_reestablish_on_service_request_data_multiple_contexts.W14b
p793
aVtc_365_01_seq_num_overflow_create_pdp_context_request.W14b
p794
aVtc_12_185_service_request_with_pdp_context_status_inactive_pmmconnected.W14b
p795
aVtc_241_500_israu_new_gn_to_s4_pdp_to_bearer_one_pdp_conversational_mbr_0.W14b
p796
aVtc_324_144_af_rab_assignment_resp_downgrade_qos_dedicated_bearer.W14b
p797
aVtc_250_150_isd_with_odb_init_deactivation.W14b
p798
aVtc_232_403_bfd__ipv4ipv6_alarm.LWG
p799
aVtc_259_93_ef_provide_subscriber_information_service_request_w.LWG
p800
aVtc_204_236_mme_eps_ho__multi_pdn_sgw_relocation__default_bearers_fail_in_eNB.LWG
p801
aVtc_103_704_delete_peer_send_DPR.LWG
p802
aVtc_103_1102_fallback_to_imsins_success.LWG
p803
aVtc_245_301_inter_rau_insert_entry_into_interface_cache.LWG
p804
aVtc_275_073_tau_inter_new_no_update_location_response_sgsn00040258.LWG
p805
aVtc_179_318_Ccheck_TraceCollectionIpv6server.LWG
p806
aVtc_73_21_itc_gtpu_s4_sgsn_send_echo_request_w.LWG
p807
aVtc_287_009_PDN_Disconnect__erab_release_indication_with_bearers_in_multiple_pdn_while_wf_delete_session_response.LWG
p808
aVtc_291_40_action_ue_trace.LWG
p809
aVtc_247_95_inter_w_to_l_old_initial_ue_rau_wf_relocation_cancel_response.LWG
p810
aVtc_298_826_NRSPCA_S4_nsapi_collision_receiving_detach_request_while_waiting_for_delete_bearer_request.LWG
p811
aVtc_298_783_S4_3GDT_downlink_data_notification_wait_MBR_ef_detach.LWG
p812
aVtc_236_175_s4_3gdt_with_dedicated_bearer_service_request_in_pmm_connected.LWG
p813
aVtc_59_9_mtmsi_restart_counter.LWG
p814
aVtc_306_1343_ef_seamless_move_target_receive_Insert_Subscription_Data_TADS_ecm_idle.LWG
p815
aVtc_357_021_gsm_add_target_rai_into_ip_area_when_intra_rau_ongoing.LWG
p816
aVtc_357_312_gsm_national_roaming_user_reactivate_pdp_intra_rau_ip_area_to_non_ip_area.LWG
p817
aVtc_357_307_gsm_international_roaming_user_intra_rau_normally_between_same_ip_area.LWG
p818
aVtc_327_040_recovery_periodic_TAU__gtpv1_identify_request_wf_CSR_due_to_S11_linkdown.LWG
p819
aVtc_250_74_s6d_EF_hss_reset_waiting_delete_session_response.LWG
p820
aVtc_292_101_x2_based_ho_no_sgw_answer.LWG
p821
aVtc_321_120_ms_send_gmm_status_during_attach.LWG
p822
aVtc_324_121_af_service_request_with_data_only_ulr_timeout_3gdt.W14b
p823
aVtc_241_500_israu_new_gn_to_s4_pdp_to_bearer_one_pdp_conversational_mbr_0.W14b
p824
aVtc_298_208_SIBD_S4_Service_Request_PDP_Context_Status_Connect.W14b
p825
aVtc_298_654_pgw_init_modification_mf_3gdt_enable.W14b
p826
aVtc_12_4_attach_ptmsi_signalling_connection_release.W14b
p827
aVtc_327_312_recovery_service_request__initial_Attach_Request_while_waiting_for_Ue_Backup_Response.L14b
p828
aVtc_275_073_tau_inter_new_no_update_location_response_sgsn00040258.L14b
p829
aVtc_103_1101_resending_AIR_interfering_CLR.L14b
p830
aVtc_304_114_initial_ue_intra_tau_control_mode_threshold_exceeded_usc_ignore_replace_s1.L14b
p831
aVtc_304_102_emergency_intra_tau_success__control_mode_threshold_exceeded.L14b
p832
aVtc_295_124_tau_after_ho_tz_change_emm_information_meanwhile_handover_required_HO_success.L14b
p833
aVtc_267_012_Service_Request__Service_Request_while_waiting_for_Modify_Bearer_Response_Dedicated.LW
p834
aVtc_267_554_Service_Request_MBR_timeout__Downlink_Unitdata_wf_UE_Context_Release_Complete.LW
p835
aVtc_43_101__removal_of_disconnected_eNodeBs__CLI_removal.LW
p836
aVtc_245_301_inter_rau_insert_entry_into_interface_cache.LW
p837
aVtc_31_064_activate_loc_not_confirmed_ul_fails_network_failure.LW
p838
aVtc_103_701_MME_restarts.LW
p839
aVtc_103_1101_resending_AIR_interfering_CLR.LW
p840
aVtc_103_704_delete_peer_send_DPR.LW
p841
aVtc_282_020_delete_bearer_request_handover_to_non_3GPP_ecm_connected_multi_pdn.LW
p842
aVtc_326_252_Intra_TAU_Recovery_after_node_restart_then_pool_move.LW
p843
aVtc_220_593_csfb_to_1xrtt_context_request_during_extended_service_request.LW
p844
aVtc_288_230_pgw_init_bearer_mod_QoS_UE_reject_dedicated_cc_neqs_invalid_bearer_one_conn.LW
p845
aVtc_194_081_cl_subscription_withdrawn_during_auth.LW
p846
aVtc_194_506_Notification_during_Intra_MME_TAU_without_SGW_Relocation_Procedure.LW
p847
aVtc_194_084_hss_reset_after_large_restart.LW
p848
aVtc_239_620_inter_rau_new_with_bearer_sgw_not_change_isd_odb_bit0_wf_rau_compl_deactivation.G14b
p849
aVtc_208_43_interception_after_small_restart.G14b
p850
aVtc_43_101__removal_of_disconnected_eNodeBs__CLI_removal.L14b
p851
aVtc_327_317_recovery_service_request__initial_Attach_Request_while_waiting_for_Sub_Procedure__Initial_Context_Setup_Response.L14b
p852
aVtc_304_102_emergency_intra_tau_success__control_mode_threshold_exceeded.L14b
p853
aVtc_103_1101_resending_AIR_interfering_CLR.LW
p854
aVtc_103_708_modify_peer_send_DPR.LW
p855
aVtc_103_704_delete_peer_send_DPR.LW
p856
aVtc_103_901_load_sharing_realm_routing_remote_realm.LW
p857
aVtc_245_127_inter_rau_old_wo_sgw_reloc_wf_Cancel_Location_interfere_by_attach_req.LW
p858
aVtc_304_102_emergency_intra_tau_success__control_mode_threshold_exceeded.LW
p859
aVtc_304_104_intra_tau_success__control_mode_threshold_exceeded.LW
p860
aVtc_341_517_x2_activity_event_hss_initiated_detach.LW
p861
aVtc_44_055_sctp_s1ap_olp__initial_ue_message_rate.LW
p862
aVtc_326_227_Intra_TAU_Recovery_fail_no_Authentication_Vector_from_HSS.LW
p863
aVtc_326_406_Inter_TAU_Recovery_Unkonwn_GUTI__1xrtt_CS_Registration_Then_CSFB_To_1xRTT.LW
p864
aVtc_298_301_EF_SIBD_S4_Activate_From_MS_TI_Flag.LW
p865
aVtc_306_1029_ef_seamless_move_target_handle_initial_tau_request_paging_move_ends_imsi_detach.LWG
p866
aVtc_306_1127_ef_seamless_move_target_receive_detach_request_with_switchoff_wf_ula_with_service_finished.LWG
p867
aVtc_59_9_mtmsi_restart_counter.LWG
p868
aVtc_298_138_EF_NRSPCA_S4_QoS_Modification.LWG
p869
aVtc_208_43_interception_after_small_restart.LWG
p870
aVtc_297_407_move_at_periodic_rau.LWG
p871
aVtc_218_068_tau_from_sgsn_two_pdns_one_apn_not_subscribed_ubr_on_live_pdn_wf_tau_complete.LWG
p872
aVtc_73_39_gtpu_sgsn_send_gnu_echo_request_w.LWG
p873
aVtc_73_41_gtpu_sgsn_dont_send_gpu_echo_request_w.LWG
p874
aVtc_73_43_gtpu_sgsn_turn_off_gnu_echo_request_w.LWG
p875
aVtc_205_71_00_list_ss7_pm_types.LWG
p876
aVtc_236_307_Activation_DtSelMode_5_APN_requested_wrong_SGSN_default_APN_in_APN_list_TAC_in_TAC_list.LWG
p877
aVtc_12_183_wcdma_repeat_paging_with_old_ptmsi_N3313_oldptmsi_0.LWG
p878
aVtc_310_117_af__HO_Cancel_before_Response_from_SGSN_after_Response_from_MSC.LWG
p879
aVtc_310_246_ef__S1_Reset_wf_Delete_Bearer_Request.LWG
p880
aVtc_341_940_change_li_c_address.LWG
p881
aVtc_342_864_online_change_LI_U.LWG
p882
aVtc_293_204_X2_Based_HO__Path_Switch_Request_with_old_TA_MSC_change_while_waiting_for_Location_Update_response.LWG
p883
aVtc_276_375_Inter_TAU_New_MME__New_TAU_Request_while_waiting_for_tau_complete_old_guti.LWG
p884
aVtc_276_373_Inter_TAU_New_MME__New_TAU_Request_while_waiting_for_Create_Session_Response.LWG
p885
aVtc_276_376_Inter_TAU_New_MME__New_TAU_Request_while_waiting_for_tau_complete_new_guti.LWG
p886
aVtc_166_428_rnc_initiated_rab_release_interfered_by_rnc_initiated_iu_release_request.LWG
p887
aVtc_262_079_guti_attach_with_additional_guti_neqs_guti.LWG
p888
aVtc_23_09_transfer_to_primary_and_change_vip_addr.LWG
p889
aVtc_103_701_MME_restarts.LWG
p890
aVtc_103_1101_resending_AIR_interfering_CLR.LWG
p891
aVtc_103_708_modify_peer_send_DPR.LWG
p892
aVtc_103_1100_resending_AIR_dpl_changed.LWG
p893
aVtc_103_704_delete_peer_send_DPR.LWG
p894
aVtc_202_01_ecm_connected_s1_release.LWG
p895
aVtc_216_105_icmpv6_outNeighborAds.LWG
p896
aVtc_204_240_mme_eps_ho_target_without_tz_change.LWG
p897
aVtc_84_71_provide_subscriber_location_ef_paging_interrupted_by_rau_req.LWG
p898
aVtc_250_105_ignore_IDR_when_EPS_sub_downgrade_GPRS_sub.LWG
p899
aVtc_322_161_smooth_move_ef_nas_after_paging_response_ignore.W14b
p900
aVtc_23_10_transfer_to_primary_and_change_vip_addr_from_gn_to_gom.W14b
p901
aVtc_241_733_service_request_wf_modify_bearer_response_interfered_by_activate_pdp_context.W14b
p902
aVtc_236_040_s4_3gdt_detach_during_waiting_for_modify_bearer_rsp_in_service_request_procedure.W14b
p903
a.