(lp0
Vtc_52_58_inter_old_wf_reloc_cancel_response_interrupted_by_iu_release.LWG
p1
aVtc_208_43_interception_after_small_restart.LWG
p2
aVtc_268_040_Timer_Based_GBR_Deact__Receive_DDN_with_known_IMSI_before_Timer_Expires.LWG
p3
aVtc_298_424_ms_init_deact_ef_delicated_non_gbr_bearer_deact_interfered_by_rab_release_request.LWG
p4
aVtc_11_147_rab_reestablish_on_service_request_data_pmm_connected.LWG
p5
aVtc_183_005_itc_folder_file_names.LWG
p6
aVtc_324_427_ef_payload_buffered_wf_sec_different_contextId_selective_service_request_on.LWG
p7
aVtc_23_09_transfer_to_primary_and_change_vip_addr.LWG
p8
aVtc_241_201_s4_sgsn_pool_ms_move_target_sgsn_mf.LWG
p9
aVtc_241_016_intra_rau_with_bearer_sgw_unchange_mf_s4_with_all_fTeid_undefined_service_request_data.LWG
p10
aVtc_241_431_intra_rau_with_bearer_sgw_unchange_2_pdns_with_one_modify_no_response.LWG
p11
aVtc_267_012_Service_Request__Service_Request_while_waiting_for_Modify_Bearer_Response_Dedicated.LWG
p12
aVtc_259_133_ef_provide_subscriber_information_psho_inter_old_g_to_w.LWG
p13
aVtc_194_186_hss_reset_af_two_consecutive_reset_with_full_imsi.LWG
p14
aVtc_194_624_DSD_EF__Receive_DSDR_when_Waiting_for_Delete_Session_Response_during_PDN_Disconnect_Procedure.LWG
p15
aVtc_59_9_mtmsi_restart_counter.LWG
p16
aVtc_341_600_x2_activity_event_tau_event_intra_sgw_unchanged_idle.LWG
p17
aVtc_341_940_change_li_c_address.LWG
p18
aVtc_103_708_modify_peer_send_DPR.LWG
p19
aVtc_103_704_delete_peer_send_DPR.LWG
p20
aVtc_284_351_pdn_connectivity_pb_activate_1_dedicated_bearer_interrupted_by_path_switch_request.LWG
p21
aVtc_342_864_online_change_LI_U.LWG
p22
aVtc_246_061_israu_new_l_to_g_sgw_change_one_pdn_ubr_before_rau_complete_interfered_by_inter_rau_request.LWG
p23
aVtc_289_017_Modify_bearer__ERAB_modify_request_meanwhile_path_switch_request_HO_success.LW
p24
aVtc_324_006_mf_ser_req_signaling_after_ack_3gdt.LW
p25
aVtc_275_073_tau_inter_new_no_update_location_response_sgsn00040258.LW
p26
aVtc_43_101__removal_of_disconnected_eNodeBs__CLI_removal.LW
p27
aVtc_103_1100_resending_AIR_dpl_changed.LW
p28
aVtc_103_708_modify_peer_send_DPR.LW
p29
aVtc_103_1133_sx_resend__CCR_I_diameter_too_busy_no_more_peers_failed_only_realm.LW
p30
aVtc_103_704_delete_peer_send_DPR.LW
p31
aVtc_326_838_Inter_TAU_Recovery_Old_MME_Unavailable_MBR_timeout_followed_by_Service_Request_SGW_unavailable_MBR_timeout.LW
p32
aVtc_322_096_smooth_move_ef_reset_wf_frr_idle.WG14a
p33
aVtc_342_864_online_change_LI_U.W14b
p34
aVtc_241_301_israu_new_create_session_failed_and_paging_timeout.W14b
p35
aVtc_81_071_israu_conversational_no_resources.W14b
p36
aVtc_236_210_W_to_W_Inter_RAU_S4_over_Gn_target_DtSelMode_2_APN_not_in_APN_list_TAC_in_TAC_list.W14b
p37
aVtc_195_416_ue_trace_deactivate_trace_s1_intra_system_handover_triggered.L14b
p38
aVtc_244_602_delete_eslmc.L14b
p39
aVtc_304_122_uplink_nas_intra_tau_control_mode_threshold_exceeded_usc_reject_wf_icsr.L14b
p40
aVtc_304_102_emergency_intra_tau_success__control_mode_threshold_exceeded.L14b
p41
aVtc_304_121_initial_ue_intra_tau_control_mode_threshold_exceeded_usc_detach_wf_release_request_response.L14b
p42
aVtc_266_402_service_request_modify_bearer_no_response_mult_PDN_with_feature_on.L14b
p43
aVtc_44_301_sctp_counter_MessageSent_Received.L14b
p44
aVtc_44_833_mme_assoc_reestablish__local_ep_restart_blocked_s1_setup_from_enodeb_s1_mme.L14b
p45
aVtc_103_024_modify_diameter_peer_switch_peer_numbers.L14b
p46
aVtc_43_040_eNB_configuration_update_mf.L14b
p47
aVtc_284_350_pdn_connectivity_interrupted_by_path_switch_request.LW
p48
aVtc_307_020_HSS_Init_QoS_Modification__MBC_partially_failure_context_not_found.LW
p49
aVtc_341_517_x2_activity_event_hss_initiated_detach.LW
p50
aVtc_341_516_x2_activity_event_mme_initiated_detach_with_reattach_not_required.LW
p51
aVtc_341_802_x2_connection_heartbeat_test_x2_reconnect_due_to_activity_event.LW
p52
aVtc_342_140_update_one_of_two_targets_x2_address.LW
p53
aVtc_327_221_recovery_service_request__Insert_Subscriber_Data_while_waiting_for_Guti_Reallocation_Complete.LW
p54
aVtc_312_240_inter_old_srns_reloc_with_failed_pdn_interrupted_by_delete_bearer_request.LW
p55
aVtc_103_704_delete_peer_send_DPR.LW
p56
aVtc_103_708_modify_peer_send_DPR.LW
p57
aVtc_39_921_ef_seamless_move_interrupted_by_normal_attach.LW
p58
aVtc_275_073_tau_inter_new_no_update_location_response_sgsn00040258.LW
p59
aVtc_38_65_israu_old_sgsn_interfering_after_acknowledge.LW
p60
aVtc_59_9_mtmsi_restart_counter.LWG
p61
aVtc_179_318_Ccheck_TraceCollectionIpv6server.LWG
p62
aVtc_208_43_interception_after_small_restart.LWG
p63
aVtc_284_324_deactivate_2_ded_and_1_ded_in_parallel_ue_detach.LWG
p64
aVtc_284_351_pdn_connectivity_pb_activate_1_dedicated_bearer_interrupted_by_path_switch_request.LWG
p65
aVtc_284_350_pdn_connectivity_interrupted_by_path_switch_request.LWG
p66
aVtc_257_10_pws_etws_write_replace_warning_request_feature_off.LWG
p67
aVtc_276_373_Inter_TAU_New_MME__New_TAU_Request_while_waiting_for_Create_Session_Response.LWG
p68
aVtc_327_544_recovery_service_request__Msc_Reset_while_waiting_for_Location_Update_Response.LWG
p69
aVtc_23_13_israu_out.LWG
p70
aVtc_23_09_transfer_to_primary_and_change_vip_addr.LWG
p71
aVtc_204_901_mme_eps_ho_target_insert_subscriber_data_with_odb_bit0_during_wf_tau_complete.LWG
p72
aVtc_73_41_gtpu_sgsn_dont_send_gpu_echo_request_w.LWG
p73
aVtc_250_182_s6d_inter_new_rau_ul_rejected_roaming_not_allowed_remap_on_with_err_diag.LWG
p74
aVtc_194_084_hss_reset_after_large_restart.LWG
p75
aVtc_194_506_Notification_during_Intra_MME_TAU_without_SGW_Relocation_Procedure.LWG
p76
aVtc_103_708_modify_peer_send_DPR.LWG
p77
aVtc_103_704_delete_peer_send_DPR.LWG
p78
aVtc_103_1100_resending_AIR_dpl_changed.LWG
p79
aVtc_183_005_itc_folder_file_names.LWG
p80
aVtc_166_428_rnc_initiated_rab_release_interfered_by_rnc_initiated_iu_release_request.LWG
p81
aVtc_298_783_S4_3GDT_downlink_data_notification_wait_MBR_ef_detach.W14b
p82
aVtc_322_172_smooth_move_ef_gr_cli_delete_subscriber_data_wf_security_mode_complete.W14b
p83
aVtc_248_419_inter_l_to_w_new_two_pdns_with_target_gw_interface_gp_and_ipv6_user_plan_off.W14b
p84
aVtc_324_083_af_sec_modify_bearer_response_dedicated_bearer_fail.W14b
p85
aVtc_304_102_emergency_intra_tau_success__control_mode_threshold_exceeded.L14b
p86
aVtc_304_236_isc_active_flag_on_control_mode_threshold_exceeded_ignore_replace_s1_wf_initial_context_setup_response.L14b
p87
aVtc_263_321_Attach_Flow__Attach_Request_Different_IEs_IP_OK_while__waiting_for_combined_attach_response.L14b
p88
aVtc_329_803_geored_intra_tau_rs_restricted_after_update_location.L14b
p89
aVtc_202_18_downlink_data_after_s1_release.L14b
p90
aVtc_289_031_Modify_bearer__Downlink_nas_transport_meanwhile_path_switch_request_HO_success.L14b
p91
aVtc_334_176_sgw_restart_af_create_session_with_dedicated_bearer_qos_failed.W14b
p92
aVtc_103_708_modify_peer_send_DPR.LW
p93
aVtc_103_704_delete_peer_send_DPR.LW
p94
aVtc_324_006_mf_ser_req_signaling_after_ack_3gdt.LW
p95
aVtc_39_601_mas_unsucc_fwd_reloc_resp_mandatory_ie_missing_stop_source.LW
p96
aVtc_298_783_S4_3GDT_downlink_data_notification_wait_MBR_ef_detach.LW
p97
aVtc_43_101__removal_of_disconnected_eNodeBs__CLI_removal.LW
p98
aVtc_342_864_online_change_LI_U.LW
p99
aVtc_23_09_transfer_to_primary_and_change_vip_addr.LW
p100
aVtc_326_219_Intra_TAU_Recovery_then_rim_source_mme_gn_sgsn_selection_table_not_matched_dns_query_success.LW
p101
aVtc_326_341_Service_Request_with_unknown_STMSI_backup_data_with_utran_rat.LW
p102
aVtc_280_142_tz_change_create_bearer_intra_tau_active.LW
p103
aVtc_276_373_Inter_TAU_New_MME__New_TAU_Request_while_waiting_for_Create_Session_Response.L14b
p104
aVtc_304_102_emergency_intra_tau_success__control_mode_threshold_exceeded.L14b
p105
aVtc_296_005_ANR_Support__eNodeB_Configuration_Transfer_reply_flow_one_address.L14b
p106
aVtc_347_134_Seamless_Move_Target__DDN_with_imsi_while_waiting_for_CCA_initial.L14b
p107
aVtc_347_250_UE_initiated_detach__location_report_while_waiting_for_delete_session_response_ue_context_release_complete.L14b
p108
aVtc_260_271_receive_sm_start_req_while_wf_setup_iteration.L14b
p109
aVtc_304_102_emergency_intra_tau_success__control_mode_threshold_exceeded.LWG
p110
aVtc_666_03_block_ss7_board.LWG
p111
aVtc_194_506_Notification_during_Intra_MME_TAU_without_SGW_Relocation_Procedure.LWG
p112
aVtc_194_981_sgsn_context_request_during_waiting_location_report__idr_flags_ef.LWG
p113
aVtc_81_111_israu_ggsn_upgrades_to_conv_and_gbr_no_new_resources.LWG
p114
aVtc_73_40_gtpu_sgsn_send_gpu_echo_request_w.LWG
p115
aVtc_341_040_x1_query_time_request.LWG
p116
aVtc_341_670_x2_activity_event_handover_intra_s1.LWG
p117
aVtc_341_801_x2_connection_heartbeat_test_x2_reconnect_due_to_activity_event.LWG
p118
aVtc_28_050_mo_sms_homer_no_block_redirection.LWG
p119
aVtc_318_201_idle_deactivate_dedicated_bearers_one_by_one_reactivate_req.LWG
p120
aVtc_103_708_modify_peer_send_DPR.LWG
p121
aVtc_103_1100_resending_AIR_dpl_changed.LWG
p122
aVtc_103_704_delete_peer_send_DPR.LWG
p123
aVtc_326_844_Geo_Service_Request_node_restart_Modify_Bearer_timeout_rollback_GUTI.LWG
p124
aVtc_44_004_small_restart__sctp_fe_restart.LWG
p125
aVtc_166_132_israu_new_3gdt_apn_not_in_dns.LWG
p126
aVtc_257_17_pws_etws_write_replace_warning_request_rejected_when_olp.LWG
p127
aVtc_179_318_Ccheck_TraceCollectionIpv6server.LWG
p128
aVtc_23_13_israu_out.LWG
p129
aVtc_23_09_transfer_to_primary_and_change_vip_addr.LWG
p130
aVtc_259_53_isd_s4_umts_pmmidl_act_deact_service_req.LWG
p131
aVtc_214_1140_la_selection_mf_oldlapreferred_prau_during_ue_restoration.LWG
p132
aVtc_208_43_interception_after_small_restart.LWG
p133
aVtc_342_864_online_change_LI_U.LWG
p134
aVtc_213_061_nrspca_ms_reject_ril3_decode_error.G14b
p135
aVtc_341_940_change_li_c_address.L14b
p136
aVtc_194_122_cli_get_subscriber_detail.L14b
p137
aVtc_194_505_Notification_during_Intra_TAU_without_SGW_Relocation_HSS_Reset_Before_TAU.L14b
p138
aVtc_194_829_normal_attach_set_odb_data_attach_reject_for_visitor.L14b
p139
aVtc_44_301_sctp_counter_MessageSent_Received.L14b
p140
aVtc_307_031_HSS_Init_QoS_Modification__RFSP_And_QCI_changed_CSFB_Return_by_Intra_TAU.L14b
p141
aVtc_327_034_recovery_intra_TAU__initial_intra_TAU_Request_while_waiting_for_Ue_Backup_Response.L14b
p142
aVtc_327_610_Inter_TAU_SGW_Changed_then_Intra_TAU_while_waiting_for_20s_timeout.L14b
p143
aVtc_204_901_mme_eps_ho_target_insert_subscriber_data_with_odb_bit0_during_wf_tau_complete.L14b
p144
aVtc_103_701_MME_restarts.L14b
p145
aVtc_103_1002_no_loadsharing_different_prio.L14b
p146
aVtc_103_1101_resending_AIR_interfering_CLR.L14b
p147
aVtc_103_1108_attach_resend_of_AIR_successful_last_retry.L14b
p148
aVtc_326_270_Periodic_Intra_TAU_with_unknown_GUTI_then_Service_Request.L14b
p149
aVtc_326_659_tau_intra_periodic_SGW_unavailable_after_MME_large_restart__create_session_fail_reselect_SGW_and_all_fail.L14b
p150
aVtc_195_406_ue_trace_start_meanwhile_handover_required.L14b
p151
aVtc_311_204_intra_srns_reloc_s4_sgw_change_wf_reloc_req_ack_interrupted_by_cancel_loc_subscrip_withdrawn.WG14a
p152
aVtc_298_705_pgw_init_modification_ef_ms_deact_req_tdi_false_ti_dedicated_wf_rab_assignment_response.W14b
p153
aVtc_298_711_pgw_init_modification_ef_update_bearer_request_apn_ambr_in_second_UBR.W14b
p154
aVtc_11_124_activate_pdp_context_iu_release_reject_ggsn_data.W14b
p155
aVtc_316_212_Intra_MME_S1_HO_With_SGW_Change_With_Two_PDN_Connections_Different_APN__Backup_UE.LWG
p156
aVtc_276_374_Inter_TAU_New_MME__New_TAU_Request_while_waiting_for_Location_Update_Response.LWG
p157
aVtc_219_134_s3_handover_w_to_l_relocation_cancel_wf_forward_relocation_response.LWG
p158
aVtc_23_13_israu_out.LWG
p159
aVtc_23_09_transfer_to_primary_and_change_vip_addr.LWG
p160
aVtc_341_102_x1_revoke_target_attached.LWG
p161
aVtc_341_510_x2_activity_event_attach_detach_imsi.LWG
p162
aVtc_341_511_x2_activity_event_attached_user_notification.LWG
p163
aVtc_341_606_x2_activity_event_tau_inter_old_sgw_changed.LWG
p164
aVtc_341_680_x2_activity_event_handover_inter_s1_old.LWG
p165
aVtc_209_26_attach_reject_imsi.LWG
p166
aVtc_326_290_Intra_TAU_with_unknown_GUTI_with_SGW_Change.LWG
p167
aVtc_298_826_NRSPCA_S4_nsapi_collision_receiving_detach_request_while_waiting_for_delete_bearer_request.LWG
p168
aVtc_208_43_interception_after_small_restart.LWG
p169
aVtc_346_585_sx_feature_off_during_inter_tau_active_flag_on_RAR.LWG
p170
aVtc_103_1004_secondary_dpl_used_when_all_peers_in_dpl_unavailable_no_sls.LWG
p171
aVtc_103_708_modify_peer_send_DPR.LWG
p172
aVtc_103_704_delete_peer_send_DPR.LWG
p173
aVtc_236_307_Activation_DtSelMode_5_APN_requested_wrong_SGSN_default_APN_in_APN_list_TAC_in_TAC_list.LWG
p174
aVtc_183_005_itc_folder_file_names.LWG
p175
aVtc_218_054_tau_from_sgsn_ptmsi_signature_mismatch_from_old_sgsn_and_ue_auth_failure.LWG
p176
aVtc_218_110_tau_from_sgsn_equivalent_plmns.LWG
p177
aVtc_165_12_check_resource_alarms_dp.LWG
p178
aVtc_297_407_move_at_periodic_rau.LWG
p179
aVtc_312_250_inter_old_srns_reloc_wf_session_to_complete_interrupted_by_gtpv1_sgsn_context_request.LWG
p180
aVtc_73_41_gtpu_sgsn_dont_send_gpu_echo_request_w.LWG
p181
aVtc_342_864_online_change_LI_U.LWG
p182
aVtc_194_119_cli_list_subscribers.LWG
p183
aVtc_202_434_af_seamless_move_target_service_request_prot_nok_without_ddn.LWG
p184
aVtc_39_771_mas_rnc_reset_when_wf_ptmsi_realloc_cmpl_source.LWG
p185
aVtc_179_318_Ccheck_TraceCollectionIpv6server.LWG
p186
aVtc_341_609_x2_activity_event_isc_tau_from_gn_sgsn.LW
p187
aVtc_341_940_change_li_c_address.LW
p188
aVtc_284_351_pdn_connectivity_pb_activate_1_dedicated_bearer_interrupted_by_path_switch_request.LW
p189
aVtc_324_006_mf_ser_req_signaling_after_ack_3gdt.LW
p190
aVtc_327_028_recovery_intra_TAU___Detach_Request_while_waiting_for_CSR_due_to_S11_linkdown.LW
p191
aVtc_53_56_inter_new_srns_reloc_rab_not_allocated_interrupt_by_reset.LW
p192
aVtc_342_864_online_change_LI_U.LW
p193
aVtc_217_703_rau_to_sgsn_type_a_emergency_not_allowed_interfered_by_ms_detach_when_20s_timeout.LW
p194
aVtc_103_708_modify_peer_send_DPR.LW
p195
aVtc_103_704_delete_peer_send_DPR.LW
p196
aVtc_103_1101_resending_AIR_interfering_CLR.LW
p197
aVtc_276_362_Inter_TAU_New_MME__ISD_with_odb_bit0_interfering_while_waiting_for_tau_complete.LW
p198
aVtc_298_424_ms_init_deact_ef_delicated_non_gbr_bearer_deact_interfered_by_rab_release_request.LW
p199
aVtc_23_13_israu_out.LW
p200
aVtc_326_218_Intra_TAU_Recovery_two_PDN_partial_fail.LW
p201
aVtc_341_650_x2_activity_event_handover_intra_x2.LWG
p202
aVtc_342_864_online_change_LI_U.LWG
p203
aVtc_59_9_mtmsi_restart_counter.LWG
p204
aVtc_178_690_action_sctp_sys_assoc_move_command.LWG
p205
aVtc_103_903_primary_or_secondary_realm_routing_own_realm.LWG
p206
aVtc_103_708_modify_peer_send_DPR.LWG
p207
aVtc_103_704_delete_peer_send_DPR.LWG
p208
aVtc_23_09_transfer_to_primary_and_change_vip_addr.LWG
p209
aVtc_304_121_initial_ue_intra_tau_control_mode_threshold_exceeded_usc_detach_wf_release_request_response.LWG
p210
aVtc_276_376_Inter_TAU_New_MME__New_TAU_Request_while_waiting_for_tau_complete_new_guti.LWG
p211
aVtc_276_373_Inter_TAU_New_MME__New_TAU_Request_while_waiting_for_Create_Session_Response.LWG
p212
aVtc_327_037_recovery_intra_TAU_active_off_sgw_unchanged__RAR_wf_CSR_due_to_S11_linkdown.LWG
p213
aVtc_327_113_recovery_intra_TAU__Insert_Subscriber_Data_while_waiting_for_Identity_Response.LWG
p214
aVtc_298_424_ms_init_deact_ef_delicated_non_gbr_bearer_deact_interfered_by_rab_release_request.LWG
p215
aVtc_297_407_move_at_periodic_rau.LWG
p216
aVtc_334_281_path_failure_service_req_af_multi_pdn_create_session_no_resp.LWG
p217
aVtc_257_21_pws_etws_write_replace_warning_request_with_unknown_tai.LWG
p218
aVtc_257_17_pws_etws_write_replace_warning_request_rejected_when_olp.LWG
p219
aVtc_30_139_hlr_reset_dp_unavailable.G14b
p220
aVtc_239_620_inter_rau_new_with_bearer_sgw_not_change_isd_odb_bit0_wf_rau_compl_deactivation.G14b
p221
aVtc_357_101_wcdma_iterator_caused_by_config_creation_with_ipAddressReset_true_irrEnabled_nrrEnabled_false.W14b
p222
aVtc_248_09_inter_l_to_w_new_3gdt.W14b
p223
aVtc_335_111_Service_Request__GA_change.L14b
p224
aVtc_43_101__removal_of_disconnected_eNodeBs__CLI_removal.L14b
p225
aVtc_43_105__alarm_after_restart.L14b
p226
aVtc_262_084_emergency_imsi_attach_unauthentication_fails_in_hss.L14b
p227
aVtc_262_044_2_imsi_attach_emm_deregistered.L14b
p228
aVtc_195_416_ue_trace_deactivate_trace_s1_intra_system_handover_triggered.L14b
p229
aVtc_220_587_csfb_to_1xrtt_in_extended_service_request_during_attach_waiting_for_modify_bearer_response.L14b
p230
aVtc_202_40_emergency_pdn_ecm_connected.L14b
p231
aVtc_217_062_rau_to_sgsn_create_bearer_request_when_wf_session_response.L14b
p232
aVtc_346_665_pra_cn_predefined_small_restart_after_attach_pdn_and_then_service_request.L14b
p233
aVtc_341_512_x2_activity_event_attached_user_notification_multi_pdn.L14b
p234
aVtc_44_833_mme_assoc_reestablish__local_ep_restart_blocked_s1_setup_from_enodeb_s1_mme.L14b
p235
aVtc_44_840_mme_assoc_reestablish__device_restart_s1_mme.L14b
p236
aVtc_44_850_mme_assoc_reestablish__board_restart_s1_mme.L14b
p237
aVtc_44_860_mme_assoc_reestablish__sctp_fe_restart_s1_mme.L14b
p238
aVtc_44_870_mme_assoc_reestablish__board_block_s1_mme.L14b
p239
aVtc_44_890_mme_assoc_reestablish__service_request_on_reestablished_sctp_association.L14b
p240
aVtc_44_897_mme_assoc_reestablish__emergency_attach.L14b
p241
aVtc_44_898_mme_assoc_reestablish__downlink_data_on_reestablished_sctp_association.L14b
p242
aVtc_310_244_ef__S1_Reset_wf_FR_Complete_PS_to_CS_Complete_received.L14b
p243
aVtc_347_332_Intra_TAU_With_Active_Flag__RAR_while_waiting_MBR.L14b
p244
aVtc_103_1101_resending_AIR_interfering_CLR.L14b
p245
aVtc_231_023_service_reject_umts_authentication_no_response_S4.LW
p246
aVtc_298_826_NRSPCA_S4_nsapi_collision_receiving_detach_request_while_waiting_for_delete_bearer_request.LW
p247
aVtc_341_534_x2_activity_event_attach_reject_cc_12_imei.LW
p248
aVtc_209_180_handover_w_to_l_source_s4_sgsn.LW
p249
aVtc_326_274_Periodic_Intra_TAU_with_unknown_GUTI_old_SGW_unavailable.LW
p250
aVtc_103_800_device_watchdog_request_to_SGSN_MME.LW
p251
aVtc_103_708_modify_peer_send_DPR.LW
p252
aVtc_103_704_delete_peer_send_DPR.LW
p253
aVtc_103_1141_sx_resend__resend_during_inter_mme_handover_2_pdns.LW
p254
aVtc_298_691_S4_3GDT_Service_request_wait_Rab_Assignment_ef_delete_bearer_request.W14b
p255
aVtc_334_107_sgw_restart_mf_restoration_trigger_by_ReleaseAccessBearerResponse.W14b
p256
aVtc_324_371_ef_cancel_location_intialAttach_wf_modify_bearer_response_service_req_data.W14b
p257
aVtc_248_303_inter_l_to_w_new_ms_connected_handover_from_mme.W14b
p258
aVtc_23_17_volume_based_cdr.W14b
p259
aVtc_342_109_set_target_and_modify_target.W14b
p260
aVtc_341_608_x2_activity_event_rau_to_gn_sgsn.L14b
p261
aVtc_326_374_Service_Request_with_unknown_STMSI_Restriction_2_pdn_mmtel_off_emergency_pdn_deleted.L14b
p262
aVtc_304_236_isc_active_flag_on_control_mode_threshold_exceeded_ignore_replace_s1_wf_initial_context_setup_response.L14b
p263
aVtc_287_004_PDN_Disconnect__Handover_Required_while_wf_ERAB_release_command.L14b
p264
aVtc_194_829_normal_attach_set_odb_data_attach_reject_for_visitor.L14b
p265
aVtc_103_1101_resending_AIR_interfering_CLR.L14b
p266
aVtc_44_056_sctp_s1ap_mdholpap.L14b
p267
aVtc_263_020_Attach_Flow__Attach_Request_Different_IEs_IP_OK_while_waiting_for_Delete_Session_Response.L14b
p268
aVtc_103_704_delete_peer_send_DPR.LW
p269
aVtc_23_13_israu_out.LW
p270
aVtc_241_660_intra_rau_with_dedicated_bearer_wait_create_session_response_handle_cbr.LW
p271
aVtc_327_037_recovery_intra_TAU_active_off_sgw_unchanged__RAR_wf_CSR_due_to_S11_linkdown.LW
p272
aVtc_341_515_x2_activity_event_mme_initiated_detach_with_reattach_required.LW
p273
aVtc_341_531_x2_activity_event_emergency_attach_detach_simless_ue_imei.LW
p274
aVtc_202_431_mf_seamless_move_target_service_request_modifyBearerReq_onePdnMultiBearer_oneBearerFail.LW
p275
aVtc_294_063_s1_intra_handover_type_d_with_emergency_pdn_new_plmn_auth_only.LW
p276
aVtc_294_412_mme_handle_eps_handover_SGW_unavailable_DNS_query_failure.LW
p277
aVtc_193_221_replayed_attach_request_allowed.LWG
p278
aVtc_103_1100_resending_AIR_dpl_changed.LWG
p279
aVtc_103_708_modify_peer_send_DPR.LWG
p280
aVtc_103_704_delete_peer_send_DPR.LWG
p281
aVtc_39_601_mas_unsucc_fwd_reloc_resp_mandatory_ie_missing_stop_source.LWG
p282
aVtc_349_108_RAU_new_sgsn__RAU_Req_on_new_iu_while_waiting_for_CCA_initial_transfer.LWG
p283
aVtc_202_320_mf_seamless_move_by_mme_ue_ecm_idle_s1_sel_freq_1.LWG
p284
aVtc_295_114_Intra_S1_HO__Cancel_Location_Update_Procedure_while_waiting_for_modify_bearer_response.LWG
p285
aVtc_204_407_mme_eps_ho_target_type_a_roaming_restriction_same_profile_emc_sup_auth_only.LWG
p286
aVtc_146_006_filter_denyAllPkts_overEth.LWG
p287
aVtc_305_057_oms_mmi_hwm.LWG
p288
aVtc_23_09_transfer_to_primary_and_change_vip_addr.LWG
p289
aVtc_218_312_tau_from_sgsn_preserved_gbr_bearer_2_pdn_buffer_1_ubr_1_dbr.LWG
p290
aVtc_297_407_move_at_periodic_rau.LWG
p291
aVtc_57_3_nonindexed_gauge.LWG
p292
aVtc_165_12_check_resource_alarms_dp.LWG
p293
aVtc_77_5_attach_activate2_g_crash.LWG
p294
aVtc_316_212_Intra_MME_S1_HO_With_SGW_Change_With_Two_PDN_Connections_Different_APN__Backup_UE.LWG
p295
aVtc_59_9_mtmsi_restart_counter.LWG
p296
aVtc_259_53_isd_s4_umts_pmmidl_act_deact_service_req.LWG
p297
aVtc_327_017_recovery_intra_TAU__uplink_Detach_Request_while_waiting_for_Ue_Backup_Response.LWG
p298
aVtc_25_11_activate_ms99_one_primary_two_secondary.LWG
p299
aVtc_324_006_mf_ser_req_signaling_after_ack_3gdt.LWG
p300
aVtc_220_025_csfb_to_1xrtt_ue_suspended_hss_reset.LWG
p301
aVtc_262_1055_imsi_attach_with_csg_id_is_rejected.L14b
p302
aVtc_294_401_intra_s1ho_without_sgw_change_private_extension_of_wi_denied_after_attach.L14b
p303
aVtc_341_601_x2_activity_event_tau_event_intra_sgw_unchanged_connected.L14b
p304
aVtc_197_722_apn_oi_replacement_pdn_connectivity_succ_first_try_apn_oi_replacement_then_try_default_oi_home_routed.L14b
p305
aVtc_327_312_recovery_service_request__initial_Attach_Request_while_waiting_for_Ue_Backup_Response.L14b
p306
aVtc_202_17_service_request_during_release_access_bearers.L14b
p307
aVtc_329_020_attach_rs_allowed_rr_restricted_forbidden_tas.L14b
p308
aVtc_322_161_smooth_move_ef_nas_after_paging_response_ignore.W14b
p309
aVtc_298_440_ms_init_deact_ef_default_bearer_deact_with_rab_interfered_by_dedicate_bearer_deact_request.W14b
p310
aVtc_12_512_pmm_undefined_attach_when_updating_location_interfered_by_rnc_reset.W14b
p311
aVtc_324_325_ef_service_req_signalling_initial_ue_handle_wf_modify_bearer.W14b
p312
aVtc_11_562_iu_release_interrupted_by_isd_with_odb_bit_15_16_17.W14b
p313
aVtc_257_38_pws_etws_stop_warning_request_license_off_when_olp_rshl_false.LWG
p314
aVtc_23_09_transfer_to_primary_and_change_vip_addr.LWG
p315
aVtc_311_03_intra_srns_reloc_s4_two_pdns_with_dedicated_bearer_without_sgw_change.LWG
p316
aVtc_326_201_Intra_TAU_with_unknown_GUTI_with_active_flag.LWG
p317
aVtc_256_176_mme_eps_srvcc_ho_source_cs_only_ue_release_request_wf_srvcc_ps_to_cs_complete_notification.LWG
p318
aVtc_216_012_icmpv6_inNeighborAds.LWG
p319
aVtc_208_43_interception_after_small_restart.LWG
p320
aVtc_324_144_af_rab_assignment_resp_downgrade_qos_dedicated_bearer.LWG
p321
aVtc_219_112_s3_tau_w_to_l_without_cl.LWG
p322
aVtc_334_281_path_failure_service_req_af_multi_pdn_create_session_no_resp.LWG
p323
aVtc_179_318_Ccheck_TraceCollectionIpv6server.LWG
p324
aVtc_260_353_cli_delete_mce_delete_one_while_two_mces_disconnected.LWG
p325
aVtc_305_057_oms_mmi_hwm.LWG
p326
aVtc_239_454_inter_rau_new_wait_for_rau_complete_interfered_by_identification_request.LWG
p327
aVtc_236_039_s4_3gdt_detach_during_waiting_for_modify_bearer_rsp_in_active_procedure.LWG
p328
aVtc_342_864_online_change_LI_U.LWG
p329
aVtc_103_708_modify_peer_send_DPR.LWG
p330
aVtc_103_704_delete_peer_send_DPR.LWG
p331
aVtc_194_505_Notification_during_Intra_TAU_without_SGW_Relocation_HSS_Reset_Before_TAU.LW
p332
aVtc_238_272_mme_eps_irat_ho_s3_tac_based_roaming_restriction_table_matched_whitelist.LW
p333
aVtc_322_024_smooth_move_af_frr_without_moveIndicator.LW
p334
aVtc_304_418_Service_Request_UE_Initiated__control_mode_threshold_exceeded_SR_failed.LW
p335
aVtc_334_156_sgw_restart_mf_dt_and_dedicated_bearer_trigger_by_service_req.LW
p336
aVtc_327_037_recovery_intra_TAU_active_off_sgw_unchanged__RAR_wf_CSR_due_to_S11_linkdown.LW
p337
aVtc_39_601_mas_unsucc_fwd_reloc_resp_mandatory_ie_missing_stop_source.LW
p338
aVtc_347_264_PDN_Connectivity__Location_Report_while_waiting_CSR_CCR_update_sent_for_2_Sx_Session.LW
p339
aVtc_23_09_transfer_to_primary_and_change_vip_addr.LW
p340
aVtc_35_010_sgsn_rejects_ggsn_upgrades_during_israu.G14b
p341
aVtc_357_001_gsm_iterator_caused_by_config_creation_with_ipAddressReset_true_irrEnabled_nrrEnabled_false.G14b
p342
aVtc_208_43_interception_after_small_restart.G14b
p343
aVtc_04_62_no_auth_and_ciph_resp_during_periodic_auth.G14b
p344
aVtc_297_407_move_at_periodic_rau.G14b
p345
aVtc_73_41_gtpu_sgsn_dont_send_gpu_echo_request_w.LWG
p346
aVtc_103_704_delete_peer_send_DPR.LWG
p347
aVtc_195_208_mme_logging_maximum_modify_eps_bearer_context.LWG
p348
aVtc_259_50_isd_tads_s4_w_pmmidle_attach_and_detached.LWG
p349
aVtc_52_59_inter_old_relocation_cancel_radio_connection_lost.LWG
p350
aVtc_666_06_block_rt_board.LWG
p351
aVtc_166_428_rnc_initiated_rab_release_interfered_by_rnc_initiated_iu_release_request.LWG
p352
aVtc_284_351_pdn_connectivity_pb_activate_1_dedicated_bearer_interrupted_by_path_switch_request.LWG
p353
aVtc_205_40_ss7_M3ua.LWG
p354
aVtc_208_43_interception_after_small_restart.LWG
p355
aVtc_23_09_transfer_to_primary_and_change_vip_addr.LWG
p356
aVtc_24_133_msc_pool_ngaf_gs_null_ms_activity_indication.LWG
p357
aVtc_59_9_mtmsi_restart_counter.LWG
p358
aVtc_341_534_x2_activity_event_attach_reject_cc_12_imei.LWG
p359
aVtc_239_402_inter_rau_old_wait_for_context_ack_interfered_by_cancel_location_s4.LWG
p360
aVtc_326_680_tau_intra_SGW_unavailable_active_flag_off_after_MME_large_restart__two_pdn.LWG
p361
aVtc_298_138_EF_NRSPCA_S4_QoS_Modification.LWG
p362
aVtc_298_424_ms_init_deact_ef_delicated_non_gbr_bearer_deact_interfered_by_rab_release_request.LWG
p363
aVtc_298_783_S4_3GDT_downlink_data_notification_wait_MBR_ef_detach.LWG
p364
aVtc_214_1007_la_selection_mf_sms_only.LWG
p365
aVtc_242_605_rau_sgsn_s3_sgw_change_interrupted_by_tranfer_attach_when_wf_timeout.LW
p366
aVtc_202_43_type_d_emergency_pdn_ecm_idle.LW
p367
aVtc_298_783_S4_3GDT_downlink_data_notification_wait_MBR_ef_detach.LW
p368
aVtc_327_265_recovery_service_request_MBR_timeout__ho_to_non_3gpp_wf_Guti_Reallocation_Complete.LW
p369
aVtc_23_09_transfer_to_primary_and_change_vip_addr.LW
p370
aVtc_326_652_tau_intra_periodic_SGW_unavailable_after_MME_large_restart__with_static_SGW.LW
p371
aVtc_304_102_emergency_intra_tau_success__control_mode_threshold_exceeded.LW
p372
aVtc_103_708_modify_peer_send_DPR.LW
p373
aVtc_103_704_delete_peer_send_DPR.LW
p374
aVtc_346_493_Small_Local_Restart__Terminate_when_UE_S1_release.LW
p375
aVtc_256_135_mme_eps_srvcc_ho_source_cs_only_initial_ue_detach_request_wf_srvcc_ps_to_cs_complete_notification.LW
p376
aVtc_166_502_3gdt_based_on_sr_dt_to_non_dt_to_non_dt.WG14a
p377
aVgn_wcdma_payload_no_context_ensure_stored.WG14a
p378
aVtc_194_506_Notification_during_Intra_MME_TAU_without_SGW_Relocation_Procedure.L14b
p379
aVtc_194_508_Notification_during_Intra_TAU_without_SGW_Relocation_HSS_Reset_after_SMC.L14b
p380
aVtc_266_011_DownlinkDataNotification_interfering_ISD_sgsn00026976.L14b
p381
aVtc_274_043_Intra_and_pTAU__Intra_TAU_other_ta_while_waiting_for_Initial_Context_Setup_Response.L14b
p382
aVtc_295_124_tau_after_ho_tz_change_emm_information_meanwhile_handover_required_HO_success.L14b
p383
aVtc_327_012_recovery_intra_TAU__initial_Attach_Request_while_waiting_for_Ue_Backup_Response.L14b
p384
aVtc_304_121_initial_ue_intra_tau_control_mode_threshold_exceeded_usc_detach_wf_release_request_response.L14b
p385
aVtc_304_236_isc_active_flag_on_control_mode_threshold_exceeded_ignore_replace_s1_wf_initial_context_setup_response.L14b
p386
aVtc_346_493_Small_Local_Restart__Terminate_when_UE_S1_release.L14b
p387
aVtc_346_644_pra_cn_predefined_all_list__inter_tau__2pdns_active_flag_off__cca_u_with_rfsp.L14b
p388
aVtc_262_1055_imsi_attach_with_csg_id_is_rejected.L14b
p389
aVtc_298_440_ms_init_deact_ef_default_bearer_deact_with_rab_interfered_by_dedicate_bearer_deact_request.W14b
p390
aVtc_298_826_NRSPCA_S4_nsapi_collision_receiving_detach_request_while_waiting_for_delete_bearer_request.W14b
p391
aVtc_241_1503_intra_rau_with_bearer_sgw_nochange_wf_modify_bearer_response_interfere_by_cancel_location.W14b
p392
aVtc_298_826_NRSPCA_S4_nsapi_collision_receiving_detach_request_while_waiting_for_delete_bearer_request.W14b
p393
aVtc_346_301_Combination__PGW_Selection_UserLocationChange.L14b
p394
aVtc_220_121_csfb_to_1xrtt_with_cs_fallback_triggered_in_ecm_idle_with_gbr_bears.L14b
p395
aVtc_327_022_recovery_intra_TAU__initial_Detach_Request_while_waiting_for_Ue_Backup_Response.L14b
p396
aVtc_292_035_x2_ho_twice_with_sgw_relocation.L14b
p397
aVtc_197_442_pdn_connectivity_table_not_matched_type_a.L14b
p398
aVtc_202_467_af_seamless_move_source_no_FRCN_with_s1_recovery.L14b
p399
aVtc_266_011_DownlinkDataNotification_interfering_ISD_sgsn00026976.L14b
p400
aVtc_276_376_Inter_TAU_New_MME__New_TAU_Request_while_waiting_for_tau_complete_new_guti.L14b
p401
aVtc_103_603_georedundant_modify_diameter_peer.L14b
p402
aVtc_304_102_emergency_intra_tau_success__control_mode_threshold_exceeded.L14b
p403
aVtc_304_312_PDN_connectivity__control_mode_threshold_exceeded_action_reject_while_different_pdn_connectivity_ongoing_wf_nas_default_bearer_activation_accept.L14b
p404
aVtc_245_123_inter_rau_old_s4_sgsn_activated_on_ggsn.LWG
p405
aVtc_179_318_Ccheck_TraceCollectionIpv6server.LWG
p406
aVtc_342_864_online_change_LI_U.LWG
p407
aVtc_327_021_recovery_intra_TAU__uplink_Detach_Request_while_waiting_for_Update_Location_Response.LWG
p408
aVtc_298_424_ms_init_deact_ef_delicated_non_gbr_bearer_deact_interfered_by_rab_release_request.LWG
p409
aVtc_202_388_mf_seamless_move_target_service_request_before_lua_without_ddn.LWG
p410
aVtc_297_407_move_at_periodic_rau.LWG
p411
aVtc_59_9_mtmsi_restart_counter.LWG
p412
aVtc_141_016_eth_conf_vlan_novlan.LWG
p413
aVtc_73_41_gtpu_sgsn_dont_send_gpu_echo_request_w.LWG
p414
aVtc_193_029_auth_failure_non_consecutive_synch_failures.LWG
p415
aVtc_257_35_pws_etws_write_replace_warning_request_when_olp_rshl_false.LWG
p416
aVtc_103_708_modify_peer_send_DPR.LWG
p417
aVtc_103_704_delete_peer_send_DPR.LWG
p418
aVtc_23_09_transfer_to_primary_and_change_vip_addr.LWG
p419
aVtc_208_109_dual_stack_legacy_versions_ipv6.LWG
p420
aVtc_298_424_ms_init_deact_ef_delicated_non_gbr_bearer_deact_interfered_by_rab_release_request.LW
p421
aVtc_23_09_transfer_to_primary_and_change_vip_addr.LW
p422
aVtc_341_513_x2_activity_event_attached_user_notification_multi_target.LW
p423
aVtc_341_940_change_li_c_address.LW
p424
aVtc_204_901_mme_eps_ho_target_insert_subscriber_data_with_odb_bit0_during_wf_tau_complete.LW
p425
aVtc_44_071_attach_long_imsi.LW
p426
aVtc_44_004_small_restart__sctp_fe_restart.LW
p427
aVtc_197_061_s1_handover_sgw_reselection_emc_ims_allpdn_dns_first_sgw_fails.LW
p428
aVtc_195_208_mme_logging_maximum_modify_eps_bearer_context.LW
p429
aVtc_342_125_delete_target_different_connection_three_targets.LW
p430
aVtc_183_005_itc_folder_file_names.LWG
p431
aVtc_259_77_ef_isd_paging_s4_w.LWG
p432
aVtc_23_09_transfer_to_primary_and_change_vip_addr.LWG
p433
aVtc_310_240_ef__S1_Reset_wf_PS_to_CS_Response_and_FR_Response.LWG
p434
aVtc_12_512_pmm_undefined_attach_when_updating_location_interfered_by_rnc_reset.LWG
p435
aVtc_202_431_mf_seamless_move_target_service_request_modifyBearerReq_onePdnMultiBearer_oneBearerFail.LWG
p436
aVtc_73_21_itc_gtpu_s4_sgsn_send_echo_request_w.LWG
p437
aVtc_220_025_csfb_to_1xrtt_ue_suspended_hss_reset.LWG
p438
aVtc_342_864_online_change_LI_U.LWG
p439
aVtc_59_9_mtmsi_restart_counter.LWG
p440
aVtc_103_1155_sx_retransmit__Small_restart_terminate_request.LWG
p441
aVtc_103_704_delete_peer_send_DPR.LWG
p442
aVtc_218_515_tau_from_sgsn_and_rau_to_sgsn_no_pgw_init_add_or_fqdn.LWG
p443
aVtc_39_771_mas_rnc_reset_when_wf_ptmsi_realloc_cmpl_source.LWG
p444
aVtc_298_440_ms_init_deact_ef_default_bearer_deact_with_rab_interfered_by_dedicate_bearer_deact_request.W14b
p445
aVtc_357_101_wcdma_iterator_caused_by_config_creation_with_ipAddressReset_true_irrEnabled_nrrEnabled_false.W14b
p446
aVtc_12_512_pmm_undefined_attach_when_updating_location_interfered_by_rnc_reset.LW
p447
aVtc_26_081_israu_qos_neg_0kbps.LW
p448
aVtc_332_071_mf__cs_paging_during_ps_paging_ps_is_mps_and_cs_is_mps.LW
p449
aVtc_103_708_modify_peer_send_DPR.LW
p450
aVtc_103_704_delete_peer_send_DPR.LW
p451
aVtc_346_385_handover_intra_x2_2PDN_with_bearer_control_mode_sx_only.LW
p452
aVtc_220_411_csfb_to_1xrtt_in_ecm_connected_path_switch_request_subscription_cancelled.LW
p453
aVtc_206_023_ebm_server_connection_failed.LW
p454
aVtc_194_184_hss_reset_ue_activity_s1_ho.LW
p455
aVtc_23_09_transfer_to_primary_and_change_vip_addr.LW
p456
aVtc_44_072_s1ap_mdholpap_counters_attach.L14b
p457
aVtc_44_076_s1ap_mdholpap_counters_detach.L14b
p458
aVtc_44_077_s1ap_mdholpap_counters_x2_handover.L14b
p459
aVtc_268_105_ue_release__cs_paging_wf_release_access_bearer_resp.L14b
p460
aVtc_103_704_delete_peer_send_DPR.L14b
p461
aVtc_103_860_ue_trace_retransmit.L14b
p462
aVtc_103_1006_secondary_dpl_used_when_all_peers_in_dpl_unavailable_no_sls_peers_same_prio.L14b
p463
aVtc_103_1100_resending_AIR_dpl_changed.L14b
p464
aVtc_103_1107_fallback_to_imsins_resend_fail_due_to_result_code.L14b
p465
aVtc_276_374_Inter_TAU_New_MME__New_TAU_Request_while_waiting_for_Location_Update_Response.L14b
p466
aVtc_276_373_Inter_TAU_New_MME__New_TAU_Request_while_waiting_for_Create_Session_Response.L14b
p467
aVtc_194_829_normal_attach_set_odb_data_attach_reject_for_visitor.L14b
p468
aVtc_202_43_type_d_emergency_pdn_ecm_idle.L14b
p469
aVtc_195_554_mme_logging_eps_handover_target_over_gn_inter_relocation_cancel_Request_received.L14b
p470
aVtc_306_001_ef_seamless_move_source_receive_attach_request_wf_frr_ecm_idle.L14b
p471
aVtc_103_708_modify_peer_send_DPR.LWG
p472
aVtc_103_704_delete_peer_send_DPR.LWG
p473
aVtc_103_1100_resending_AIR_dpl_changed.LWG
p474
aVtc_196_014_network_requested_activate_secondary_same_nsapi_when_rab_released.LWG
p475
aVtc_259_93_ef_provide_subscriber_information_service_request_w.LWG
p476
aVtc_263_204_Attach_Flow_Pb__Attach_Request_Same_IEs_while_waiting_for_Attach_Complete.LWG
p477
aVtc_276_374_Inter_TAU_New_MME__New_TAU_Request_while_waiting_for_Location_Update_Response.LWG
p478
aVtc_275_073_tau_inter_new_no_update_location_response_sgsn00040258.LWG
p479
aVtc_341_940_change_li_c_address.LWG
p480
aVtc_326_622_S6a_Throttling_Service_Request_recovery_UL_successful_and_Emergency_Attach_not_throttled.LWG
p481
aVtc_24_84_comb_att_vlr_alert_vlr_reset_periodic_rau_imsi_detach_reattch.LWG
p482
aVtc_183_005_itc_folder_file_names.LWG
p483
aVtc_23_09_transfer_to_primary_and_change_vip_addr.LWG
p484
aVtc_166_300_ggsn_initiated_deactivation_interfered_by_rab_release_request.LWG
p485
aVtc_202_43_type_d_emergency_pdn_ecm_idle.LWG
p486
aVtc_325_104_inter_old_srns_reloc_s4_to_gn_waiting_for_forward_relocation_complete_timeout.LWG
p487
aVtc_12_512_pmm_undefined_attach_when_updating_location_interfered_by_rnc_reset.LWG
p488
aVtc_294_410_mme_handle_eps_handover_SGW_unavailable.LWG
p489
aVtc_59_9_mtmsi_restart_counter.LWG
p490
aVtc_08_021_fragment_gn_gb_packet.LWG
p491
aVtc_62_7_call_warning_timeout.LWG
p492
aVtc_304_102_emergency_intra_tau_success__control_mode_threshold_exceeded.LWG
p493
aVtc_195_416_ue_trace_deactivate_trace_s1_intra_system_handover_triggered.L14b
p494
aVtc_327_012_recovery_intra_TAU__initial_Attach_Request_while_waiting_for_Ue_Backup_Response.L14b
p495
aVtc_327_022_recovery_intra_TAU__initial_Detach_Request_while_waiting_for_Ue_Backup_Response.L14b
p496
aVtc_289_028_Modify_bearer__Downlink_nas_non_delivery_s1_intra_system_handover_triggered.L14b
p497
aVtc_274_443_Intra_TAU_Cancel_Location_while_waiting_for_Create_Session_Response_2PDNs_sgw_unavailable.L14b
p498
aVtc_214_1140_la_selection_mf_oldlapreferred_prau_during_ue_restoration.L14b
p499
aVtc_304_102_emergency_intra_tau_success__control_mode_threshold_exceeded.L14b
p500
aVtc_43_101__removal_of_disconnected_eNodeBs__CLI_removal.L14b
p501
aVtc_341_802_x2_connection_heartbeat_test_x2_reconnect_due_to_activity_event.L14b
p502
aVtc_284_350_pdn_connectivity_interrupted_by_path_switch_request.L14b
p503
aVtc_276_374_Inter_TAU_New_MME__New_TAU_Request_while_waiting_for_Location_Update_Response.L14b
p504
aVtc_202_01_ecm_connected_s1_release.L14b
p505
aVtc_295_124_tau_after_ho_tz_change_emm_information_meanwhile_handover_required_HO_success.L14b
p506
aVtc_275_730_inter_tau_target_detach_with_cause_of_reattach_not_required_with_not_allowed_apn_in_odb_free_apn_list__odb_bit0.L14b
p507
aVtc_302_211_1xrtt_srvcc_ho_failure_status_from_iws_ue_idle.L14b
p508
aVts_336_005_access_request__detach_request_while_waiting_for_eab_wifi_decision_response.L14b
p509
aVtc_262_1031_emergency_imsi_attach_multiple_pgw_try_next_pgw_fqdn_error.L14b
p510
aVtc_342_864_online_change_LI_U.LW
p511
aVtc_26_059_israu_gbr_changed_for_interactive.LW
p512
aVtc_341_801_x2_connection_heartbeat_test_x2_reconnect_due_to_activity_event.LW
p513
aVtc_341_940_change_li_c_address.LW
p514
aVtc_284_350_pdn_connectivity_interrupted_by_path_switch_request.LW
p515
aVtc_262_1055_imsi_attach_with_csg_id_is_rejected.LW
p516
aVtc_361_510_rau_l_to_w_S4SGSN_check_old_qos_failed_node_function_deactivate_pdp_after_rau_on.LW
p517
aVtc_220_033_csfb_to_1xrtt_in_ecm_idle_release_request_before_initial_context_setup_response.LW
p518
aVtc_103_708_modify_peer_send_DPR.LW
p519
aVtc_103_704_delete_peer_send_DPR.LW
p520
aVtc_103_903_primary_or_secondary_realm_routing_own_realm.LW
p521
aVtc_39_601_mas_unsucc_fwd_reloc_resp_mandatory_ie_missing_stop_source.LW
p522
aVtc_39_920_ef_seamless_move_interrupted_by_transferred_attach.LW
p523
aVtc_23_09_transfer_to_primary_and_change_vip_addr.LW
p524
aVtc_298_424_ms_init_deact_ef_delicated_non_gbr_bearer_deact_interfered_by_rab_release_request.LW
p525
aVtc_298_826_NRSPCA_S4_nsapi_collision_receiving_detach_request_while_waiting_for_delete_bearer_request.LW
p526
aVtc_250_77_recv_CLR_initial_attach_waiting_sgsn_context_ack_not_combined_node.W14b
p527
aVtc_298_074_s4_nrspca_activate_same_nsapi_of_dedicated_bearer_apn_failed.W14b
p528
aVtc_262_1031_emergency_imsi_attach_multiple_pgw_try_next_pgw_fqdn_error.L14b
p529
aVtc_266_026_DownlinkDataFailureInd_repeat_paging_timer_small_local_restart.L14b
p530
aVtc_283_041_GW_Deactivate_Bearer__Default_bearer_Delete_Interrupt_Dedicated_Bearer_Delete_NotLastPdn_wf_ics_resp.L14b
p531
aVtc_327_108_recovery_intra_TAU_emergency__Cancel_Location_subscription_withdrawal_while_waiting_for_Modify_Bearer_Response.L14b
p532
aVtc_304_102_emergency_intra_tau_success__control_mode_threshold_exceeded.L14b
p533
aVtc_304_236_isc_active_flag_on_control_mode_threshold_exceeded_ignore_replace_s1_wf_initial_context_setup_response.L14b
p534
aVtc_44_301_sctp_counter_MessageSent_Received.L14b
p535
aVtc_194_506_Notification_during_Intra_MME_TAU_without_SGW_Relocation_Procedure.L14b
p536
aVtc_297_407_move_at_periodic_rau.G14b
p537
aVtc_342_150_pmm_idle_one_pdp_source.W14b
p538
aVtc_298_440_ms_init_deact_ef_default_bearer_deact_with_rab_interfered_by_dedicate_bearer_deact_request.W14b
p539
aVtc_294_410_mme_handle_eps_handover_SGW_unavailable.LW
p540
aVtc_194_961_handover_required_during_waiting_for_location_report__idr_flags_ef.LW
p541
aVtc_23_09_transfer_to_primary_and_change_vip_addr.LW
p542
aVtc_220_411_csfb_to_1xrtt_in_ecm_connected_path_switch_request_subscription_cancelled.LW
p543
aVtc_326_673_tau_intra_SGW_unavailable_active_flag_off_after_MME_large_restart__with_unavailable_SGW_as_static_SGW.LW
p544
aVtc_324_239_ef_nas_ignore_update_loc_received_wf_modify_bearer_response.LW
p545
aVtc_211_024_streamed_cell_trace_mapping_alarm_ipv6.LW
p546
aVtc_276_375_Inter_TAU_New_MME__New_TAU_Request_while_waiting_for_tau_complete_old_guti.LW
p547
aVtc_44_071_attach_long_imsi.LW
p548
aVtc_39_601_mas_unsucc_fwd_reloc_resp_mandatory_ie_missing_stop_source.LW
p549
aVtc_284_350_pdn_connectivity_interrupted_by_path_switch_request.LW
p550
aVtc_298_783_S4_3GDT_downlink_data_notification_wait_MBR_ef_detach.LW
p551
aVtc_357_319_gsm_local_user_reject_intra_ps_handover_non_ip_area_to_ip_area.WG14a
p552
aVtc_230_112_isd_vplmn_not_allowed_during_ms_init_deactivation_EF_s4.LWG
p553
aVtc_220_026_csfb_to_1xrtt_in_ecm_connected_no_ue_context_modification_response.LWG
p554
aVtc_666_06_block_rt_board.LWG
p555
aVtc_15_115_inter_old_sgsn_interupted_by_returning_ms.LWG
p556
aVtc_259_50_isd_tads_s4_w_pmmidle_attach_and_detached.LWG
p557
aVtc_259_116_ef_s6d_tads_interfere_inter_rau_old_w.LWG
p558
aVtc_73_40_gtpu_sgsn_send_gpu_echo_request_w.LWG
p559
aVtc_103_1120_attach_ula_dia_unable_to_deliver.LWG
p560
aVtc_103_708_modify_peer_send_DPR.LWG
p561
aVtc_103_704_delete_peer_send_DPR.LWG
p562
aVtc_103_702_CEA_timeout.LWG
p563
aVtc_204_200_mme_eps_ho_target__multi_pdn_sgw_relocation__setup_fails.LWG
p564
aVtc_204_1100_mme_eps_ho_target_emergency_type_a__Cancel_Location_from_HSS_while_wf_modify_bearer_response.LWG
p565
aVtc_324_329_ef_service_req_data_direct_transfer_different_pdp.LWG
p566
aVtc_306_1005_ef_seamless_move_target_handle_ddn_wf_icsr.LWG
p567
aVtc_665_55_repeated_cm_restart.LWG
p568
aVtc_665_56_repeated_cm_restart.LWG
p569
aVtc_309_009_piu_state_notifications.LWG
p570
aVtc_110_005_inbound_outbound_pf_rule_cli_ip.LWG
p571
aVtc_183_005_itc_folder_file_names.LWG
p572
aVtc_326_281_Intra_TAU_combined_type_with_unknown_GUTI_SGW_unavailable.LWG
p573
aVtc_326_267_Intra_TAU_with_unknown_GUTI_Restriction_2_pdn_SAU_license_limit_reached.LWG
p574
aVtc_326_622_S6a_Throttling_Service_Request_recovery_UL_successful_and_Emergency_Attach_not_throttled.LWG
p575
aVtc_318_006_pgw_restart_notification_mf_one_of_pdns_reactivate.LWG
p576
aVtc_341_609_x2_activity_event_isc_tau_from_gn_sgsn.LWG
p577
aVtc_236_100_s4_3gdt_based_on_sr_dt_to_non_dt_to_dt.LWG
p578
aVtc_214_822_SGW_unavailable_Combined_Attach_mt_sms.LWG
p579
aVtc_56_10_cm_restart_during_SR.LWG
p580
aVtc_298_424_ms_init_deact_ef_delicated_non_gbr_bearer_deact_interfered_by_rab_release_request.LWG
p581
aVtc_327_215_recovery_service_request__HSS_Reset_while_waiting_for_Create_Session_Response.LWG
p582
aVtc_327_352_recovery_service_request__initial_intra_TAU_while_waiting_for_Ue_Backup_Response.LWG
p583
aVtc_275_073_tau_inter_new_no_update_location_response_sgsn00040258.LWG
p584
aVtc_309_009_piu_state_notifications.LWG
p585
aVtc_273_083_tau_intra_normal_connected_active_false_ul_nas.LWG
p586
aVtc_103_708_modify_peer_send_DPR.LWG
p587
aVtc_666_06_block_rt_board.LWG
p588
aVtc_342_864_online_change_LI_U.LWG
p589
aVtc_220_052_csfb_to_1xrtt_emergency_with_CSG_ID.LWG
p590
aVtc_665_55_repeated_cm_restart.LWG
p591
aVtc_665_56_repeated_cm_restart.LWG
p592
aVtc_175_007_activate_interrupted_by_suspend_before_create_ack.LWG
p593
aVtc_244_055_mt_lr_cancel_location_with_update_procedure_received_wf_location_report.LWG
p594
aVtc_23_13_israu_out.LWG
p595
aVtc_214_820_SGW_unavailable_Combined_Inter_TAU.LWG
p596
aVtc_59_9_mtmsi_restart_counter.LWG
p597
aVtc_319_089_static_selection_on_emergency_profile_with_apn_only.LWG
p598
aVtc_204_454_mme_eps_ho_target_type_d_emc_same_plmn_unauth_emc_not_supported.LWG
p599
aVtc_329_804_geored_intra_tau_rs_restricted_emergency_allowed.LWG
p600
aVtc_322_028_smooth_move_af_no_security_mode_complete.LWG
p601
aVtc_275_073_tau_inter_new_no_update_location_response_sgsn00040258.LWG
p602
aVtc_326_203_Intra_TAU_after_node_restart_with_two_retrieval_responses_with_SGW_change_with_emergency_PDN.LWG
p603
aVtc_217_850_rau_to_sgsn_and_tau_back_to_mme_check_detach_register_table.L14b
p604
aVtc_009_001_attach_after_restart.L14b
p605
aVtc_341_517_x2_activity_event_hss_initiated_detach.L14b
p606
aVtc_262_1055_imsi_attach_with_csg_id_is_rejected.L14b
p607
aVtc_290_041_Timer_Based_GBR_Deact__erab_release_indication_wf_ue_context_release_complete_before_timer_expires.L14b
p608
aVtc_194_506_Notification_during_Intra_MME_TAU_without_SGW_Relocation_Procedure.L14b
p609
aVtc_327_317_recovery_service_request__initial_Attach_Request_while_waiting_for_Sub_Procedure__Initial_Context_Setup_Response.L14b
p610
aVtc_103_1145_sx_resend__CCR_U_retransmit_but_no_resending.L14b
p611
aVtc_341_940_change_li_c_address.LW
p612
aVtc_276_373_Inter_TAU_New_MME__New_TAU_Request_while_waiting_for_Create_Session_Response.LW
p613
aVtc_12_512_pmm_undefined_attach_when_updating_location_interfered_by_rnc_reset.LW
p614
aVtc_262_084_emergency_imsi_attach_unauthentication_fails_in_hss.LW
p615
aVtc_342_864_online_change_LI_U.LW
p616
aVtc_39_601_mas_unsucc_fwd_reloc_resp_mandatory_ie_missing_stop_source.LW
p617
aVtc_103_1004_secondary_dpl_used_when_all_peers_in_dpl_unavailable_no_sls.LW
p618
aVtc_248_128_inter_l_to_w_new_rau_request_intial_ue_received_wf_update_location_resp.W14b
p619
aVtc_357_101_wcdma_iterator_caused_by_config_creation_with_ipAddressReset_true_irrEnabled_nrrEnabled_false.W14b
p620
aVtc_298_783_S4_3GDT_downlink_data_notification_wait_MBR_ef_detach.LW
p621
aVtc_202_467_af_seamless_move_source_no_FRCN_with_s1_recovery.LW
p622
aVtc_194_506_Notification_during_Intra_MME_TAU_without_SGW_Relocation_Procedure.LW
p623
aVtc_262_084_emergency_imsi_attach_unauthentication_fails_in_hss.LW
p624
aVtc_103_708_modify_peer_send_DPR.LW
p625
aVtc_306_1021_ef_seamless_move_target_ignore_tau_request_uplink.LW
p626
aVtc_11_434_one_PDP_context_deactivating_one_acitve_interference_by_rab_release_request.LW
p627
aVtc_220_411_csfb_to_1xrtt_in_ecm_connected_path_switch_request_subscription_cancelled.LW
p628
aVtc_347_130_Seamless_Move_Target__Extended_Service_Request_while_waiting_for_CCA_initial.LW
p629
aVtc_578_33_check_ebm_para_statistics_enb_sn.LW
p630
aVtc_578_32_check_ebm_para_statistics_ue_return_duration.LW
p631
aVtc_341_532_x2_activity_event_attach_detach_imei.LW
p632
aVtc_23_09_transfer_to_primary_and_change_vip_addr.LW
p633
aVtc_327_037_recovery_intra_TAU_active_off_sgw_unchanged__RAR_wf_CSR_due_to_S11_linkdown.LW
p634
aVtc_327_262_recovery_service_request_MBR_timeout__Create_Bearer_Request_wf_Guti_Reallocation_Complete.LW
p635
aVtc_357_410_wcdma_national_roaming_user_reject_intra_rau_ip_area_to_another_irr_nrr_ip_area.WG14a
p636
aVtc_297_407_move_at_periodic_rau.G14b
p637
aVtc_220_508_csfb_to_1xrtt_in_ecm_idle_service_request_wf_ue_context_release_complete.L14b
p638
aVtc_103_704_delete_peer_send_DPR.L14b
p639
aVtc_103_1101_resending_AIR_interfering_CLR.L14b
p640
aVtc_304_020_intruder_imsi_attach_when_correct_ue_attaching__control_mode_threshold_exceeded_usc_reject_congestion.L14b
p641
aVtc_304_472_uplink_nas_csfb_to_wg_control_mode_threshold_exceeded_usc_ignore_in_ecm_connected_wf_icsr.L14b
p642
aVtc_194_829_normal_attach_set_odb_data_attach_reject_for_visitor.L14b
p643
aVtc_202_102_small_restart.L14b
p644
aVtc_358_002_lte_iterator_ipAddressReset_modify_to_true_while_all_pdns_already_in_target_area.L14b
p645
aVtc_273_644_tau_intra_SGW_unavailable_active_flag_off__create_session_partition_fail.L14b
p646
aVtc_262_1031_emergency_imsi_attach_multiple_pgw_try_next_pgw_fqdn_error.L14b
p647
aVtc_288_217_pgw_init_bearer_mod_QoS_bearers_from_different_pdn_conns_ecm_connected.L14b
p648
aVtc_357_101_wcdma_iterator_caused_by_config_creation_with_ipAddressReset_true_irrEnabled_nrrEnabled_false.W14b
p649
aVtc_256_175_mme_eps_srvcc_ho_source_cs_only_ue_release_request_wf_srvcc_ps_to_cs_response.LWG
p650
aVtc_264_080_MME_Initiated_Detach__UE_ECM_Idle__Paging_Failed_due_to_OLP.LWG
p651
aVtc_183_005_itc_folder_file_names.LWG
p652
aVtc_342_864_online_change_LI_U.LWG
p653
aVtc_275_073_tau_inter_new_no_update_location_response_sgsn00040258.LWG
p654
aVtc_220_411_csfb_to_1xrtt_in_ecm_connected_path_switch_request_subscription_cancelled.LWG
p655
aVtc_334_107_sgw_restart_mf_restoration_trigger_by_ReleaseAccessBearerResponse.LWG
p656
aVtc_205_71_01_ss7_SCCP_CR_DT1_RLSD.LWG
p657
aVtc_202_40_emergency_pdn_ecm_connected.LWG
p658
aVtc_208_43_interception_after_small_restart.LWG
p659
aVtc_208_44_attach_detach_imsi_ap_takeover.LWG
p660
aVtc_665_55_repeated_cm_restart.LWG
p661
aVtc_665_56_repeated_cm_restart.LWG
p662
aVtc_326_252_Intra_TAU_Recovery_after_node_restart_then_pool_move.LWG
p663
aVtc_309_009_piu_state_notifications.LWG
p664
aVtc_318_106_sgw_restart_mf_multi_ues.LWG
p665
aVtc_166_451_rab_release_interfered_by_detach.LWG
p666
aVtc_294_335_mme_handle_eps_handover_with_tla_mismatch0.LWG
p667
aVtc_666_06_block_rt_board.LWG
p668
aVtc_23_09_transfer_to_primary_and_change_vip_addr.LWG
p669
aVtc_179_318_Ccheck_TraceCollectionIpv6server.LWG
p670
aVtc_103_708_modify_peer_send_DPR.LWG
p671
aVtc_103_704_delete_peer_send_DPR.LWG
p672
aVtc_103_1100_resending_AIR_dpl_changed.LWG
p673
aVtc_103_702_CEA_timeout.LWG
p674
aVtc_103_1155_sx_retransmit__Small_restart_terminate_request.LWG
p675
aVtc_218_088_tau_from_sgsn_imei_check_no_imeisv_in_smc.LWG
p676
aVtc_265_102_Detach_Flow_NW_init__Reattach_Required_Attach_Request_while_waiting_for_Context_Release_Complete.LWG
p677
aVtc_59_9_mtmsi_restart_counter.LWG
p678
aVtc_73_41_gtpu_sgsn_dont_send_gpu_echo_request_w.LWG
p679
aVtc_214_1099_la_selection_mf_reselection_combined_tau_with_imsi_attach_after_mme_triggered_imsi_detach_when_handling_sgs_paging.LWG
p680
aVtc_219_131_s3_handover_w_to_l_with_cl_two_pdns_one_failed_sgw_relocation.LWG
p681
aVtc_284_350_pdn_connectivity_interrupted_by_path_switch_request.LWG
p682
aVtc_12_512_pmm_undefined_attach_when_updating_location_interfered_by_rnc_reset.W14b
p683
aVtc_248_122_inter_l_to_w_new_detach_request_direct_transfer_received_wf_forward_relocation_complete_ack.W14b
p684
aVtc_262_084_emergency_imsi_attach_unauthentication_fails_in_hss.LW
p685
aVtc_23_43_data_record_transfer_to_primary_secondary_primary_bs_after_failure.LW
p686
aVtc_23_09_transfer_to_primary_and_change_vip_addr.LW
p687
aVtc_318_201_idle_deactivate_dedicated_bearers_one_by_one_reactivate_req.LW
p688
aVtc_304_102_emergency_intra_tau_success__control_mode_threshold_exceeded.LW
p689
aVtc_298_826_NRSPCA_S4_nsapi_collision_receiving_detach_request_while_waiting_for_delete_bearer_request.LW
p690
aVtc_268_028_UE_Release_Flow__S1_Reset_while_wf_Release_Access_Bearers_Response_followed_by_Extended_Service_Request.LW
p691
aVtc_101_021_mbms_session_streaming.LW
p692
aVtc_241_405_israu_new_with_16m_flag_allowed_in_context_response_and_epc_cap_in_rau_req_transfer_to_new_tcw.LW
p693
aVtc_275_073_tau_inter_new_no_update_location_response_sgsn00040258.LW
p694
aVtc_304_114_initial_ue_intra_tau_control_mode_threshold_exceeded_usc_ignore_replace_s1.L14b
p695
aVtc_304_121_initial_ue_intra_tau_control_mode_threshold_exceeded_usc_detach_wf_release_request_response.L14b
p696
aVtc_103_603_georedundant_modify_diameter_peer.L14b
p697
aVtc_103_1101_resending_AIR_interfering_CLR.L14b
p698
aVtc_318_133_sgw_restart_mf_relocation_triggered_by_intra_tau_multi_pdn.L14b
p699
aVtc_217_053_rau_to_sgsn_service_request_when_wf_20s_timeout.L14b
p700
aVtc_295_124_tau_after_ho_tz_change_emm_information_meanwhile_handover_required_HO_success.L14b
p701
aVtc_306_1034_ef_seamless_move_target_handle_initial_tau_request_sr_ongoing_wf_mbr_move_going.L14b
p702
aVtc_327_037_recovery_intra_TAU_active_off_sgw_unchanged__RAR_wf_CSR_due_to_S11_linkdown.L14b
p703
aVtc_44_004_small_restart__sctp_fe_restart.LWG
p704
aVtc_76_007_ms_init_deactivation_tdi_ggsn_deactivate_same_nsapi.LWG
p705
aVtc_179_318_Ccheck_TraceCollectionIpv6server.LWG
p706
aVtc_202_362_mf_seamless_move_by_ue_5_subscribers_2_target_mmes.LWG
p707
aVtc_241_431_intra_rau_with_bearer_sgw_unchange_2_pdns_with_one_modify_no_response.LWG
p708
aVtc_278_2000_5_Inter_TAU_Old_MME__Fwd_Reloc_Req_wf_session_response_SGW_Changed.LWG
p709
aVtc_196_116_nrspca_with_limit_of_pdp_context_is_exceeded_uplink.LWG
p710
aVtc_309_009_piu_state_notifications.LWG
p711
aVtc_11_399_activation_with_same_NSAPI_interrupted_by_detach.LWG
p712
aVtc_216_013_icmpv6_inNeighborSol.LWG
p713
aVtc_665_55_repeated_cm_restart.LWG
p714
aVtc_665_56_repeated_cm_restart.LWG
p715
aVtc_220_403_csfb_to_1xrtt_in_ecm_connected_path_switch_request_HO_success.LWG
p716
aVtc_316_203_IMSI_Attach_Emergency_Authentication_Fail__Backup_UE.LWG
p717
aVtc_210_100_pdn_connectivity_erab_setup_failure_response_from_enodeb.LWG
p718
aVtc_103_708_modify_peer_send_DPR.LWG
p719
aVtc_103_704_delete_peer_send_DPR.LWG
p720
aVtc_103_860_ue_trace_retransmit.LWG
p721
aVtc_60_4_small_restart_during_hlr_reset.LWG
p722
aVtc_208_43_interception_after_small_restart.LWG
p723
aVtc_225_116_mo_call_emergency_active_mode_ho_not_supported_with_msc_unchange.LWG
p724
aVtc_219_163_attach_w_to_l_gn_sgsn.LWG
p725
aVtc_666_06_block_rt_board.LWG
p726
aVtc_183_005_itc_folder_file_names.LWG
p727
aVtc_324_328_ef_service_req_data_direct_transfer_ingore_wf_update_location.W14b
p728
aVtc_311_204_intra_srns_reloc_s4_sgw_change_wf_reloc_req_ack_interrupted_by_cancel_loc_subscrip_withdrawn.W14b
p729
aVtc_209_42_inter_srns_new_sgsn_imei.W14b
p730
aVtc_241_734_service_request_wf_modify_bearer_response_interfered_by_deactivate_pdp_context.W14b
p731
aVtc_266_026_DownlinkDataFailureInd_repeat_paging_timer_small_local_restart.L14b
p732
aVtc_220_021_csfb_to_1xrtt_ue_suspended_delete_bearer_request_not_last_pdn_connection.L14b
p733
aVtc_327_037_recovery_intra_TAU_active_off_sgw_unchanged__RAR_wf_CSR_due_to_S11_linkdown.L14b
p734
aVtc_327_211_recovery_service_request_emergency__Cancel_Location_subscription_withdrawal_while_waiting_for_Guti_Reallocation_Complete.L14b
p735
aVtc_310_116_af__HO_Cancel_before_Response_from_MSC_after_Response_from_SGSN.L14b
p736
aVtc_310_101_af__srvcc_off_ps_ho_on.L14b
p737
aVtc_202_41_type_a_emergency_pdn_ecm_idle.L14b
p738
aVtc_202_102_small_restart.L14b
p739
aVtc_194_505_Notification_during_Intra_TAU_without_SGW_Relocation_HSS_Reset_Before_TAU.L14b
p740
aVtc_44_301_sctp_counter_MessageSent_Received.L14b
p741
aVtc_44_850_mme_assoc_reestablish__board_restart_s1_mme.L14b
p742
aVtc_217_850_rau_to_sgsn_and_tau_back_to_mme_check_detach_register_table.L14b
p743
aVtc_304_114_initial_ue_intra_tau_control_mode_threshold_exceeded_usc_ignore_replace_s1.L14b
p744
aVtc_304_102_emergency_intra_tau_success__control_mode_threshold_exceeded.L14b
p745
aVtc_357_101_wcdma_iterator_caused_by_config_creation_with_ipAddressReset_true_irrEnabled_nrrEnabled_false.WG14a
p746
aVtc_327_027_recovery_intra_TAU___Attach_Request_while_waiting_for_CSR_due_to_S11_linkdown.LW
p747
aVtc_327_228_recovery_service_request__Delete_Subscriber_Data_while_waiting_for_Location_Update_Response.LW
p748
aVtc_361_510_rau_l_to_w_S4SGSN_check_old_qos_failed_node_function_deactivate_pdp_after_rau_on.LW
p749
aVtc_334_292_service_req_relocation_rab_release_request_3gdt_when_wf_create_session_resp.LW
p750
aVtc_225_115_mo_call_emergency_active_mode_ho_not_supported_with_msc_change.LW
p751
aVtc_225_116_mo_call_emergency_active_mode_ho_not_supported_with_msc_unchange.LW
p752
aVtc_225_119_mo_call_active_mode_ho_not_supported_with_msc_change_ps_not_available.LW
p753
aVtc_194_078_cl_update_procedure_during_ul.LW
p754
aVtc_194_081_cl_subscription_withdrawn_during_auth.LW
p755
aVtc_103_1101_resending_AIR_interfering_CLR.LW
p756
aVtc_103_704_delete_peer_send_DPR.LW
p757
aVtc_578_02_check_parse_ebm_and_ci_eci_w.LW
p758
aVtc_578_02_check_parse_ebm_and_ci_eci_l.LW
p759
aVtc_322_055_smooth_move_ef_attach_request_wf_ptmsi_reallocation_complete_old_ptmsi.LW
p760
aVtc_220_411_csfb_to_1xrtt_in_ecm_connected_path_switch_request_subscription_cancelled.LWG
p761
aVtc_194_100_check_gauge_unstable_not_parked.LWG
p762
aVtc_298_826_NRSPCA_S4_nsapi_collision_receiving_detach_request_while_waiting_for_delete_bearer_request.LWG
p763
aVtc_298_689_S4_3GDT_Service_request_wait_MBR_ef_delete_bearer_request.LWG
p764
aVtc_327_037_recovery_intra_TAU_active_off_sgw_unchanged__RAR_wf_CSR_due_to_S11_linkdown.LWG
p765
aVtc_291_40_action_ue_trace.LWG
p766
aVtc_289_070_GW_Init_Bearer_Modification_Flow_two_CBR_one_UBR_while_wf_modify_eps_bearer_context_accept.LWG
p767
aVtc_665_21_lr_then_gain.LWG
p768
aVtc_665_55_repeated_cm_restart.LWG
p769
aVtc_665_56_repeated_cm_restart.LWG
p770
aVtc_334_178_sgw_restart_af_create_session_with_default_bearer_failed_idle.LWG
p771
aVtc_281_027_Activate_bearer__ERAB_setup_response_s1_intra_system_handover_triggered_two_pdn_uninvolved_default_bearer_fail.LWG
p772
aVtc_243_532_tau_from_sgsn_s3_active_flag_false_dl_data_notification_wf_tau_complete.LWG
p773
aVtc_179_318_Ccheck_TraceCollectionIpv6server.LWG
p774
aVtc_666_06_block_rt_board.LWG
p775
aVtc_214_1126_la_selection_mf_oldlapreferred_combined_intra_tau_after_imsi_detach_triggered_by_sgs_paging.LWG
p776
aVtc_241_432_intra_rau_with_bearer_sgw_unchange_2_pdns_3gdt.LWG
p777
aVtc_225_119_mo_call_active_mode_ho_not_supported_with_msc_change_ps_not_available.LWG
p778
aVtc_578_32_check_ebm_para_statistics_ue_return_duration.LWG
p779
aVtc_259_116_ef_s6d_tads_interfere_inter_rau_old_w.LWG
p780
aVtc_103_708_modify_peer_send_DPR.LWG
p781
aVtc_103_704_delete_peer_send_DPR.LWG
p782
aVtc_309_009_piu_state_notifications.LWG
p783
aVtc_73_41_gtpu_sgsn_dont_send_gpu_echo_request_w.LWG
p784
aVtc_335_48_wifi_to_mobility_in_ecm_idle_unknown_user_af__more_than_1_cell_infos_from_wic__one_timeout_from_eNB.LWG
p785
aVtc_324_080_af_sec_modify_bearer_response_partially_timeout.LWG
p786
aVtc_12_512_pmm_undefined_attach_when_updating_location_interfered_by_rnc_reset.LW
p787
aVtc_275_073_tau_inter_new_no_update_location_response_sgsn00040258.LW
p788
aVtc_38_39_israu_new_sgsn_old_sgsn_supports_gtp_v0_no_resources_in_ggsn.LW
p789
aVtc_298_424_ms_init_deact_ef_delicated_non_gbr_bearer_deact_interfered_by_rab_release_request.LW
p790
aVtc_194_084_hss_reset_after_large_restart.LW
p791
aVtc_194_505_Notification_during_Intra_TAU_without_SGW_Relocation_HSS_Reset_Before_TAU.LW
p792
aVtc_197_321_visiting_multiple_pdn_connectivity_lbo_allowed_req_apn_oi_vplmn.LW
p793
aVtc_263_023_Attach_Flow__Attach_Request_Different_IEs_IP_OK_while_waiting_for_Modify_Bearer_Response.LW
p794
aVtc_269_001_s1_reset_emm_registered.LW
p795
aVtc_103_1103_fallback_to_imsins_resend_no_more_peers.LW
p796
aVtc_103_708_modify_peer_send_DPR.LW
p797
aVtc_103_704_delete_peer_send_DPR.LW
p798
aVtc_103_860_ue_trace_retransmit.LW
p799
aVtc_103_904_relay_node_S6a_S13.LW
p800
aVtc_241_301_israu_new_create_session_failed_and_paging_timeout.W14b
p801
aVtc_297_407_move_at_periodic_rau.G14b
p802
aVtc_241_405_israu_new_with_16m_flag_allowed_in_context_response_and_epc_cap_in_rau_req_transfer_to_new_tcw.LWG
p803
aVtc_194_505_Notification_during_Intra_TAU_without_SGW_Relocation_HSS_Reset_Before_TAU.LWG
p804
aVtc_666_06_block_rt_board.LWG
p805
aVtc_59_9_mtmsi_restart_counter.LWG
p806
aVtc_103_1136_sx_resend__CCR_I_not_resend_for_application_unsupported.LWG
p807
aVtc_103_708_modify_peer_send_DPR.LWG
p808
aVtc_103_704_delete_peer_send_DPR.LWG
p809
aVtc_262_063_attach_tai_not_supported.LWG
p810
aVtc_232_403_bfd__ipv4ipv6_alarm.LWG
p811
aVtc_298_723_service_request_ef_ms_deact_ti_default_wf_rab_assignment_response.LWG
p812
aVtc_216_106_icmpv6_outNeighborSol.LWG
p813
aVtc_327_172_recovery_intra_TAU_SGSN_Context_Request_while_waiting_for_Location_Update_Response.LWG
p814
aVtc_327_154_recovery_intra_TAU_Delete_Bearer_Request_while_waiting_for_Update_Location_Answer.LWG
p815
aVtc_665_56_repeated_cm_restart.LWG
p816
aVtc_665_55_repeated_cm_restart.LWG
p817
aVtc_179_318_Ccheck_TraceCollectionIpv6server.LWG
p818
aVtc_305_040_oms_mmi.LWG
p819
aVtc_309_009_piu_state_notifications.LWG
p820
aVtc_326_282_Intra_TAU_with_unknown_GUTI_SGW_unavailable_DNS_Query_failure.LWG
p821
aVtc_208_43_interception_after_small_restart.LWG
p822
aVtc_183_005_itc_folder_file_names.LWG
p823
aVtc_310_310_S3_new_SGW_emergency_attach_sv_pool_on_msc_one_offloading_one_available.L14b
p824
aVtc_288_204_pgw_init_bearer_mod_QoS_UE_reject_for_all_bearers.L14b
p825
aVtc_327_022_recovery_intra_TAU__initial_Detach_Request_while_waiting_for_Ue_Backup_Response.L14b
p826
aVtc_327_037_recovery_intra_TAU_active_off_sgw_unchanged__RAR_wf_CSR_due_to_S11_linkdown.L14b
p827
aVtc_262_084_emergency_imsi_attach_unauthentication_fails_in_hss.L14b
p828
aVtc_262_846_normal_attach_rejected__empty_odb_free_apn_list__odb_bit0.L14b
p829
aVtc_274_321_Intra_and_pTAU__SGSN_Context_Request_while_waiting_for_Delete_Bearer_Request_no_SGW_answer.L14b
p830
aVtc_103_704_delete_peer_send_DPR.L14b
p831
aVtc_103_1101_resending_AIR_interfering_CLR.L14b
p832
aVtc_44_071_attach_long_imsi.L14b
p833
aVtc_313_227_inter_new_srns_reloc_s16_with_sgw_change_rau_request_initial_ue_received_wf_update_location_ack.W14b
p834
aVtc_348_262_smooth_move_af__new_sgsn_ggsn_return_failure_cause_paritially.W14b
p835
aVtc_327_022_recovery_intra_TAU__initial_Detach_Request_while_waiting_for_Ue_Backup_Response.L14b
p836
aVtc_304_121_initial_ue_intra_tau_control_mode_threshold_exceeded_usc_detach_wf_release_request_response.L14b
p837
aVtc_43_101__removal_of_disconnected_eNodeBs__CLI_removal.L14b
p838
aVtc_103_1101_resending_AIR_interfering_CLR.L14b
p839
aVtc_243_330_tau_from_sgsn_s3_emergency_type_a_no_restriction.L14b
p840
aVtc_309_009_piu_state_notifications.LWG
p841
aVtc_313_270_inter_new_srns_reloc_s16_without_sgw_change_update_bearer_request_received_wf_rau_request.LWG
p842
aVtc_236_167_intra_rau_dedicated_bearer_fail_partial_service_request.LWG
p843
aVtc_666_06_block_rt_board.LWG
p844
aVtc_231_103_sgsn_delete_subscriber_after_create_session_s4.LWG
p845
aVtc_179_318_Ccheck_TraceCollectionIpv6server.LWG
p846
aVtc_274_370_Intra_and_pTAU__ms_network_cap_set_in_tau_request_interrupted_by_cbr.LWG
p847
aVtc_59_9_mtmsi_restart_counter.LWG
p848
aVtc_219_012_tau_w_to_l_without_cl.LWG
p849
aVtc_665_55_repeated_cm_restart.LWG
p850
aVtc_665_56_repeated_cm_restart.LWG
p851
aVtc_259_106_ef_tads_s4_interfere_inter_rau_old_w.LWG
p852
aVtc_103_1100_resending_AIR_dpl_changed.LWG
p853
aVtc_103_708_modify_peer_send_DPR.LWG
p854
aVtc_326_267_Intra_TAU_with_unknown_GUTI_Restriction_2_pdn_SAU_license_limit_reached.LWG
p855
aVtc_327_037_recovery_intra_TAU_active_off_sgw_unchanged__RAR_wf_CSR_due_to_S11_linkdown.LWG
p856
aVtc_95_3_load_lkf.LWG
p857
aVtc_209_154_dl_payload_imsi_udp.LWG
p858
aVtc_225_115_mo_call_emergency_active_mode_ho_not_supported_with_msc_change.LWG
p859
aVtc_220_420_csfb_to_1xrtt_ue_return_with_service_request_SGW_unavailable.LWG
p860
aVtc_311_204_intra_srns_reloc_s4_sgw_change_wf_reloc_req_ack_interrupted_by_cancel_loc_subscrip_withdrawn.LWG
p861
aVtc_250_105_ignore_IDR_when_EPS_sub_downgrade_GPRS_sub.LW
p862
aVtc_347_301_mme_dedicated_bearer_deactivate__RAR_while_waiting_erab_release_response.LW
p863
aVtc_260_271_receive_sm_start_req_while_wf_setup_iteration.LW
p864
aVtc_326_202_Intra_TAU_after_large_restart_after_combined_attach.LW
p865
aVtc_202_17_service_request_during_release_access_bearers.LW
p866
aVtc_103_704_delete_peer_send_DPR.LW
p867
aVtc_262_1055_imsi_attach_with_csg_id_is_rejected.LW
p868
aVtc_284_351_pdn_connectivity_pb_activate_1_dedicated_bearer_interrupted_by_path_switch_request.LW
p869
aVtc_316_228_PGW_Initiated_Default_Bearer_Deactivation_With_Multiple_PDN__Backup_UE.LW
p870
aVtc_43_101__removal_of_disconnected_eNodeBs__CLI_removal.LW
p871
aVtc_225_119_mo_call_active_mode_ho_not_supported_with_msc_change_ps_not_available.LW
p872
aVtc_298_424_ms_init_deact_ef_delicated_non_gbr_bearer_deact_interfered_by_rab_release_request.LW
p873
aVtc_327_172_recovery_intra_TAU_SGSN_Context_Request_while_waiting_for_Location_Update_Response.LWG
p874
aVtc_309_009_piu_state_notifications.LWG
p875
aVtc_101_016_single_mbms_session_dp_restart.LWG
p876
aVtc_319_086_static_selection_off_emergency_profile_with_ip_only.LWG
p877
aVtc_110_005_inbound_outbound_pf_rule_cli_ip.LWG
p878
aVtc_209_180_handover_w_to_l_source_s4_sgsn.LWG
p879
aVtc_209_109_dual_stack_legacy_versions_ipv6.LWG
p880
aVtc_219_150_transfer_tau_w_to_l_sgsn00047432.LWG
p881
aVtc_665_55_repeated_cm_restart.LWG
p882
aVtc_665_56_repeated_cm_restart.LWG
p883
aVtc_251_66_w_to_l_to_w_with_cl_type_initialAttach_cl_after_sgsn_con_req.LWG
p884
aVtc_204_033_mme_eps_ho_target__sgw_relocation__failed_modify_bearer_request.LWG
p885
aVtc_103_850_error_code_DIAMETER_REALM_NOT_SERVED.LWG
p886
aVtc_103_1005_secondary_dpl_used_when_all_peers_in_dpl_unavailable_with_sls.LWG
p887
aVtc_103_708_modify_peer_send_DPR.LWG
p888
aVtc_103_704_delete_peer_send_DPR.LWG
p889
aVtc_335_48_wifi_to_mobility_in_ecm_idle_unknown_user_af__more_than_1_cell_infos_from_wic__one_timeout_from_eNB.LWG
p890
aVtc_271_006_sctp_paging_olp_stop_discarding_all_paging_under_pagingOlpDiscardAllCpuThreshold.LWG
p891
aVtc_274_274_Intra_and_pTAU__Handover_Required_with_old_TA_MSC_change_while_waiting_for_Location_Update_response_TAU_IMSI_Detach.LWG
p892
aVtc_183_005_itc_folder_file_names.LWG
p893
aVtc_179_318_Ccheck_TraceCollectionIpv6server.LWG
p894
aVtc_59_11_sequence_check_replica_values.LWG
p895
aVtc_19_14_attach_start_move_periodic_interfering_imsi_attach_after_rau_compl_in_source.LWG
p896
aVtc_23_09_transfer_to_primary_and_change_vip_addr.LWG
p897
aVtc_666_06_block_rt_board.LWG
p898
aVtc_194_1015_normal_attach_insert_odb_with_both_allowed_apn_and_not_allowed_apn_in_odb_free_apn_list_for_roamer__odb_bit0.LWG
p899
aVtc_297_407_move_at_periodic_rau.G14b
p900
aVtc_166_154_israu_rau_new_rnc_non_3gdt_compliant.WG14a
p901
aVtc_39_212_detach_trigger_paging_fails.LW
p902
aVtc_103_708_modify_peer_send_DPR.LW
p903
aVtc_103_704_delete_peer_send_DPR.LW
p904
aVtc_103_860_ue_trace_retransmit.LW
p905
aVtc_304_102_emergency_intra_tau_success__control_mode_threshold_exceeded.LW
p906
aVtc_28_030_israu_new_sgsn_one_pdp_context_mo_sms.LW
p907
aVtc_244_045_mt_lr_detach_request_received_wf_location_report.LW
p908
aVtc_326_251_Intra_TAU_with_unknown_GUTI_with_active_flag_then_s1_Intra_HO.LW
p909
aVtc_225_115_mo_call_emergency_active_mode_ho_not_supported_with_msc_change.LW
p910
aVtc_220_411_csfb_to_1xrtt_in_ecm_connected_path_switch_request_subscription_cancelled.LW
p911
aVtc_236_048_s4_3gdt_deactivation_during_waiting_for_modify_bearer_rsp_in_activation_procedure_no_context.LW
p912
aVtc_346_446_AF__Intra_TAU_CCA_Update_result_code_5003.L14b
p913
aVtc_275_206_tau_inter_new_emergency_type_b_restricted_no_rrc_or_active_flag.L14b
p914
aVtc_202_40_emergency_pdn_ecm_connected.L14b
p915
aVtc_327_022_recovery_intra_TAU__initial_Detach_Request_while_waiting_for_Ue_Backup_Response.L14b
p916
aVtc_327_037_recovery_intra_TAU_active_off_sgw_unchanged__RAR_wf_CSR_due_to_S11_linkdown.L14b
p917
aVtc_103_1101_resending_AIR_interfering_CLR.L14b
p918
aVtc_281_042_Activate_bearer__Create_Bearer_Request_while_service_request_then_page_timeout.L14b
p919
aVtc_265_160_Detach_Flow_NW_init__Ue_moved_to_non_3gpp_while_imsi_detach.L14b
p920
aVtc_268_032_Timer_Based_GBR_Deact__Receive_DDN_Only_GBR_in_PE_before_Timer_Expires.L14b
p921
a.