(lp0
Vtc_322_161_smooth_move_ef_nas_after_paging_response_ignore.W14b
p1
aVtc_321_112_attach_auth_fail.W14b
p2
aVtc_28_052_mo_sms_homer_block_visiting_redirection.W14b
p3
aVtc_23_04_redirection_request_from_primary_bs.W14b
p4
aVtc_327_012_recovery_intra_TAU__initial_Attach_Request_while_waiting_for_Ue_Backup_Response.L14b
p5
aVtc_262_1055_imsi_attach_with_csg_id_is_rejected.L14b
p6
aVtc_194_505_Notification_during_Intra_TAU_without_SGW_Relocation_HSS_Reset_Before_TAU.L14b
p7
aVtc_43_101__removal_of_disconnected_eNodeBs__CLI_removal.L14b
p8
aVtc_268_105_ue_release__cs_paging_wf_release_access_bearer_resp.L14b
p9
aVtc_208_43_interception_after_small_restart.G14b
p10
aVtc_259_77_ef_isd_paging_s4_w.LWG
p11
aVtc_250_105_ignore_IDR_when_EPS_sub_downgrade_GPRS_sub.LWG
p12
aVtc_194_506_Notification_during_Intra_MME_TAU_without_SGW_Relocation_Procedure.LWG
p13
aVtc_324_225_ef_detach_request_abort_wf_rab_assignment_response_wf_update_location_hss_service_req_data.LWG
p14
aVtc_236_307_Activation_DtSelMode_5_APN_requested_wrong_SGSN_default_APN_in_APN_list_TAC_in_TAC_list.LWG
p15
aVtc_213_150_nrspca_ignored_when_isc_g_to_w.LWG
p16
aVtc_321_112_attach_auth_fail.LWG
p17
aVtc_166_280_israu_new_vplmn_3gdt_prefixed_apn.LWG
p18
aVtc_202_431_mf_seamless_move_target_service_request_modifyBearerReq_onePdnMultiBearer_oneBearerFail.LWG
p19
aVtc_183_005_itc_folder_file_names.LWG
p20
aVtc_183_008_itc_sctp_encrypted.LWG
p21
aVtc_59_9_mtmsi_restart_counter.LWG
p22
aVtc_219_233_TAU_Dual_Access_WtoL_without_SGW_Change_SGW_unavailable_no_other_SGW.LWG
p23
aVtc_210_028_target_info_query_multiple.LWG
p24
aVtc_103_1005_secondary_dpl_used_when_all_peers_in_dpl_unavailable_with_sls.LWG
p25
aVtc_103_708_modify_peer_send_DPR.LWG
p26
aVtc_103_704_delete_peer_send_DPR.LWG
p27
aVtc_56_21_sending_recognized_information_in_log.LWG
p28
aVtc_23_09_transfer_to_primary_and_change_vip_addr.LWG
p29
aVtc_220_029_csfb_to_1xrtt_in_ecm_connected_release_request_before_modification_response.LWG
p30
aVtc_73_21_itc_gtpu_s4_sgsn_send_echo_request_w.LWG
p31
aVtc_73_41_gtpu_sgsn_dont_send_gpu_echo_request_w.LWG
p32
aVtc_304_012_guti_attach_reject__control_mode_threshold_exceeded_transfer.LW
p33
aVtc_44_004_small_restart__sctp_fe_restart.LW
p34
aVtc_12_157_service_request_identity_check_no_response.LW
p35
aVtc_311_204_intra_srns_reloc_s4_sgw_change_wf_reloc_req_ack_interrupted_by_cancel_loc_subscrip_withdrawn.LW
p36
aVtc_275_073_tau_inter_new_no_update_location_response_sgsn00040258.LW
p37
aVtc_358_100_lte_allowed_local_user_attach_from_irr_nrr_ip_area.LW
p38
aVtc_250_105_ignore_IDR_when_EPS_sub_downgrade_GPRS_sub.LW
p39
aVtc_103_708_modify_peer_send_DPR.LW
p40
aVtc_103_704_delete_peer_send_DPR.LW
p41
aVtc_326_216_Intra_TAU_Recovery_combined_type_Location_Update_Reject.LW
p42
aVtc_321_079_gn_logging_gtpv0_error_indication_from_ggsn.LW
p43
aVtc_321_112_attach_auth_fail.LW
p44
aVtc_219_131_s3_handover_w_to_l_with_cl_two_pdns_one_failed_sgw_relocation.LW
p45
aVtc_322_161_smooth_move_ef_nas_after_paging_response_ignore.WG14a
p46
aVtc_348_369_inter_srns_reloc_af__new_sgsn_update_location_ack_failed.WG14a
p47
aVtc_322_161_smooth_move_ef_nas_after_paging_response_ignore.W14b
p48
aVtc_250_105_ignore_IDR_when_EPS_sub_downgrade_GPRS_sub.W14b
p49
aVtc_298_440_ms_init_deact_ef_default_bearer_deact_with_rab_interfered_by_dedicate_bearer_deact_request.W14b
p50
aVtc_39_607_mas_no_security_mode_cmpl_fail_source.W14b
p51
aVtc_321_112_attach_auth_fail.W14b
p52
aVtc_44_004_small_restart__sctp_fe_restart.LW
p53
aVtc_298_424_ms_init_deact_ef_delicated_non_gbr_bearer_deact_interfered_by_rab_release_request.LW
p54
aVtc_43_101__removal_of_disconnected_eNodeBs__CLI_removal.LW
p55
aVtc_324_006_mf_ser_req_signaling_after_ack_3gdt.LW
p56
aVtc_321_112_attach_auth_fail.LW
p57
aVtc_103_708_modify_peer_send_DPR.LW
p58
aVtc_103_704_delete_peer_send_DPR.LW
p59
aVtc_248_92_inter_l_to_w_new_qos_higher_than_policymap_sgw_not_change_2_pdns_both_ubr_after_timeout.LW
p60
aVtc_329_661_irat_s4_ho_inter_target_rs_restricted_emergency_allowed.LW
p61
aVtc_316_279_DSD_PDN_subscription_contexts_Withdrawal_All_PDN_Disconnect__Delete_UE_Backup.LW
p62
aVtc_211_014_streamed_cell_trace_mapping_alarm.L14b
p63
aVtc_304_022_attach_successful_then_guti_attach__control_mode_threshold_exceeded_usc_reject_congestion.L14b
p64
aVtc_304_102_emergency_intra_tau_success__control_mode_threshold_exceeded.L14b
p65
aVtc_218_410_TAU_from_SGSN__downlink_data_notification_while_waiting_for_update_location_answer_check_subscribed_apn_fail.L14b
p66
aVtc_266_026_DownlinkDataFailureInd_repeat_paging_timer_small_local_restart.L14b
p67
aVtc_195_406_ue_trace_start_meanwhile_handover_required.L14b
p68
aVtc_295_124_tau_after_ho_tz_change_emm_information_meanwhile_handover_required_HO_success.L14b
p69
aVtc_327_312_recovery_service_request__initial_Attach_Request_while_waiting_for_Ue_Backup_Response.L14b
p70
aVtc_241_318_israu_new_gn_to_s4_two_pdp_to_bearer_3gdt_off_to_on.LWG
p71
aVtc_214_308_mt_sms_idle_mode_no_sms_session_and_no_release_req.LWG
p72
aVtc_183_005_itc_folder_file_names.LWG
p73
aVtc_183_008_itc_sctp_encrypted.LWG
p74
aVtc_298_424_ms_init_deact_ef_delicated_non_gbr_bearer_deact_interfered_by_rab_release_request.LWG
p75
aVtc_44_004_small_restart__sctp_fe_restart.LWG
p76
aVtc_56_21_sending_recognized_information_in_log.LWG
p77
aVtc_59_9_mtmsi_restart_counter.LWG
p78
aVtc_324_137_af_service_request_data_only_utran_not_allowed_3gdt.LWG
p79
aVtc_321_112_attach_auth_fail.LWG
p80
aVtc_23_09_transfer_to_primary_and_change_vip_addr.LWG
p81
aVtc_103_708_modify_peer_send_DPR.LWG
p82
aVtc_103_704_delete_peer_send_DPR.LWG
p83
aVtc_103_1155_sx_retransmit__Small_restart_terminate_request.LWG
p84
aVtc_289_90_GW_Init_Bearer_Modification_ecm_idle__X2_handover_while_wf_modify_eps_bearer_context_accept.LWG
p85
aVtc_24_90_msc_pool_off_comb_proc_on_default_msc_in_la_with_2_connected_mscs.G14b
p86
aVtc_166_409_israu_new_service_req_reestablish_streaming_dt_ggsn_address_2T.WG14a
p87
aVtc_327_037_recovery_intra_TAU_active_off_sgw_unchanged__RAR_wf_CSR_due_to_S11_linkdown.LW
p88
aVtc_103_708_modify_peer_send_DPR.LW
p89
aVtc_103_704_delete_peer_send_DPR.LW
p90
aVtc_23_09_transfer_to_primary_and_change_vip_addr.LW
p91
aVtc_262_174_new_mme_identification_procedure_incorrect_ulcount.LW
p92
aVtc_321_112_attach_auth_fail.LW
p93
aVtc_263_320_Attach_Flow__Attach_Request_Different_IEs_IP_OK_while_waiting_for_Update_Location_Answer.LW
p94
aVtc_209_180_handover_w_to_l_source_s4_sgsn.LW
p95
aVtc_241_621_israu_new_with_bearer_detach_after_context_response.LW
p96
aVtc_248_128_inter_l_to_w_new_rau_request_intial_ue_received_wf_update_location_resp.LWG
p97
aVtc_321_112_attach_auth_fail.LWG
p98
aVtc_183_005_itc_folder_file_names.LWG
p99
aVtc_183_008_itc_sctp_encrypted.LWG
p100
aVtc_195_208_mme_logging_maximum_modify_eps_bearer_context.LWG
p101
aVtc_238_157_mme_eps_irat_Gn_ho_target__no_ho_request_ack.LWG
p102
aVtc_304_102_emergency_intra_tau_success__control_mode_threshold_exceeded.LWG
p103
aVtc_73_41_gtpu_sgsn_dont_send_gpu_echo_request_w.LWG
p104
aVtc_56_21_sending_recognized_information_in_log.LWG
p105
aVtc_179_318_Ccheck_TraceCollectionIpv6server.LWG
p106
aVtc_361_118_s3_handover_l_to_w_intra_with_cl_qos_higher_than_policymap_trigger_alarm_1_ue.LWG
p107
aVtc_103_708_modify_peer_send_DPR.LWG
p108
aVtc_103_704_delete_peer_send_DPR.LWG
p109
aVtc_103_1100_resending_AIR_dpl_changed.LWG
p110
aVtc_239_505_intra_rau_detach_waiting_creat_session_response_from_sgw_s4.LWG
p111
aVtc_275_073_tau_inter_new_no_update_location_response_sgsn00040258.LWG
p112
aVtc_216_106_icmpv6_outNeighborSol.LWG
p113
aVtc_327_117_recovery_intra_TAU__Delete_Subscriber_Data_while_waiting_for_Ue_Backup_Response.LWG
p114
aVtc_23_09_transfer_to_primary_and_change_vip_addr.LWG
p115
aVtc_220_001_csfb_to_1xrtt_in_ecm_idle.LWG
p116
aVtc_220_411_csfb_to_1xrtt_in_ecm_connected_path_switch_request_subscription_cancelled.LWG
p117
aVtc_316_279_DSD_PDN_subscription_contexts_Withdrawal_All_PDN_Disconnect__Delete_UE_Backup.LWG
p118
aVtc_208_43_interception_after_small_restart.LWG
p119
aVtc_204_1224_mme_eps_ho_target_tau_aia_dia_missing_avp_severe_nw_failure_for_roamer.LWG
p120
aVtc_141_005_eth_traffic_novlan.LWG
p121
aVtc_358_017_lte_iterator_ipAllocEnabled_modify_to_false_ipAddressReset_modify_to_true_while_one_pdn_in_unrestricted_ip_area.L14b
p122
aVtc_44_301_sctp_counter_MessageSent_Received.L14b
p123
aVtc_44_551_s1ap_reset_reset_resource__ue_id.L14b
p124
aVtc_195_406_ue_trace_start_meanwhile_handover_required.L14b
p125
aVtc_346_446_AF__Intra_TAU_CCA_Update_result_code_5003.L14b
p126
aVtc_103_704_delete_peer_send_DPR.L14b
p127
aVtc_103_708_modify_peer_send_DPR.L14b
p128
aVtc_304_102_emergency_intra_tau_success__control_mode_threshold_exceeded.L14b
p129
aVtc_43_101__removal_of_disconnected_eNodeBs__CLI_removal.L14b
p130
aVtc_322_161_smooth_move_ef_nas_after_paging_response_ignore.W14b
p131
aVtc_250_105_ignore_IDR_when_EPS_sub_downgrade_GPRS_sub.W14b
p132
aVtc_342_125_delete_target_different_connection_three_targets.W14b
p133
aVtc_321_112_attach_auth_fail.W14b
p134
aVtc_298_235_SIBD_S4_Modify_Bearer_failed_Default_Bearer_ContextNotFound.W14b
p135
aVtc_248_99_inter_l_to_w_new_qos_higher_than_policymap_trigger_alarm_2_ue.W14b
p136
aVtc_26_086_subscriber_data_changed_during_ISRAU_II.W14b
p137
aVtc_578_02_check_parse_ebm_and_ci_eci_w.W14b
p138
aVtc_321_112_attach_auth_fail.W14b
p139
aVtc_250_74_s6d_EF_hss_reset_waiting_delete_session_response.W14b
p140
aVtc_214_503_mt_sms_while_wf_lu_accept.LW
p141
aVtc_311_206_intra_srns_reloc_s4_sgw_change_wf_modify_bearer_rsp_interrupted_by_cancel_loc_subscrip_withdrawn.LW
p142
aVtc_298_301_EF_SIBD_S4_Activate_From_MS_TI_Flag.LW
p143
aVtc_324_006_mf_ser_req_signaling_after_ack_3gdt.LW
p144
aVtc_315_016_handover_source_mme_s4_sgsn_selection_table_matched.LW
p145
aVtc_260_271_receive_sm_start_req_while_wf_setup_iteration.LW
p146
aVtc_219_131_s3_handover_w_to_l_with_cl_two_pdns_one_failed_sgw_relocation.LW
p147
aVtc_103_708_modify_peer_send_DPR.LW
p148
aVtc_103_704_delete_peer_send_DPR.LW
p149
aVtc_39_601_mas_unsucc_fwd_reloc_resp_mandatory_ie_missing_stop_source.LW
p150
aVtc_23_09_transfer_to_primary_and_change_vip_addr.LW
p151
aVtc_321_112_attach_auth_fail.LW
p152
aVtc_19_48_attach_start_move_intra_rau_move_initiated_detach_req_before_rau_complete_ignored.G14b
p153
aVtc_297_407_move_at_periodic_rau.G14b
p154
aVtc_282_013_deactivate_bearers_timeout_nas_ok.L14b
p155
aVtc_256_188_mme_eps_srvcc_ho_source_cs_only_cancel_location_wf_release_access_bearers_request.L14b
p156
aVtc_326_503_Recovery_for_DDN__Retrieval_and_Paging_and_Service_Request_after_paging_timer_expires.L14b
p157
aVtc_346_446_AF__Intra_TAU_CCA_Update_result_code_5003.L14b
p158
aVtc_277_021_tau_inter_old_with_tzcr_and_sncr_set_in_2_pdns.L14b
p159
aVtc_304_114_initial_ue_intra_tau_control_mode_threshold_exceeded_usc_ignore_replace_s1.L14b
p160
aVtc_220_587_csfb_to_1xrtt_in_extended_service_request_during_attach_waiting_for_modify_bearer_response.L14b
p161
aVtc_276_284_Inter_TAU_New_MME__Delete_Bearer_Request_change_to_non_3gpp_while_waiting_for_failing_Modify_Bearer_Response.L14b
p162
aVtc_226_314_W__USC_Service_Request_ControlMode_On_Detach.WG14a
p163
aVtc_103_1007_secondary_dpl_set_and_then_emptied.LWG
p164
aVtc_103_1100_resending_AIR_dpl_changed.LWG
p165
aVtc_103_708_modify_peer_send_DPR.LWG
p166
aVtc_103_704_delete_peer_send_DPR.LWG
p167
aVtc_321_112_attach_auth_fail.LWG
p168
aVtc_238_003_mme_eps_irat_ho_target__non_current_ksi_different_with_native.LWG
p169
aVtc_92_06_10_pm_job_log_content.LWG
p170
aVtc_250_105_ignore_IDR_when_EPS_sub_downgrade_GPRS_sub.LWG
p171
aVtc_216_005_icmpv6_inParmProbs.LWG
p172
aVtc_326_210_Intra_TAU_combined_after_large_restart_after_EPS_attach.LWG
p173
aVtc_263_321_Attach_Flow__Attach_Request_Different_IEs_IP_OK_while__waiting_for_combined_attach_response.LWG
p174
aVtc_73_21_itc_gtpu_s4_sgsn_send_echo_request_w.LWG
p175
aVtc_23_09_transfer_to_primary_and_change_vip_addr.LWG
p176
aVtc_236_302_HO_over_S3_3GDT_switchback_ef_iu_release_wf_modify_bearer_response.LWG
p177
aVtc_208_43_interception_after_small_restart.LWG
p178
aVtc_322_050_smooth_move_ebt_rau_after_move.LWG
p179
aVtc_56_21_sending_recognized_information_in_log.LWG
p180
aVtc_316_203_IMSI_Attach_Emergency_Authentication_Fail__Backup_UE.LWG
p181
aVtc_316_279_DSD_PDN_subscription_contexts_Withdrawal_All_PDN_Disconnect__Delete_UE_Backup.LWG
p182
aVtc_157_4_snmp_consistent.LWG
p183
aVtc_202_454_af_seamless_move_source_unsuccessful_forward_relocation_response_other_cause.LWG
p184
aVtc_25_50_activate_bss_change_to_0kbps.LWG
p185
aVtc_194_506_Notification_during_Intra_MME_TAU_without_SGW_Relocation_Procedure.LWG
p186
aVtc_183_005_itc_folder_file_names.LWG
p187
aVtc_183_008_itc_sctp_encrypted.LWG
p188
aVtc_218_207_0_TAU_from_SGSN__update_bearer_request_while_waiting_for_Create_Session_Resp.LWG
p189
aVtc_208_43_interception_after_small_restart.G14b
p190
aVtc_578_02_check_parse_ebm_and_ci_eci_g.G14b
p191
aVtc_250_105_ignore_IDR_when_EPS_sub_downgrade_GPRS_sub.W14b
p192
aVtc_321_112_attach_auth_fail.W14b
p193
aVtc_359_142_handover_from_3gpp_pgw_init_deletion_ef_ms_deact_Notify_ue_false.W14b
p194
aVtc_236_039_s4_3gdt_detach_during_waiting_for_modify_bearer_rsp_in_active_procedure.W14b
p195
aVtc_321_112_attach_auth_fail.LW
p196
aVtc_103_708_modify_peer_send_DPR.LW
p197
aVtc_103_704_delete_peer_send_DPR.LW
p198
aVtc_44_330_sctp_counter_index_Diameter.LW
p199
aVtc_31_082_consecutive_hlr_resets.LW
p200
aVtc_26_162_service_request_after_ISRAU_complete_with_subscriber_data_changed.LW
p201
aVtc_325_010_inter_old_srns_reloc_s4_to_gn_no_cancel_location_from_hss_purge_ue.LW
p202
aVtc_195_208_mme_logging_maximum_modify_eps_bearer_context.LW
p203
aVtc_316_279_DSD_PDN_subscription_contexts_Withdrawal_All_PDN_Disconnect__Delete_UE_Backup.LW
p204
aVtc_326_242_Intra_TAU_Recovery_Initial_Context_Setup_timeout.LW
p205
aVtc_266_504_DDN_Service_Request_SGW_unavailable__DNS_Query_failure.LW
p206
aVtc_304_102_emergency_intra_tau_success__control_mode_threshold_exceeded.LWG
p207
aVtc_298_724_service_request_ef_ms_deact_ti_dedicated_wf_rab_assignment_response.LWG
p208
aVtc_232_401_bfd__ipv4_alarm.LWG
p209
aVtc_232_403_bfd__ipv4ipv6_alarm.LWG
p210
aVtc_103_708_modify_peer_send_DPR.LWG
p211
aVtc_103_704_delete_peer_send_DPR.LWG
p212
aVtc_214_035_combined_attach_combined_tau_intra_loc_update_reject.LWG
p213
aVtc_214_1160_keep_msc_last_sent_paging_request_associated_even_offloading.LWG
p214
aVtc_23_09_transfer_to_primary_and_change_vip_addr.LWG
p215
aVtc_316_279_DSD_PDN_subscription_contexts_Withdrawal_All_PDN_Disconnect__Delete_UE_Backup.LWG
p216
aVtc_25_07_activate_ms99_req_subsc_qos_streaming_highest_background.LWG
p217
aVtc_209_105_dual_stack_not_supported_ipv6.LWG
p218
aVtc_183_005_itc_folder_file_names.LWG
p219
aVtc_183_008_itc_sctp_encrypted.LWG
p220
aVtc_262_1055_imsi_attach_with_csg_id_is_rejected.LWG
p221
aVtc_295_135_mt_call_during_Intra_S1_HO_SGSN_Context_Request_while_wf_the_tau.LWG
p222
aVtc_321_112_attach_auth_fail.LWG
p223
aVtc_305_057_oms_mmi_hwm.LWG
p224
aVtc_212_049_Ccheck_ra.LWG
p225
aVtc_219_011_tau_w_to_l_with_cl.LWG
p226
aVtc_275_073_tau_inter_new_no_update_location_response_sgsn00040258.LWG
p227
aVtc_225_555_Extended_Service_Request_to_WG_with_CSG_ID.LWG
p228
aVtc_04_109_normal_imsi_attach_detach_ptmsi_attach_sent_5_times_then_rau_req_purge.LWG
p229
aVtc_56_21_sending_recognized_information_in_log.LWG
p230
aVtc_178_941_modify_sctp_profile_mfr.LWG
p231
aVtc_179_318_Ccheck_TraceCollectionIpv6server.LWG
p232
aVtc_313_204_inter_new_srns_reloc_s16_with_sgw_change_attach_request_initial_ue_received_wf_forward_reloc_complete_ack.WG14a
p233
aVtc_289_017_Modify_bearer__ERAB_modify_request_meanwhile_path_switch_request_HO_success.L14b
p234
aVtc_327_022_recovery_intra_TAU__initial_Detach_Request_while_waiting_for_Ue_Backup_Response.L14b
p235
aVtc_103_024_modify_diameter_peer_switch_peer_numbers.L14b
p236
aVtc_103_704_delete_peer_send_DPR.L14b
p237
aVtc_103_708_modify_peer_send_DPR.L14b
p238
aVtc_262_1055_imsi_attach_with_csg_id_is_rejected.L14b
p239
aVtc_266_026_DownlinkDataFailureInd_repeat_paging_timer_small_local_restart.L14b
p240
aVtc_306_1308_ef_seamless_move_target_buffer_update_bearer_request.L14b
p241
aVtc_281_060_Activate_bearer__Attach_Request_while_wf_activate_dedicated_eps_bearer_context_accept.L14b
p242
aVtc_248_128_inter_l_to_w_new_rau_request_intial_ue_received_wf_update_location_resp.W14b
p243
aVtc_321_112_attach_auth_fail.W14b
p244
aVtc_103_708_modify_peer_send_DPR.LWG
p245
aVtc_103_704_delete_peer_send_DPR.LWG
p246
aVtc_103_1155_sx_retransmit__Small_restart_terminate_request.LWG
p247
aVtc_23_09_transfer_to_primary_and_change_vip_addr.LWG
p248
aVtc_183_005_itc_folder_file_names.LWG
p249
aVtc_183_008_itc_sctp_encrypted.LWG
p250
aVtc_232_403_bfd__ipv4ipv6_alarm.LWG
p251
aVtc_218_520__TAU_inter_new_new_sgw_too_high_QoS_for_one_default_ok_for_dedicated_bearer_gn_sgsn.LWG
p252
aVtc_44_320_sctp_counter_index_S1AP.LWG
p253
aVtc_25_30_israu_invalid_qos_neg.LWG
p254
aVtc_274_042_Intra_and_pTAU__Intra_TAU_other_ta_while_waiting_for_Ue_Release_Complete.LWG
p255
aVtc_208_43_interception_after_small_restart.LWG
p256
aVtc_202_431_mf_seamless_move_target_service_request_modifyBearerReq_onePdnMultiBearer_oneBearerFail.LWG
p257
aVtc_310_267__ef__Initial_UE_Service_Request_wf_Delete_Session_Response.LWG
p258
aVtc_346_204_RFSP__CCA_Initial_with_RFSP__RAR_in_ECM_Idle__Intra_TAU_CCA_Update_with_new_RFSP.LWG
p259
aVtc_346_493_Small_Local_Restart__Terminate_when_UE_S1_release.LWG
p260
aVtc_321_090_mo_sms_mf.LWG
p261
aVtc_321_112_attach_auth_fail.LWG
p262
aVtc_326_622_S6a_Throttling_Service_Request_recovery_UL_successful_and_Emergency_Attach_not_throttled.LWG
p263
aVtc_361_190_s3_intra_rau_l_to_w_with_dedicate_bearers_3gdt_ipv4v6.LW
p264
aVtc_316_279_DSD_PDN_subscription_contexts_Withdrawal_All_PDN_Disconnect__Delete_UE_Backup.LW
p265
aVtc_103_708_modify_peer_send_DPR.LW
p266
aVtc_103_704_delete_peer_send_DPR.LW
p267
aVtc_23_09_transfer_to_primary_and_change_vip_addr.LW
p268
aVtc_321_112_attach_auth_fail.LW
p269
aVtc_326_486_Inter_TAU_Recovery_Unknown_GUTI__Then_ISD_UE_AMBR_Change.LW
p270
aVtc_326_622_S6a_Throttling_Service_Request_recovery_UL_successful_and_Emergency_Attach_not_throttled.LW
p271
aVtc_220_411_csfb_to_1xrtt_in_ecm_connected_path_switch_request_subscription_cancelled.LW
p272
aVtc_324_368_ef_cancel_location_with_updateProcedure_wf_modify_bearer_response_after_ula_hss.WG14a
p273
aVtc_103_708_modify_peer_send_DPR.L14b
p274
aVtc_195_417_ue_trace_deactivate_trace_s1_intra_system_handover_triggered_HO_ongoing_timeout.L14b
p275
aVtc_44_850_mme_assoc_reestablish__board_restart_s1_mme.L14b
p276
aVtc_295_124_tau_after_ho_tz_change_emm_information_meanwhile_handover_required_HO_success.L14b
p277
aVtc_43_101__removal_of_disconnected_eNodeBs__CLI_removal.L14b
p278
aVtc_264_040_emergency_type_d_imei_detach_in_emm_registered_state.L14b
p279
aVtc_268_105_ue_release__cs_paging_wf_release_access_bearer_resp.L14b
p280
aVtc_304_121_initial_ue_intra_tau_control_mode_threshold_exceeded_usc_detach_wf_release_request_response.L14b
p281
aVtc_239_620_inter_rau_new_with_bearer_sgw_not_change_isd_odb_bit0_wf_rau_compl_deactivation.G14b
p282
aVtc_324_368_ef_cancel_location_with_updateProcedure_wf_modify_bearer_response_after_ula_hss.WG14a
p283
aVtc_166_100_intra_rau_new_rnc_hlr_update_service_req_reestablish_streaming.WG14a
p284
aVtc_73_07_itc_encrypted_gtpu_s4_payload_w.WG14a
p285
aVtc_346_576_AF__HO_X2_2PDN_CSR_failure_for_1PDN_terminate_sx.L14b
p286
aVtc_275_073_tau_inter_new_no_update_location_response_sgsn00040258.L14b
p287
aVtc_327_037_recovery_intra_TAU_active_off_sgw_unchanged__RAR_wf_CSR_due_to_S11_linkdown.L14b
p288
aVtc_304_102_emergency_intra_tau_success__control_mode_threshold_exceeded.L14b
p289
aVtc_103_024_modify_diameter_peer_switch_peer_numbers.L14b
p290
aVtc_194_505_Notification_during_Intra_TAU_without_SGW_Relocation_HSS_Reset_Before_TAU.L14b
p291
aVtc_335_42_wifi_to_mobility_in_ecm_idle_af__ue_imsi_detached_csfb_to_cs_domain.L14b
p292
aVtc_225_416_recv_service_while_waiting_extended_service_request.L14b
p293
aVtc_321_112_attach_auth_fail.W14b
p294
aVtc_245_301_inter_rau_insert_entry_into_interface_cache.W14b
p295
aVtc_23_09_transfer_to_primary_and_change_vip_addr.W14b
p296
aVtc_248_92_inter_l_to_w_new_qos_higher_than_policymap_sgw_not_change_2_pdns_both_ubr_after_timeout.W14b
p297
aVtc_271_003_sctp_paging_olp_verify_pagingOlpDiscardAllCpuThreshold.LW
p298
aVtc_326_246_Intra_TAU_Recovery_fail_Modify_Bearer_fail_active_flag_SGW_Change.LW
p299
aVtc_43_101__removal_of_disconnected_eNodeBs__CLI_removal.LW
p300
aVtc_194_107_tau_ul_fails_access_restriction.LW
p301
aVtc_217_703_rau_to_sgsn_type_a_emergency_not_allowed_interfered_by_ms_detach_when_20s_timeout.LW
p302
aVtc_214_041_combined_attach_non_combined_attach.LW
p303
aVtc_103_850_error_code_DIAMETER_REALM_NOT_SERVED.LW
p304
aVtc_103_708_modify_peer_send_DPR.LW
p305
aVtc_103_704_delete_peer_send_DPR.LW
p306
aVtc_321_112_attach_auth_fail.LW
p307
aVtc_208_43_interception_after_small_restart.G14b
p308
aVtc_310_335_ef_dbr_non_voice_bearer_wf_forward_relocation_complete_and_forward_relocation_complete_ack.LWG
p309
aVtc_357_433_wcdma_local_user_inter_rau_old_in_non_area_response_only_contain_white_pdp.LWG
p310
aVtc_364_214_af_trigger_hits_before_UE_id_is_known_wcdma.LWG
p311
aVtc_321_112_attach_auth_fail.LWG
p312
aVtc_166_428_rnc_initiated_rab_release_interfered_by_rnc_initiated_iu_release_request.LWG
p313
aVtc_23_09_transfer_to_primary_and_change_vip_addr.LWG
p314
aVtc_263_063_Attach_Flow__S1_Reset_while_waiting_for_Attach_Complete_then_Attach_Request_with_new_guti_valid.LWG
p315
aVtc_213_057_nrspca_with_limit_of_pdp_context_is_exceeded_downlink.LWG
p316
aVtc_212_049_Ccheck_ra.LWG
p317
aVtc_297_407_move_at_periodic_rau.LWG
p318
aVtc_311_204_intra_srns_reloc_s4_sgw_change_wf_reloc_req_ack_interrupted_by_cancel_loc_subscrip_withdrawn.LWG
p319
aVtc_56_21_sending_recognized_information_in_log.LWG
p320
aVtc_12_512_pmm_undefined_attach_when_updating_location_interfered_by_rnc_reset.LWG
p321
aVtc_179_318_Ccheck_TraceCollectionIpv6server.LWG
p322
aVtc_103_024_modify_diameter_peer_switch_peer_numbers.LWG
p323
aVtc_103_708_modify_peer_send_DPR.LWG
p324
aVtc_103_704_delete_peer_send_DPR.LWG
p325
aVtc_103_1155_sx_retransmit__Small_restart_terminate_request.LWG
p326
aVtc_183_008_itc_sctp_encrypted.LWG
p327
aVtc_316_279_DSD_PDN_subscription_contexts_Withdrawal_All_PDN_Disconnect__Delete_UE_Backup.LWG
p328
aVtc_220_420_csfb_to_1xrtt_ue_return_with_service_request_SGW_unavailable.LWG
p329
aVtc_304_102_emergency_intra_tau_success__control_mode_threshold_exceeded.LWG
p330
aVtc_241_734_service_request_wf_modify_bearer_response_interfered_by_deactivate_pdp_context.W14b
p331
aVtc_321_112_attach_auth_fail.W14b
p332
aVtc_236_254_IRAT_HO_for_S4_over_S3_target_DtSelMode_5_APN_not_in_APN_list_TAC_in_TAC_list.W14b
p333
aVtc_12_134_attach_with_extended_mmumoc_iu_inactivity_timer.W14b
p334
aVtc_324_388_ef_mo_sms_wf_ula.WG14a
p335
aVtc_73_07_itc_encrypted_gtpu_s4_payload_w.WG14a
p336
aVtc_195_416_ue_trace_deactivate_trace_s1_intra_system_handover_triggered.L14b
p337
aVtc_214_1060_la_selection_mf_oldlapreferred_combined_attach_dyn_tailist_update.L14b
p338
aVtc_44_320_sctp_counter_index_S1AP.L14b
p339
aVtc_44_301_sctp_counter_MessageSent_Received.L14b
p340
aVtc_44_551_s1ap_reset_reset_resource__ue_id.L14b
p341
aVtc_266_026_DownlinkDataFailureInd_repeat_paging_timer_small_local_restart.L14b
p342
aVtc_103_701_MME_restarts.L14b
p343
aVtc_327_022_recovery_intra_TAU__initial_Detach_Request_while_waiting_for_Ue_Backup_Response.L14b
p344
aVtc_304_102_emergency_intra_tau_success__control_mode_threshold_exceeded.L14b
p345
aVtc_304_236_isc_active_flag_on_control_mode_threshold_exceeded_ignore_replace_s1_wf_initial_context_setup_response.L14b
p346
aVtc_304_261_tau_from_gnsgsn_2g_control_mode_wf_update_location_response_reject_congestion.L14b
p347
aVtc_199_83_imsi_attach_S11_echo_alarm.L14b
p348
aVtc_232_401_bfd__ipv4_alarm.LWG
p349
aVtc_321_112_attach_auth_fail.LWG
p350
aVtc_56_21_sending_recognized_information_in_log.LWG
p351
aVtc_157_4_snmp_consistent.LWG
p352
aVtc_23_09_transfer_to_primary_and_change_vip_addr.LWG
p353
aVtc_216_006_icmpv6_inRedirects.LWG
p354
aVtc_103_708_modify_peer_send_DPR.LWG
p355
aVtc_103_1100_resending_AIR_dpl_changed.LWG
p356
aVtc_103_704_delete_peer_send_DPR.LWG
p357
aVtc_103_1155_sx_retransmit__Small_restart_terminate_request.LWG
p358
aVtc_310_126_af__PS_to_CS_Complete_From_MSC_arrives_after_Forward_Relocation_Complete_from_SGSN.LWG
p359
aVtc_310_335_ef_dbr_non_voice_bearer_wf_forward_relocation_complete_and_forward_relocation_complete_ack.LWG
p360
aVtc_310_333_ef_dbr_wf_srvcc_ps_to_cs_response_and_forward_relocation_response.LWG
p361
aVtc_183_008_itc_sctp_encrypted.LWG
p362
aVtc_245_123_inter_rau_old_s4_sgsn_activated_on_ggsn.LWG
p363
aVtc_363_021_gbip_feature_off_nses_bscconfirmed_trun_to_false.LWG
p364
aVtc_250_105_ignore_IDR_when_EPS_sub_downgrade_GPRS_sub.LWG
p365
aVtc_12_512_pmm_undefined_attach_when_updating_location_interfered_by_rnc_reset.LWG
p366
aVtc_73_21_itc_gtpu_s4_sgsn_send_echo_request_w.LWG
p367
aVtc_73_41_gtpu_sgsn_dont_send_gpu_echo_request_w.LWG
p368
aVtc_73_43_gtpu_sgsn_turn_off_gnu_echo_request_w.LWG
p369
aVtc_73_07_itc_encrypted_gtpu_s4_payload_w.LWG
p370
aVtc_321_112_attach_auth_fail.LW
p371
aVtc_304_102_emergency_intra_tau_success__control_mode_threshold_exceeded.LW
p372
aVtc_44_340_sctp_counter_index_SGsAP.LW
p373
aVtc_335_124_IMSI_Attach_AF.LW
p374
aVtc_250_105_ignore_IDR_when_EPS_sub_downgrade_GPRS_sub.LW
p375
aVtc_260_272_receive_sm_stop_req_while_wf_setup_iteration.LW
p376
aVtc_103_708_modify_peer_send_DPR.LW
p377
aVtc_103_704_delete_peer_send_DPR.LW
p378
aVtc_316_279_DSD_PDN_subscription_contexts_Withdrawal_All_PDN_Disconnect__Delete_UE_Backup.LW
p379
aVtc_346_671_pra_cn_predefined_cca_u_for_initial_report_failure_in_2nd_pdn_then_intra_tau_active_flag_out.L14b
p380
aVtc_268_028_UE_Release_Flow__S1_Reset_while_wf_Release_Access_Bearers_Response_followed_by_Extended_Service_Request.L14b
p381
aVtc_268_073_Timer_Based_GBR_Deact__receive_DDN_with_default_bearer_before_UE_context_release_complete.L14b
p382
aVtc_578_32_check_ebm_para_statistics_ue_return_duration.L14b
p383
aVtc_194_506_Notification_during_Intra_MME_TAU_without_SGW_Relocation_Procedure.L14b
p384
aVtc_295_124_tau_after_ho_tz_change_emm_information_meanwhile_handover_required_HO_success.L14b
p385
aVtc_282_020_delete_bearer_request_handover_to_non_3GPP_ecm_connected_multi_pdn.L14b
p386
aVtc_304_102_emergency_intra_tau_success__control_mode_threshold_exceeded.L14b
p387
aVtc_47_003_unstable_ue_ap_loss.L14b
p388
aVtc_103_704_delete_peer_send_DPR.L14b
p389
aVtc_103_1000_modify_diameter_peer_prio.LWG
p390
aVtc_103_708_modify_peer_send_DPR.LWG
p391
aVtc_103_704_delete_peer_send_DPR.LWG
p392
aVtc_103_1102_fallback_to_imsins_success.LWG
p393
aVtc_316_206_TAU_From_S4_SGSN_Multiple_PDN_Connections_With_Max_Dedicated_Bearers__Backup_UE.LWG
p394
aVtc_183_005_itc_folder_file_names.LWG
p395
aVtc_183_008_itc_sctp_encrypted.LWG
p396
aVtc_244_051_mt_lr_delete_bearer_request_received_wf_location_report.LWG
p397
aVtc_297_407_move_at_periodic_rau.LWG
p398
aVtc_219_016_tau_g_to_l_with_cl.LWG
p399
aVtc_12_512_pmm_undefined_attach_when_updating_location_interfered_by_rnc_reset.LWG
p400
aVtc_193_103_service_req_no_answer_from_hss_emm_cause_17.LWG
p401
aVtc_304_102_emergency_intra_tau_success__control_mode_threshold_exceeded.LWG
p402
aVtc_212_049_Ccheck_ra.LWG
p403
aVtc_204_1111_mme_eps_handover_target_SGW_unavailable_DNS_query_failure.LWG
p404
aVtc_23_09_transfer_to_primary_and_change_vip_addr.LWG
p405
aVtc_578_52_check_uetracer_parser.LWG
p406
aVtc_326_281_Intra_TAU_combined_type_with_unknown_GUTI_SGW_unavailable.LWG
p407
aVtc_216_009_icmpv6_inDestUnreachs.LWG
p408
aVtc_194_501_Notification_SV_change_during_Attach_Procedure_no_Response.LWG
p409
aVtc_321_112_attach_auth_fail.LWG
p410
aVtc_334_286_path_failure_service_req_connected_3gdt_af_create_session_no_resp.LWG
p411
aVtc_56_21_sending_recognized_information_in_log.LWG
p412
aVtc_347_100_Inter_TAU_Old_MME__Location_Report_while_waiting_for_Context_Ack.LWG
p413
aVtc_208_43_interception_after_small_restart.LWG
p414
aVtc_310_242_ef__S1_Reset_wf_FR_Response.LWG
p415
aVtc_310_335_ef_dbr_non_voice_bearer_wf_forward_relocation_complete_and_forward_relocation_complete_ack.LWG
p416
aVtc_262_061_imsi_attach_checkImeiLte_turned_off.LW
p417
aVtc_578_02_check_parse_ebm_and_ci_eci_l.LW
p418
aVtc_321_112_attach_auth_fail.LW
p419
aVtc_39_771_mas_rnc_reset_when_wf_ptmsi_realloc_cmpl_source.LW
p420
aVtc_220_587_csfb_to_1xrtt_in_extended_service_request_during_attach_waiting_for_modify_bearer_response.LW
p421
aVtc_103_1004_secondary_dpl_used_when_all_peers_in_dpl_unavailable_no_sls.LW
p422
aVtc_23_09_transfer_to_primary_and_change_vip_addr.LW
p423
aVtc_199_120_s11_path_management_small_restarted.LW
p424
aVtc_311_204_intra_srns_reloc_s4_sgw_change_wf_reloc_req_ack_interrupted_by_cancel_loc_subscrip_withdrawn.LW
p425
aVtc_245_127_inter_rau_old_wo_sgw_reloc_wf_Cancel_Location_interfere_by_attach_req.LW
p426
aVtc_248_92_inter_l_to_w_new_qos_higher_than_policymap_sgw_not_change_2_pdns_both_ubr_after_timeout.W14b
p427
aVtc_321_112_attach_auth_fail.W14b
p428
aVtc_245_011_inter_rau_new_two_pdn_without_sgw_change_upd_after_timeout.W14b
p429
aVtc_245_019_inter_rau_new_mf_with_sgw_change_2_ue.W14b
p430
aVtc_321_112_attach_auth_fail.LW
p431
aVtc_217_850_rau_to_sgsn_and_tau_back_to_mme_check_detach_register_table.LW
p432
aVtc_23_13_israu_out.LW
p433
aVtc_23_09_transfer_to_primary_and_change_vip_addr.LW
p434
aVtc_39_242_attach_prau_intrarau_triggers_imsi_profile.LW
p435
aVtc_39_601_mas_unsucc_fwd_reloc_resp_mandatory_ie_missing_stop_source.LW
p436
aVtc_44_402_s1ap_id_error_indication__enb_ue_id_mismatch.LW
p437
aVtc_44_004_small_restart__sctp_fe_restart.LW
p438
aVtc_361_118_s3_handover_l_to_w_intra_with_cl_qos_higher_than_policymap_trigger_alarm_1_ue.LW
p439
aVtc_103_708_modify_peer_send_DPR.LW
p440
aVtc_103_1005_secondary_dpl_used_when_all_peers_in_dpl_unavailable_with_sls.LW
p441
aVtc_103_704_delete_peer_send_DPR.LW
p442
aVtc_238_233_mme_eps_irat_Gn_ho_target_macro_eNB_skt_specific_format_targetid_HeNB_GW_table_matched.L14b
p443
aVtc_43_101__removal_of_disconnected_eNodeBs__CLI_removal.L14b
p444
aVtc_225_416_recv_service_while_waiting_extended_service_request.L14b
p445
aVtc_199_90_attach_S11_echo_2_UE_1_no_response_alarm.L14b
p446
aVtc_243_334_tau_from_sgsn_s3_emergency_type_c_ptmsi_sign_mismatch.L14b
p447
aVtc_103_1102_fallback_to_imsins_success.L14b
p448
aVtc_304_236_isc_active_flag_on_control_mode_threshold_exceeded_ignore_replace_s1_wf_initial_context_setup_response.L14b
p449
aVtc_262_1055_imsi_attach_with_csg_id_is_rejected.L14b
p450
aVtc_232_403_bfd__ipv4ipv6_alarm.LWG
p451
aVtc_259_99_ef_s6d_s4_attach_old_w.LWG
p452
aVtc_218_117_tau_from_sgsn_two_pdn_connections.LWG
p453
aVtc_218_204_TAU_from_SGSN__TAU_Request_with_same_IEs_while_waiting_for_Context_Response.LWG
p454
aVtc_218_314_tau_from_sgsn_preserved_gbr_bearer_2_pdn_buffer_2_ubr_active_flag_on_fail_delete_bearer.LWG
p455
aVtc_23_09_transfer_to_primary_and_change_vip_addr.LWG
p456
aVtc_363_011_cli_get_ra.LWG
p457
aVtc_103_708_modify_peer_send_DPR.LWG
p458
aVtc_103_704_delete_peer_send_DPR.LWG
p459
aVtc_103_1102_fallback_to_imsins_success.LWG
p460
aVtc_103_1155_sx_retransmit__Small_restart_terminate_request.LWG
p461
aVtc_236_170_s4_3gdt_activate_primary_pdp_context_odb_bit_15.LWG
p462
aVtc_244_049_mt_lr_cancel_location_with_subscription_withdraw_received_wf_location_report.LWG
p463
aVtc_305_040_oms_mmi.LWG
p464
aVtc_183_005_itc_folder_file_names.LWG
p465
aVtc_183_008_itc_sctp_encrypted.LWG
p466
aVtc_316_279_DSD_PDN_subscription_contexts_Withdrawal_All_PDN_Disconnect__Delete_UE_Backup.LWG
p467
aVtc_321_112_attach_auth_fail.LWG
p468
aVtc_56_21_sending_recognized_information_in_log.LWG
p469
aVtc_241_495_israu_new_gn_to_s4_pdp_to_bearer_with_10_secondary_pdp.LWG
p470
aVtc_92_06_20_pm_job_log_content.LWG
p471
aVtc_92_06_10_pm_job_log_content.LWG
p472
aVtc_304_218_inter_tau_control_mode_threshold_exceeded_ongoing_wf_tau_after_handover_illegal_ue.LWG
p473
aVtc_313_118_inter_new_srns_reloc_s16_without_sgw_change_with_dedicate_bearer_but_failed_to_setup_default_bearer.W14b
p474
aVtc_298_705_pgw_init_modification_ef_ms_deact_req_tdi_false_ti_dedicated_wf_rab_assignment_response.W14b
p475
aVtc_321_112_attach_auth_fail.W14b
p476
aVtc_324_371_ef_cancel_location_intialAttach_wf_modify_bearer_response_service_req_data.W14b
p477
aVtc_31_063_hlr_reset.W14b
p478
aVtc_241_733_service_request_wf_modify_bearer_response_interfered_by_activate_pdp_context.W14b
p479
aVtc_28_042_mo_sms_ok_for_home_when_blocked_for_visiting.W14b
p480
aVtc_28_050_mo_sms_homer_no_block_redirection.W14b
p481
aVtc_100_50_inter_w_to_g_new_main_flow.WG14a
p482
aVtc_297_407_move_at_periodic_rau.G14b
p483
aVtc_19_252_pool_move_by_ues_3gsm_2sgsn.G14b
p484
aVtc_213_074_nrspca_ms_resend_activate_sec_request.G14b
p485
aVtc_326_662_tau_intra_periodic_SGW_unavailable_after_MME_large_restart__two_pdn_one_fail.LW
p486
aVtc_307_080_HSS_Init_QoS_Modification_volte_bearer_gauge__QCI_Changed.LW
p487
aVtc_245_339_israu_new_l_to_w_buffer_ubr_interferred_with_service_request.LW
p488
aVtc_281_024_Activate_bearer__ERAB_setup_request_s1_intra_system_handover_triggered_multiple_bearer.LW
p489
aVtc_23_09_transfer_to_primary_and_change_vip_addr.LW
p490
aVtc_310_119_af__HO_Cancel_after_HO_Command_before_Complete_from_MSC_after_Complete_from_SGSN.LW
p491
aVtc_103_708_modify_peer_send_DPR.LW
p492
aVtc_103_704_delete_peer_send_DPR.LW
p493
aVtc_103_702_CEA_timeout.LW
p494
aVtc_262_513_attach_pb_activate_dedicated_bearer_modify_bearer_no_response.LW
p495
aVtc_324_239_ef_nas_ignore_update_loc_received_wf_modify_bearer_response.LW
p496
aVtc_321_112_attach_auth_fail.LW
p497
aVtc_256_176_mme_eps_srvcc_ho_source_cs_only_ue_release_request_wf_srvcc_ps_to_cs_complete_notification.LWG
p498
aVtc_56_21_sending_recognized_information_in_log.LWG
p499
aVtc_179_318_Ccheck_TraceCollectionIpv6server.LWG
p500
aVtc_241_432_intra_rau_with_bearer_sgw_unchange_2_pdns_3gdt.LWG
p501
aVtc_259_50_isd_tads_s4_w_pmmidle_attach_and_detached.LWG
p502
aVtc_216_008_icmpv6_inPacketTooBig.LWG
p503
aVtc_276_305_Inter_TAU_New_MME__Downlink_Data_Notification_while_waiting_for_failing_Modify_Bearer_Response.LWG
p504
aVtc_298_781_S4_3GDT_Service_request_wait_MBR_ef_detach.LWG
p505
aVtc_218_121_tau_from_sgsn_two_pdn_connections_ue_bearer_status_mismatch_conn.LWG
p506
aVtc_183_008_itc_sctp_encrypted.LWG
p507
aVtc_44_320_sctp_counter_index_S1AP.LWG
p508
aVtc_23_09_transfer_to_primary_and_change_vip_addr.LWG
p509
aVtc_304_503_intra_tau_success_control_mode_threshold_exceeded_dgn_imeisv.LWG
p510
aVtc_103_701_MME_restarts.LWG
p511
aVtc_103_708_modify_peer_send_DPR.LWG
p512
aVtc_103_704_delete_peer_send_DPR.LWG
p513
aVtc_321_112_attach_auth_fail.LWG
p514
aVtc_275_711_tau_inter_without_SGW_Change_receive_TZCR_flag_set_in_context_response_SN_change.L14b
p515
aVtc_262_1031_emergency_imsi_attach_multiple_pgw_try_next_pgw_fqdn_error.L14b
p516
aVtc_364_200_af_match_trigger_when_ebm_feature_off.L14b
p517
aVtc_332_013_mf__paging_due_to_update_bearer_request_no_QoS_update.L14b
p518
aVtc_203_200_mme_eps_ho_source_bearers_missing_in_response.L14b
p519
aVtc_103_704_delete_peer_send_DPR.L14b
p520
aVtc_194_506_Notification_during_Intra_MME_TAU_without_SGW_Relocation_Procedure.L14b
p521
aVtc_194_977_downlink_data_notification_with_cause_during_waiting_location_report__idr_flags_ef.L14b
p522
aVtc_217_703_rau_to_sgsn_type_a_emergency_not_allowed_interfered_by_ms_detach_when_20s_timeout.L14b
p523
aVtc_281_030_Activate_bearer__ERAB_setup_response_interaction_with_other_procedure_HO_undected_retry_counter_exceed.L14b
p524
aVtc_334_023_pgw_restart_mf_multiple_pdns_to_be_deactivated_idle.W14b
p525
aVtc_334_107_sgw_restart_mf_restoration_trigger_by_ReleaseAccessBearerResponse.W14b
p526
aVtc_321_112_attach_auth_fail.W14b
p527
aVtc_44_004_small_restart__sctp_fe_restart.LW
p528
aVtc_202_431_mf_seamless_move_target_service_request_modifyBearerReq_onePdnMultiBearer_oneBearerFail.LW
p529
aVtc_202_467_af_seamless_move_source_no_FRCN_with_s1_recovery.LW
p530
aVtc_347_100_Inter_TAU_Old_MME__Location_Report_while_waiting_for_Context_Ack.LW
p531
aVtc_103_708_modify_peer_send_DPR.LW
p532
aVtc_103_704_delete_peer_send_DPR.LW
p533
aVtc_248_92_inter_l_to_w_new_qos_higher_than_policymap_sgw_not_change_2_pdns_both_ubr_after_timeout.LW
p534
aVtc_321_112_attach_auth_fail.LW
p535
aVtc_326_204_Intra_TAU_combined_type_with_LA_served_by_old_msc_after_large_restart_after_combined_attach.LW
p536
aVtc_322_161_smooth_move_ef_nas_after_paging_response_ignore.WG14a
p537
aVtc_262_1053_emergency_type_b_imsi_attach_not_allowed_in_csg.LWG
p538
aVtc_73_40_gtpu_sgsn_send_gpu_echo_request_w.LWG
p539
aVtc_43_102__removal_of_disconnected_eNodeBs__gauge_threshold.LWG
p540
aVtc_321_112_attach_auth_fail.LWG
p541
aVtc_23_09_transfer_to_primary_and_change_vip_addr.LWG
p542
aVtc_92_06_20_pm_job_log_content.LWG
p543
aVtc_103_708_modify_peer_send_DPR.LWG
p544
aVtc_103_704_delete_peer_send_DPR.LWG
p545
aVtc_103_702_CEA_timeout.LWG
p546
aVtc_103_1155_sx_retransmit__Small_restart_terminate_request.LWG
p547
aVtc_183_008_itc_sctp_encrypted.LWG
p548
aVtc_212_049_Ccheck_ra.LWG
p549
aVtc_56_21_sending_recognized_information_in_log.LWG
p550
aVtc_219_131_s3_handover_w_to_l_with_cl_two_pdns_one_failed_sgw_relocation.LWG
p551
aVtc_219_232_TAU_Dual_Access_WtoL_without_SGW_Change_SGW_unavailable.LWG
p552
aVtc_195_537_mme_logging_tau_inter_old_s10_s3_the_same_address.L14b
p553
aVtc_282_020_delete_bearer_request_handover_to_non_3GPP_ecm_connected_multi_pdn.L14b
p554
aVtc_44_071_attach_long_imsi.L14b
p555
aVtc_44_850_mme_assoc_reestablish__board_restart_s1_mme.L14b
p556
aVtc_304_020_intruder_imsi_attach_when_correct_ue_attaching__control_mode_threshold_exceeded_usc_reject_congestion.L14b
p557
aVtc_194_505_Notification_during_Intra_TAU_without_SGW_Relocation_HSS_Reset_Before_TAU.L14b
p558
aVtc_327_317_recovery_service_request__initial_Attach_Request_while_waiting_for_Sub_Procedure__Initial_Context_Setup_Response.L14b
p559
aVtc_346_671_pra_cn_predefined_cca_u_for_initial_report_failure_in_2nd_pdn_then_intra_tau_active_flag_out.L14b
p560
aVtc_236_039_s4_3gdt_detach_during_waiting_for_modify_bearer_rsp_in_active_procedure.W14b
p561
aVtc_79_036_israu_new_streaming_context_MBR_not_zero_service_request.W14b
p562
aVtc_39_911_pool_move_by_ues_dual_access_node_detach.W14b
p563
aVtc_12_134_attach_with_extended_mmumoc_iu_inactivity_timer.W14b
p564
aVtc_321_112_attach_auth_fail.W14b
p565
aVtc_195_033_compare_trace_id_imei_check_digit_used.L14b
p566
aVtc_195_416_ue_trace_deactivate_trace_s1_intra_system_handover_triggered.L14b
p567
aVtc_304_102_emergency_intra_tau_success__control_mode_threshold_exceeded.L14b
p568
aVtc_346_671_pra_cn_predefined_cca_u_for_initial_report_failure_in_2nd_pdn_then_intra_tau_active_flag_out.L14b
p569
aVtc_284_351_pdn_connectivity_pb_activate_1_dedicated_bearer_interrupted_by_path_switch_request.L14b
p570
aVtc_220_411_csfb_to_1xrtt_in_ecm_connected_path_switch_request_subscription_cancelled.L14b
p571
aVtc_289_013_Modify_bearer__ERAB_modify_response_s1_intra_system_handover_triggered_two_pdn_uninvolved_default_bearer_fail.L14b
p572
aVtc_103_704_delete_peer_send_DPR.L14b
p573
aVtc_327_022_recovery_intra_TAU__initial_Detach_Request_while_waiting_for_Ue_Backup_Response.L14b
p574
aVtc_274_441_Intra_TAU_Detach_Request_while_waiting_for_Create_Session_Response_2PDNs_partially_failure_sgw_unavailable.L14b
p575
aVtc_23_09_transfer_to_primary_and_change_vip_addr.LW
p576
aVtc_276_305_Inter_TAU_New_MME__Downlink_Data_Notification_while_waiting_for_failing_Modify_Bearer_Response.LW
p577
aVtc_248_99_inter_l_to_w_new_qos_higher_than_policymap_trigger_alarm_2_ue.LW
p578
aVtc_271_002_sctp_paging_olp_cpu_load_between_pagingOlpStartDiscardCpuThreshold_and_pagingOlpDiscardAllCpuThreshold.LW
p579
aVtc_324_006_mf_ser_req_signaling_after_ack_3gdt.LW
p580
aVtc_39_108_attach_move_interfering_mt_sms.LW
p581
aVtc_39_601_mas_unsucc_fwd_reloc_resp_mandatory_ie_missing_stop_source.LW
p582
aVtc_327_037_recovery_intra_TAU_active_off_sgw_unchanged__RAR_wf_CSR_due_to_S11_linkdown.LW
p583
aVtc_321_112_attach_auth_fail.LW
p584
aVtc_304_102_emergency_intra_tau_success__control_mode_threshold_exceeded.LW
p585
aVtc_103_708_modify_peer_send_DPR.LW
p586
aVtc_103_704_delete_peer_send_DPR.LW
p587
aVtc_285_006_PDN_Connectivity_Pb__Delete_default_bearer_request_while_wf_modify_bearer_response.LW
p588
aVtc_324_327_ef_service_req_data_direct_transfer_ingore.W14b
p589
aVtc_236_039_s4_3gdt_detach_during_waiting_for_modify_bearer_rsp_in_active_procedure.W14b
p590
aVtc_31_064_activate_loc_not_confirmed_ul_fails_network_failure.W14b
p591
aVtc_321_112_attach_auth_fail.W14b
p592
aVtc_39_424_mas_one_pdp_downlink_data_target_with_higher_qosSub.W14b
p593
aVtc_96_064_intra_sgsn_intra_ra_psho_interfered_by_delete_pdp_then_received_error_indi_from_ggsn.G14b
p594
aVtc_313_281_inter_new_srns_reloc_s16_with_sgw_change_downlink_data_notification_with_cause_received_wf_rau_complete.WG14a
p595
aVtc_166_293_intra_rau_new_rnc_qos_upgrade_teid_change.WG14a
p596
aVtc_166_428_rnc_initiated_rab_release_interfered_by_rnc_initiated_iu_release_request.LWG
p597
aVtc_183_008_itc_sctp_encrypted.LWG
p598
aVtc_321_112_attach_auth_fail.LWG
p599
aVtc_103_708_modify_peer_send_DPR.LWG
p600
aVtc_103_704_delete_peer_send_DPR.LWG
p601
aVtc_103_1155_sx_retransmit__Small_restart_terminate_request.LWG
p602
aVtc_236_307_Activation_DtSelMode_5_APN_requested_wrong_SGSN_default_APN_in_APN_list_TAC_in_TAC_list.LWG
p603
aVtc_298_654_pgw_init_modification_mf_3gdt_enable.LWG
p604
aVtc_179_318_Ccheck_TraceCollectionIpv6server.LWG
p605
aVtc_275_107_Inter_TAU_New_MME_Emergency_Type_a__Imei_Check_Answer_Blacklisted_after_TAU_Accept_ire_false.LWG
p606
aVtc_23_09_transfer_to_primary_and_change_vip_addr.LWG
p607
aVtc_280_137_activate_bearer_erab_setup_response_in_wrong_state.LWG
p608
aVtc_56_21_sending_recognized_information_in_log.LWG
p609
aVtc_310_265__ef__Initial_UE_Service_Request_wf_PS_to_CS_Complete.LWG
p610
aVtc_291_40_action_ue_trace.LWG
p611
aVtc_306_1124_ef_seamless_move_target_receive_detach_request_with_switchoff_wf_mbr.LWG
p612
aVtc_24_175_msc_pool_psho_msc_from_old_sgsn_supported_but_offloading_select_msc.LWG
p613
aVtc_666_02_reboot_ss7_board.LWG
p614
aVtc_149_012_bgp_peerInUpdateElapsedTime_overEth.LWG
p615
aVtc_208_43_interception_after_small_restart.LWG
p616
aVtc_364_004_delete_UE_Trace_Session_created_due_to_trigger.LWG
p617
aVtc_324_006_mf_ser_req_signaling_after_ack_3gdt.LWG
p618
aVtc_324_327_ef_service_req_data_direct_transfer_ingore.LWG
p619
aVtc_324_239_ef_nas_ignore_update_loc_received_wf_modify_bearer_response.LWG
p620
aVtc_334_286_path_failure_service_req_connected_3gdt_af_create_session_no_resp.LWG
p621
aVtc_212_049_Ccheck_ra.LWG
p622
aVtc_160_004_reset_sgsn_initiated_ret.LWG
p623
aVtc_100_67_intra_w_to_g_mf_with_lawful_intercept.WG14a
p624
aVtc_47_002_imsi_attach_ap_gain.LW
p625
aVtc_284_350_pdn_connectivity_interrupted_by_path_switch_request.LW
p626
aVtc_298_424_ms_init_deact_ef_delicated_non_gbr_bearer_deact_interfered_by_rab_release_request.LW
p627
aVtc_321_112_attach_auth_fail.LW
p628
aVtc_326_242_Intra_TAU_Recovery_Initial_Context_Setup_timeout.LW
p629
aVtc_326_622_S6a_Throttling_Service_Request_recovery_UL_successful_and_Emergency_Attach_not_throttled.LW
p630
aVtc_322_038_smooth_move_af_no_cancel_location_request_from_hlr.LW
p631
aVtc_318_201_idle_deactivate_dedicated_bearers_one_by_one_reactivate_req.LW
p632
aVtc_275_073_tau_inter_new_no_update_location_response_sgsn00040258.LW
p633
aVtc_231_281_activate_pdp_request_ignore_during_s4_pdp_deactivating.LW
p634
aVtc_316_279_DSD_PDN_subscription_contexts_Withdrawal_All_PDN_Disconnect__Delete_UE_Backup.LW
p635
aVtc_341_802_x2_connection_heartbeat_test_x2_reconnect_due_to_activity_event.LW
p636
aVtc_578_19_check_pm_job_monitor.LW
p637
aVtc_263_020_Attach_Flow__Attach_Request_Different_IEs_IP_OK_while_waiting_for_Delete_Session_Response.LW
p638
aVtc_236_117_s4_3gdt_based_on_sr_dt_to_non_dt_gtpu_data_received_not_all_rabs_reestablished.W14b
p639
aVtc_321_112_attach_auth_fail.W14b
p640
aVtc_51_096_reloc_wf_update_location_response_interfered_by_attach_on_new_iu.W14b
p641
aVtc_194_100_check_gauge_unstable_not_parked.L14b
p642
aVtc_304_236_isc_active_flag_on_control_mode_threshold_exceeded_ignore_replace_s1_wf_initial_context_setup_response.L14b
p643
aVtc_363_011_cli_get_ra.LWG
p644
aVtc_44_004_small_restart__sctp_fe_restart.LWG
p645
aVtc_183_005_itc_folder_file_names.LWG
p646
aVtc_183_008_itc_sctp_encrypted.LWG
p647
aVtc_103_708_modify_peer_send_DPR.LWG
p648
aVtc_103_704_delete_peer_send_DPR.LWG
p649
aVtc_103_1155_sx_retransmit__Small_restart_terminate_request.LWG
p650
aVtc_321_112_attach_auth_fail.LWG
p651
aVtc_73_21_itc_gtpu_s4_sgsn_send_echo_request_w.LWG
p652
aVtc_141_005_eth_traffic_novlan.LWG
p653
aVtc_340_93_validation_move_small_restart_dual.LWG
p654
aVtc_208_43_interception_after_small_restart.LWG
p655
aVtc_298_424_ms_init_deact_ef_delicated_non_gbr_bearer_deact_interfered_by_rab_release_request.LWG
p656
aVtc_298_610_sgsn_init_bearer_deact_ef_iu_release_wf_delete_req.LWG
p657
aVtc_220_420_csfb_to_1xrtt_ue_return_with_service_request_SGW_unavailable.LWG
p658
aVtc_56_21_sending_recognized_information_in_log.LWG
p659
aVtc_327_372_recovery_service_request__initial_extended_service_request_while_waiting_for_Update_Location_Answer.LWG
p660
aVtc_256_175_mme_eps_srvcc_ho_source_cs_only_ue_release_request_wf_srvcc_ps_to_cs_response.LWG
p661
aVtc_209_180_handover_w_to_l_source_s4_sgsn.LWG
p662
aVtc_216_002_icmpv6_inEchos.LWG
p663
aVtc_310_129_af__subscription_in_HSS_indicates_SRVCC_is_not_supported.LWG
p664
aVtc_346_1008_seamless_move_source_ecm_connected_terminate_sx.LWG
p665
aVtc_322_161_smooth_move_ef_nas_after_paging_response_ignore.WG14a
p666
aVtc_321_112_attach_auth_fail.W14b
p667
aVtc_347_311_Location_reporting_control_RAR_while_waiting_location_report.LWG
p668
aVtc_310_202_ef__Detach_wf_PS_to_CS_Response.LWG
p669
aVtc_103_708_modify_peer_send_DPR.LWG
p670
aVtc_103_704_delete_peer_send_DPR.LWG
p671
aVtc_262_1006_attach_apn_resolution_ext_apn_based_with_ga_msisdn_cc.LWG
p672
aVtc_73_21_itc_gtpu_s4_sgsn_send_echo_request_w.LWG
p673
aVtc_73_41_gtpu_sgsn_dont_send_gpu_echo_request_w.LWG
p674
aVtc_183_008_itc_sctp_encrypted.LWG
p675
aVtc_178_690_action_sctp_sys_assoc_move_command.LWG
p676
aVtc_275_073_tau_inter_new_no_update_location_response_sgsn00040258.LWG
p677
aVtc_59_9_mtmsi_restart_counter.LWG
p678
aVtc_81_052_israu_ggsn_downgrades_to_streaming_no_lic.LWG
p679
aVtc_321_090_mo_sms_mf.LWG
p680
aVtc_321_112_attach_auth_fail.LWG
p681
aVtc_23_09_transfer_to_primary_and_change_vip_addr.LWG
p682
aVtc_304_102_emergency_intra_tau_success__control_mode_threshold_exceeded.LWG
p683
aVtc_194_085_hss_reset_after_subdata_read_from_cache.L14b
p684
aVtc_194_176_hss_reset_during_tau_after_successful_update_location.L14b
p685
aVtc_304_102_emergency_intra_tau_success__control_mode_threshold_exceeded.L14b
p686
aVtc_103_704_delete_peer_send_DPR.L14b
p687
aVtc_103_708_modify_peer_send_DPR.L14b
p688
aVtc_243_331_tau_from_sgsn_s3_emergency_type_d_no_restriction.L14b
p689
aVtc_304_102_emergency_intra_tau_success__control_mode_threshold_exceeded.LW
p690
aVtc_225_556_Extended_Service_Request_to_WG_with_CSG_ID_is_rejected.LW
p691
aVtc_311_132_intra_srns_reloc_s4_sgw_change_relocation_cancel_when_receive_relocation_request.LW
p692
aVtc_23_09_transfer_to_primary_and_change_vip_addr.LW
p693
aVtc_256_071_mme_eps_srvcc_ho_source_to_geran_cs_only_emergency_mf_without_DTM_with_GBR_bearers_in_emergency_pdn.LW
p694
aVtc_358_112_lte_national_roaming_user_reactivate_pdn_intra_tau_ip_area_to_unrestricted_ip_area.LW
p695
aVtc_217_093_rau_to_sgsn_s1_reset_when_wf_sgsn_context_ack.LW
p696
aVtc_324_327_ef_service_req_data_direct_transfer_ingore.LW
p697
aVtc_316_279_DSD_PDN_subscription_contexts_Withdrawal_All_PDN_Disconnect__Delete_UE_Backup.LW
p698
aVtc_26_112_inter_srns_reloc_old_ARP.LW
p699
aVtc_321_112_attach_auth_fail.LW
p700
aVtc_364_214_af_trigger_hits_before_UE_id_is_known_wcdma.LW
p701
aVtc_103_024_modify_diameter_peer_switch_peer_numbers.LW
p702
aVtc_103_903_primary_or_secondary_realm_routing_own_realm.LW
p703
aVtc_103_708_modify_peer_send_DPR.LW
p704
aVtc_103_704_delete_peer_send_DPR.LW
p705
aVtc_103_1142_sx_resend__resend_during_inter_mme_tau_2_pdns.LW
p706
aVtc_310_310_S3_new_SGW_emergency_attach_sv_pool_on_msc_one_offloading_one_available.LW
p707
aVtc_208_43_interception_after_small_restart.G14b
p708
aVtc_34_76_pool_move_by_ues_2w3g_2gSGSN_2wSGSN.WG14a
p709
aVtc_322_161_smooth_move_ef_nas_after_paging_response_ignore.WG14a
p710
aVtc_236_223_Inter_RAU_S4_over_S16_target_DtSelMode_5_wildcard_in_APN_list_TAC_in_TAC_list_without_SGW_Relocation.W14b
p711
aVtc_39_716_delete_subscriber_data_continue_target_sgsn.W14b
p712
aVtc_321_112_attach_auth_fail.W14b
p713
aVtc_347_133_Seamless_Move_Target__eNB_Configuration_Update_while_waiting_for_CCA_initial.LW
p714
aVtc_321_112_attach_auth_fail.LW
p715
aVtc_311_204_intra_srns_reloc_s4_sgw_change_wf_reloc_req_ack_interrupted_by_cancel_loc_subscrip_withdrawn.LW
p716
aVtc_195_208_mme_logging_maximum_modify_eps_bearer_context.LW
p717
aVtc_23_09_transfer_to_primary_and_change_vip_addr.LW
p718
aVtc_304_102_emergency_intra_tau_success__control_mode_threshold_exceeded.LW
p719
aVtc_194_084_hss_reset_after_large_restart.LW
p720
aVtc_326_671_tau_intra_SGW_unavailable_active_flag_off_after_MME_large_restart__with_emergency_PDN.LW
p721
aVtc_195_416_ue_trace_deactivate_trace_s1_intra_system_handover_triggered.L14b
p722
aVtc_44_301_sctp_counter_MessageSent_Received.L14b
p723
aVtc_265_160_Detach_Flow_NW_init__Ue_moved_to_non_3gpp_while_imsi_detach.L14b
p724
aVtc_318_271_sgw_restart_af_relocation_triggered_by_DDN_create_session_two_PDN_one_timeout.L14b
p725
aVtc_284_350_pdn_connectivity_interrupted_by_path_switch_request.L14b
p726
aVtc_43_102__removal_of_disconnected_eNodeBs__gauge_threshold.L14b
p727
aVtc_194_505_Notification_during_Intra_TAU_without_SGW_Relocation_HSS_Reset_Before_TAU.L14b
p728
aVtc_103_708_modify_peer_send_DPR.L14b
p729
aVtc_103_704_delete_peer_send_DPR.L14b
p730
aVtc_103_1100_resending_AIR_dpl_changed.LWG
p731
aVtc_103_708_modify_peer_send_DPR.LWG
p732
aVtc_103_704_delete_peer_send_DPR.LWG
p733
aVtc_103_1155_sx_retransmit__Small_restart_terminate_request.LWG
p734
aVtc_73_40_gtpu_sgsn_send_gpu_echo_request_w.LWG
p735
aVtc_241_431_intra_rau_with_bearer_sgw_unchange_2_pdns_with_one_modify_no_response.LWG
p736
aVgn_wcdma_payload_no_context_ensure_stored.LWG
p737
aVtc_321_112_attach_auth_fail.LWG
p738
aVtc_238_004_mme_eps_irat_ho_target__UeNetworkCap_changed_in_TAU_Request.LWG
p739
aVtc_219_131_s3_handover_w_to_l_with_cl_two_pdns_one_failed_sgw_relocation.LWG
p740
aVtc_59_9_mtmsi_restart_counter.LWG
p741
aVtc_183_008_itc_sctp_encrypted.LWG
p742
aVtc_214_330_mt_sms_idle_mode_ef_downlink_unitdata_wf_modify_bearer_response_in_service_request.LWG
p743
aVtc_216_009_icmpv6_inDestUnreachs.LWG
p744
aVtc_274_003_Intra_and_pTAU__Attach_Request_while_waiting_for_Authentication_Information_Answer.LWG
p745
aVtc_23_09_transfer_to_primary_and_change_vip_addr.LWG
p746
aVtc_208_43_interception_after_small_restart.LWG
p747
aVtc_310_244_ef__S1_Reset_wf_FR_Complete_PS_to_CS_Complete_received.LWG
p748
aVtc_262_1055_imsi_attach_with_csg_id_is_rejected.LWG
p749
aVtc_326_218_Intra_TAU_Recovery_two_PDN_partial_fail.LWG
p750
aVtc_218_215_2_TAU_from_SGSN__ho_to_non_3gpp_while_waiting_for_failing_Initial_Context_Setup_Response.LWG
p751
aVtc_297_407_move_at_periodic_rau.LWG
p752
aVtc_232_401_bfd__ipv4_alarm.LWG
p753
aVtc_219_131_s3_handover_w_to_l_with_cl_two_pdns_one_failed_sgw_relocation.LWG
p754
aVtc_326_216_Intra_TAU_Recovery_combined_type_Location_Update_Reject.LWG
p755
aVtc_44_320_sctp_counter_index_S1AP.LWG
p756
aVtc_23_09_transfer_to_primary_and_change_vip_addr.LWG
p757
aVtc_59_9_mtmsi_restart_counter.LWG
p758
aVtc_166_241_switch_back_to_two_tunnels_streaming.LWG
p759
aVtc_166_428_rnc_initiated_rab_release_interfered_by_rnc_initiated_iu_release_request.LWG
p760
aVtc_284_351_pdn_connectivity_pb_activate_1_dedicated_bearer_interrupted_by_path_switch_request.LWG
p761
aVtc_310_402_srvcc_ps_cs_mt_csfb_wf_delete_bearer_request_esr_send_before_dbr.LWG
p762
aVtc_56_21_sending_recognized_information_in_log.LWG
p763
aVtc_73_41_gtpu_sgsn_dont_send_gpu_echo_request_w.LWG
p764
aVtc_212_049_Ccheck_ra.LWG
p765
aVtc_183_005_itc_folder_file_names.LWG
p766
aVtc_183_008_itc_sctp_encrypted.LWG
p767
aVtc_265_101_Detach_Flow_NW_init__Reattach_Required_Attach_Request_while_waiting_for_Detach_Accept.LWG
p768
aVtc_305_040_oms_mmi.LWG
p769
aVtc_321_112_attach_auth_fail.LWG
p770
aVtc_291_40_action_ue_trace.LWG
p771
aVtc_316_279_DSD_PDN_subscription_contexts_Withdrawal_All_PDN_Disconnect__Delete_UE_Backup.LWG
p772
aVtc_298_301_EF_SIBD_S4_Activate_From_MS_TI_Flag.LWG
p773
aVtc_220_027_csfb_to_1xrtt_in_ecm_connected_ue_context_modification_failure.LWG
p774
aVtc_103_024_modify_diameter_peer_switch_peer_numbers.LWG
p775
aVtc_103_1100_resending_AIR_dpl_changed.LWG
p776
aVtc_103_708_modify_peer_send_DPR.LWG
p777
aVtc_103_704_delete_peer_send_DPR.LWG
p778
aVtc_103_1155_sx_retransmit__Small_restart_terminate_request.LWG
p779
aVtc_321_112_attach_auth_fail.W14b
p780
aVtc_12_512_pmm_undefined_attach_when_updating_location_interfered_by_rnc_reset.W14b
p781
aVtc_578_19_check_pm_job_monitor.W14b
p782
aVtc_246_061_israu_new_l_to_g_sgw_change_one_pdn_ubr_before_rau_complete_interfered_by_inter_rau_request.G14b
p783
aVtc_297_407_move_at_periodic_rau.G14b
p784
aVtc_250_105_ignore_IDR_when_EPS_sub_downgrade_GPRS_sub.LW
p785
aVtc_103_708_modify_peer_send_DPR.LW
p786
aVtc_103_704_delete_peer_send_DPR.LW
p787
aVtc_326_481_Combined_Inter_TAU_Recovery__Location_Update_Timeout.LW
p788
aVtc_316_279_DSD_PDN_subscription_contexts_Withdrawal_All_PDN_Disconnect__Delete_UE_Backup.LW
p789
aVtc_194_505_Notification_during_Intra_TAU_without_SGW_Relocation_HSS_Reset_Before_TAU.LW
p790
aVtc_304_102_emergency_intra_tau_success__control_mode_threshold_exceeded.LW
p791
aVtc_324_006_mf_ser_req_signaling_after_ack_3gdt.LW
p792
aVtc_220_213_csfb_to_1xrtt_in_ecm_connected_tau_request_wf_suspend_response.LW
p793
aVtc_39_601_mas_unsucc_fwd_reloc_resp_mandatory_ie_missing_stop_source.LW
p794
aVtc_321_112_attach_auth_fail.LW
p795
aVtc_44_301_sctp_counter_MessageSent_Received.L14b
p796
aVtc_103_903_primary_or_secondary_realm_routing_own_realm.L14b
p797
aVtc_225_611_exp_flow_context_request_while_wf_modification_context_response.L14b
p798
aVtc_256_043_mme_eps_srvcc_ho_source_cs_only_release_access_bearers_response_not_received.L14b
p799
aVtc_103_704_delete_peer_send_DPR.L14b
p800
aVtc_103_708_modify_peer_send_DPR.L14b
p801
aVtc_327_022_recovery_intra_TAU__initial_Detach_Request_while_waiting_for_Ue_Backup_Response.L14b
p802
aVtc_257_58_MPS_classified_paging_pws_ongoing_DPDP_false.L14b
p803
aVtc_289_042_Modify_bearer__Downlink_nas_transport_meanwhile_path_switch_request_SGW_change_no_UBR_from_new_SGW.L14b
p804
aVtc_11_091_activate_secondary_pdp_context_wrong_LinkedTI.W14b
p805
aVtc_321_112_attach_auth_fail.W14b
p806
aVtc_56_21_sending_recognized_information_in_log.LWG
p807
aVtc_321_112_attach_auth_fail.LWG
p808
aVtc_284_370_pdn_connectivity_with_allowed_apn_in_odb_free_apn_list__odb_bit0.LWG
p809
aVtc_211_011_streamed_cell_trace_mapping_log_x2_ho.LWG
p810
aVtc_29_038_attach_g_rau_w_delete_subscriber_during_ul.LWG
p811
aVtc_306_1390_ef_seamless_move_target_ignore_ue_context_release_request_user_inactivity.LWG
p812
aVtc_183_008_itc_sctp_encrypted.LWG
p813
aVtc_52_34_reloc_wf_forw_rel_resp_interrupted_by_detach_power_off.LWG
p814
aVtc_312_250_inter_old_srns_reloc_wf_session_to_complete_interrupted_by_gtpv1_sgsn_context_request.LWG
p815
aVtc_12_512_pmm_undefined_attach_when_updating_location_interfered_by_rnc_reset.LWG
p816
aVtc_23_09_transfer_to_primary_and_change_vip_addr.LWG
p817
aVtc_43_101__removal_of_disconnected_eNodeBs__CLI_removal.LWG
p818
aVtc_103_708_modify_peer_send_DPR.LWG
p819
aVtc_103_704_delete_peer_send_DPR.LWG
p820
aVtc_103_1155_sx_retransmit__Small_restart_terminate_request.LWG
p821
aVtc_212_049_Ccheck_ra.LWG
p822
aVtc_310_335_ef_dbr_non_voice_bearer_wf_forward_relocation_complete_and_forward_relocation_complete_ack.LWG
p823
aVtc_24_131_msc_pool_ngaf_gs_null_handle_second_alert_request.LWG
p824
aVtc_311_103_intra_srns_reloc_s4_pool_move_in_progress.LWG
p825
aVtc_195_208_mme_logging_maximum_modify_eps_bearer_context.LWG
p826
aVtc_259_99_ef_s6d_s4_attach_old_w.LWG
p827
aVtc_297_407_move_at_periodic_rau.LWG
p828
aVtc_179_318_Ccheck_TraceCollectionIpv6server.LWG
p829
aVtc_194_084_hss_reset_after_large_restart.LW
p830
aVtc_103_708_modify_peer_send_DPR.LW
p831
aVtc_103_704_delete_peer_send_DPR.LW
p832
aVtc_23_09_transfer_to_primary_and_change_vip_addr.LW
p833
aVtc_306_002_ef_seamless_move_source_receive_attach_request_wf_service_request.LW
p834
aVtc_324_121_af_service_request_with_data_only_ulr_timeout_3gdt.LW
p835
aVtc_26_057_ms_initiated_pdp_context_modification_ms_wants_conversational_2.LW
p836
aVtc_334_281_path_failure_service_req_af_multi_pdn_create_session_no_resp.LW
p837
aVtc_321_112_attach_auth_fail.LW
p838
aVtc_11_630_rau_new_sgsn_init_deactivation_ggsn_restarted_create_response.LW
p839
aVtc_322_161_smooth_move_ef_nas_after_paging_response_ignore.WG14a
p840
aVtc_297_407_move_at_periodic_rau.G14b
p841
aVtc_43_101__removal_of_disconnected_eNodeBs__CLI_removal.L14b
p842
aVtc_195_417_ue_trace_deactivate_trace_s1_intra_system_handover_triggered_HO_ongoing_timeout.L14b
p843
aVtc_282_020_delete_bearer_request_handover_to_non_3GPP_ecm_connected_multi_pdn.L14b
p844
aVtc_44_201_sctp_endpoint_config__modify_rt_Diameter.L14b
p845
aVtc_326_312_Service_Request_with_unknown_STMSI_1xrtt_cs_registration_timeout.L14b
p846
aVtc_256_072_mme_eps_srvcc_ho_source_to_geran_cs_only_emergency_mf_without_DTM_with_GBR_bearers_in_normal_pdn.L14b
p847
aVtc_204_207_mme_eps_ho_target__multi_pdn_sgw_relocation__failed_modify_bearer_request.L14b
p848
aVtc_324_225_ef_detach_request_abort_wf_rab_assignment_response_wf_update_location_hss_service_req_data.WG14a
p849
aVtc_284_351_pdn_connectivity_pb_activate_1_dedicated_bearer_interrupted_by_path_switch_request.LWG
p850
aVtc_44_004_small_restart__sctp_fe_restart.LWG
p851
aVtc_314_022_hss_reset_restoration_followed_by_service_request_smah_off.LWG
p852
aVtc_208_204_s4_payload.LWG
p853
aVtc_183_008_itc_sctp_encrypted.LWG
p854
aVtc_263_204_Attach_Flow_Pb__Attach_Request_Same_IEs_while_waiting_for_Attach_Complete.LWG
p855
aVtc_11_322_serv_req_data_uplink_data_status_two_serv_req.LWG
p856
aVtc_59_9_mtmsi_restart_counter.LWG
p857
aVtc_285_016_PDN_Connectivity__Handover_Required_while_pdn_disconnectivity.LWG
p858
aVtc_310_127_af__error_cause_code_in_PS_to_CS_Complete_from_MSC.LWG
p859
aVtc_310_335_ef_dbr_non_voice_bearer_wf_forward_relocation_complete_and_forward_relocation_complete_ack.LWG
p860
aVtc_321_112_attach_auth_fail.LWG
p861
aVtc_103_708_modify_peer_send_DPR.LWG
p862
aVtc_103_704_delete_peer_send_DPR.LWG
p863
aVtc_324_327_ef_service_req_data_direct_transfer_ingore.LWG
p864
aVtc_56_21_sending_recognized_information_in_log.LWG
p865
aVtc_110_005_inbound_outbound_pf_rule_cli_ip.LWG
p866
aVtc_245_011_inter_rau_new_two_pdn_without_sgw_change_upd_after_timeout.LW
p867
aVtc_262_1055_imsi_attach_with_csg_id_is_rejected.LW
p868
aVtc_321_112_attach_auth_fail.LW
p869
aVtc_44_350_sctp_counter_index_LCSAP.LW
p870
aVtc_44_004_small_restart__sctp_fe_restart.LW
p871
aVtc_236_168_s4_3gdt_with_dedicated_bearer_paging_by_dl_notification_all_rab_setup_failed.LW
p872
aVtc_248_99_inter_l_to_w_new_qos_higher_than_policymap_trigger_alarm_2_ue.LW
p873
aVtc_284_350_pdn_connectivity_interrupted_by_path_switch_request.LW
p874
aVtc_23_09_transfer_to_primary_and_change_vip_addr.LW
p875
aVtc_217_850_rau_to_sgsn_and_tau_back_to_mme_check_detach_register_table.LW
p876
aVtc_103_708_modify_peer_send_DPR.LW
p877
aVtc_103_704_delete_peer_send_DPR.LW
p878
aVtc_298_424_ms_init_deact_ef_delicated_non_gbr_bearer_deact_interfered_by_rab_release_request.LW
p879
aVtc_38_80_intra_rau_new_rnc_with_authentication_wrong_ptmsi_signature.W14b
p880
aVtc_250_12_hss_reset_many_subscribers.W14b
p881
aVtc_321_112_attach_auth_fail.W14b
p882
aVtc_208_43_interception_after_small_restart.G14b
p883
aVtc_103_708_modify_peer_send_DPR.LW
p884
aVtc_103_704_delete_peer_send_DPR.LW
p885
aVtc_220_411_csfb_to_1xrtt_in_ecm_connected_path_switch_request_subscription_cancelled.LW
p886
aVtc_326_216_Intra_TAU_Recovery_combined_type_Location_Update_Reject.LW
p887
aVtc_313_281_inter_new_srns_reloc_s16_with_sgw_change_downlink_data_notification_with_cause_received_wf_rau_complete.LW
p888
aVtc_23_09_transfer_to_primary_and_change_vip_addr.LW
p889
aVtc_248_92_inter_l_to_w_new_qos_higher_than_policymap_sgw_not_change_2_pdns_both_ubr_after_timeout.LW
p890
aVtc_242_156_rau_to_sgsn_s3_type_d_emergency_allowed_irat_and_plmn_change.LW
p891
aVtc_321_112_attach_auth_fail.LW
p892
aVtc_275_073_tau_inter_new_no_update_location_response_sgsn00040258.LW
p893
aVtc_321_112_attach_auth_fail.W14b
p894
aVtc_324_226_ef_detach_request_abort_wf_modify_bearer_response_wf_update_location_hlr_ack_timeout.W14b
p895
aVtc_324_388_ef_mo_sms_wf_ula.W14b
p896
aVtc_12_182_wcdma_repeat_paging_with_old_ptmsi.W14b
p897
aVtc_298_440_ms_init_deact_ef_default_bearer_deact_with_rab_interfered_by_dedicate_bearer_deact_request.W14b
p898
aVtc_327_317_recovery_service_request__initial_Attach_Request_while_waiting_for_Sub_Procedure__Initial_Context_Setup_Response.L14b
p899
aVtc_287_007_PDN_Disconnect__erab_release_indication_with_default_bearer_while_wf_delete_session_response.L14b
p900
aVtc_304_102_emergency_intra_tau_success__control_mode_threshold_exceeded.L14b
p901
aVtc_326_622_S6a_Throttling_Service_Request_recovery_UL_successful_and_Emergency_Attach_not_throttled.L14b
p902
aVtc_220_563_csfb_to_1xrtt_in_ecm_idle_detach_request_wf_ue_context_release_request.L14b
p903
aVtc_266_026_DownlinkDataFailureInd_repeat_paging_timer_small_local_restart.L14b
p904
aVtc_275_243_tau_inter_new_emergency_transfer_due_to_wrong_ap_index.L14b
p905
aVtc_103_708_modify_peer_send_DPR.L14b
p906
aVtc_103_704_delete_peer_send_DPR.L14b
p907
aVtc_578_52_check_uetracer_parser.L14b
p908
aVtc_298_232_SIBD_S4_SM_Status_from_UE_Connect.LWG
p909
aVtc_298_547_sgsn_init_pdn_deact_ef_deact_req_tdi_true_wf_delete_session_resp.LWG
p910
aVtc_298_696_S4_3GDT_Service_request_wait_rnc_resp_ef_deactivate_pdp_context_request_default.LWG
p911
aVtc_321_112_attach_auth_fail.LWG
p912
aVtc_183_005_itc_folder_file_names.LWG
p913
aVtc_183_008_itc_sctp_encrypted.LWG
p914
aVtc_24_133_msc_pool_ngaf_gs_null_ms_activity_indication.LWG
p915
aVtc_273_420_Report_SN_intra_TAU_with_SGW_changed.LWG
p916
aVtc_23_09_transfer_to_primary_and_change_vip_addr.LWG
p917
aVtc_326_834_Intra_TAU_Recovery_after_Node_Restart_SGW_Unchange_active_flag_on_no_modify_bearer_response.LWG
p918
aVtc_73_41_gtpu_sgsn_dont_send_gpu_echo_request_w.LWG
p919
aVtc_232_401_bfd__ipv4_alarm.LWG
p920
aVtc_178_830_action_ss7_sys_tclear.LWG
p921
aVtc_212_049_Ccheck_ra.LWG
p922
aVtc_322_054_smooth_move_ef_attach_request_wf_security_mode_complete.LWG
p923
aVtc_11_091_activate_secondary_pdp_context_wrong_LinkedTI.LWG
p924
aVtc_103_1100_resending_AIR_dpl_changed.LWG
p925
aVtc_103_708_modify_peer_send_DPR.LWG
p926
aVtc_103_704_delete_peer_send_DPR.LWG
p927
aVtc_334_281_path_failure_service_req_af_multi_pdn_create_session_no_resp.LWG
p928
aVtc_263_109_Attach_Flow__TAU_Request_while_waiting_for_Modify_Bearer_Response.LWG
p929
aVtc_259_67_ef_provide_subscriber_information_attach_old_w.LWG
p930
aVtc_179_318_Ccheck_TraceCollectionIpv6server.LWG
p931
aVtc_236_307_Activation_DtSelMode_5_APN_requested_wrong_SGSN_default_APN_in_APN_list_TAC_in_TAC_list.LWG
p932
aVtc_220_042_csfb_to_1xrtt_in_ecm_connected_s1_reset_wf_ue_context_release_request.LWG
p933
aVtc_319_200_sgwTempUnavailableDuration_timeout_before_path_detection_interval.LWG
p934
aVtc_208_43_interception_after_small_restart.LWG
p935
a.