(lp0
Vtc_304_200_inter_tau_reject__control_mode_threshold_exceeded.L14b
p1
aVtc_266_026_DownlinkDataFailureInd_repeat_paging_timer_small_local_restart.L14b
p2
aVtc_44_850_mme_assoc_reestablish__board_restart_s1_mme.L14b
p3
aVtc_214_028_combined_attach_interfering_s1_reset.L14b
p4
aVtc_214_220_mo_sms_idle_interfering_secondary_sms.L14b
p5
aVtc_214_1008_la_selection_mf_csfb_off.L14b
p6
aVtc_275_711_tau_inter_without_SGW_Change_receive_TZCR_flag_set_in_context_response_SN_change.L14b
p7
aVtc_103_903_primary_or_secondary_realm_routing_own_realm.L14b
p8
aVtc_295_025_Intra_S1_HO__Attach_request_while_wf_TAU_request.L14b
p9
aVtc_231_281_activate_pdp_request_ignore_during_s4_pdp_deactivating.W14b
p10
aVtc_321_112_attach_auth_fail.W14b
p11
aVtc_11_113_sgsn_initiated_pdp_context_modification.LWG
p12
aVtc_310_332_ef_UBR_in_different_wf_states_emergency_PDN.LWG
p13
aVtc_289_031_Modify_bearer__Downlink_nas_transport_meanwhile_path_switch_request_HO_success.LWG
p14
aVtc_305_057_oms_mmi_hwm.LWG
p15
aVtc_44_320_sctp_counter_index_S1AP.LWG
p16
aVtc_321_112_attach_auth_fail.LWG
p17
aVtc_244_051_mt_lr_delete_bearer_request_received_wf_location_report.LWG
p18
aVtc_23_13_israu_out.LWG
p19
aVtc_19_251_pool_move_by_ues_dual_access_node_detach.LWG
p20
aVtc_79_034_rab_reestablish_on_downlink_no_rnc_response.LWG
p21
aVtc_03_1_gprs_ptmsi_attach_new_sgsn_identification_req_resp_gtp97.LWG
p22
aVtc_183_008_itc_sctp_encrypted.LWG
p23
aVtc_103_1100_resending_AIR_dpl_changed.LWG
p24
aVtc_103_708_modify_peer_send_DPR.LWG
p25
aVtc_103_704_delete_peer_send_DPR.LWG
p26
aVtc_327_044_recovery_intra_TAU_active_off_sgw_unchanged__gtpv1_FRR_wf_CSR_due_to_S11_linkdown.LWG
p27
aVtc_208_43_interception_after_small_restart.G14b
p28
aVtc_250_105_ignore_IDR_when_EPS_sub_downgrade_GPRS_sub.LW
p29
aVtc_321_112_attach_auth_fail.LW
p30
aVtc_44_004_small_restart__sctp_fe_restart.LW
p31
aVtc_202_431_mf_seamless_move_target_service_request_modifyBearerReq_onePdnMultiBearer_oneBearerFail.LW
p32
aVtc_262_084_emergency_imsi_attach_unauthentication_fails_in_hss.LW
p33
aVtc_78_101_imsi_attach_with_selected_plmn_mocn_disable.LW
p34
aVtc_298_424_ms_init_deact_ef_delicated_non_gbr_bearer_deact_interfered_by_rab_release_request.LW
p35
aVtc_263_023_Attach_Flow__Attach_Request_Different_IEs_IP_OK_while_waiting_for_Modify_Bearer_Response.LW
p36
aVtc_251_010_rau_w_to_g_after_hss_reset_storm.LWG
p37
aVtc_209_212_s4_no_sm_events_start_of_interception_pdp_active.LWG
p38
aVtc_56_21_sending_recognized_information_in_log.LWG
p39
aVtc_275_073_tau_inter_new_no_update_location_response_sgsn00040258.LWG
p40
aVtc_183_005_itc_folder_file_names.LWG
p41
aVtc_183_008_itc_sctp_encrypted.LWG
p42
aVtc_220_604_csfb_to_1xrtt_in_ecm_connected_extended_service_request_during_create_bearer.LWG
p43
aVtc_322_126_smooth_move_ef_cancel_location_initialAttach_wf_cancel_location.LWG
p44
aVtc_103_708_modify_peer_send_DPR.LWG
p45
aVtc_103_704_delete_peer_send_DPR.LWG
p46
aVtc_103_1155_sx_retransmit__Small_restart_terminate_request.LWG
p47
aVtc_318_133_sgw_restart_mf_relocation_triggered_by_intra_tau_multi_pdn.LWG
p48
aVtc_321_112_attach_auth_fail.LWG
p49
aVtc_214_004_combined_attach_mme_initiated_detach_with_reattach_required.LWG
p50
aVtc_287_004_PDN_Disconnect__Handover_Required_while_wf_ERAB_release_command.LWG
p51
aVtc_219_131_s3_handover_w_to_l_with_cl_two_pdns_one_failed_sgw_relocation.LWG
p52
aVtc_23_09_transfer_to_primary_and_change_vip_addr.LWG
p53
aVtc_73_41_gtpu_sgsn_dont_send_gpu_echo_request_w.LWG
p54
aVtc_578_02_check_parse_ebm_and_ci_eci_g.G14b
p55
aVtc_248_99_inter_l_to_w_new_qos_higher_than_policymap_trigger_alarm_2_ue.LW
p56
aVtc_262_518_attach_pb_dedicated_bearers_feature_off.LW
p57
aVtc_322_052_smooth_move_ef_attach_request_wf_frr_connected.LW
p58
aVtc_214_1099_la_selection_mf_reselection_combined_tau_with_imsi_attach_after_mme_triggered_imsi_detach_when_handling_sgs_paging.LW
p59
aVtc_321_112_attach_auth_fail.LW
p60
aVtc_324_042_af_gbr_higher_than_policymap.LW
p61
aVtc_28_044_mo_sms_two_mo_messages.LW
p62
aVtc_103_704_delete_peer_send_DPR.LW
p63
aVtc_103_708_modify_peer_send_DPR.LW
p64
aVtc_277_020_tau_inter_old_with_eea3_eia3.LW
p65
aVtc_326_290_Intra_TAU_with_unknown_GUTI_with_SGW_Change.LW
p66
aVtc_329_150_intra_tau_rs_restricted.LW
p67
aVtc_328_108_Backup_MME__MaximumNumberOfUeBackups_reached_replace_oldest_ue_backups.LW
p68
aVtc_23_09_transfer_to_primary_and_change_vip_addr.LW
p69
aVtc_23_13_israu_out.LW
p70
aVtc_275_206_tau_inter_new_emergency_type_b_restricted_no_rrc_or_active_flag.L14b
p71
aVtc_44_301_sctp_counter_MessageSent_Received.L14b
p72
aVtc_44_503_s1ap_id_checks__ho_request_ack_reuse_enb_id_unknown_mmeid.L14b
p73
aVtc_284_310_mme_initiated_deactivate_bearer_on_def_with_1_ded_of_2_def.L14b
p74
aVtc_202_412_af_seamless_move_target_lur_resp_timeout_from_msc.L14b
p75
aVtc_266_026_DownlinkDataFailureInd_repeat_paging_timer_small_local_restart.L14b
p76
aVtc_321_112_attach_auth_fail.W14b
p77
aVtc_91_006_camel_disconnect_event_ie_ms.W14b
p78
aVtc_38_80_intra_rau_new_rnc_with_authentication_wrong_ptmsi_signature.W14b
p79
aVtc_321_112_attach_auth_fail.W14b
p80
aVtc_38_226_israu_new_sgsn_one_ipv6_pdp_type_system_property_not_support.W14b
p81
aVtc_28_046_mo_sms_old_cdr_format_r7.W14b
p82
aVtc_348_050_large_restart.W14b
p83
aVtc_209_210_s4_no_sm_events_context_activate_modify_deactivate.LWG
p84
aVtc_183_005_itc_folder_file_names.LWG
p85
aVtc_183_008_itc_sctp_encrypted.LWG
p86
aVtc_166_186_intra_srns_reloc_3gdt_flow_two_contexts_teid_change.LWG
p87
aVtc_665_6_dp_block_deblock_with_traffic.LWG
p88
aVtc_665_22_sr_then_gain.LWG
p89
aVtc_23_09_transfer_to_primary_and_change_vip_addr.LWG
p90
aVtc_103_1106_fallback_to_imsins_resend_success.LWG
p91
aVtc_103_708_modify_peer_send_DPR.LWG
p92
aVtc_103_704_delete_peer_send_DPR.LWG
p93
aVtc_103_1155_sx_retransmit__Small_restart_terminate_request.LWG
p94
aVtc_179_318_Ccheck_TraceCollectionIpv6server.LWG
p95
aVtc_236_307_Activation_DtSelMode_5_APN_requested_wrong_SGSN_default_APN_in_APN_list_TAC_in_TAC_list.LWG
p96
aVtc_310_245_ef__S1_Reset_wf_PS_to_CS_Complete_FR_Complete_received.LWG
p97
aVtc_321_112_attach_auth_fail.LWG
p98
aVtc_04_109_normal_imsi_attach_detach_ptmsi_attach_sent_5_times_then_rau_req_purge.LWG
p99
aVtc_250_150_isd_with_odb_init_deactivation.LWG
p100
aVtc_92_06_10_pm_job_log_content.LWG
p101
aVtc_92_06_20_pm_job_log_content.LWG
p102
aVtc_219_131_s3_handover_w_to_l_with_cl_two_pdns_one_failed_sgw_relocation.LWG
p103
aVtc_212_049_Ccheck_ra.LWG
p104
aVtc_297_407_move_at_periodic_rau.LWG
p105
aVtc_244_050_mt_lr_imei_check_answer_received_wf_location_report.LWG
p106
aVtc_327_167_recovery_intra_TAU_SGSN_Context_Request_while_waiting_for_Update_Location_Answer.LWG
p107
aVtc_56_21_sending_recognized_information_in_log.LWG
p108
aVtc_343_006_JobGroup_measInfoId_measObjLdn.LWG
p109
aVtc_343_012_Modify.LWG
p110
aVtc_326_246_Intra_TAU_Recovery_fail_Modify_Bearer_fail_active_flag_SGW_Change.LWG
p111
aVtc_327_022_recovery_intra_TAU__initial_Detach_Request_while_waiting_for_Ue_Backup_Response.L14b
p112
aVtc_214_028_combined_attach_interfering_s1_reset.L14b
p113
aVtc_275_206_tau_inter_new_emergency_type_b_restricted_no_rrc_or_active_flag.L14b
p114
aVtc_292_170_inter_handover_before_timer_expiration_of_x2_ho.L14b
p115
aVtc_284_330_delete_bearer_interfere_handover_to_non_3GPP_ecm_connected_multi_pdn.L14b
p116
aVtc_103_708_modify_peer_send_DPR.L14b
p117
aVtc_199_90_attach_S11_echo_2_UE_1_no_response_alarm.L14b
p118
aVtc_326_835_Intra_TAU_Recovery_after_Node_Restart_SGW_Unchange_active_flag_on_no_modify_bearer_response_two_pdn.L14b
p119
aVtc_193_213_intruder_auth_rej_synch_fail.L14b
p120
aVtc_316_279_DSD_PDN_subscription_contexts_Withdrawal_All_PDN_Disconnect__Delete_UE_Backup.LW
p121
aVtc_321_112_attach_auth_fail.LW
p122
aVtc_326_243_Intra_TAU_Recovery_fail_default_bearer_fail_to_setup_SGW_Change.LW
p123
aVtc_23_09_transfer_to_primary_and_change_vip_addr.LW
p124
aVtc_103_708_modify_peer_send_DPR.LW
p125
aVtc_103_704_delete_peer_send_DPR.LW
p126
aVtc_26_108_GGSN_init_PDP_modify_ARP_GGSN_not_support.LW
p127
aVtc_195_527_mme_logging_combined_attach_eps_detach.LW
p128
aVtc_241_016_intra_rau_with_bearer_sgw_unchange_mf_s4_with_all_fTeid_undefined_service_request_data.LW
p129
aVtc_327_322_recovery_service_request__initial_Imsi_Attach_Request_while_waiting_for_Ue_Backup_Response.L14b
p130
aVtc_347_126_Seamless_Move_Target__TAU_Request_while_waiting_for_CCA_initial.L14b
p131
aVtc_266_026_DownlinkDataFailureInd_repeat_paging_timer_small_local_restart.L14b
p132
aVtc_220_593_csfb_to_1xrtt_context_request_during_extended_service_request.L14b
p133
aVtc_103_704_delete_peer_send_DPR.L14b
p134
aVtc_103_708_modify_peer_send_DPR.L14b
p135
aVtc_275_711_tau_inter_without_SGW_Change_receive_TZCR_flag_set_in_context_response_SN_change.L14b
p136
aVtc_243_004_tau_from_sgsn_s3_keep_old_sgw_guti_timestamp_reset.L14b
p137
aVtc_218_405_tau_abort_nas_non_delivery_indication_security_mode_command.LWG
p138
aVtc_73_41_gtpu_sgsn_dont_send_gpu_echo_request_w.LWG
p139
aVtc_220_411_csfb_to_1xrtt_in_ecm_connected_path_switch_request_subscription_cancelled.LWG
p140
aVtc_103_708_modify_peer_send_DPR.LWG
p141
aVtc_103_704_delete_peer_send_DPR.LWG
p142
aVtc_103_1155_sx_retransmit__Small_restart_terminate_request.LWG
p143
aVtc_310_310_S3_new_SGW_emergency_attach_sv_pool_on_msc_one_offloading_one_available.LWG
p144
aVtc_56_21_sending_recognized_information_in_log.LWG
p145
aVtc_156_01_ap_loss_w.LWG
p146
aVtc_23_09_transfer_to_primary_and_change_vip_addr.LWG
p147
aVtc_221_027_paging_ta_profile_after_lastest_eNB_List_flush.LWG
p148
aVtc_259_150_ef_s6d_tads_interfere_israu_new_wf_rau_iu_releasing.LWG
p149
aVtc_179_318_Ccheck_TraceCollectionIpv6server.LWG
p150
aVtc_24_91_msc_pool_off_comb_proc_on_no_def_msc_in_la_with_2_mscs.LWG
p151
aVtc_276_305_Inter_TAU_New_MME__Downlink_Data_Notification_while_waiting_for_failing_Modify_Bearer_Response.LWG
p152
aVtc_334_203_path_failure_intra_rau_inter_rnc_idle_3gdt_mf.LWG
p153
aVtc_59_12_sequence_on_demand_indexbased_replica_values_during_takeover.LWG
p154
aVtc_59_9_mtmsi_restart_counter.LWG
p155
aVtc_321_112_attach_auth_fail.LWG
p156
aVtc_183_005_itc_folder_file_names.LWG
p157
aVtc_183_008_itc_sctp_encrypted.LWG
p158
aVtc_160_003_reset_sgsn_initiated.W14b
p159
aVtc_321_112_attach_auth_fail.W14b
p160
aVtc_298_821_activate_secondary_pdp_context_request_with_NSAPI_exist_dedicate_bearer_active_state.W14b
p161
aVtc_313_001_inter_new_srns_reloc_s16_without_sgw_change.W14b
p162
aVtc_239_620_inter_rau_new_with_bearer_sgw_not_change_isd_odb_bit0_wf_rau_compl_deactivation.G14b
p163
aVtc_213_065_nrspca_with_limit_of_pdp_context_is_exceeded_uplink.G14b
p164
aVtc_213_170_nrspca_aborted_during_t3385_when_sgsn_initiated_detach.G14b
p165
aVtc_321_112_attach_auth_fail.LW
p166
aVtc_364_214_af_trigger_hits_before_UE_id_is_known_wcdma.LW
p167
aVtc_262_153_old_mme_ms_registered.LW
p168
aVtc_262_860_imsi_attach_create_session_failed_olp.LW
p169
aVtc_326_223_Intra_TAU_Recovery_fail_Identity_Response_timeout_then_Recover_successful.LW
p170
aVtc_318_130_sgw_restart_mf_relocation_triggered_by_service_request.LW
p171
aVtc_316_279_DSD_PDN_subscription_contexts_Withdrawal_All_PDN_Disconnect__Delete_UE_Backup.LW
p172
aVtc_103_704_delete_peer_send_DPR.LW
p173
aVtc_23_13_israu_out.LW
p174
aVtc_23_09_transfer_to_primary_and_change_vip_addr.LW
p175
aVtc_225_811_mt_sms_idle_mode_extended_service_req_license_off_while_waiting_for_service_req.LW
p176
aVtc_262_084_emergency_imsi_attach_unauthentication_fails_in_hss.LW
p177
aVtc_276_305_Inter_TAU_New_MME__Downlink_Data_Notification_while_waiting_for_failing_Modify_Bearer_Response.LW
p178
aVtc_316_279_DSD_PDN_subscription_contexts_Withdrawal_All_PDN_Disconnect__Delete_UE_Backup.LW
p179
aVtc_304_405_Extended_Service_Request__control_mode_threshold_not_reached.LW
p180
aVtc_44_340_sctp_counter_index_SGsAP.LW
p181
aVtc_23_09_transfer_to_primary_and_change_vip_addr.LW
p182
aVtc_324_006_mf_ser_req_signaling_after_ack_3gdt.LW
p183
aVtc_274_604_combined_TAU_SMS_Paging_request_while_waiting_for_AIA_wf_downlink_unitdata_timeout.LW
p184
aVtc_103_701_MME_restarts.LW
p185
aVtc_103_708_modify_peer_send_DPR.LW
p186
aVtc_103_704_delete_peer_send_DPR.LW
p187
aVtc_208_43_interception_after_small_restart.G14b
p188
aVtc_103_708_modify_peer_send_DPR.LWG
p189
aVtc_103_704_delete_peer_send_DPR.LWG
p190
aVtc_24_210_comb_att_hss_reset_periodic_rau_gs.LWG
p191
aVtc_364_214_af_trigger_hits_before_UE_id_is_known_wcdma.LWG
p192
aVtc_59_9_mtmsi_restart_counter.LWG
p193
aVtc_232_401_bfd__ipv4_alarm.LWG
p194
aVtc_156_05_ap_loss_w_mobile_reachable_timer_expires.LWG
p195
aVtc_165_10_check_resource_alarms_ap.LWG
p196
aVtc_578_25_check_apn_statistics.LWG
p197
aVtc_19_108_move_detach_rai_filter_iterator_restart.LWG
p198
aVtc_328_108_Backup_MME__MaximumNumberOfUeBackups_reached_replace_oldest_ue_backups.LWG
p199
aVtc_183_008_itc_sctp_encrypted.LWG
p200
aVtc_275_073_tau_inter_new_no_update_location_response_sgsn00040258.LWG
p201
aVtc_208_43_interception_after_small_restart.LWG
p202
aVtc_208_44_attach_detach_imsi_ap_takeover.LWG
p203
aVtc_23_09_transfer_to_primary_and_change_vip_addr.LWG
p204
aVtc_298_130_EF_NRSPCA_S4_RAB_Modify_Request.LWG
p205
aVtc_267_200_Service_Request__Attach_Request_while_waiting_for_Initial_Context_Setup_Response.L14b
p206
aVtc_44_301_sctp_counter_MessageSent_Received.L14b
p207
aVtc_44_551_s1ap_reset_reset_resource__ue_id.L14b
p208
aVtc_295_136_mo_call_during_s1_ho_tau_request_when_wf_handover_notify.L14b
p209
aVtc_289_058_Modify_bearer__UE_context_modification_request_meanwhile_handover_required.L14b
p210
aVtc_262_1031_emergency_imsi_attach_multiple_pgw_try_next_pgw_fqdn_error.L14b
p211
aVtc_103_704_delete_peer_send_DPR.L14b
p212
aVtc_103_708_modify_peer_send_DPR.L14b
p213
aVtc_195_406_ue_trace_start_meanwhile_handover_required.L14b
p214
aVtc_194_709_HSS_initiated_ISD_ue_context_modification_failure_x2_handover_triggered_HO_all_bearers_fail.L14b
p215
aVtc_306_1334_ef_seamless_move_target_receive_cli_delete_subscriber_wf_lua.L14b
p216
aVtc_304_102_emergency_intra_tau_success__control_mode_threshold_exceeded.L14b
p217
aVtc_304_121_initial_ue_intra_tau_control_mode_threshold_exceeded_usc_detach_wf_release_request_response.L14b
p218
aVtc_28_013_mt_sms_no_response.W14b
p219
aVtc_79_034_rab_reestablish_on_downlink_no_rnc_response.W14b
p220
aVtc_231_281_activate_pdp_request_ignore_during_s4_pdp_deactivating.W14b
p221
aVtc_298_691_S4_3GDT_Service_request_wait_Rab_Assignment_ef_delete_bearer_request.W14b
p222
aVtc_73_21_itc_gtpu_s4_sgsn_send_echo_request_w.LWG
p223
aVtc_183_008_itc_sctp_encrypted.LWG
p224
aVtc_141_028_eth_v6_traffic_conf_deconf_vlan.LWG
p225
aVtc_92_09_10_autoupdate.LWG
p226
aVtc_208_43_interception_after_small_restart.LWG
p227
aVtc_208_151_ul_payload_imsi.LWG
p228
aVtc_326_311_Service_Request_with_unknown_STMSI_large_restart_sgs_then_csfb_to_UTRAN.LWG
p229
aVtc_23_09_transfer_to_primary_and_change_vip_addr.LWG
p230
aVtc_156_11_ap_gain_w.LWG
p231
aVtc_304_216_combined_node_inter_tau_from_s4_control_mode_threshold_exceeded_reject_wf_tau_complete.LWG
p232
aVtc_219_131_s3_handover_w_to_l_with_cl_two_pdns_one_failed_sgw_relocation.LWG
p233
aVtc_665_21_lr_then_gain.LWG
p234
aVtc_316_279_DSD_PDN_subscription_contexts_Withdrawal_All_PDN_Disconnect__Delete_UE_Backup.LWG
p235
aVtc_103_708_modify_peer_send_DPR.LWG
p236
aVtc_103_1100_resending_AIR_dpl_changed.LWG
p237
aVtc_103_704_delete_peer_send_DPR.LWG
p238
aVtc_103_1155_sx_retransmit__Small_restart_terminate_request.LWG
p239
aVtc_24_04_combined_ra_la_update_no_change_of_la_gs_associated.LWG
p240
aVtc_24_155_msc_pool_gs_associated_selected_msc_removed_from_pool_combined_attach_select_msc.LWG
p241
aVtc_230_205_PGW_init_modification_EF_deatch.LWG
p242
aVtc_179_318_Ccheck_TraceCollectionIpv6server.LWG
p243
aVtc_297_407_move_at_periodic_rau.LWG
p244
aVtc_220_587_csfb_to_1xrtt_in_extended_service_request_during_attach_waiting_for_modify_bearer_response.L14b
p245
aVtc_275_730_inter_tau_target_detach_with_cause_of_reattach_not_required_with_not_allowed_apn_in_odb_free_apn_list__odb_bit0.L14b
p246
aVtc_243_334_tau_from_sgsn_s3_emergency_type_c_ptmsi_sign_mismatch.L14b
p247
aVtc_44_301_sctp_counter_MessageSent_Received.L14b
p248
aVtc_44_522_s1ap_device_broking__x2_ho_unknown_sid.L14b
p249
aVtc_214_028_combined_attach_interfering_s1_reset.L14b
p250
aVtc_304_020_intruder_imsi_attach_when_correct_ue_attaching__control_mode_threshold_exceeded_usc_reject_congestion.L14b
p251
aVtc_304_102_emergency_intra_tau_success__control_mode_threshold_exceeded.L14b
p252
aVtc_347_226_Extended_Service_Request__RAR_while_waiting_for_Extended_Service_Request_MT_Connected_With_PS_HO.LW
p253
aVtc_298_821_activate_secondary_pdp_context_request_with_NSAPI_exist_dedicate_bearer_active_state.LW
p254
aVtc_242_156_rau_to_sgsn_s3_type_d_emergency_allowed_irat_and_plmn_change.LW
p255
aVtc_194_010_cl_subscription_withdrawn_detached.LW
p256
aVtc_316_279_DSD_PDN_subscription_contexts_Withdrawal_All_PDN_Disconnect__Delete_UE_Backup.LW
p257
aVtc_23_09_transfer_to_primary_and_change_vip_addr.LW
p258
aVtc_103_708_modify_peer_send_DPR.LW
p259
aVtc_103_704_delete_peer_send_DPR.LW
p260
aVtc_43_102__removal_of_disconnected_eNodeBs__gauge_threshold.LW
p261
aVtc_348_024_deactivation__hlr_init_delete_subscriber_data.LW
p262
aVtc_100_67_intra_w_to_g_mf_with_lawful_intercept.WG14a
p263
aVtc_322_161_smooth_move_ef_nas_after_paging_response_ignore.W14b
p264
aVtc_39_433_mas_one_pdp_downlink_data_3gdt_upd_loc_ack_b4_upd_pdp_ctx_resp_target.W14b
p265
aVtc_334_210_path_failure_intra_rau_af_create_session_failed.W14b
p266
aVtc_357_319_gsm_local_user_reject_intra_ps_handover_non_ip_area_to_ip_area.G14b
p267
aVtc_298_826_NRSPCA_S4_nsapi_collision_receiving_detach_request_while_waiting_for_delete_bearer_request.W14b
p268
aVtc_342_079_x3_tcp_fail_during_signalling.W14b
p269
aVtc_324_455_ef_detach_request_poweroff_abort_wf_rab_assignment_response_wf_update_location_hss_service_req_data.W14b
p270
aVtc_306_004_ef_seamless_move_source_receive_attach_request_wf_source_guti_reallocation_complete.LW
p271
aVtc_23_09_transfer_to_primary_and_change_vip_addr.LW
p272
aVtc_326_216_Intra_TAU_Recovery_combined_type_Location_Update_Reject.LW
p273
aVtc_326_622_S6a_Throttling_Service_Request_recovery_UL_successful_and_Emergency_Attach_not_throttled.LW
p274
aVtc_103_704_delete_peer_send_DPR.LW
p275
aVtc_103_708_modify_peer_send_DPR.LW
p276
aVtc_214_304_mt_sms_idle_mode_tau_response.LW
p277
aVtc_273_025_tau_intra_normal_idle_authentication_with_different_plmn_ok.LW
p278
aVtc_262_1055_imsi_attach_with_csg_id_is_rejected.LW
p279
aVtc_231_281_activate_pdp_request_ignore_during_s4_pdp_deactivating.LW
p280
aVtc_199_120_s11_path_management_small_restarted.LW
p281
aVtc_250_105_ignore_IDR_when_EPS_sub_downgrade_GPRS_sub.LW
p282
aVtc_219_131_s3_handover_w_to_l_with_cl_two_pdns_one_failed_sgw_relocation.LW
p283
aVtc_211_015_streamed_cell_trace_mapping_alarm_cease.LWG
p284
aVtc_316_279_DSD_PDN_subscription_contexts_Withdrawal_All_PDN_Disconnect__Delete_UE_Backup.LWG
p285
aVtc_334_281_path_failure_service_req_af_multi_pdn_create_session_no_resp.LWG
p286
aVtc_326_267_Intra_TAU_with_unknown_GUTI_Restriction_2_pdn_SAU_license_limit_reached.LWG
p287
aVtc_333_002_mf__OLP_Priority_at_emergency_attach.LWG
p288
aVtc_241_070_israu_new_gn_to_s4_deactivate_pdp_with_eps_subscription_received.LWG
p289
aVtc_183_008_itc_sctp_encrypted.LWG
p290
aVtc_157_4_snmp_consistent.LWG
p291
aVtc_279_552_la_selection_reselection_eps_attach_dyn_tailist_update_sms_over_sgs_off.LWG
p292
aVtc_73_41_gtpu_sgsn_dont_send_gpu_echo_request_w.LWG
p293
aVtc_302_210_1xrtt_srvcc_ho_failure_status_from_iws.LWG
p294
aVtc_208_160_payload_msisdn_imsi_imei_tcp_udp_tcp_v3.LWG
p295
aVtc_306_1200_ef_seamless_move_target_receive_hss_reset.LWG
p296
aVtc_25_19_inter_rau_new_one_context_ms_99_gtp_99_old_99_qos_fault.LWG
p297
aVtc_310_335_ef_dbr_non_voice_bearer_wf_forward_relocation_complete_and_forward_relocation_complete_ack.LWG
p298
aVtc_23_09_transfer_to_primary_and_change_vip_addr.LWG
p299
aVtc_311_24_intra_srns_reloc_s4_with_sgw_change_with_11_pdns.LWG
p300
aVtc_311_204_intra_srns_reloc_s4_sgw_change_wf_reloc_req_ack_interrupted_by_cancel_loc_subscrip_withdrawn.LWG
p301
aVtc_103_708_modify_peer_send_DPR.LWG
p302
aVtc_103_704_delete_peer_send_DPR.LWG
p303
aVtc_103_841_error_code_UNRECOGNIZED_CLASS_in_answer_Experimental_Result_Code.LWG
p304
aVtc_327_604_Inter_TAU_Recovery__TAU_Request_while_waiting_for_Ue_Backup_Retrieval_Response.LWG
p305
aVtc_298_424_ms_init_deact_ef_delicated_non_gbr_bearer_deact_interfered_by_rab_release_request.LWG
p306
aVtc_284_351_pdn_connectivity_pb_activate_1_dedicated_bearer_interrupted_by_path_switch_request.LWG
p307
aVtc_327_317_recovery_service_request__initial_Attach_Request_while_waiting_for_Sub_Procedure__Initial_Context_Setup_Response.L14b
p308
aVtc_310_116_af__HO_Cancel_before_Response_from_MSC_after_Response_from_SGSN.L14b
p309
aVtc_103_701_MME_restarts.L14b
p310
aVtc_103_704_delete_peer_send_DPR.L14b
p311
aVtc_103_708_modify_peer_send_DPR.L14b
p312
aVtc_103_850_error_code_DIAMETER_REALM_NOT_SERVED.L14b
p313
aVtc_44_071_attach_long_imsi.L14b
p314
aVtc_44_301_sctp_counter_MessageSent_Received.L14b
p315
aVtc_44_505_s1ap_id_checks__ho_request_ack_unknown_ids.L14b
p316
aVtc_304_121_initial_ue_intra_tau_control_mode_threshold_exceeded_usc_detach_wf_release_request_response.L14b
p317
aVtc_358_139_lte_local_user_reject_x2_handover_and_detach_restricted_area_to_unrestricted_area.L14b
p318
aVtc_297_407_move_at_periodic_rau.G14b
p319
aVtc_349_108_RAU_new_sgsn__RAU_Req_on_new_iu_while_waiting_for_CCA_initial_transfer.W14b
p320
aVtc_39_022_moving_mss_to_different_targets.W14b
p321
aVtc_306_1087_ef_seamless_move_target_buffer_extended_service_request_wf_icsr.L14b
p322
aVtc_306_1089_ef_seamless_move_target_buffer_extended_service_request_wf_move_finish.L14b
p323
aVtc_332_061_1_mf__paging_due_to_CBR_during_paging_due_to_UBR_latest_with_lower_prio.L14b
p324
aVtc_295_136_mo_call_during_s1_ho_tau_request_when_wf_handover_notify.L14b
p325
aVtc_316_242_MME_Pool_Seamless_Move_No_Forward_Relocation_Complete_Notification_GUTI_Reallocation__No_UE_Backup.L14b
p326
aVtc_44_301_sctp_counter_MessageSent_Received.L14b
p327
aVtc_44_520_s1ap_device_broking__x2_ho_no_cid.L14b
p328
aVtc_286_118_pdn_disconnect_finished_pdn_connectivity_with_same_pti.L14b
p329
aVtc_225_103_csfb_stand_alone_ue_context_release_active_mode.L14b
p330
aVtc_341_682_x2_activity_event_handover_inter_s1_new.L14b
p331
aVtc_194_505_Notification_during_Intra_TAU_without_SGW_Relocation_HSS_Reset_Before_TAU.L14b
p332
aVtc_327_012_recovery_intra_TAU__initial_Attach_Request_while_waiting_for_Ue_Backup_Response.L14b
p333
aVtc_204_011_mme_eps_handover_target_inter_main_flow_with_sgw_relocation__dedicated_bearer.LWG
p334
aVtc_204_1112_mme_eps_handover_target_SGW_unavailable_create_session_failure.LWG
p335
aVtc_251_62_l_to_w_to_l_with_cl_type_updateProcedure.LWG
p336
aVtc_310_330_mf__S3_same_SGW_1_voice_bearer_1_PDN_not_send_voice_bearer_in_handover_command.LWG
p337
aVtc_214_822_SGW_unavailable_Combined_Attach_mt_sms.LWG
p338
aVtc_364_214_af_trigger_hits_before_UE_id_is_known_wcdma.LWG
p339
aVtc_179_318_Ccheck_TraceCollectionIpv6server.LWG
p340
aVtc_11_399_activation_with_same_NSAPI_interrupted_by_detach.LWG
p341
aVtc_11_612_ggsn_update_with_lower_qos_during_secondary_pdp_activation_buffer_upd_req.LWG
p342
aVtc_73_21_itc_gtpu_s4_sgsn_send_echo_request_w.LWG
p343
aVtc_23_09_transfer_to_primary_and_change_vip_addr.LWG
p344
aVtc_103_708_modify_peer_send_DPR.LWG
p345
aVtc_103_704_delete_peer_send_DPR.LWG
p346
aVtc_103_1155_sx_retransmit__Small_restart_terminate_request.LWG
p347
aVtc_103_602_georedundant_realm_routing.LWG
p348
aVtc_286_118_pdn_disconnect_finished_pdn_connectivity_with_same_pti.LWG
p349
aVtc_256_135_mme_eps_srvcc_ho_source_cs_only_initial_ue_detach_request_wf_srvcc_ps_to_cs_complete_notification.LWG
p350
aVtc_183_005_itc_folder_file_names.LWG
p351
aVtc_183_008_itc_sctp_encrypted.LWG
p352
aVtc_295_136_mo_call_during_s1_ho_tau_request_when_wf_handover_notify.LWG
p353
aVtc_363_018_mmi_get_ra.LWG
p354
aVtc_241_462_israu_new_with_10_dedicated_bearers_sgw_not_change_mf_s4.LWG
p355
aVtc_341_682_x2_activity_event_handover_inter_s1_new.LWG
p356
aVtc_225_103_csfb_stand_alone_ue_context_release_active_mode.LWG
p357
aVtc_306_1089_ef_seamless_move_target_buffer_extended_service_request_wf_move_finish.LWG
p358
aVtc_306_1087_ef_seamless_move_target_buffer_extended_service_request_wf_icsr.LWG
p359
aVtc_56_21_sending_recognized_information_in_log.LWG
p360
aVtc_263_091_Attach_Flow__Delete_Bearer_Request_while_waiting_for_Modify_Bearer_Response.LWG
p361
aVtc_43_047_eNB_configuration_update_csg_id_list_with_different_sizes.LWG
p362
aVtc_262_084_emergency_imsi_attach_unauthentication_fails_in_hss.LWG
p363
aVtc_260_272_receive_sm_stop_req_while_wf_setup_iteration.LWG
p364
aVtc_347_012_Inter_TAU_New_MME__Equipment_Blacklisted_while_waiting_for_CCA_initial.LW
p365
aVtc_79_037_israu_new_streaming_context_MBR_not_zero_downlink_payload.LW
p366
aVtc_225_103_csfb_stand_alone_ue_context_release_active_mode.LW
p367
aVtc_341_682_x2_activity_event_handover_inter_s1_new.LW
p368
aVtc_342_125_delete_target_different_connection_three_targets.LW
p369
aVtc_306_1087_ef_seamless_move_target_buffer_extended_service_request_wf_icsr.LW
p370
aVtc_306_1089_ef_seamless_move_target_buffer_extended_service_request_wf_move_finish.LW
p371
aVtc_286_118_pdn_disconnect_finished_pdn_connectivity_with_same_pti.LW
p372
aVtc_348_368_inter_srns_reloc_af__new_sgsn_rau_request_timeout.LW
p373
aVtc_316_279_DSD_PDN_subscription_contexts_Withdrawal_All_PDN_Disconnect__Delete_UE_Backup.LW
p374
aVtc_324_006_mf_ser_req_signaling_after_ack_3gdt.LW
p375
aVtc_193_022_auth_failure_sync_abort.LW
p376
aVtc_103_708_modify_peer_send_DPR.LW
p377
aVtc_103_1006_secondary_dpl_used_when_all_peers_in_dpl_unavailable_no_sls_peers_same_prio.LW
p378
aVtc_103_704_delete_peer_send_DPR.LW
p379
aVtc_295_136_mo_call_during_s1_ho_tau_request_when_wf_handover_notify.LW
p380
aVtc_23_09_transfer_to_primary_and_change_vip_addr.LW
p381
aVtc_23_13_israu_out.LW
p382
aVtc_284_350_pdn_connectivity_interrupted_by_path_switch_request.LW
p383
aVtc_326_242_Intra_TAU_Recovery_Initial_Context_Setup_timeout.LW
p384
aVtc_250_105_ignore_IDR_when_EPS_sub_downgrade_GPRS_sub.LW
p385
aVtc_298_705_pgw_init_modification_ef_ms_deact_req_tdi_false_ti_dedicated_wf_rab_assignment_response.W14b
p386
aVtc_236_049_s4_3gdt_rnc_reset_during_waiting_for_modify_beaer_rsp_in_service_request_procedure.W14b
p387
aVtc_298_044_S4_Network_Request_Secondary_PDP_Activation_after_RAU_3GDT_IDLE.LW
p388
aVtc_341_682_x2_activity_event_handover_inter_s1_new.LW
p389
aVtc_103_708_modify_peer_send_DPR.LW
p390
aVtc_103_704_delete_peer_send_DPR.LW
p391
aVtc_295_136_mo_call_during_s1_ho_tau_request_when_wf_handover_notify.LW
p392
aVtc_43_101__removal_of_disconnected_eNodeBs__CLI_removal.LW
p393
aVtc_286_118_pdn_disconnect_finished_pdn_connectivity_with_same_pti.LW
p394
aVtc_306_1087_ef_seamless_move_target_buffer_extended_service_request_wf_icsr.LW
p395
aVtc_306_1089_ef_seamless_move_target_buffer_extended_service_request_wf_move_finish.LW
p396
aVtc_225_103_csfb_stand_alone_ue_context_release_active_mode.LW
p397
aVtc_23_10_transfer_to_primary_and_change_vip_addr_from_gn_to_gom.LW
p398
aVtc_578_32_check_ebm_para_statistics_ue_return_duration.LW
p399
aVtc_318_281_SGsAP_Paging_Request_init_service_request_sgw_restart.LW
p400
aVtc_304_104_intra_tau_success__control_mode_threshold_exceeded.LW
p401
aVtc_304_120_initial_ue_intra_tau_control_mode_threshold_exceeded_usc_reject_wf_release_request_response.LW
p402
aVtc_304_264_tau_from_gnsgsn_2g_control_mode_wf_combined_procedure_reject_PS_service_not_allowed.LW
p403
aVtc_304_416_Service_Request_UE_Initiated__control_mode_threshold_exceeded_implicit_detach_int_prot_nok.LW
p404
aVtc_324_152_af_rab_assignment_resp_downgrade_qos_dedicated_bearer_3gdt_rab_partially_setup.LW
p405
aVtc_273_610_tau_intra_periodic_SGW_unavailable__two_pdn.L14b
p406
aVtc_273_601_tau_intra_periodic_SGW_unavailable__with_emergency_PDN.L14b
p407
aVtc_103_704_delete_peer_send_DPR.L14b
p408
aVtc_103_708_modify_peer_send_DPR.L14b
p409
aVtc_262_202_attach_emergency_call_too_high_qos.L14b
p410
aVtc_306_045_ef_seamless_move_source_receive_cancel_location_withdraw_wf_frcn.L14b
p411
aVtc_306_104_ef_seamless_move_source_receive_ue_context_release_request_wf_source_guti_reallocation_complete.L14b
p412
aVtc_306_1089_ef_seamless_move_target_buffer_extended_service_request_wf_move_finish.L14b
p413
aVtc_306_1087_ef_seamless_move_target_buffer_extended_service_request_wf_icsr.L14b
p414
aVtc_195_406_ue_trace_start_meanwhile_handover_required.L14b
p415
aVtc_195_416_ue_trace_deactivate_trace_s1_intra_system_handover_triggered.L14b
p416
aVtc_286_118_pdn_disconnect_finished_pdn_connectivity_with_same_pti.L14b
p417
aVtc_225_103_csfb_stand_alone_ue_context_release_active_mode.L14b
p418
aVtc_341_682_x2_activity_event_handover_inter_s1_new.L14b
p419
aVtc_202_40_emergency_pdn_ecm_connected.L14b
p420
aVtc_295_136_mo_call_during_s1_ho_tau_request_when_wf_handover_notify.L14b
p421
aVtc_285_012_PDN_Connectivity_Request__X2_Based_HO_while_waiting_for_Modify_Bearer_Response.L14b
p422
aVtc_284_135_emergency_pdn_connectivity_no_notify_request.L14b
p423
aVtc_284_420_pdn_connectivity_connection_same_apn_same_pdn_type.L14b
p424
aVtc_284_576_emergency_pdn_connectivity_after_non_emergency_max_bearers_setup.L14b
p425
aVtc_266_026_DownlinkDataFailureInd_repeat_paging_timer_small_local_restart.L14b
p426
aVtc_91_012_intra_rau_ul_req_while_spont_ul.LWG
p427
aVtc_183_008_itc_sctp_encrypted.LWG
p428
aVtc_251_62_l_to_w_to_l_with_cl_type_updateProcedure.LWG
p429
aVtc_310_229_ef__Ue_Release_Request_wf_Ue_Context_Release_Complete.LWG
p430
aVtc_242_156_rau_to_sgsn_s3_type_d_emergency_allowed_irat_and_plmn_change.LWG
p431
aVtc_306_1089_ef_seamless_move_target_buffer_extended_service_request_wf_move_finish.LWG
p432
aVtc_306_1087_ef_seamless_move_target_buffer_extended_service_request_wf_icsr.LWG
p433
aVtc_316_279_DSD_PDN_subscription_contexts_Withdrawal_All_PDN_Disconnect__Delete_UE_Backup.LWG
p434
aVtc_23_09_transfer_to_primary_and_change_vip_addr.LWG
p435
aVtc_286_118_pdn_disconnect_finished_pdn_connectivity_with_same_pti.LWG
p436
aVtc_208_43_interception_after_small_restart.LWG
p437
aVtc_73_41_gtpu_sgsn_dont_send_gpu_echo_request_w.LWG
p438
aVtc_73_40_gtpu_sgsn_send_gpu_echo_request_w.LWG
p439
aVtc_256_083_mme_eps_srvcc_ho_source_to_geran_cs_only_af_without_dtm_srvcc_ps_to_cs_complete_notification_timeout.LWG
p440
aVtc_218_553_tau_from_sgsn__subscription_cancelled_wf_initial_context_setup_response.LWG
p441
aVtc_324_006_mf_ser_req_signaling_after_ack_3gdt.LWG
p442
aVtc_295_136_mo_call_during_s1_ho_tau_request_when_wf_handover_notify.LWG
p443
aVtc_284_571_pdn_connectivity_following_emergency_pdn_connectivity_after_configured_max_bearers_setup.LWG
p444
aVtc_322_052_smooth_move_ef_attach_request_wf_frr_connected.LWG
p445
aVtc_193_028_service_req_auth_failure_S6a_ResyncCounter_2.LWG
p446
aVtc_193_171_resending_smc_during_attach.LWG
p447
aVtc_56_21_sending_recognized_information_in_log.LWG
p448
aVtc_263_012_Attach_Flow__Attach_Request_New_S1_Same_IEs_IP_OK_while_waiting_for_Security_Mode_Complete.LWG
p449
aVtc_103_701_MME_restarts.LWG
p450
aVtc_103_708_modify_peer_send_DPR.LWG
p451
aVtc_103_1100_resending_AIR_dpl_changed.LWG
p452
aVtc_103_704_delete_peer_send_DPR.LWG
p453
aVtc_141_002_eth_deconf_conf_vlan_many.LWG
p454
aVtc_166_005_activate_procedure_rnc_lower_qos.LWG
p455
aVtc_341_682_x2_activity_event_handover_inter_s1_new.LWG
p456
aVtc_225_103_csfb_stand_alone_ue_context_release_active_mode.LWG
p457
aVtc_297_407_move_at_periodic_rau.G14b
p458
aVtc_231_173_ms_init_detach_interfered_by_cancel_location_withdraw.LWG
p459
aVtc_225_103_csfb_stand_alone_ue_context_release_active_mode.LWG
p460
aVtc_225_657_mt_call_paging_req_non_associated_msc_after_msc_reset_param_tamr_true.LWG
p461
aVtc_232_401_bfd__ipv4_alarm.LWG
p462
aVtc_578_02_check_parse_ebm_and_ci_eci_l.LWG
p463
aVtc_183_005_itc_folder_file_names.LWG
p464
aVtc_183_008_itc_sctp_encrypted.LWG
p465
aVtc_297_407_move_at_periodic_rau.LWG
p466
aVtc_103_708_modify_peer_send_DPR.LWG
p467
aVtc_103_704_delete_peer_send_DPR.LWG
p468
aVtc_103_1155_sx_retransmit__Small_restart_terminate_request.LWG
p469
aVtc_361_510_rau_l_to_w_S4SGSN_check_old_qos_failed_node_function_deactivate_pdp_after_rau_on.LWG
p470
aVtc_316_242_MME_Pool_Seamless_Move_No_Forward_Relocation_Complete_Notification_GUTI_Reallocation__No_UE_Backup.LWG
p471
aVtc_327_167_recovery_intra_TAU_SGSN_Context_Request_while_waiting_for_Update_Location_Answer.LWG
p472
aVtc_262_1055_imsi_attach_with_csg_id_is_rejected.LWG
p473
aVtc_251_62_l_to_w_to_l_with_cl_type_updateProcedure.LWG
p474
aVtc_23_09_transfer_to_primary_and_change_vip_addr.LWG
p475
aVtc_28_052_mo_sms_homer_block_visiting_redirection.LWG
p476
aVtc_214_210_mo_sms_idle_sgs_link_broken.LWG
p477
aVtc_214_706_msc_pool_intra_tau_with_associated_interfer_attach_request_all_msc_link_breakdown.LWG
p478
aVtc_166_425_ggsn_initiated_deactivation_flow.LWG
p479
aVtc_295_136_mo_call_during_s1_ho_tau_request_when_wf_handover_notify.LWG
p480
aVtc_341_682_x2_activity_event_handover_inter_s1_new.LWG
p481
aVtc_286_118_pdn_disconnect_finished_pdn_connectivity_with_same_pti.LWG
p482
aVtc_212_049_Ccheck_ra.LWG
p483
aVtc_39_601_mas_unsucc_fwd_reloc_resp_mandatory_ie_missing_stop_source.LWG
p484
aVtc_326_622_S6a_Throttling_Service_Request_recovery_UL_successful_and_Emergency_Attach_not_throttled.LWG
p485
aVtc_179_318_Ccheck_TraceCollectionIpv6server.LWG
p486
aVtc_306_1087_ef_seamless_move_target_buffer_extended_service_request_wf_icsr.LWG
p487
aVtc_306_1089_ef_seamless_move_target_buffer_extended_service_request_wf_move_finish.LWG
p488
aVtc_322_144_smooth_move_ef_create_bearer_request_ignore.W14b
p489
aVtc_23_09_transfer_to_primary_and_change_vip_addr.LW
p490
aVtc_241_432_intra_rau_with_bearer_sgw_unchange_2_pdns_3gdt.LW
p491
aVtc_286_118_pdn_disconnect_finished_pdn_connectivity_with_same_pti.LW
p492
aVtc_341_682_x2_activity_event_handover_inter_s1_new.LW
p493
aVtc_47_002_imsi_attach_ap_gain.LW
p494
aVtc_287_010_PDN_Disconnect__Detach_request_while_wf_delete_session_response.LW
p495
aVtc_103_704_delete_peer_send_DPR.LW
p496
aVtc_103_705_delete_peer_send_DPR_timeout_on_DPA.LW
p497
aVtc_103_708_modify_peer_send_DPR.LW
p498
aVtc_194_702_HSS_initiated_ISD_ue_context_modification_failure_s1_inter_system_handover_triggered_HO_undetected_retry_counter_exceed.LW
p499
aVtc_43_102__removal_of_disconnected_eNodeBs__gauge_threshold.LW
p500
aVtc_295_136_mo_call_during_s1_ho_tau_request_when_wf_handover_notify.LW
p501
aVtc_225_103_csfb_stand_alone_ue_context_release_active_mode.LW
p502
aVtc_306_1087_ef_seamless_move_target_buffer_extended_service_request_wf_icsr.LW
p503
aVtc_306_1089_ef_seamless_move_target_buffer_extended_service_request_wf_move_finish.LW
p504
aVtc_286_118_pdn_disconnect_finished_pdn_connectivity_with_same_pti.L14b
p505
aVtc_306_1087_ef_seamless_move_target_buffer_extended_service_request_wf_icsr.L14b
p506
aVtc_306_1089_ef_seamless_move_target_buffer_extended_service_request_wf_move_finish.L14b
p507
aVtc_290_032_Timer_Based_GBR_Deact__detach_request_uplink_nas_wf_ue_context_release_complete_before_timer_expires.L14b
p508
aVtc_295_124_tau_after_ho_tz_change_emm_information_meanwhile_handover_required_HO_success.L14b
p509
aVtc_295_136_mo_call_during_s1_ho_tau_request_when_wf_handover_notify.L14b
p510
aVtc_341_682_x2_activity_event_handover_inter_s1_new.L14b
p511
aVtc_327_022_recovery_intra_TAU__initial_Detach_Request_while_waiting_for_Ue_Backup_Response.L14b
p512
aVtc_225_103_csfb_stand_alone_ue_context_release_active_mode.L14b
p513
aVtc_103_704_delete_peer_send_DPR.L14b
p514
aVtc_103_708_modify_peer_send_DPR.L14b
p515
aVtc_44_301_sctp_counter_MessageSent_Received.L14b
p516
aVtc_239_354_ignore_new_activation_in_deactivating_when_s4_on.LWG
p517
aVtc_239_641_inter_rau_new_wait_create_bss_pfc_ack_timeout_interfered_by_intra_rau_s4.LWG
p518
aVtc_334_113_sgw_restart_mf_event_not_generated_when_feautre_off.LWG
p519
aVtc_334_281_path_failure_service_req_af_multi_pdn_create_session_no_resp.LWG
p520
aVtc_259_12_provide_subscriber_information_g_s4_connected.LWG
p521
aVtc_259_77_ef_isd_paging_s4_w.LWG
p522
aVtc_244_055_mt_lr_cancel_location_with_update_procedure_received_wf_location_report.LWG
p523
aVtc_306_1087_ef_seamless_move_target_buffer_extended_service_request_wf_icsr.LWG
p524
aVtc_306_1089_ef_seamless_move_target_buffer_extended_service_request_wf_move_finish.LWG
p525
aVtc_286_118_pdn_disconnect_finished_pdn_connectivity_with_same_pti.LWG
p526
aVtc_312_219_inter_old_srns_reloc_wf_cancel_location_interrupted_by_relocation_cancel_with_ue_lost.LWG
p527
aVtc_183_005_itc_folder_file_names.LWG
p528
aVtc_183_008_itc_sctp_encrypted.LWG
p529
aVtc_341_682_x2_activity_event_handover_inter_s1_new.LWG
p530
aVtc_210_056_pdn_connectivity_failure_cc_81.LWG
p531
aVtc_175_032_activate_primary_interrupted_by_activate_primary_same_parameters.LWG
p532
aVtc_251_009_rau_w_to_g_with_one_default_wf_imeisv_interrupted_by_attach.LWG
p533
aVtc_251_62_l_to_w_to_l_with_cl_type_updateProcedure.LWG
p534
aVtc_324_038_mf_two_pdps_dedicated_modify_failed_cdr_output_disabled_then_service_req.LWG
p535
aVtc_324_100_af_payload_after_ack_security_mode_command_timeout.LWG
p536
aVtc_324_140_af_frca_timeout_data_rab_no_resp.LWG
p537
aVtc_324_222_ef_detach_request_abort_wf_forward_relocation_complete_ack.LWG
p538
aVtc_324_318_ef_s6d_cli_delete_subscriber_wf_security_hss.LWG
p539
aVtc_324_394_af_traffic_class_mapped_from_qci_higher_than_policymap_conversational.LWG
p540
aVtc_324_455_ef_detach_request_poweroff_abort_wf_rab_assignment_response_wf_update_location_hss_service_req_data.LWG
p541
aVtc_249_46_s6d_inter_rau_old_without_bearer_s4.LWG
p542
aVtc_212_005_Ccheck_qos_policymap_g.LWG
p543
aVtc_248_01_inter_l_to_w_new_main_flow_without_sgw_relocation.LWG
p544
aVtc_248_84_inter_l_to_w_new_inactive_pdp_context_status_rab_fail_1_bearer.LWG
p545
aVtc_248_128_inter_l_to_w_new_rau_request_intial_ue_received_wf_update_location_resp.LWG
p546
aVtc_248_203_inter_l_to_w_new_after_attatch_ue_offline_ho_back.LWG
p547
aVtc_248_419_inter_l_to_w_new_two_pdns_with_target_gw_interface_gp_and_ipv6_user_plan_off.LWG
p548
aVtc_325_108_inter_old_srns_reloc_s4_to_gn_dns_query_fail_both_type_naptr_and_a.LWG
p549
aVtc_325_238_inter_old_srns_reloc_s4_to_gn_wf_cancel_location_interrupted_by_hlr_reset.LWG
p550
aVtc_59_9_mtmsi_restart_counter.LWG
p551
aVtc_295_136_mo_call_during_s1_ho_tau_request_when_wf_handover_notify.LWG
p552
aVtc_236_036_s4_3gdt_paging_by_dl_notification__switch2twotunnel_modify_bearer_failed.LWG
p553
aVtc_236_163_s4_3gdt_with_2_pdn_service_request_all_rab_setup_fail.LWG
p554
aVtc_236_263_SRNS_Relocation_S4_over_S16_target_DtSelMode_4_APN_in_APN_list_TAC_not_in_TAC_list.LWG
p555
aVtc_166_096_israu_new_two_tunnel_since_camel_subscriber.LWG
p556
aVtc_166_321_israu_new_3gdt_service_req_ignore_ggsn_compatible_check.LWG
p557
aVtc_230_071_activation_wait_create_session_response_interrupted_by_detach.LWG
p558
aVtc_230_185_sgsn_deactivate_ef_pgw_init_deletion.LWG
p559
aVtc_230_259_bssgp_suspend_msg_when_downlink_data_arrive_paging.LWG
p560
aVtc_311_03_intra_srns_reloc_s4_two_pdns_with_dedicated_bearer_without_sgw_change.LWG
p561
aVtc_311_114_intra_srns_reloc_s4_sgw_reloc_create_session_response_timeout.LWG
p562
aVtc_311_162_intra_srns_reloc_s4_with_sgw_change_wf_rau_req_interrupted_by_direct_detach_request.LWG
p563
aVtc_311_205_intra_srns_reloc_s4_sgw_change_wf_reloc_complete_interrupted_by_cancel_loc_subscrip_withdrawn.LWG
p564
aVtc_311_241_intra_srns_reloc_s4_with_sgw_change_wf_reloc_req_ack_interrupted_by_hlr_reset.LWG
p565
aVtc_245_415_L2W_S4SGSN_dedicated_bearer_failed_node_function_deactivate_pdp_after_rau_on.LWG
p566
aVtc_202_362_mf_seamless_move_by_ue_5_subscribers_2_target_mmes.LWG
p567
aVtc_202_405_af_seamless_move_target_no_fwdRelocCmplAck_no_serReq_from_source_paging_timeout.LWG
p568
aVtc_219_131_s3_handover_w_to_l_with_cl_two_pdns_one_failed_sgw_relocation.LWG
p569
aVtc_214_051_rau_to_sgsn.LWG
p570
aVtc_297_119_inter_rau_new_s4_with_imsi_roaming_accept.LWG
p571
aVtc_194_021_tau_ul_fails_imsi_unknown.LWG
p572
aVtc_241_146_israu_new_wait_for_create_session_resp_interfer_by_reset.LWG
p573
aVtc_241_351_intra_rau_with_authentication_error.LWG
p574
aVtc_241_501_israu_new_gn_to_s4_pdp_to_bearer_nrspca_feature_off.LWG
p575
aVtc_241_713_inter_rau_dedicate_bearer_failed_ef_update_bearer_request_before_rau_accepted.LWG
p576
aVtc_241_1690_intra_rau_with_sgw_change_interferred_by_reset_before_create_rsp_failed_create_rsp_paging_succeeds.LWG
p577
aVtc_103_1100_resending_AIR_dpl_changed.LWG
p578
aVtc_103_708_modify_peer_send_DPR.LWG
p579
aVtc_103_704_delete_peer_send_DPR.LWG
p580
aVtc_103_1155_sx_retransmit__Small_restart_terminate_request.LWG
p581
aVtc_23_09_transfer_to_primary_and_change_vip_addr.LWG
p582
aVtc_314_063_hss_init_qos_mod_mbfi_context_not_found_idle_mode.LWG
p583
aVtc_247_39_inter_w_to_l_old_sgsn_no_rab_in_all_pdp_context.LWG
p584
aVtc_247_115_inter_w_to_l_old_wf_cancel_location_interrupted_by_rnc_reset.LWG
p585
aVtc_247_161_inter_w_to_l_old_wf_fwd_reloc_complete_interrupted_by_cl_subscription_withdrawn_s6d.LWG
p586
aVtc_298_208_SIBD_S4_Service_Request_PDP_Context_Status_Connect.LWG
p587
aVtc_298_426_ms_init_deact_ef_delicated_gbr_bearer_deact_interfered_by_rab_release_request.LWG
p588
aVtc_298_424_ms_init_deact_ef_delicated_non_gbr_bearer_deact_interfered_by_rab_release_request.LWG
p589
aVtc_298_610_sgsn_init_bearer_deact_ef_iu_release_wf_delete_req.LWG
p590
aVtc_298_823_activate_secondary_pdp_context_request_with_NSAPI_exist_default_bearer_activate_state.LWG
p591
aVtc_322_044_smooth_move_af_pool_move_job_stopped_condition_check.LWG
p592
aVtc_322_132_smooth_move_ef_sgsn_context_request_wf_ptmsi_relocation_complete.LWG
p593
aVtc_322_157_smooth_move_ef_downlink_payload_connect.LWG
p594
aVtc_195_401_ue_trace_start_x2_handover_triggered_HO_ongoing_timeout.LWG
p595
aVtc_225_103_csfb_stand_alone_ue_context_release_active_mode.LWG
p596
aVtc_313_004_inter_new_srns_reloc_s16_with_sgw_change_two_pdns_with_dedicate_bearer_without_sgw_node_name.LWG
p597
aVtc_313_039_inter_new_srns_reloc_s16_without_sgw_change_dedicate_bearer_qos_exceed_to_policy_map_pl.LWG
p598
aVtc_313_218_inter_new_srns_reloc_s16_with_sgw_change_detach_request_direct_transfer_received_wf_modify_bearer_response.LWG
p599
aVtc_313_254_inter_new_srns_reloc_s16_with_sgw_change_reset_received_from_hss_wf_update_location_ack.LWG
p600
aVtc_361_190_s3_intra_rau_l_to_w_with_dedicate_bearers_3gdt_ipv4v6.LWG
p601
aVtc_250_61_s6d_activation.LWG
p602
aVtc_250_152_attach_activate_with_inconsistent_odb_data.LWG
p603
aVtc_231_006_activate_2_pdn_with_same_apn_dynamic_ipv6_when_sub_ipv4v6.LWG
p604
aVtc_231_100_gprs_2_ptmsi_attach_identity_request_same_imsi_s4.LWG
p605
aVtc_231_222_PGW_Init_Modification_AF_RNC_Initiated_Modification.LWG
p606
aVtc_231_442_activate_ipv6_visitor_requested_ipv6_subscribed_ipv6_aifav_true_aifv_true.LWG
p607
aVtc_231_724_apn_resolution_ext_with_no_cc.LWG
p608
aVtc_95_22_load_lkf_hard_mme_pool_off_cli.LWG
p609
aVtc_208_43_interception_after_small_restart.G14b
p610
aVtc_103_708_modify_peer_send_DPR.L14b
p611
aVtc_286_118_pdn_disconnect_finished_pdn_connectivity_with_same_pti.L14b
p612
aVtc_225_103_csfb_stand_alone_ue_context_release_active_mode.L14b
p613
aVtc_358_010_lte_iterator_ipAddressReset_nrrEnabled_modify_to_true_while_one_pdn_already_in_target_area.L14b
p614
aVtc_304_121_initial_ue_intra_tau_control_mode_threshold_exceeded_usc_detach_wf_release_request_response.L14b
p615
aVtc_295_136_mo_call_during_s1_ho_tau_request_when_wf_handover_notify.L14b
p616
aVtc_306_1087_ef_seamless_move_target_buffer_extended_service_request_wf_icsr.L14b
p617
aVtc_306_1089_ef_seamless_move_target_buffer_extended_service_request_wf_move_finish.L14b
p618
aVtc_326_622_S6a_Throttling_Service_Request_recovery_UL_successful_and_Emergency_Attach_not_throttled.L14b
p619
aVts_336_003_access_request__s1_reset_while_waiting_for_eab_wifi_decision_response.L14b
p620
aVtc_43_101__removal_of_disconnected_eNodeBs__CLI_removal.L14b
p621
aVtc_341_682_x2_activity_event_handover_inter_s1_new.L14b
p622
aVtc_322_161_smooth_move_ef_nas_after_paging_response_ignore.WG14a
p623
aVtc_99_113_inter_g_to_w_new_one_ipv6_pdp_type_system_property_not_support.WG14a
p624
aVtc_231_227_PGW_Initiated_Modification_EARP_idle_one_tunnel.W14b
p625
aVtc_236_057_s4_3gdt_cancel_location_during_modify_ms_in_downlink_data_notification_procedure.W14b
p626
aVtc_322_161_smooth_move_ef_nas_after_paging_response_ignore.W14b
p627
aVtc_295_136_mo_call_during_s1_ho_tau_request_when_wf_handover_notify.LW
p628
aVtc_316_242_MME_Pool_Seamless_Move_No_Forward_Relocation_Complete_Notification_GUTI_Reallocation__No_UE_Backup.LW
p629
aVtc_103_708_modify_peer_send_DPR.LW
p630
aVtc_103_704_delete_peer_send_DPR.LW
p631
aVtc_238_153_mme_eps_irat_Gn_ho_target__emm_registered_state.LW
p632
aVtc_23_09_transfer_to_primary_and_change_vip_addr.LW
p633
aVtc_23_13_israu_out.LW
p634
aVtc_306_1087_ef_seamless_move_target_buffer_extended_service_request_wf_icsr.LW
p635
aVtc_306_1089_ef_seamless_move_target_buffer_extended_service_request_wf_move_finish.LW
p636
aVtc_341_682_x2_activity_event_handover_inter_s1_new.LW
p637
aVtc_225_103_csfb_stand_alone_ue_context_release_active_mode.LW
p638
aVtc_199_87_W_attach_S4_echo_N3_times_response_no_alarm.LW
p639
aVtc_321_099_reset_resource_rnc_initiated.LW
p640
aVtc_298_424_ms_init_deact_ef_delicated_non_gbr_bearer_deact_interfered_by_rab_release_request.LW
p641
aVtc_286_118_pdn_disconnect_finished_pdn_connectivity_with_same_pti.LW
p642
aVtc_284_351_pdn_connectivity_pb_activate_1_dedicated_bearer_interrupted_by_path_switch_request.LW
p643
aVtc_348_167_israu_af__new_sgsn_camel_release.WG14a
p644
aVtc_166_131_israu_new_apn_not_in_hlr.WG14a
p645
aVtc_26_058_activate_3_primary_contexts_different_policy_maps.W14b
p646
aVtc_322_126_smooth_move_ef_cancel_location_initialAttach_wf_cancel_location.W14b
p647
aVtc_342_033_x2_connection_heartbeat.W14b
p648
aVtc_342_114_set_target_with_diff_x3_addr_diff_ccoutput_cc.W14b
p649
aVtc_12_512_pmm_undefined_attach_when_updating_location_interfered_by_rnc_reset.W14b
p650
aVtc_324_368_ef_cancel_location_with_updateProcedure_wf_modify_bearer_response_after_ula_hss.W14b
p651
aVtc_295_136_mo_call_during_s1_ho_tau_request_when_wf_handover_notify.LWG
p652
aVtc_250_105_ignore_IDR_when_EPS_sub_downgrade_GPRS_sub.LWG
p653
aVtc_12_512_pmm_undefined_attach_when_updating_location_interfered_by_rnc_reset.LWG
p654
aVtc_328_108_Backup_MME__MaximumNumberOfUeBackups_reached_replace_oldest_ue_backups.LWG
p655
aVtc_166_428_rnc_initiated_rab_release_interfered_by_rnc_initiated_iu_release_request.LWG
p656
aVtc_306_1087_ef_seamless_move_target_buffer_extended_service_request_wf_icsr.LWG
p657
aVtc_306_1089_ef_seamless_move_target_buffer_extended_service_request_wf_move_finish.LWG
p658
aVtc_306_1300_ef_seamless_move_target_receive_uplink_nas_transport_bf_lur.LWG
p659
aVtc_310_262__ef__Initial_UE_Service_Request_wf_FR_Response.LWG
p660
aVtc_103_708_modify_peer_send_DPR.LWG
p661
aVtc_103_704_delete_peer_send_DPR.LWG
p662
aVtc_327_034_recovery_intra_TAU__initial_intra_TAU_Request_while_waiting_for_Ue_Backup_Response.LWG
p663
aVtc_327_172_recovery_intra_TAU_SGSN_Context_Request_while_waiting_for_Location_Update_Response.LWG
p664
aVtc_286_118_pdn_disconnect_finished_pdn_connectivity_with_same_pti.LWG
p665
aVtc_341_682_x2_activity_event_handover_inter_s1_new.LWG
p666
aVtc_326_622_S6a_Throttling_Service_Request_recovery_UL_successful_and_Emergency_Attach_not_throttled.LWG
p667
aVtc_275_073_tau_inter_new_no_update_location_response_sgsn00040258.LWG
p668
aVtc_256_179_mme_eps_srvcc_ho_source_cs_only_ue_release_request_s1_expired_wf_srvcc_ps_to_cs_complete_notification.LWG
p669
aVtc_262_044_2_imsi_attach_emm_deregistered.LWG
p670
aVtc_23_09_transfer_to_primary_and_change_vip_addr.LWG
p671
aVtc_243_722_tau_from_sgsn_s3_active_flag_false_ddn_with_imsi_wf_ula.LWG
p672
aVtc_340_124_oms_consistence_check_for_action_pool_move_validation_start.LWG
p673
aVtc_183_008_itc_sctp_encrypted.LWG
p674
aVtc_358_032_lte_iterator_multi_pdn_wf_one_deactivate_eps_bearer_context_accept_timeout.LWG
p675
aVtc_56_21_sending_recognized_information_in_log.LWG
p676
aVtc_208_43_interception_after_small_restart.LWG
p677
aVtc_194_506_Notification_during_Intra_MME_TAU_without_SGW_Relocation_Procedure.LWG
p678
aVtc_313_228_inter_new_srns_reloc_s16_with_sgw_change_rau_request_initial_ue_received_wf_rau_complete.LWG
p679
aVtc_251_62_l_to_w_to_l_with_cl_type_updateProcedure.LWG
p680
aVtc_220_411_csfb_to_1xrtt_in_ecm_connected_path_switch_request_subscription_cancelled.LWG
p681
aVtc_297_407_move_at_periodic_rau.LWG
p682
aVtc_225_103_csfb_stand_alone_ue_context_release_active_mode.LWG
p683
aVtc_341_682_x2_activity_event_handover_inter_s1_new.L14b
p684
aVtc_103_903_primary_or_secondary_realm_routing_own_realm.L14b
p685
aVtc_306_1087_ef_seamless_move_target_buffer_extended_service_request_wf_icsr.L14b
p686
aVtc_306_1089_ef_seamless_move_target_buffer_extended_service_request_wf_move_finish.L14b
p687
aVtc_225_103_csfb_stand_alone_ue_context_release_active_mode.L14b
p688
aVtc_295_136_mo_call_during_s1_ho_tau_request_when_wf_handover_notify.L14b
p689
aVtc_194_506_Notification_during_Intra_MME_TAU_without_SGW_Relocation_Procedure.L14b
p690
aVtc_286_118_pdn_disconnect_finished_pdn_connectivity_with_same_pti.L14b
p691
aVtc_326_700_Inter_TAU_Recovery_unknown_GUTI_Old_MME_Unavailable_with_both_allowed_apn_and_not_allowed_apn_in_ODB_free_APN_list__odb_bit0.L14b
p692
aVtc_578_19_check_pm_job_monitor.L14b
p693
aVtc_286_118_pdn_disconnect_finished_pdn_connectivity_with_same_pti.LW
p694
aVtc_324_006_mf_ser_req_signaling_after_ack_3gdt.LW
p695
aVtc_295_136_mo_call_during_s1_ho_tau_request_when_wf_handover_notify.LW
p696
aVtc_225_103_csfb_stand_alone_ue_context_release_active_mode.LW
p697
aVtc_316_242_MME_Pool_Seamless_Move_No_Forward_Relocation_Complete_Notification_GUTI_Reallocation__No_UE_Backup.LW
p698
aVtc_103_704_delete_peer_send_DPR.LW
p699
aVtc_103_708_modify_peer_send_DPR.LW
p700
aVtc_298_826_NRSPCA_S4_nsapi_collision_receiving_detach_request_while_waiting_for_delete_bearer_request.LW
p701
aVtc_306_1089_ef_seamless_move_target_buffer_extended_service_request_wf_move_finish.LW
p702
aVtc_306_1087_ef_seamless_move_target_buffer_extended_service_request_wf_icsr.LW
p703
aVtc_341_682_x2_activity_event_handover_inter_s1_new.LW
p704
aVtc_345_321_ef__mo_csfb_with_psho__create_bearer_request_while_wf_forward_relocation_response.LW
p705
aVtc_284_025_pdn_connectivity_create_session_resend_sgw.LW
p706
aVtc_239_620_inter_rau_new_with_bearer_sgw_not_change_isd_odb_bit0_wf_rau_compl_deactivation.G14b
p707
aVtc_103_708_modify_peer_send_DPR.LWG
p708
aVtc_103_1100_resending_AIR_dpl_changed.LWG
p709
aVtc_103_704_delete_peer_send_DPR.LWG
p710
aVtc_103_1155_sx_retransmit__Small_restart_terminate_request.LWG
p711
aVgn_wcdma_payload_no_context_ensure_stored.LWG
p712
aVtc_286_118_pdn_disconnect_finished_pdn_connectivity_with_same_pti.LWG
p713
aVtc_239_170_inter_rau_triple_new_sgw_changed_with_dedicated_bearer_create_session_failed.LWG
p714
aVtc_248_86_inter_l_to_w_new_inactive_pdp_context_status_dedicated_inactive.LWG
p715
aVtc_306_1087_ef_seamless_move_target_buffer_extended_service_request_wf_icsr.LWG
p716
aVtc_306_1089_ef_seamless_move_target_buffer_extended_service_request_wf_move_finish.LWG
p717
aVtc_578_33_check_ebm_para_statistics_enb_sn.LWG
p718
aVtc_578_32_check_ebm_para_statistics_ue_return_duration.LWG
p719
aVtc_260_271_receive_sm_start_req_while_wf_setup_iteration.LWG
p720
aVtc_236_048_s4_3gdt_deactivation_during_waiting_for_modify_bearer_rsp_in_activation_procedure_no_context.LWG
p721
aVtc_236_307_Activation_DtSelMode_5_APN_requested_wrong_SGSN_default_APN_in_APN_list_TAC_in_TAC_list.LWG
p722
aVtc_264_023_MME_Initiated_Detach__Emergency_Attached_UE_ECM_Idle__Detach__Purge__Reattach_Not_Required.LWG
p723
aVtc_183_008_itc_sctp_encrypted.LWG
p724
aVtc_156_02_ap_loss_g.LWG
p725
aVtc_251_62_l_to_w_to_l_with_cl_type_updateProcedure.LWG
p726
aVtc_179_318_Ccheck_TraceCollectionIpv6server.LWG
p727
aVtc_245_123_inter_rau_old_s4_sgsn_activated_on_ggsn.LWG
p728
aVtc_215_001_ipv6_InReceives.LWG
p729
aVtc_73_41_gtpu_sgsn_dont_send_gpu_echo_request_w.LWG
p730
aVtc_225_103_csfb_stand_alone_ue_context_release_active_mode.LWG
p731
aVtc_23_09_transfer_to_primary_and_change_vip_addr.LWG
p732
aVtc_275_073_tau_inter_new_no_update_location_response_sgsn00040258.LWG
p733
aVtc_59_9_mtmsi_restart_counter.LWG
p734
aVtc_326_207_Intra_TAU_Recovery_with_1xrtt_cs_registration_then_CSFB_to_1xrtt.LWG
p735
aVtc_326_842_Geo_Service_Request_Modify_Bearer_timeout_rollback_GUTI_release_s1_no_response.LWG
p736
aVtc_295_136_mo_call_during_s1_ho_tau_request_when_wf_handover_notify.LWG
p737
aVtc_54_213_rim_inter_sgsn_mme_w_to_l_through_gn_macro_eNB_format_targetid_HeNB_GW_table_empty.LWG
p738
aVtc_193_222_replayed_attach_request_allowed_ecm_connected.LWG
p739
aVtc_193_175_resending_smc_during_service_req_failed.LWG
p740
aVtc_212_049_Ccheck_ra.LWG
p741
aVtc_218_540_tau_from_sgsn__cancel_location_while_waiting_for_authentication_information_answer.LWG
p742
aVtc_341_682_x2_activity_event_handover_inter_s1_new.LWG
p743
aVtc_306_1089_ef_seamless_move_target_buffer_extended_service_request_wf_move_finish.L14b
p744
aVtc_306_1087_ef_seamless_move_target_buffer_extended_service_request_wf_icsr.L14b
p745
aVtc_316_242_MME_Pool_Seamless_Move_No_Forward_Relocation_Complete_Notification_GUTI_Reallocation__No_UE_Backup.L14b
p746
aVtc_225_103_csfb_stand_alone_ue_context_release_active_mode.L14b
p747
aVtc_260_272_receive_sm_stop_req_while_wf_setup_iteration.L14b
p748
aVtc_286_118_pdn_disconnect_finished_pdn_connectivity_with_same_pti.L14b
p749
aVtc_43_101__removal_of_disconnected_eNodeBs__CLI_removal.L14b
p750
aVtc_44_070_sctp_large_message.L14b
p751
aVtc_341_682_x2_activity_event_handover_inter_s1_new.L14b
p752
aVtc_335_21_wifi_to_mobility_in_ecm_idle_mf__one_cell_info_from_wic__all_cells_succeed_from_eNB.L14b
p753
aVtc_295_136_mo_call_during_s1_ho_tau_request_when_wf_handover_notify.L14b
p754
aVtc_283_001_deactivate_bearer_1_of_1.L14b
p755
aVtc_268_105_ue_release__cs_paging_wf_release_access_bearer_resp.L14b
p756
aVtc_220_587_csfb_to_1xrtt_in_extended_service_request_during_attach_waiting_for_modify_bearer_response.L14b
p757
aVts_346_630_pra_cn_predefined_tai_list__attach_out_of_pra1_pdn_in_pra2.L14b
p758
aVtc_295_136_mo_call_during_s1_ho_tau_request_when_wf_handover_notify.LW
p759
aVtc_103_708_modify_peer_send_DPR.LW
p760
aVtc_103_704_delete_peer_send_DPR.LW
p761
aVtc_322_096_smooth_move_ef_reset_wf_frr_idle.LW
p762
aVtc_322_172_smooth_move_ef_gr_cli_delete_subscriber_data_wf_security_mode_complete.LW
p763
aVtc_335_24_wifi_to_mobility_in_ecm_idle_mf__all_cells_succeed_from_home_eNB.LW
p764
aVtc_335_100_IMSI_Attach.LW
p765
aVtc_219_131_s3_handover_w_to_l_with_cl_two_pdns_one_failed_sgw_relocation.LW
p766
aVtc_341_682_x2_activity_event_handover_inter_s1_new.LW
p767
aVtc_318_158_sgw_restart_af_relocation_triggered_by_intra_tau_procedure_fail.LW
p768
aVtc_286_118_pdn_disconnect_finished_pdn_connectivity_with_same_pti.LW
p769
aVtc_293_110_X2_Based_HO__Create_Bearer_Request_while_wf_Location_Upate_Accept.LW
p770
aVtc_23_09_transfer_to_primary_and_change_vip_addr.LW
p771
aVtc_225_103_csfb_stand_alone_ue_context_release_active_mode.LW
p772
aVtc_214_1141_la_selection_mf_oldmscpreferred_prau_during_ue_restoration.LW
p773
aVtc_316_242_MME_Pool_Seamless_Move_No_Forward_Relocation_Complete_Notification_GUTI_Reallocation__No_UE_Backup.LW
p774
aVtc_248_99_inter_l_to_w_new_qos_higher_than_policymap_trigger_alarm_2_ue.LW
p775
aVtc_306_1087_ef_seamless_move_target_buffer_extended_service_request_wf_icsr.LW
p776
aVtc_306_1089_ef_seamless_move_target_buffer_extended_service_request_wf_move_finish.LW
p777
aVtc_32_94_iu_releasing_interfered_by_service_request_initial_ue.W14b
p778
aVtc_248_92_inter_l_to_w_new_qos_higher_than_policymap_sgw_not_change_2_pdns_both_ubr_after_timeout.W14b
p779
aVtc_318_201_idle_deactivate_dedicated_bearers_one_by_one_reactivate_req.LW
p780
aVtc_194_993_connection_oriented_information_LPP_during_waiting_location_report__idr_flags_ef.LW
p781
aVtc_341_682_x2_activity_event_handover_inter_s1_new.LW
p782
aVtc_218_531_tau_from_sgsn_gn_active_flag_true_gw_failure_restoration_lte_on_no_modify_bearer_response_two_pdn.LW
p783
aVtc_103_708_modify_peer_send_DPR.LW
p784
aVtc_103_704_delete_peer_send_DPR.LW
p785
aVtc_103_854_error_code_DIAMETER_INVALID_AVP_VALUE.LW
p786
aVtc_44_070_sctp_large_message.LW
p787
aVtc_326_449_Inter_TAU_Recovery_Fail__Emergency_Type_b_No_Emc_Support.LW
p788
aVtc_295_136_mo_call_during_s1_ho_tau_request_when_wf_handover_notify.LW
p789
aVtc_23_09_transfer_to_primary_and_change_vip_addr.LW
p790
aVtc_193_402_auth_vectors_answer_from_hss_with_more_vectors_than_requested.LW
p791
aVtc_286_118_pdn_disconnect_finished_pdn_connectivity_with_same_pti.LW
p792
aVtc_225_103_csfb_stand_alone_ue_context_release_active_mode.LW
p793
aVtc_247_83_inter_w_to_l_old_wf_session_to_complete_interrupted_by_attach_on_new_iu.LW
p794
aVtc_306_1087_ef_seamless_move_target_buffer_extended_service_request_wf_icsr.LW
p795
aVtc_306_1089_ef_seamless_move_target_buffer_extended_service_request_wf_move_finish.LW
p796
aVtc_214_1139_la_selection_mf_reselection_ptau_during_ue_restoration.LWG
p797
aVtc_103_708_modify_peer_send_DPR.LWG
p798
aVtc_103_704_delete_peer_send_DPR.LWG
p799
aVtc_103_1100_resending_AIR_dpl_changed.LWG
p800
aVtc_103_1141_sx_resend__resend_during_inter_mme_handover_2_pdns.LWG
p801
aVtc_103_1155_sx_retransmit__Small_restart_terminate_request.LWG
p802
aVtc_341_682_x2_activity_event_handover_inter_s1_new.LWG
p803
aVtc_310_132_af__Forward_Relocation_Complete_arrives_in_Delete_Bearer_procedure.LWG
p804
aVtc_208_43_interception_after_small_restart.LWG
p805
aVtc_202_454_af_seamless_move_source_unsuccessful_forward_relocation_response_other_cause.LWG
p806
aVtc_251_62_l_to_w_to_l_with_cl_type_updateProcedure.LWG
p807
aVtc_306_1087_ef_seamless_move_target_buffer_extended_service_request_wf_icsr.LWG
p808
aVtc_306_1089_ef_seamless_move_target_buffer_extended_service_request_wf_move_finish.LWG
p809
aVtc_73_39_gtpu_sgsn_send_gnu_echo_request_w.LWG
p810
aVtc_73_41_gtpu_sgsn_dont_send_gpu_echo_request_w.LWG
p811
aVtc_320_080_attach_imsi_implicit_detach_rau_reject_intra_sgsn.LWG
p812
aVtc_305_040_oms_mmi.LWG
p813
aVtc_219_131_s3_handover_w_to_l_with_cl_two_pdns_one_failed_sgw_relocation.LWG
p814
aVtc_262_1055_imsi_attach_with_csg_id_is_rejected.LWG
p815
aVtc_212_049_Ccheck_ra.LWG
p816
aVtc_284_351_pdn_connectivity_pb_activate_1_dedicated_bearer_interrupted_by_path_switch_request.LWG
p817
aVtc_225_103_csfb_stand_alone_ue_context_release_active_mode.LWG
p818
aVtc_179_318_Ccheck_TraceCollectionIpv6server.LWG
p819
aVtc_205_71_01_ss7_SCCP_CR_DT1_RLSD.LWG
p820
aVtc_44_004_small_restart__sctp_fe_restart.LWG
p821
aVtc_183_005_itc_folder_file_names.LWG
p822
aVtc_183_008_itc_sctp_encrypted.LWG
p823
aVtc_286_118_pdn_disconnect_finished_pdn_connectivity_with_same_pti.LWG
p824
aVtc_242_156_rau_to_sgsn_s3_type_d_emergency_allowed_irat_and_plmn_change.LWG
p825
aVtc_24_52_no_cs_paging_after_bvc_reset.LWG
p826
aVtc_141_003_eth_traffic_vlan.LWG
p827
aVtc_23_09_transfer_to_primary_and_change_vip_addr.LWG
p828
aVtc_316_242_MME_Pool_Seamless_Move_No_Forward_Relocation_Complete_Notification_GUTI_Reallocation__No_UE_Backup.LWG
p829
aVtc_295_136_mo_call_during_s1_ho_tau_request_when_wf_handover_notify.LWG
p830
aVtc_218_112_tau_from_sgsn_ue_context_release_when_wf_modify_bearer_resp.LWG
p831
aVtc_218_312_tau_from_sgsn_preserved_gbr_bearer_2_pdn_buffer_1_ubr_1_dbr.LWG
p832
aVtc_306_1034_ef_seamless_move_target_handle_initial_tau_request_sr_ongoing_wf_mbr_move_going.L14b
p833
aVtc_306_1087_ef_seamless_move_target_buffer_extended_service_request_wf_icsr.L14b
p834
aVtc_306_1089_ef_seamless_move_target_buffer_extended_service_request_wf_move_finish.L14b
p835
aVtc_243_330_tau_from_sgsn_s3_emergency_type_a_no_restriction.L14b
p836
aVtc_286_118_pdn_disconnect_finished_pdn_connectivity_with_same_pti.L14b
p837
aVtc_262_084_emergency_imsi_attach_unauthentication_fails_in_hss.L14b
p838
aVtc_288_105_pgw_init_bearer_mod_ue_not_responding_all_bearers.L14b
p839
aVtc_341_682_x2_activity_event_handover_inter_s1_new.L14b
p840
aVtc_44_301_sctp_counter_MessageSent_Received.L14b
p841
aVtc_225_103_csfb_stand_alone_ue_context_release_active_mode.L14b
p842
aVtc_225_416_recv_service_while_waiting_extended_service_request.L14b
p843
aVtc_103_704_delete_peer_send_DPR.L14b
p844
aVtc_103_708_modify_peer_send_DPR.L14b
p845
aVtc_326_250_Intra_TAU_Recovery_after_node_restart_emergency_PDN_Update_Location_fail.L14b
p846
aVtc_43_101__removal_of_disconnected_eNodeBs__CLI_removal.L14b
p847
aVtc_295_136_mo_call_during_s1_ho_tau_request_when_wf_handover_notify.L14b
p848
aVgn_wcdma_payload_no_context_ensure_stored.WG14a
p849
aVtc_322_161_smooth_move_ef_nas_after_paging_response_ignore.W14b
p850
aVtc_298_654_pgw_init_modification_mf_3gdt_enable.W14b
p851
aVtc_298_723_service_request_ef_ms_deact_ti_default_wf_rab_assignment_response.W14b
p852
aVtc_334_203_path_failure_intra_rau_inter_rnc_idle_3gdt_mf.W14b
p853
aVtc_334_281_path_failure_service_req_af_multi_pdn_create_session_no_resp.W14b
p854
aVtc_26_085_subscriber_data_changed_when_iu_released.W14b
p855
a.