(lp0
Vtc_208_43_interception_after_small_restart.G14b
p1
aVtc_304_263_tau_from_gnsgsn_when_wf_tau_complete_control_mode_reject_congestion.LW
p2
aVtc_202_409_af_seamless_move_target_unsuccessful_ula_from_hss_wf_icsr.LW
p3
aVtc_332_052_3_mf__paging_due_to_UBR_during_paging_due_to_CBR_latest_with_higher_prio.LW
p4
aVtc_23_09_transfer_to_primary_and_change_vip_addr.LW
p5
aVtc_225_103_csfb_stand_alone_ue_context_release_active_mode.LW
p6
aVtc_306_1089_ef_seamless_move_target_buffer_extended_service_request_wf_move_finish.LW
p7
aVtc_306_1087_ef_seamless_move_target_buffer_extended_service_request_wf_icsr.LW
p8
aVtc_341_682_x2_activity_event_handover_inter_s1_new.LW
p9
aVtc_274_100_Intra_and_pTAU__UE_Context_Release_Request_while_waiting_for_Initial_Context_Setup_Response.LW
p10
aVtc_364_214_af_trigger_hits_before_UE_id_is_known_wcdma.LW
p11
aVtc_103_708_modify_peer_send_DPR.LW
p12
aVtc_103_704_delete_peer_send_DPR.LW
p13
aVtc_286_118_pdn_disconnect_finished_pdn_connectivity_with_same_pti.LW
p14
aVtc_295_136_mo_call_during_s1_ho_tau_request_when_wf_handover_notify.LW
p15
aVtc_306_1087_ef_seamless_move_target_buffer_extended_service_request_wf_icsr.L14b
p16
aVtc_306_1089_ef_seamless_move_target_buffer_extended_service_request_wf_move_finish.L14b
p17
aVtc_217_043_rau_to_sgsn_sgsn_context_request_same_sgsn_when_wf_sgsn_context_ack.L14b
p18
aVtc_295_136_mo_call_during_s1_ho_tau_request_when_wf_handover_notify.L14b
p19
aVtc_327_022_recovery_intra_TAU__initial_Detach_Request_while_waiting_for_Ue_Backup_Response.L14b
p20
aVtc_225_103_csfb_stand_alone_ue_context_release_active_mode.L14b
p21
aVtc_286_118_pdn_disconnect_finished_pdn_connectivity_with_same_pti.L14b
p22
aVtc_326_622_S6a_Throttling_Service_Request_recovery_UL_successful_and_Emergency_Attach_not_throttled.L14b
p23
aVtc_194_505_Notification_during_Intra_TAU_without_SGW_Relocation_HSS_Reset_Before_TAU.L14b
p24
aVtc_341_682_x2_activity_event_handover_inter_s1_new.L14b
p25
aVtc_103_704_delete_peer_send_DPR.L14b
p26
aVtc_103_708_modify_peer_send_DPR.L14b
p27
aVtc_298_654_pgw_init_modification_mf_3gdt_enable.W14b
p28
aVtc_183_005_itc_folder_file_names.LWG
p29
aVtc_183_008_itc_sctp_encrypted.LWG
p30
aVtc_212_049_Ccheck_ra.LWG
p31
aVtc_103_708_modify_peer_send_DPR.LWG
p32
aVtc_103_704_delete_peer_send_DPR.LWG
p33
aVtc_103_903_primary_or_secondary_realm_routing_own_realm.LWG
p34
aVtc_103_1100_resending_AIR_dpl_changed.LWG
p35
aVtc_103_1155_sx_retransmit__Small_restart_terminate_request.LWG
p36
aVtc_250_105_ignore_IDR_when_EPS_sub_downgrade_GPRS_sub.LWG
p37
aVtc_23_13_israu_out.LWG
p38
aVtc_23_09_transfer_to_primary_and_change_vip_addr.LWG
p39
aVtc_243_722_tau_from_sgsn_s3_active_flag_false_ddn_with_imsi_wf_ula.LWG
p40
aVtc_218_215_2_TAU_from_SGSN__ho_to_non_3gpp_while_waiting_for_failing_Initial_Context_Setup_Response.LWG
p41
aVtc_218_541_tau_from_sgsn__cancel_location_while_waiting_for_ue_authentication_response.LWG
p42
aVtc_341_682_x2_activity_event_handover_inter_s1_new.LWG
p43
aVtc_316_242_MME_Pool_Seamless_Move_No_Forward_Relocation_Complete_Notification_GUTI_Reallocation__No_UE_Backup.LWG
p44
aVtc_141_005_eth_traffic_novlan.LWG
p45
aVtc_92_09_10_autoupdate.LWG
p46
aVtc_100_92_intra_w_to_g_old_EF10_wcdma_rau_request_before_gsm_rau_request_v1.LWG
p47
aVtc_291_40_action_ue_trace.LWG
p48
aVtc_284_420_pdn_connectivity_connection_same_apn_same_pdn_type.LWG
p49
aVtc_295_136_mo_call_during_s1_ho_tau_request_when_wf_handover_notify.LWG
p50
aVtc_306_1087_ef_seamless_move_target_buffer_extended_service_request_wf_icsr.LWG
p51
aVtc_306_1089_ef_seamless_move_target_buffer_extended_service_request_wf_move_finish.LWG
p52
aVtc_348_001_activation_mf__primary_pdp_with_sx.LWG
p53
aVtc_225_103_csfb_stand_alone_ue_context_release_active_mode.LWG
p54
aVtc_297_407_move_at_periodic_rau.LWG
p55
aVtc_286_118_pdn_disconnect_finished_pdn_connectivity_with_same_pti.LWG
p56
aVtc_56_21_sending_recognized_information_in_log.LWG
p57
aVtc_24_72_comb_att_vlr_reset_comb_update_new_ra_new_tmsi.LWG
p58
aVtc_44_340_sctp_counter_index_SGsAP.LWG
p59
aVtc_251_62_l_to_w_to_l_with_cl_type_updateProcedure.LWG
p60
aVtc_73_41_gtpu_sgsn_dont_send_gpu_echo_request_w.LWG
p61
aVtc_73_07_itc_encrypted_gtpu_s4_payload_w.LWG
p62
aVtc_166_271_israu_new_dt_apn_list_empty_mode_2_no_3gdt_in_hlr.WG14a
p63
aVtc_73_07_itc_encrypted_gtpu_s4_payload_w.WG14a
p64
aVtc_348_150_israu_mf__old_sgsn_with_sx.WG14a
p65
aVtc_44_301_sctp_counter_MessageSent_Received.LW
p66
aVtc_44_004_small_restart__sctp_fe_restart.LW
p67
aVtc_341_682_x2_activity_event_handover_inter_s1_new.LW
p68
aVtc_295_136_mo_call_during_s1_ho_tau_request_when_wf_handover_notify.LW
p69
aVtc_103_708_modify_peer_send_DPR.LW
p70
aVtc_103_704_delete_peer_send_DPR.LW
p71
aVtc_103_705_delete_peer_send_DPR_timeout_on_DPA.LW
p72
aVtc_286_118_pdn_disconnect_finished_pdn_connectivity_with_same_pti.LW
p73
aVtc_236_018_s4_3gdt_service_request_tz_changed.LW
p74
aVtc_225_103_csfb_stand_alone_ue_context_release_active_mode.LW
p75
aVtc_310_335_ef_dbr_non_voice_bearer_wf_forward_relocation_complete_and_forward_relocation_complete_ack.LW
p76
aVtc_306_1087_ef_seamless_move_target_buffer_extended_service_request_wf_icsr.LW
p77
aVtc_306_1089_ef_seamless_move_target_buffer_extended_service_request_wf_move_finish.LW
p78
aVtc_358_037_lte_iterator_implicit_detach_and_deactivate_af.LW
p79
aVtc_262_059_no_imei_check_after_large_restart.LW
p80
aVtc_210_046_mme_initiated_detach_with_reattach_required.LW
p81
aVtc_312_240_inter_old_srns_reloc_with_failed_pdn_interrupted_by_delete_bearer_request.LW
p82
aVtc_47_005_implict_detach_timer_ap_loss.LW
p83
aVtc_324_006_mf_ser_req_signaling_after_ack_3gdt.LW
p84
aVtc_324_513_ef_delete_bearer_request_seq_no_same_ignore_payload_after_ulr.LW
p85
aVtc_326_622_S6a_Throttling_Service_Request_recovery_UL_successful_and_Emergency_Attach_not_throttled.LW
p86
aVtc_294_391_s1_intra_handover__multi_pdn__default_bearer_fail_in_eNB.LW
p87
aVtc_284_362_pdn_connectivity_handover_indication_no_override_other_apn.LW
p88
aVtc_43_101__removal_of_disconnected_eNodeBs__CLI_removal.LW
p89
aVtc_194_501_Notification_SV_change_during_Attach_Procedure_no_Response.LW
p90
aVtc_103_708_modify_peer_send_DPR.LWG
p91
aVtc_103_704_delete_peer_send_DPR.LWG
p92
aVtc_30_139_hlr_reset_dp_unavailable.LWG
p93
aVtc_341_682_x2_activity_event_handover_inter_s1_new.LWG
p94
aVtc_73_21_itc_gtpu_s4_sgsn_send_echo_request_w.LWG
p95
aVtc_73_40_gtpu_sgsn_send_gpu_echo_request_w.LWG
p96
aVtc_23_09_transfer_to_primary_and_change_vip_addr.LWG
p97
aVtc_212_049_Ccheck_ra.LWG
p98
aVtc_361_005_rau_l_to_w_without_cl_not_released.LWG
p99
aVtc_208_155_ul_payload_imsi_udp.LWG
p100
aVtc_297_113_inter_rau_new_s4_home_accept.LWG
p101
aVtc_297_407_move_at_periodic_rau.LWG
p102
aVtc_318_103_sgw_restart_mf_multi_pdns_detach_when_APNList_empty.LWG
p103
aVtc_324_069_af_modify_bearer_dedicated_bearer_fail.LWG
p104
aVtc_324_402_ef_gr_delete_subscriber_data_during_modify_bearer_after_ulr.LWG
p105
aVtc_327_004_recovery_intra_TAU__uplink_Attach_Request_while_waiting_for_Authentication_Response.LWG
p106
aVtc_327_217_recovery_service_request__HSS_Reset_while_waiting_for_Update_Location_Response.LWG
p107
aVtc_327_500_recovery_service_request__s1_reset_while_waiting_for_Sub_Procedure__Initial_Context_Setup_Response.LWG
p108
aVtc_239_153_inter_rau_new_with_bearer_sgw_changed_pfc_downgrade_not_allowed.LWG
p109
aVtc_166_214_inter_irat_w_to_g_old_relocation_cancel_recv.LWG
p110
aVtc_295_136_mo_call_during_s1_ho_tau_request_when_wf_handover_notify.LWG
p111
aVtc_265_001_Detach_Flow_UE_init__Attach_Request_while_waiting_for_Context_Release_Complete.LWG
p112
aVtc_256_364_srvcc_ho_source_cs_only_msc_pool_off_default_msc_unavailable.LWG
p113
aVtc_231_257_PGW_init_deletion_AF_paing_failed.LWG
p114
aVtc_251_62_l_to_w_to_l_with_cl_type_updateProcedure.LWG
p115
aVtc_346_523_AF__TAU_Inter_New_from_gn_higher_qos_pdn_only_has_default_bearer.LWG
p116
aVtc_248_183_inter_l_to_w_new_interfering_sm_status.LWG
p117
aVtc_286_118_pdn_disconnect_finished_pdn_connectivity_with_same_pti.LWG
p118
aVtc_183_005_itc_folder_file_names.LWG
p119
aVtc_183_008_itc_sctp_encrypted.LWG
p120
aVtc_357_426_wcdma_local_user_inter_relocation_source_in_ip_area_reject.LWG
p121
aVtc_267_200_Service_Request__Attach_Request_while_waiting_for_Initial_Context_Setup_Response.LWG
p122
aVtc_267_510_Service_Request_SGW_unavailable__SGSN_Context_Request_while_wf_Create_Session_Response.LWG
p123
aVtc_225_103_csfb_stand_alone_ue_context_release_active_mode.LWG
p124
aVtc_247_85_inter_w_to_l_old_wf_fwd_reloc_resp_interrupted_by_attach_on_source_iu.LWG
p125
aVtc_322_024_smooth_move_af_frr_without_moveIndicator.LWG
p126
aVtc_179_318_Ccheck_TraceCollectionIpv6server.LWG
p127
aVtc_334_281_path_failure_service_req_af_multi_pdn_create_session_no_resp.LWG
p128
aVtc_24_182_msc_pool_sgsn_pool_move_lu_accept_with_new_tmsi_from_msc_imsi_detach.LWG
p129
aVtc_349_109_RAU_new_sgsn__Attach_Req_while_waiting_for_CCA_initial.LWG
p130
aVtc_304_020_intruder_imsi_attach_when_correct_ue_attaching__control_mode_threshold_exceeded_usc_reject_congestion.LWG
p131
aVtc_219_113_s3_tau_w_to_l_without_cl_several_pdp_contexts.LWG
p132
aVtc_290_096_Timer_Based_GBR_Deact__sgsn_context_request_wf_delete_bearer_request_after_timer_expires.LWG
p133
aVtc_175_040_deactivate_interrupted_by_deactivate_same_parameters.LWG
p134
aVtc_306_1089_ef_seamless_move_target_buffer_extended_service_request_wf_move_finish.LWG
p135
aVtc_306_1087_ef_seamless_move_target_buffer_extended_service_request_wf_icsr.LWG
p136
aVtc_230_275_act_req_with_same_apn_and_staticPDPAddr_interfere_modification.LWG
p137
aVtc_314_045_sgsn_init_qos_modification_intra_rau_g_to_w.LWG
p138
aVtc_38_28_israu_new_sgsn_ggsn_update_failure_service_request_ms_deactivation.LWG
p139
aVtc_218_072_tau_from_sgsn_deactivate_gbr_bearers_active_flag_true.LWG
p140
aVtc_218_116_tau_from_sgsn_one_pdn_active_flag_on.LWG
p141
aVtc_326_246_Intra_TAU_Recovery_fail_Modify_Bearer_fail_active_flag_SGW_Change.LWG
p142
aVtc_326_461_Inter_TAU_Recovery_Unknown_GUTI__Emergency_Type_b_LTE_SAU_Limit_Reach.LWG
p143
aVtc_311_204_intra_srns_reloc_s4_sgw_change_wf_reloc_req_ack_interrupted_by_cancel_loc_subscrip_withdrawn.LWG
p144
aVtc_236_052_s4_3gdt_dw_data_notification_during_waiting_for_modify_bearer_rsp_in_service_request_procedure.LWG
p145
aVtc_236_307_Activation_DtSelMode_5_APN_requested_wrong_SGSN_default_APN_in_APN_list_TAC_in_TAC_list.LWG
p146
aVtc_236_308_Activation_DtSelMode_2_wildcard_in_APN_list.LWG
p147
aVtc_298_424_ms_init_deact_ef_delicated_non_gbr_bearer_deact_interfered_by_rab_release_request.LWG
p148
aVtc_241_147_intra_rau_wait_for_create_session_resp_interfere_by_normal_detach.LWG
p149
aVtc_241_687_israu_new_sgw_change_with_dedicated_failed_si_delete_bearer_request.LWG
p150
aVtc_273_510_TAU_intra_SGW_unavailable__static_gw_selection_only_find_old_sgw.LWG
p151
aVtc_312_213_inter_old_srns_reloc_wf_fwd_reloc_resp_interrupted_by_reloc_required_on_new_iu.LWG
p152
aVtc_141_028_eth_v6_traffic_conf_deconf_vlan.LWG
p153
aVtc_322_161_smooth_move_ef_nas_after_paging_response_ignore.W14b
p154
aVtc_245_011_inter_rau_new_two_pdn_without_sgw_change_upd_after_timeout.W14b
p155
aVtc_39_004_attach_intra_periodic_triggers_attach_intra_periodic_rau_target.W14b
p156
aVtc_214_160_hss_reset.L14b
p157
aVtc_225_103_csfb_stand_alone_ue_context_release_active_mode.L14b
p158
aVtc_266_026_DownlinkDataFailureInd_repeat_paging_timer_small_local_restart.L14b
p159
aVtc_286_118_pdn_disconnect_finished_pdn_connectivity_with_same_pti.L14b
p160
aVtc_341_682_x2_activity_event_handover_inter_s1_new.L14b
p161
aVtc_304_236_isc_active_flag_on_control_mode_threshold_exceeded_ignore_replace_s1_wf_initial_context_setup_response.L14b
p162
aVtc_263_312_Attach_Flow__Attach_Request_from_new_eNodeB__page_to_new_eNodeB.L14b
p163
aVtc_306_1087_ef_seamless_move_target_buffer_extended_service_request_wf_icsr.L14b
p164
aVtc_306_1089_ef_seamless_move_target_buffer_extended_service_request_wf_move_finish.L14b
p165
aVtc_262_172_new_mme_identification_procedure_no_cipher.L14b
p166
aVtc_220_587_csfb_to_1xrtt_in_extended_service_request_during_attach_waiting_for_modify_bearer_response.L14b
p167
aVtc_327_312_recovery_service_request__initial_Attach_Request_while_waiting_for_Ue_Backup_Response.L14b
p168
aVtc_44_301_sctp_counter_MessageSent_Received.L14b
p169
aVtc_44_520_s1ap_device_broking__x2_ho_no_cid.L14b
p170
aVtc_295_136_mo_call_during_s1_ho_tau_request_when_wf_handover_notify.L14b
p171
aVtc_306_1089_ef_seamless_move_target_buffer_extended_service_request_wf_move_finish.L14b
p172
aVtc_306_1087_ef_seamless_move_target_buffer_extended_service_request_wf_icsr.L14b
p173
aVtc_286_118_pdn_disconnect_finished_pdn_connectivity_with_same_pti.L14b
p174
aVtc_341_682_x2_activity_event_handover_inter_s1_new.L14b
p175
aVtc_103_603_georedundant_modify_diameter_peer.L14b
p176
aVtc_103_800_device_watchdog_request_to_SGSN_MME.L14b
p177
aVtc_103_708_modify_peer_send_DPR.L14b
p178
aVtc_103_704_delete_peer_send_DPR.L14b
p179
aVtc_103_705_delete_peer_send_DPR_timeout_on_DPA.L14b
p180
aVtc_194_007_cl_update_procedure_unknown_mme.L14b
p181
aVtc_295_136_mo_call_during_s1_ho_tau_request_when_wf_handover_notify.L14b
p182
aVtc_327_323_recovery_service_request__uplink_Attach_Request_while_waiting_for_Guti_Rollback_complete.L14b
p183
aVtc_225_103_csfb_stand_alone_ue_context_release_active_mode.L14b
p184
aVtc_103_701_MME_restarts.LW
p185
aVtc_103_708_modify_peer_send_DPR.LW
p186
aVtc_103_704_delete_peer_send_DPR.LW
p187
aVtc_103_1000_modify_diameter_peer_prio.LW
p188
aVtc_295_136_mo_call_during_s1_ho_tau_request_when_wf_handover_notify.LW
p189
aVtc_310_115_4_af__no_ho_cancel_response_from_SGSN_after_handover_cancelled.LW
p190
aVtc_194_505_Notification_during_Intra_TAU_without_SGW_Relocation_HSS_Reset_Before_TAU.LW
p191
aVtc_304_266_tau_from_gnsgsn_2g_control_mode_wf_delete_all_bearers_response_exception_case_reject_congestion_subscriber_cancelled.LW
p192
aVtc_304_263_tau_from_gnsgsn_when_wf_tau_complete_control_mode_reject_congestion.LW
p193
aVtc_341_682_x2_activity_event_handover_inter_s1_new.LW
p194
aVtc_326_838_Inter_TAU_Recovery_Old_MME_Unavailable_MBR_timeout_followed_by_Service_Request_SGW_unavailable_MBR_timeout.LW
p195
aVtc_286_118_pdn_disconnect_finished_pdn_connectivity_with_same_pti.LW
p196
aVtc_306_1087_ef_seamless_move_target_buffer_extended_service_request_wf_icsr.LW
p197
aVtc_306_1089_ef_seamless_move_target_buffer_extended_service_request_wf_move_finish.LW
p198
aVtc_52_14_inter_old_treloccomplete_timeout.LW
p199
aVtc_39_601_mas_unsucc_fwd_reloc_resp_mandatory_ie_missing_stop_source.LW
p200
aVtc_332_033_1_mf__csfb_to_1xrtt_active_mobile_terminating_with_call_priority.LW
p201
aVtc_225_103_csfb_stand_alone_ue_context_release_active_mode.LW
p202
aVtc_23_09_transfer_to_primary_and_change_vip_addr.LW
p203
aVtc_289_031_Modify_bearer__Downlink_nas_transport_meanwhile_path_switch_request_HO_success.LWG
p204
aVtc_310_332_ef_UBR_in_different_wf_states_emergency_PDN.LWG
p205
aVtc_166_422_sgsn_initiated_deactivation_rab_released_si_ms_deactivate_flow.LWG
p206
aVtc_295_136_mo_call_during_s1_ho_tau_request_when_wf_handover_notify.LWG
p207
aVtc_245_123_inter_rau_old_s4_sgsn_activated_on_ggsn.LWG
p208
aVtc_245_301_inter_rau_insert_entry_into_interface_cache.LWG
p209
aVtc_286_118_pdn_disconnect_finished_pdn_connectivity_with_same_pti.LWG
p210
aVtc_208_43_interception_after_small_restart.LWG
p211
aVtc_343_012_Modify.LWG
p212
aVtc_251_62_l_to_w_to_l_with_cl_type_updateProcedure.LWG
p213
aVtc_327_510_recovery_service_request__ue_context_release_request.LWG
p214
aVtc_225_103_csfb_stand_alone_ue_context_release_active_mode.LWG
p215
aVtc_103_1001_no_loadsharing_same_prio.LWG
p216
aVtc_103_708_modify_peer_send_DPR.LWG
p217
aVtc_103_1100_resending_AIR_dpl_changed.LWG
p218
aVtc_103_704_delete_peer_send_DPR.LWG
p219
aVtc_103_1155_sx_retransmit__Small_restart_terminate_request.LWG
p220
aVtc_341_682_x2_activity_event_handover_inter_s1_new.LWG
p221
aVgn_wcdma_payload_no_context_ensure_stored.LWG
p222
aVtc_219_232_TAU_Dual_Access_WtoL_without_SGW_Change_SGW_unavailable.LWG
p223
aVtc_238_262_mme_eps_irat_ho_ms_network_capability_not_set.LWG
p224
aVtc_306_1087_ef_seamless_move_target_buffer_extended_service_request_wf_icsr.LWG
p225
aVtc_306_1089_ef_seamless_move_target_buffer_extended_service_request_wf_move_finish.LWG
p226
aVtc_306_1200_ef_seamless_move_target_receive_hss_reset.LWG
p227
aVtc_183_005_itc_folder_file_names.LWG
p228
aVtc_183_008_itc_sctp_encrypted.LWG
p229
aVtc_204_1111_mme_eps_handover_target_SGW_unavailable_DNS_query_failure.LWG
p230
aVtc_334_281_path_failure_service_req_af_multi_pdn_create_session_no_resp.LWG
p231
aVtc_259_99_ef_s6d_s4_attach_old_w.LWG
p232
aVtc_324_426_ef_payload_buffered_wf_security_mode_complete_payload_different_pdn_non_3gdt.LWG
p233
aVtc_23_09_transfer_to_primary_and_change_vip_addr.LWG
p234
aVtc_59_9_mtmsi_restart_counter.LWG
p235
aVtc_363_021_gbip_feature_off_nses_bscconfirmed_trun_to_false.LWG
p236
aVtc_265_108_Detach_Flow_NW_init__S1_Reset_while_waiting_for_Detach_Accept.LWG
p237
aVtc_141_002_eth_deconf_conf_vlan_many.LWG
p238
aVtc_96_064_intra_sgsn_intra_ra_psho_interfered_by_delete_pdp_then_received_error_indi_from_ggsn.G14b
p239
aVtc_31_064_activate_loc_not_confirmed_ul_fails_network_failure.W14b
p240
aVtc_236_170_s4_3gdt_activate_primary_pdp_context_odb_bit_15.W14b
p241
aVtc_81_042_israu_streaming_no_lics.W14b
p242
aVtc_322_161_smooth_move_ef_nas_after_paging_response_ignore.W14b
p243
aVtc_225_103_csfb_stand_alone_ue_context_release_active_mode.LW
p244
aVtc_286_118_pdn_disconnect_finished_pdn_connectivity_with_same_pti.LW
p245
aVtc_324_137_af_service_request_data_only_utran_not_allowed_3gdt.LW
p246
aVtc_39_601_mas_unsucc_fwd_reloc_resp_mandatory_ie_missing_stop_source.LW
p247
aVtc_44_340_sctp_counter_index_SGsAP.LW
p248
aVtc_44_004_small_restart__sctp_fe_restart.LW
p249
aVtc_103_708_modify_peer_send_DPR.LW
p250
aVtc_103_704_delete_peer_send_DPR.LW
p251
aVtc_295_136_mo_call_during_s1_ho_tau_request_when_wf_handover_notify.LW
p252
aVtc_327_167_recovery_intra_TAU_SGSN_Context_Request_while_waiting_for_Update_Location_Answer.LW
p253
aVtc_341_682_x2_activity_event_handover_inter_s1_new.LW
p254
aVtc_263_411_Attach_Flow_in_ecm_idle__HSS_Init_QoS_Modification_wf_Authentication_Information_Answer.LW
p255
aVtc_306_1087_ef_seamless_move_target_buffer_extended_service_request_wf_icsr.LW
p256
aVtc_306_1089_ef_seamless_move_target_buffer_extended_service_request_wf_move_finish.LW
p257
aVtc_322_161_smooth_move_ef_nas_after_paging_response_ignore.W14b
p258
aVtc_208_43_interception_after_small_restart.LWG
p259
aVtc_179_318_Ccheck_TraceCollectionIpv6server.LWG
p260
aVtc_196_116_nrspca_with_limit_of_pdp_context_is_exceeded_uplink.LWG
p261
aVtc_298_103_EF_NRSPCA_S4_another_NRSPCA.LWG
p262
aVtc_59_9_mtmsi_restart_counter.LWG
p263
aVtc_286_118_pdn_disconnect_finished_pdn_connectivity_with_same_pti.LWG
p264
aVtc_251_62_l_to_w_to_l_with_cl_type_updateProcedure.LWG
p265
aVtc_306_1089_ef_seamless_move_target_buffer_extended_service_request_wf_move_finish.LWG
p266
aVtc_306_1087_ef_seamless_move_target_buffer_extended_service_request_wf_icsr.LWG
p267
aVtc_56_21_sending_recognized_information_in_log.LWG
p268
aVtc_264_080_MME_Initiated_Detach__UE_ECM_Idle__Paging_Failed_due_to_OLP.LWG
p269
aVtc_295_136_mo_call_during_s1_ho_tau_request_when_wf_handover_notify.LWG
p270
aVtc_220_411_csfb_to_1xrtt_in_ecm_connected_path_switch_request_subscription_cancelled.LWG
p271
aVtc_341_682_x2_activity_event_handover_inter_s1_new.LWG
p272
aVtc_212_049_Ccheck_ra.LWG
p273
aVtc_24_130_msc_pool_ngaf_after_hlr_reset.LWG
p274
aVtc_23_09_transfer_to_primary_and_change_vip_addr.LWG
p275
aVtc_304_124_uplink_nas_intra_tau_control_mode_threshold_exceeded_usc_reject_lead_to_implicit_detach_wf_icsr.LWG
p276
aVtc_304_136_initial_ue_intra_tau_control_mode_threshold_exceeded_usc_implicit_detach_wf_tau_complete_after_handover.LWG
p277
aVtc_183_008_itc_sctp_encrypted.LWG
p278
aVtc_316_212_Intra_MME_S1_HO_With_SGW_Change_With_Two_PDN_Connections_Different_APN__Backup_UE.LWG
p279
aVtc_218_092_tau_from_sgsn_isd_wf_tau_complete.LWG
p280
aVtc_218_122_tau_from_sgsn_two_pdn_connections_ue_bearer_status_mismatch_idle.LWG
p281
aVtc_225_103_csfb_stand_alone_ue_context_release_active_mode.LWG
p282
aVtc_103_708_modify_peer_send_DPR.LWG
p283
aVtc_103_704_delete_peer_send_DPR.LWG
p284
aVtc_208_43_interception_after_small_restart.G14b
p285
aVtc_578_02_check_parse_ebm_and_ci_eci_l.L14b
p286
aVtc_578_33_check_ebm_para_statistics_enb_sn.L14b
p287
aVtc_306_1087_ef_seamless_move_target_buffer_extended_service_request_wf_icsr.L14b
p288
aVtc_306_1089_ef_seamless_move_target_buffer_extended_service_request_wf_move_finish.L14b
p289
aVtc_286_118_pdn_disconnect_finished_pdn_connectivity_with_same_pti.L14b
p290
aVtc_295_136_mo_call_during_s1_ho_tau_request_when_wf_handover_notify.L14b
p291
aVtc_103_704_delete_peer_send_DPR.L14b
p292
aVtc_260_271_receive_sm_start_req_while_wf_setup_iteration.L14b
p293
aVtc_341_682_x2_activity_event_handover_inter_s1_new.L14b
p294
aVtc_225_103_csfb_stand_alone_ue_context_release_active_mode.L14b
p295
aVtc_274_274_Intra_and_pTAU__Handover_Required_with_old_TA_MSC_change_while_waiting_for_Location_Update_response_TAU_IMSI_Detach.L14b
p296
aVtc_268_105_ue_release__cs_paging_wf_release_access_bearer_resp.L14b
p297
aVtc_265_160_Detach_Flow_NW_init__Ue_moved_to_non_3gpp_while_imsi_detach.L14b
p298
aVtc_251_62_l_to_w_to_l_with_cl_type_updateProcedure.LWG
p299
aVtc_259_106_ef_tads_s4_interfere_inter_rau_old_w.LWG
p300
aVtc_286_118_pdn_disconnect_finished_pdn_connectivity_with_same_pti.LWG
p301
aVtc_306_1087_ef_seamless_move_target_buffer_extended_service_request_wf_icsr.LWG
p302
aVtc_306_1089_ef_seamless_move_target_buffer_extended_service_request_wf_move_finish.LWG
p303
aVtc_341_682_x2_activity_event_handover_inter_s1_new.LWG
p304
aVtc_73_41_gtpu_sgsn_dont_send_gpu_echo_request_w.LWG
p305
aVtc_220_312_csfb_to_1xrtt_return_with_tau_int_prot_nok.LWG
p306
aVtc_225_103_csfb_stand_alone_ue_context_release_active_mode.LWG
p307
aVtc_103_1107_fallback_to_imsins_resend_fail_due_to_result_code.LWG
p308
aVtc_103_708_modify_peer_send_DPR.LWG
p309
aVtc_103_704_delete_peer_send_DPR.LWG
p310
aVtc_295_136_mo_call_during_s1_ho_tau_request_when_wf_handover_notify.LWG
p311
aVtc_214_149_combined_tau_intra_interfering_mo_sms_license_off.LWG
p312
aVtc_316_242_MME_Pool_Seamless_Move_No_Forward_Relocation_Complete_Notification_GUTI_Reallocation__No_UE_Backup.LWG
p313
aVtc_179_318_Ccheck_TraceCollectionIpv6server.LWG
p314
aVtc_183_008_itc_sctp_encrypted.LWG
p315
aVtc_43_101__removal_of_disconnected_eNodeBs__CLI_removal.LWG
p316
aVtc_59_9_mtmsi_restart_counter.LWG
p317
aVtc_232_403_bfd__ipv4ipv6_alarm.LWG
p318
aVtc_39_244_detach_trigger_imsi_profile.LWG
p319
aVtc_212_049_Ccheck_ra.LWG
p320
aVtc_364_214_af_trigger_hits_before_UE_id_is_known_wcdma.LWG
p321
aVtc_23_09_transfer_to_primary_and_change_vip_addr.LWG
p322
aVtc_324_006_mf_ser_req_signaling_after_ack_3gdt.LWG
p323
aVtc_284_350_pdn_connectivity_interrupted_by_path_switch_request.LWG
p324
aVtc_56_21_sending_recognized_information_in_log.LWG
p325
aVtc_12_134_attach_with_extended_mmumoc_iu_inactivity_timer.LWG
p326
aVtc_268_013_UE_Release_Flow__GBR_Bearers_non_User_Inactivity__Update_Bearer_Request_while_waiting_for_Delete_Bearer_Request.LWG
p327
aVtc_275_073_tau_inter_new_no_update_location_response_sgsn00040258.LWG
p328
aVtc_38_80_intra_rau_new_rnc_with_authentication_wrong_ptmsi_signature.W14b
p329
aVtc_334_107_sgw_restart_mf_restoration_trigger_by_ReleaseAccessBearerResponse.W14b
p330
aVtc_250_150_isd_with_odb_init_deactivation.W14b
p331
aVtc_197_064_s1_handover_sgw_reselection_topoff_emc_ims.LW
p332
aVtc_238_265_mme_eps_irat_ho_target__emm_registered_state_no_ho_request_ack.LW
p333
aVtc_40_011_delete_sub_data_mo_sms_csi.LW
p334
aVtc_327_037_recovery_intra_TAU_active_off_sgw_unchanged__RAR_wf_CSR_due_to_S11_linkdown.LW
p335
aVtc_103_708_modify_peer_send_DPR.LW
p336
aVtc_103_704_delete_peer_send_DPR.LW
p337
aVtc_103_1139_sx_resend__CCR_I_resend_interfering_RAR_another_resend_only_relam.LW
p338
aVtc_241_432_intra_rau_with_bearer_sgw_unchange_2_pdns_3gdt.LW
p339
aVtc_295_136_mo_call_during_s1_ho_tau_request_when_wf_handover_notify.LW
p340
aVtc_286_118_pdn_disconnect_finished_pdn_connectivity_with_same_pti.LW
p341
aVtc_341_682_x2_activity_event_handover_inter_s1_new.LW
p342
aVtc_225_103_csfb_stand_alone_ue_context_release_active_mode.LW
p343
aVtc_306_1087_ef_seamless_move_target_buffer_extended_service_request_wf_icsr.LW
p344
aVtc_306_1089_ef_seamless_move_target_buffer_extended_service_request_wf_move_finish.LW
p345
aVtc_23_09_transfer_to_primary_and_change_vip_addr.LW
p346
aVtc_275_073_tau_inter_new_no_update_location_response_sgsn00040258.LW
p347
aVtc_11_118_sgsn_ms_simultaneous_pdp_context_modification.LW
p348
aVtc_297_407_move_at_periodic_rau.G14b
p349
aVtc_304_236_isc_active_flag_on_control_mode_threshold_exceeded_ignore_replace_s1_wf_initial_context_setup_response.L14b
p350
aVtc_286_118_pdn_disconnect_finished_pdn_connectivity_with_same_pti.L14b
p351
aVtc_295_136_mo_call_during_s1_ho_tau_request_when_wf_handover_notify.L14b
p352
aVtc_306_1087_ef_seamless_move_target_buffer_extended_service_request_wf_icsr.L14b
p353
aVtc_306_1089_ef_seamless_move_target_buffer_extended_service_request_wf_move_finish.L14b
p354
aVtc_341_682_x2_activity_event_handover_inter_s1_new.L14b
p355
aVtc_225_103_csfb_stand_alone_ue_context_release_active_mode.L14b
p356
aVtc_193_142_detachnormal_during_auth_ue.L14b
p357
aVtc_44_301_sctp_counter_MessageSent_Received.L14b
p358
aVtc_44_505_s1ap_id_checks__ho_request_ack_unknown_ids.L14b
p359
aVtc_12_512_pmm_undefined_attach_when_updating_location_interfered_by_rnc_reset.W14b
p360
aVtc_322_161_smooth_move_ef_nas_after_paging_response_ignore.W14b
p361
aVtc_286_118_pdn_disconnect_finished_pdn_connectivity_with_same_pti.LW
p362
aVtc_12_134_attach_with_extended_mmumoc_iu_inactivity_timer.LW
p363
aVtc_23_09_transfer_to_primary_and_change_vip_addr.LW
p364
aVtc_306_1087_ef_seamless_move_target_buffer_extended_service_request_wf_icsr.LW
p365
aVtc_306_1089_ef_seamless_move_target_buffer_extended_service_request_wf_move_finish.LW
p366
aVtc_346_011_PGW_Selection__IMSI_Attach__GW_Blacklisting_Sapc_PGW_temporary_Unavailable.LW
p367
aVtc_346_493_Small_Local_Restart__Terminate_when_UE_S1_release.LW
p368
aVtc_341_682_x2_activity_event_handover_inter_s1_new.LW
p369
aVtc_225_103_csfb_stand_alone_ue_context_release_active_mode.LW
p370
aVtc_295_136_mo_call_during_s1_ho_tau_request_when_wf_handover_notify.LW
p371
aVtc_275_073_tau_inter_new_no_update_location_response_sgsn00040258.LW
p372
aVtc_267_551_DDN_MBR_timeout__Detach_Request_wf_UE_Context_Release_Complete.LW
p373
aVtc_103_701_MME_restarts.LW
p374
aVtc_103_708_modify_peer_send_DPR.LW
p375
aVtc_103_704_delete_peer_send_DPR.LW
p376
aVtc_103_702_CEA_timeout.LW
p377
aVtc_286_118_pdn_disconnect_finished_pdn_connectivity_with_same_pti.L14b
p378
aVtc_194_505_Notification_during_Intra_TAU_without_SGW_Relocation_HSS_Reset_Before_TAU.L14b
p379
aVtc_346_576_AF__HO_X2_2PDN_CSR_failure_for_1PDN_terminate_sx.L14b
p380
aVtc_341_682_x2_activity_event_handover_inter_s1_new.L14b
p381
aVtc_225_103_csfb_stand_alone_ue_context_release_active_mode.L14b
p382
aVtc_225_110_mo_call_active_mode_ongoing_ims_call.L14b
p383
aVtc_306_1089_ef_seamless_move_target_buffer_extended_service_request_wf_move_finish.L14b
p384
aVtc_306_1087_ef_seamless_move_target_buffer_extended_service_request_wf_icsr.L14b
p385
aVtc_295_136_mo_call_during_s1_ho_tau_request_when_wf_handover_notify.L14b
p386
aVtc_208_43_interception_after_small_restart.G14b
p387
aVtc_297_407_move_at_periodic_rau.G14b
p388
aVtc_39_153_move_to_our_sgsn_service_request_before_rau.LWG
p389
aVtc_306_1089_ef_seamless_move_target_buffer_extended_service_request_wf_move_finish.LWG
p390
aVtc_306_1087_ef_seamless_move_target_buffer_extended_service_request_wf_icsr.LWG
p391
aVtc_220_503_csfb_to_1xrtt_in_ecm_idle_tau_request_wf_initial_context_setup_response.LWG
p392
aVtc_59_9_mtmsi_restart_counter.LWG
p393
aVtc_183_005_itc_folder_file_names.LWG
p394
aVtc_183_008_itc_sctp_encrypted.LWG
p395
aVtc_295_136_mo_call_during_s1_ho_tau_request_when_wf_handover_notify.LWG
p396
aVtc_56_5_restart_during_SR.LWG
p397
aVtc_341_682_x2_activity_event_handover_inter_s1_new.LWG
p398
aVtc_251_62_l_to_w_to_l_with_cl_type_updateProcedure.LWG
p399
aVtc_297_407_move_at_periodic_rau.LWG
p400
aVtc_225_103_csfb_stand_alone_ue_context_release_active_mode.LWG
p401
aVtc_286_118_pdn_disconnect_finished_pdn_connectivity_with_same_pti.LWG
p402
aVtc_304_266_tau_from_gnsgsn_2g_control_mode_wf_delete_all_bearers_response_exception_case_reject_congestion_subscriber_cancelled.LWG
p403
aVtc_103_1100_resending_AIR_dpl_changed.LWG
p404
aVtc_103_708_modify_peer_send_DPR.LWG
p405
aVtc_103_704_delete_peer_send_DPR.LWG
p406
aVtc_103_1155_sx_retransmit__Small_restart_terminate_request.LWG
p407
aVtc_23_09_transfer_to_primary_and_change_vip_addr.LWG
p408
aVtc_316_242_MME_Pool_Seamless_Move_No_Forward_Relocation_Complete_Notification_GUTI_Reallocation__No_UE_Backup.LWG
p409
aVtc_39_752_idle_1_pdp_cancel_loc_subWithdrawn_after_upd_loc_target.W14b
p410
aVtc_236_173_s4_3gdt_release_access_bearer_timeout_triggered_paging_si_intra_rau.W14b
p411
aVtc_209_39_inter_srns_old_sgsn.W14b
p412
aVtc_364_214_af_trigger_hits_before_UE_id_is_known_wcdma.LWG
p413
aVtc_306_1087_ef_seamless_move_target_buffer_extended_service_request_wf_icsr.LWG
p414
aVtc_306_1089_ef_seamless_move_target_buffer_extended_service_request_wf_move_finish.LWG
p415
aVtc_286_118_pdn_disconnect_finished_pdn_connectivity_with_same_pti.LWG
p416
aVtc_199_86_attach_S11_echo_N3_times_response_no_alarm.LWG
p417
aVtc_141_015_eth_traffic_vlan_novlan.LWG
p418
aVtc_301_014_activate_ipv4v6_visitor_requested_ipv4v6_subscribed_ipv4v6_aifav_true_aifv_true_daf_off.LWG
p419
aVtc_342_920_x2_connection_frame_error.LWG
p420
aVtc_73_21_itc_gtpu_s4_sgsn_send_echo_request_w.LWG
p421
aVtc_183_008_itc_sctp_encrypted.LWG
p422
aVtc_262_1055_imsi_attach_with_csg_id_is_rejected.LWG
p423
aVtc_316_242_MME_Pool_Seamless_Move_No_Forward_Relocation_Complete_Notification_GUTI_Reallocation__No_UE_Backup.LWG
p424
aVtc_341_682_x2_activity_event_handover_inter_s1_new.LWG
p425
aVtc_225_103_csfb_stand_alone_ue_context_release_active_mode.LWG
p426
aVtc_24_202_combined_rau_update_result_check.LWG
p427
aVtc_319_072_path_management_from_available_to_temporary_unavailable.LWG
p428
aVtc_251_62_l_to_w_to_l_with_cl_type_updateProcedure.LWG
p429
aVtc_103_1100_resending_AIR_dpl_changed.LWG
p430
aVtc_103_708_modify_peer_send_DPR.LWG
p431
aVtc_103_704_delete_peer_send_DPR.LWG
p432
aVtc_103_1155_sx_retransmit__Small_restart_terminate_request.LWG
p433
aVtc_179_318_Ccheck_TraceCollectionIpv6server.LWG
p434
aVtc_297_407_move_at_periodic_rau.G14b
p435
aVtc_318_157_sgw_restart_af_relocation_triggered_by_service_request_fail.LW
p436
aVtc_289_017_Modify_bearer__ERAB_modify_request_meanwhile_path_switch_request_HO_success.LW
p437
aVtc_341_682_x2_activity_event_handover_inter_s1_new.LW
p438
aVtc_327_037_recovery_intra_TAU_active_off_sgw_unchanged__RAR_wf_CSR_due_to_S11_linkdown.LW
p439
aVtc_225_103_csfb_stand_alone_ue_context_release_active_mode.LW
p440
aVtc_225_804_csfb_to_g_without_dtm_in_ecm_connected_tau_request_wf_suspend_response.LW
p441
aVtc_306_1089_ef_seamless_move_target_buffer_extended_service_request_wf_move_finish.LW
p442
aVtc_306_1087_ef_seamless_move_target_buffer_extended_service_request_wf_icsr.LW
p443
aVtc_103_708_modify_peer_send_DPR.LW
p444
aVtc_103_704_delete_peer_send_DPR.LW
p445
aVtc_286_118_pdn_disconnect_finished_pdn_connectivity_with_same_pti.LW
p446
aVtc_324_006_mf_ser_req_signaling_after_ack_3gdt.LW
p447
aVtc_243_532_tau_from_sgsn_s3_active_flag_false_dl_data_notification_wf_tau_complete.LW
p448
aVtc_23_09_transfer_to_primary_and_change_vip_addr.LW
p449
aVtc_103_701_MME_restarts.L14b
p450
aVtc_341_682_x2_activity_event_handover_inter_s1_new.L14b
p451
aVtc_335_40_wifi_to_mobility_in_ecm_idle_af__two_cell_infos_from_wic__one_eNB_not_support.L14b
p452
aVtc_260_271_receive_sm_start_req_while_wf_setup_iteration.L14b
p453
aVtc_304_267_tau_from_gnsgsn_with_active_flag_control_mode_ignore_replace_s1.L14b
p454
aVtc_266_026_DownlinkDataFailureInd_repeat_paging_timer_small_local_restart.L14b
p455
aVtc_194_100_check_gauge_unstable_not_parked.L14b
p456
aVtc_286_118_pdn_disconnect_finished_pdn_connectivity_with_same_pti.L14b
p457
aVtc_225_103_csfb_stand_alone_ue_context_release_active_mode.L14b
p458
aVtc_306_1087_ef_seamless_move_target_buffer_extended_service_request_wf_icsr.L14b
p459
aVtc_306_1089_ef_seamless_move_target_buffer_extended_service_request_wf_move_finish.L14b
p460
aVtc_43_101__removal_of_disconnected_eNodeBs__CLI_removal.L14b
p461
aVtc_214_910_combined_tau_intra_insert_subscriber_data_interference.L14b
p462
aVtc_236_040_s4_3gdt_detach_during_waiting_for_modify_bearer_rsp_in_service_request_procedure.W14b
p463
aVtc_298_231_SIBD_S4_RAB_Reestablishment_failed.W14b
p464
aVtc_52_10_inter_old_relocation_cancel_later.LW
p465
aVtc_238_401_mme_eps_irat_Gn_ho_target__ho_required_intra_same_sgw_wf_modify_response.LW
p466
aVtc_263_078_Attach_Flow__Cancel_Location_Update_Procedure_while_waiting_for_Authentication_Information_Answer.LW
p467
aVtc_26_130_inter_g_to_w_new_ARP.LW
p468
aVtc_364_214_af_trigger_hits_before_UE_id_is_known_wcdma.LW
p469
aVtc_225_103_csfb_stand_alone_ue_context_release_active_mode.LW
p470
aVtc_103_704_delete_peer_send_DPR.LW
p471
aVtc_103_708_modify_peer_send_DPR.LW
p472
aVtc_103_903_primary_or_secondary_realm_routing_own_realm.LW
p473
aVtc_209_180_handover_w_to_l_source_s4_sgsn.LW
p474
aVtc_23_09_transfer_to_primary_and_change_vip_addr.LW
p475
aVtc_327_017_recovery_intra_TAU__uplink_Detach_Request_while_waiting_for_Ue_Backup_Response.LW
p476
aVtc_341_682_x2_activity_event_handover_inter_s1_new.LW
p477
aVtc_81_081_israu_streaming_no_resources.LW
p478
aVtc_288_220_pgw_init_bearer_mod_QoS_paging_partly_fail_modification_fails.LW
p479
aVtc_286_118_pdn_disconnect_finished_pdn_connectivity_with_same_pti.LW
p480
aVtc_357_005_gsm_iterator_ipAllocEnabled_modify_to_true_with_ipAddressReset_irrEnabled_true_nrrEnabled_false.WG14a
p481
aVtc_284_351_pdn_connectivity_pb_activate_1_dedicated_bearer_interrupted_by_path_switch_request.L14b
p482
aVtc_341_682_x2_activity_event_handover_inter_s1_new.L14b
p483
aVtc_225_103_csfb_stand_alone_ue_context_release_active_mode.L14b
p484
aVtc_316_218_ISD_Only_UE_AMBR_Changed_ECM_Connected__Backup_UE.L14b
p485
aVtc_316_242_MME_Pool_Seamless_Move_No_Forward_Relocation_Complete_Notification_GUTI_Reallocation__No_UE_Backup.L14b
p486
aVtc_103_708_modify_peer_send_DPR.L14b
p487
aVtc_103_704_delete_peer_send_DPR.L14b
p488
aVtc_286_118_pdn_disconnect_finished_pdn_connectivity_with_same_pti.L14b
p489
aVtc_84_07_provide_subscriber_location_during_israu_old.LWG
p490
aVtc_103_708_modify_peer_send_DPR.LWG
p491
aVtc_103_704_delete_peer_send_DPR.LWG
p492
aVtc_103_1142_sx_resend__resend_during_inter_mme_tau_2_pdns.LWG
p493
aVtc_103_1155_sx_retransmit__Small_restart_terminate_request.LWG
p494
aVtc_11_091_activate_secondary_pdp_context_wrong_LinkedTI.LWG
p495
aVtc_183_008_itc_sctp_encrypted.LWG
p496
aVtc_286_118_pdn_disconnect_finished_pdn_connectivity_with_same_pti.LWG
p497
aVtc_225_103_csfb_stand_alone_ue_context_release_active_mode.LWG
p498
aVtc_242_156_rau_to_sgsn_s3_type_d_emergency_allowed_irat_and_plmn_change.LWG
p499
aVtc_220_605_csfb_to_1xrtt_in_ecm_connected_extended_service_request_during_downlink_data_notification.LWG
p500
aVtc_216_106_icmpv6_outNeighborSol.LWG
p501
aVtc_251_62_l_to_w_to_l_with_cl_type_updateProcedure.LWG
p502
aVtc_24_93_msc_pool_off_comb_proc_off_no_def_msc_in_la_with_2_mscs_activate_comb_proc.LWG
p503
aVtc_56_21_sending_recognized_information_in_log.LWG
p504
aVtc_316_242_MME_Pool_Seamless_Move_No_Forward_Relocation_Complete_Notification_GUTI_Reallocation__No_UE_Backup.LWG
p505
aVtc_298_208_SIBD_S4_Service_Request_PDP_Context_Status_Connect.LWG
p506
aVtc_341_682_x2_activity_event_handover_inter_s1_new.LWG
p507
aVtc_334_288_path_failure_service_req_connected_3gdt_af_multi_pdn_try_next.LWG
p508
aVtc_59_11_sequence_check_replica_values.LWG
p509
aVtc_275_073_tau_inter_new_no_update_location_response_sgsn00040258.LWG
p510
aVtc_363_018_mmi_get_ra.LWG
p511
aVtc_212_049_Ccheck_ra.LWG
p512
aVtc_179_318_Ccheck_TraceCollectionIpv6server.LWG
p513
aVtc_208_43_interception_after_small_restart.G14b
p514
aVtc_30_152_deacivate_with_4pdn_EF_odb_bit_15.G14b
p515
aVtc_166_110_periodic_rau_no_follow_on_no_active_pdp.WG14a
p516
aVtc_324_214_ef_attach_request_abort_wf_modify_bearer_response_direct_transfer.WG14a
p517
aVtc_266_021_DownlinkDataFailureInd_repeat_paging_timer_off.L14b
p518
aVtc_44_301_sctp_counter_MessageSent_Received.L14b
p519
aVtc_44_700_ip_invalid_sip_valid.L14b
p520
aVtc_225_103_csfb_stand_alone_ue_context_release_active_mode.L14b
p521
aVtc_194_506_Notification_during_Intra_MME_TAU_without_SGW_Relocation_Procedure.L14b
p522
aVtc_341_682_x2_activity_event_handover_inter_s1_new.L14b
p523
aVtc_286_118_pdn_disconnect_finished_pdn_connectivity_with_same_pti.L14b
p524
aVtc_295_136_mo_call_during_s1_ho_tau_request_when_wf_handover_notify.L14b
p525
aVtc_313_118_inter_new_srns_reloc_s16_without_sgw_change_with_dedicate_bearer_but_failed_to_setup_default_bearer.W14b
p526
aVtc_322_022_smooth_move_af_frr_with_service_not_supported_no_moveIndicator.W14b
p527
aVtc_298_138_EF_NRSPCA_S4_QoS_Modification.W14b
p528
aVtc_225_103_csfb_stand_alone_ue_context_release_active_mode.LW
p529
aVtc_284_560_emergency_pdn_connectivity_multiple_pgw.LW
p530
aVtc_324_006_mf_ser_req_signaling_after_ack_3gdt.LW
p531
aVtc_103_708_modify_peer_send_DPR.LW
p532
aVtc_103_704_delete_peer_send_DPR.LW
p533
aVtc_341_682_x2_activity_event_handover_inter_s1_new.LW
p534
aVtc_236_041_s4_3gdt_detach_modify_bearer_response_reject_in_active_procedure.LW
p535
aVtc_236_111_s4_3gdt_based_on_sr_dt_with_dedicate_bearer_activation_deactivation.LW
p536
aVtc_286_118_pdn_disconnect_finished_pdn_connectivity_with_same_pti.LW
p537
aVtc_53_56_inter_new_srns_reloc_rab_not_allocated_interrupt_by_reset.LW
p538
aVtc_326_390_Service_Request_with_unknown_STMSI_SGW_unavailable.LW
p539
aVtc_288_003_pgw_initiated_bearer_modification_main_flow_ecm_connected_enb_needs_update.LW
p540
aVtc_179_318_Ccheck_TraceCollectionIpv6server.LWG
p541
aVtc_44_004_small_restart__sctp_fe_restart.LWG
p542
aVtc_327_374_recovery_service_request__uplink_extended_service_request_while_waiting_for_Sub_procedure_Initial_Context_Setup_Response.LWG
p543
aVtc_183_005_itc_folder_file_names.LWG
p544
aVtc_183_008_itc_sctp_encrypted.LWG
p545
aVtc_73_21_itc_gtpu_s4_sgsn_send_echo_request_w.LWG
p546
aVtc_23_09_transfer_to_primary_and_change_vip_addr.LWG
p547
aVtc_103_701_MME_restarts.LWG
p548
aVtc_103_1100_resending_AIR_dpl_changed.LWG
p549
aVtc_103_708_modify_peer_send_DPR.LWG
p550
aVtc_103_704_delete_peer_send_DPR.LWG
p551
aVtc_241_452_israu_new_with_10_dedicated_bearer_sgw_change_mf_s4.LWG
p552
aVtc_263_321_Attach_Flow__Attach_Request_Different_IEs_IP_OK_while__waiting_for_combined_attach_response.LWG
p553
aVtc_59_9_mtmsi_restart_counter.LWG
p554
aVtc_363_018_mmi_get_ra.LWG
p555
aVtc_326_242_Intra_TAU_Recovery_Initial_Context_Setup_timeout.LWG
p556
aVtc_06_008_activate_deactivate_primary_ms_99_gtp_99_subsc_static_ipv6.LWG
p557
aVtc_322_170_smooth_move_ef_gr_cli_delete_subscriber_data_wf_frr.LWG
p558
aVtc_275_118_tau_inter_new_emergency_erroneous_ie_authenticated_no_imsi.LWG
p559
aVtc_310_335_ef_dbr_non_voice_bearer_wf_forward_relocation_complete_and_forward_relocation_complete_ack.LWG
p560
aVtc_310_300_ef__Cancel_Location_wf_PS_to_CS_Response_and_FR_Response.LWG
p561
aVtc_251_62_l_to_w_to_l_with_cl_type_updateProcedure.LWG
p562
aVtc_225_103_csfb_stand_alone_ue_context_release_active_mode.LWG
p563
aVtc_286_118_pdn_disconnect_finished_pdn_connectivity_with_same_pti.LWG
p564
aVtc_341_682_x2_activity_event_handover_inter_s1_new.LWG
p565
aVtc_212_049_Ccheck_ra.LWG
p566
aVtc_103_708_modify_peer_send_DPR.LW
p567
aVtc_103_704_delete_peer_send_DPR.LW
p568
aVtc_284_351_pdn_connectivity_pb_activate_1_dedicated_bearer_interrupted_by_path_switch_request.LW
p569
aVtc_326_270_Periodic_Intra_TAU_with_unknown_GUTI_then_Service_Request.LW
p570
aVtc_341_682_x2_activity_event_handover_inter_s1_new.LW
p571
aVtc_578_32_check_ebm_para_statistics_ue_return_duration.LW
p572
aVtc_225_103_csfb_stand_alone_ue_context_release_active_mode.LW
p573
aVtc_286_118_pdn_disconnect_finished_pdn_connectivity_with_same_pti.LW
p574
aVtc_23_22_ms_time_zone.LW
p575
aVtc_23_09_transfer_to_primary_and_change_vip_addr.LW
p576
aVtc_298_654_pgw_init_modification_mf_3gdt_enable.W14b
p577
aVtc_236_167_intra_rau_dedicated_bearer_fail_partial_service_request.W14b
p578
aVtc_250_74_s6d_EF_hss_reset_waiting_delete_session_response.W14b
p579
aVtc_26_083_israu_streaming_stand_alone_no_rnc_support.LWG
p580
aVtc_250_161_s6d_IDR_IDA_Change_GPRS_to_eps_subscription_re_attach.LWG
p581
aVtc_298_319_EF_SIBD_S4_RAB_Release.LWG
p582
aVtc_23_09_transfer_to_primary_and_change_vip_addr.LWG
p583
aVtc_291_40_action_ue_trace.LWG
p584
aVtc_103_708_modify_peer_send_DPR.LWG
p585
aVtc_103_704_delete_peer_send_DPR.LWG
p586
aVtc_103_1155_sx_retransmit__Small_restart_terminate_request.LWG
p587
aVtc_275_073_tau_inter_new_no_update_location_response_sgsn00040258.LWG
p588
aVtc_56_21_sending_recognized_information_in_log.LWG
p589
aVtc_225_103_csfb_stand_alone_ue_context_release_active_mode.LWG
p590
aVtc_183_008_itc_sctp_encrypted.LWG
p591
aVtc_326_245_Intra_TAU_Recovery_TAU_Complete_timeout.LWG
p592
aVtc_179_318_Ccheck_TraceCollectionIpv6server.LWG
p593
aVtc_251_62_l_to_w_to_l_with_cl_type_updateProcedure.LWG
p594
aVtc_219_150_transfer_tau_w_to_l_sgsn00047432.LWG
p595
aVtc_219_131_s3_handover_w_to_l_with_cl_two_pdns_one_failed_sgw_relocation.LWG
p596
aVtc_214_028_combined_attach_interfering_s1_reset.LWG
p597
aVtc_316_242_MME_Pool_Seamless_Move_No_Forward_Relocation_Complete_Notification_GUTI_Reallocation__No_UE_Backup.LWG
p598
aVtc_286_118_pdn_disconnect_finished_pdn_connectivity_with_same_pti.LWG
p599
aVtc_341_682_x2_activity_event_handover_inter_s1_new.LWG
p600
aVtc_238_211_mme_eps_irat_ho_target__SGW_unavailable.LWG
p601
aVtc_220_503_csfb_to_1xrtt_in_ecm_idle_tau_request_wf_initial_context_setup_response.LWG
p602
aVtc_208_43_interception_after_small_restart.LWG
p603
aVtc_59_9_mtmsi_restart_counter.LWG
p604
aVtc_310_266__ef__Initial_UE_Service_Request_wf_Delete_Bearer_Request.LWG
p605
aVtc_34_34_attach_and_periodic_move_initiated_to_gsm_nri.LWG
p606
aVtc_324_112_af_service_request_default_bearer_fail_in_rab_assignment_non_3gdt.LWG
p607
aVtc_341_682_x2_activity_event_handover_inter_s1_new.L14b
p608
aVtc_263_122_Emergency_Attach_Flow_Type_D__Detach_Request_while_waiting_for_Attach_Complete.L14b
p609
aVtc_217_036_rau_to_sgsn_detach_request_ms_initiated_when_wf_session_response.L14b
p610
aVtc_275_073_tau_inter_new_no_update_location_response_sgsn00040258.L14b
p611
aVtc_225_103_csfb_stand_alone_ue_context_release_active_mode.L14b
p612
aVtc_286_118_pdn_disconnect_finished_pdn_connectivity_with_same_pti.L14b
p613
aVtc_304_236_isc_active_flag_on_control_mode_threshold_exceeded_ignore_replace_s1_wf_initial_context_setup_response.L14b
p614
aVtc_262_1055_imsi_attach_with_csg_id_is_rejected.L14b
p615
aVtc_202_431_mf_seamless_move_target_service_request_modifyBearerReq_onePdnMultiBearer_oneBearerFail.LW
p616
aVtc_286_118_pdn_disconnect_finished_pdn_connectivity_with_same_pti.LW
p617
aVtc_194_1601__HSS_initiated_ISD_in_Connected_mode_when_current_CSG_Id_removed_Intefered_by_MT_SMS_wf_ue_context_modify_response.LW
p618
aVtc_23_09_transfer_to_primary_and_change_vip_addr.LW
p619
aVtc_298_424_ms_init_deact_ef_delicated_non_gbr_bearer_deact_interfered_by_rab_release_request.LW
p620
aVtc_341_682_x2_activity_event_handover_inter_s1_new.LW
p621
aVtc_103_704_delete_peer_send_DPR.LW
p622
aVtc_103_708_modify_peer_send_DPR.LW
p623
aVtc_225_103_csfb_stand_alone_ue_context_release_active_mode.LW
p624
aVtc_324_368_ef_cancel_location_with_updateProcedure_wf_modify_bearer_response_after_ula_hss.WG14a
p625
aVtc_26_149_inter_sgsn_back_before_20s_with_qos_upgradeAllowed.W14b
p626
aVtc_23_10_transfer_to_primary_and_change_vip_addr_from_gn_to_gom.W14b
p627
aVtc_286_118_pdn_disconnect_finished_pdn_connectivity_with_same_pti.L14b
p628
aVtc_243_334_tau_from_sgsn_s3_emergency_type_c_ptmsi_sign_mismatch.L14b
p629
aVtc_103_708_modify_peer_send_DPR.L14b
p630
aVtc_103_704_delete_peer_send_DPR.L14b
p631
aVtc_327_022_recovery_intra_TAU__initial_Detach_Request_while_waiting_for_Ue_Backup_Response.L14b
p632
aVtc_225_103_csfb_stand_alone_ue_context_release_active_mode.L14b
p633
aVtc_341_682_x2_activity_event_handover_inter_s1_new.L14b
p634
aVtc_208_43_interception_after_small_restart.G14b
p635
aVtc_239_620_inter_rau_new_with_bearer_sgw_not_change_isd_odb_bit0_wf_rau_compl_deactivation.G14b
p636
aVtc_73_21_itc_gtpu_s4_sgsn_send_echo_request_w.LWG
p637
aVtc_175_007_activate_interrupted_by_suspend_before_create_ack.LWG
p638
aVtc_256_176_mme_eps_srvcc_ho_source_cs_only_ue_release_request_wf_srvcc_ps_to_cs_complete_notification.LWG
p639
aVtc_274_274_Intra_and_pTAU__Handover_Required_with_old_TA_MSC_change_while_waiting_for_Location_Update_response_TAU_IMSI_Detach.LWG
p640
aVtc_23_09_transfer_to_primary_and_change_vip_addr.LWG
p641
aVtc_578_32_check_ebm_para_statistics_ue_return_duration.LWG
p642
aVtc_286_118_pdn_disconnect_finished_pdn_connectivity_with_same_pti.LWG
p643
aVtc_179_318_Ccheck_TraceCollectionIpv6server.LWG
p644
aVtc_103_1100_resending_AIR_dpl_changed.LWG
p645
aVtc_103_708_modify_peer_send_DPR.LWG
p646
aVtc_103_704_delete_peer_send_DPR.LWG
p647
aVtc_194_508_Notification_during_Intra_TAU_without_SGW_Relocation_HSS_Reset_after_SMC.LWG
p648
aVtc_194_916_ecm_connected__notification_reachability_userstate_locationinfo_currentinfo_timezone__idr_flags.LWG
p649
aVtc_194_1601__HSS_initiated_ISD_in_Connected_mode_when_current_CSG_Id_removed_Intefered_by_MT_SMS_wf_ue_context_modify_response.LWG
p650
aVtc_326_290_Intra_TAU_with_unknown_GUTI_with_SGW_Change.LWG
p651
aVtc_225_103_csfb_stand_alone_ue_context_release_active_mode.LWG
p652
aVtc_166_092_israu_new_service_req_reestablish_streaming.LWG
p653
aVtc_166_152_intra_rau_old_rnc_non_3gdt_compliant.LWG
p654
aVtc_166_275_activate_primary_dt_apn_list_empty_3gdt_apn_in_hlr_apn_r_empty_mode_2.LWG
p655
aVtc_166_300_ggsn_initiated_deactivation_interfered_by_rab_release_request.LWG
p656
aVtc_166_406_selmode_2_in_dtapn_list_dt_ggsn_list.LWG
p657
aVtc_298_424_ms_init_deact_ef_delicated_non_gbr_bearer_deact_interfered_by_rab_release_request.LWG
p658
aVtc_341_682_x2_activity_event_handover_inter_s1_new.LWG
p659
aVtc_59_9_mtmsi_restart_counter.LWG
p660
aVtc_364_214_af_trigger_hits_before_UE_id_is_known_wcdma.LWG
p661
aVtc_26_094_rnc_modify_ggsn_change_to_0kbps.LWG
p662
aVtc_232_401_bfd__ipv4_alarm.LWG
p663
aVtc_192_019_oms_start_empty_ga.LWG
p664
aVtc_324_112_af_service_request_default_bearer_fail_in_rab_assignment_non_3gdt.LWG
p665
aVtc_39_601_mas_unsucc_fwd_reloc_resp_mandatory_ie_missing_stop_source.LWG
p666
aVtc_251_62_l_to_w_to_l_with_cl_type_updateProcedure.LWG
p667
aVtc_342_134_update_x3_address_multiple_pdp.LWG
p668
aVtc_183_008_itc_sctp_encrypted.LWG
p669
aVtc_193_431_tau_req_with_wrapped_sequence_number.LWG
p670
aVtc_341_682_x2_activity_event_handover_inter_s1_new.LW
p671
aVtc_260_218_receive_m3_reset_req_while_wf_m3_start_resp_with_resp.LW
p672
aVtc_260_272_receive_sm_stop_req_while_wf_setup_iteration.LW
p673
aVtc_204_1302_mme_eps_ho__ho_required_inter_same_sgw_wf_forward_relocation_complete_ack.LW
p674
aVtc_23_09_transfer_to_primary_and_change_vip_addr.LW
p675
aVtc_293_027_X2_Based_HO__Sgw_reloc__Delete_Bearer_Request_while_waiting_for_Create_Session_Response.LW
p676
aVtc_286_118_pdn_disconnect_finished_pdn_connectivity_with_same_pti.LW
p677
aVtc_103_704_delete_peer_send_DPR.LW
p678
aVtc_103_708_modify_peer_send_DPR.LW
p679
aVtc_103_603_georedundant_modify_diameter_peer.LW
p680
aVtc_225_103_csfb_stand_alone_ue_context_release_active_mode.LW
p681
aVtc_250_77_recv_CLR_initial_attach_waiting_sgsn_context_ack_not_combined_node.W14b
p682
aVtc_298_547_sgsn_init_pdn_deact_ef_deact_req_tdi_true_wf_delete_session_resp.W14b
p683
aVtc_243_712_tau_from_sgsn_s3_ue_already_registered_in_mme.L14b
p684
aVtc_103_704_delete_peer_send_DPR.L14b
p685
aVtc_103_708_modify_peer_send_DPR.L14b
p686
aVtc_103_1146_sx_resend__CCR_T_retransmit_but_no_resending.L14b
p687
aVtc_44_301_sctp_counter_MessageSent_Received.L14b
p688
aVtc_341_682_x2_activity_event_handover_inter_s1_new.L14b
p689
aVtc_43_101__removal_of_disconnected_eNodeBs__CLI_removal.L14b
p690
aVtc_290_084_Timer_Based_GBR_Deact__extended_service_request_wf_delete_bearer_request_after_timer_expires.L14b
p691
aVtc_221_122_Downlink_Data_Notification_1_EBI_unknown_without_private_extension.L14b
p692
aVtc_225_103_csfb_stand_alone_ue_context_release_active_mode.L14b
p693
aVtc_286_118_pdn_disconnect_finished_pdn_connectivity_with_same_pti.L14b
p694
aVtc_316_242_MME_Pool_Seamless_Move_No_Forward_Relocation_Complete_Notification_GUTI_Reallocation__No_UE_Backup.L14b
p695
aVtc_327_510_recovery_service_request__ue_context_release_request.L14b
p696
aVtc_220_410_csfb_to_1xrtt_in_ecm_connected_handover_required_HO_all_bearer_fail.L14b
p697
aVtc_208_43_interception_after_small_restart.G14b
p698
aVtc_297_407_move_at_periodic_rau.G14b
p699
aVtc_39_771_mas_rnc_reset_when_wf_ptmsi_realloc_cmpl_source.LWG
p700
aVtc_256_175_mme_eps_srvcc_ho_source_cs_only_ue_release_request_wf_srvcc_ps_to_cs_response.LWG
p701
aVtc_59_9_mtmsi_restart_counter.LWG
p702
aVtc_313_023_inter_new_srns_reloc_s16_with_sgw_change_charging.LWG
p703
aVtc_56_4_abort.LWG
p704
aVtc_56_21_sending_recognized_information_in_log.LWG
p705
aVtc_343_031_check_measurement_reader_with_converted_ms_struct_and_indices.LWG
p706
aVtc_343_006_JobGroup_measInfoId_measObjLdn.LWG
p707
aVtc_343_012_Modify.LWG
p708
aVtc_73_40_gtpu_sgsn_send_gpu_echo_request_w.LWG
p709
aVtc_286_118_pdn_disconnect_finished_pdn_connectivity_with_same_pti.LWG
p710
aVtc_666_06_block_rt_board.LWG
p711
aVtc_179_318_Ccheck_TraceCollectionIpv6server.LWG
p712
aVtc_225_103_csfb_stand_alone_ue_context_release_active_mode.LWG
p713
aVtc_341_682_x2_activity_event_handover_inter_s1_new.LWG
p714
aVtc_202_431_mf_seamless_move_target_service_request_modifyBearerReq_onePdnMultiBearer_oneBearerFail.LWG
p715
aVtc_24_134_msc_pool_ngaf_gs_null_bssap_msg_to_msc.LWG
p716
aVtc_101_012_single_mbms_session_no_rnc_answer.LWG
p717
aVtc_259_93_ef_provide_subscriber_information_service_request_w.LWG
p718
aVtc_259_102_ef_tads_s4_interfere_inter_rau_old_g.LWG
p719
aVtc_212_049_Ccheck_ra.LWG
p720
aVtc_310_335_ef_dbr_non_voice_bearer_wf_forward_relocation_complete_and_forward_relocation_complete_ack.LWG
p721
aVtc_103_1007_secondary_dpl_set_and_then_emptied.LWG
p722
aVtc_103_708_modify_peer_send_DPR.LWG
p723
aVtc_103_704_delete_peer_send_DPR.LWG
p724
aVtc_103_1155_sx_retransmit__Small_restart_terminate_request.LWG
p725
aVtc_183_008_itc_sctp_encrypted.LWG
p726
aVtc_251_62_l_to_w_to_l_with_cl_type_updateProcedure.LWG
p727
aVtc_23_09_transfer_to_primary_and_change_vip_addr.LWG
p728
aVtc_73_41_gtpu_sgsn_dont_send_gpu_echo_request_w.LWG
p729
aVtc_251_62_l_to_w_to_l_with_cl_type_updateProcedure.LWG
p730
aVtc_341_682_x2_activity_event_handover_inter_s1_new.LWG
p731
aVtc_665_21_lr_then_gain.LWG
p732
aVtc_23_09_transfer_to_primary_and_change_vip_addr.LWG
p733
aVtc_56_5_restart_during_SR.LWG
p734
aVtc_204_409_mme_eps_ho_target_type_b_roaming_restriction_same_profile_emc_sup_sim_only.LWG
p735
aVtc_204_402_mme_eps_ho_target_type_c_no_restriction_same_profile_emc_sup_sim_only.LWG
p736
aVtc_263_300_Attach_Flow__PDN_Connectivity_request_while_waiting_for_Modify_Bearer_Response.LWG
p737
aVtc_318_262_sgw_restart_af_relocation_triggered_by_DDN_create_session_request_failure.LWG
p738
aVtc_322_028_smooth_move_af_no_security_mode_complete.LWG
p739
aVtc_183_008_itc_sctp_encrypted.LWG
p740
aVtc_275_073_tau_inter_new_no_update_location_response_sgsn00040258.LWG
p741
aVtc_298_702_pgw_init_modification_ef_ms_deact_req_tdi_false_ti_default_wf_modify_accept.LWG
p742
aVtc_298_654_pgw_init_modification_mf_3gdt_enable.LWG
p743
aVtc_298_832_NRSPCA_S4_nsapi_collision_after_RAU_one_pdn_failed.LWG
p744
aVtc_225_103_csfb_stand_alone_ue_context_release_active_mode.LWG
p745
aVtc_225_731_mt_call_idle_mode_additional_paging_enabled.LWG
p746
aVtc_349_108_RAU_new_sgsn__RAU_Req_on_new_iu_while_waiting_for_CCA_initial_transfer.LWG
p747
aVtc_59_9_mtmsi_restart_counter.LWG
p748
aVtc_103_1134_sx_resend__CCR_I_resend_1_times_diameter_too_busy_timeout_failed_only_realm.LWG
p749
aVtc_103_708_modify_peer_send_DPR.LWG
p750
aVtc_103_704_delete_peer_send_DPR.LWG
p751
aVtc_103_1155_sx_retransmit__Small_restart_terminate_request.LWG
p752
aVtc_199_86_attach_S11_echo_N3_times_response_no_alarm.LWG
p753
aVtc_286_118_pdn_disconnect_finished_pdn_connectivity_with_same_pti.LWG
p754
aVtc_322_126_smooth_move_ef_cancel_location_initialAttach_wf_cancel_location.WG14a
p755
aVtc_322_161_smooth_move_ef_nas_after_paging_response_ignore.WG14a
p756
aVtc_290_002_UE_release__s1_reset_while_wf_release_access_bearers_response.L14b
p757
aVtc_326_634_S6a_Throttling_ULR_Congestion_Subscriber_Data_Flush_caused_Detach_Timer_Stopped_and_UE_not_Detached.L14b
p758
aVtc_316_242_MME_Pool_Seamless_Move_No_Forward_Relocation_Complete_Notification_GUTI_Reallocation__No_UE_Backup.L14b
p759
aVtc_341_682_x2_activity_event_handover_inter_s1_new.L14b
p760
aVtc_286_118_pdn_disconnect_finished_pdn_connectivity_with_same_pti.L14b
p761
aVtc_264_046_MME_Initiated_Detach__UE_ECM_Idle__Detach__Purge__Reattach_Not_Required.L14b
p762
aVtc_292_132_x2_ho_all_default_bearers_failed.L14b
p763
aVtc_275_073_tau_inter_new_no_update_location_response_sgsn00040258.L14b
p764
aVtc_43_005_s1ap_setup.L14b
p765
aVtc_225_103_csfb_stand_alone_ue_context_release_active_mode.L14b
p766
aVtc_266_026_DownlinkDataFailureInd_repeat_paging_timer_small_local_restart.L14b
p767
aVtc_101_009_multiple_mbms_session_cli_test.W14b
p768
aVtc_322_161_smooth_move_ef_nas_after_paging_response_ignore.W14b
p769
aVtc_250_114_act_ipv4v6_pdp_ctx_idr_pdp_type_dual_to_single_eps.W14b
p770
aVtc_225_103_csfb_stand_alone_ue_context_release_active_mode.LW
p771
aVtc_256_135_mme_eps_srvcc_ho_source_cs_only_initial_ue_detach_request_wf_srvcc_ps_to_cs_complete_notification.LW
p772
aVtc_286_118_pdn_disconnect_finished_pdn_connectivity_with_same_pti.LW
p773
aVtc_341_682_x2_activity_event_handover_inter_s1_new.LW
p774
aVtc_306_055_ef_seamless_move_source_receive_cancel_location_update_wf_frcn.LW
p775
aVtc_103_1101_resending_AIR_interfering_CLR.LW
p776
aVtc_103_708_modify_peer_send_DPR.LW
p777
aVtc_103_704_delete_peer_send_DPR.LW
p778
aVts_336_003_access_request__s1_reset_while_waiting_for_eab_wifi_decision_response.LW
p779
aVtc_236_281_HO_over_S3_3GDT_switchback_ef_ms_deact_ti_default_wf_modify_bearer_response.LW
p780
aVtc_23_09_transfer_to_primary_and_change_vip_addr.LW
p781
aVtc_28_016_mt_sms_paging_request_no_response_mo_sms_inform_hlr.LW
p782
aVtc_225_103_csfb_stand_alone_ue_context_release_active_mode.L14b
p783
aVtc_341_682_x2_activity_event_handover_inter_s1_new.L14b
p784
aVtc_43_005_s1ap_setup.L14b
p785
aVtc_358_031_lte_iterator_multi_pdn_wf_one_delete_session_response_timeout.L14b
p786
aVtc_286_118_pdn_disconnect_finished_pdn_connectivity_with_same_pti.L14b
p787
aVtc_327_022_recovery_intra_TAU__initial_Detach_Request_while_waiting_for_Ue_Backup_Response.L14b
p788
aVtc_195_532_mme_logging_ue_unrechable.L14b
p789
aVtc_44_301_sctp_counter_MessageSent_Received.L14b
p790
aVtc_44_750_s1_with_two_sctp_endpoints.L14b
p791
aVtc_304_266_tau_from_gnsgsn_2g_control_mode_wf_delete_all_bearers_response_exception_case_reject_congestion_subscriber_cancelled.L14b
p792
aVtc_324_069_af_modify_bearer_dedicated_bearer_fail.W14b
p793
aVtc_324_121_af_service_request_with_data_only_ulr_timeout_3gdt.W14b
p794
aVtc_322_126_smooth_move_ef_cancel_location_initialAttach_wf_cancel_location.W14b
p795
aVtc_325_106_inter_old_srns_reloc_s4_to_gn_with_gbr_bearer_waiting_for_forward_relocation_complete_timeout.W14b
p796
aVtc_213_059_nrspca_gsm_wait_request_secondary_pdp_context_activation_response_timeout.LWG
p797
aVtc_73_21_itc_gtpu_s4_sgsn_send_echo_request_w.LWG
p798
aVtc_326_275_Periodic_Intra_TAU_with_unknown_GUTI_with_normal_and_emergency_PDN.LWG
p799
aVtc_265_102_Detach_Flow_NW_init__Reattach_Required_Attach_Request_while_waiting_for_Context_Release_Complete.LWG
p800
aVtc_265_002_Detach_Flow_UE_init__Attach_Request_while_waiting_for_Delete_Session_Response.LWG
p801
aVtc_361_510_rau_l_to_w_S4SGSN_check_old_qos_failed_node_function_deactivate_pdp_after_rau_on.LWG
p802
aVtc_225_103_csfb_stand_alone_ue_context_release_active_mode.LWG
p803
aVtc_214_044_combined_attach_combined_tau_with_imsi_attach_no_la_change.LWG
p804
aVtc_291_40_action_ue_trace.LWG
p805
aVtc_179_318_Ccheck_TraceCollectionIpv6server.LWG
p806
aVtc_39_601_mas_unsucc_fwd_reloc_resp_mandatory_ie_missing_stop_source.LWG
p807
aVtc_316_242_MME_Pool_Seamless_Move_No_Forward_Relocation_Complete_Notification_GUTI_Reallocation__No_UE_Backup.LWG
p808
aVtc_23_09_transfer_to_primary_and_change_vip_addr.LWG
p809
aVtc_327_224_recovery_service_request__Delete_Subscriber_Data_while_waiting_for_Ue_Backup_Response.LWG
p810
aVtc_275_073_tau_inter_new_no_update_location_response_sgsn00040258.LWG
p811
aVtc_221_141_configurable_paging_timer__operator_profile_used_matched_on_QCI131.LWG
p812
aVtc_251_62_l_to_w_to_l_with_cl_type_updateProcedure.LWG
p813
aVtc_286_118_pdn_disconnect_finished_pdn_connectivity_with_same_pti.LWG
p814
aVtc_241_1694_intra_rau_without_sgw_change_interferred_by_reset_resource_after_modify_bearer_request.LWG
p815
aVtc_103_708_modify_peer_send_DPR.LWG
p816
aVtc_103_704_delete_peer_send_DPR.LWG
p817
aVtc_103_1155_sx_retransmit__Small_restart_terminate_request.LWG
p818
aVtc_183_008_itc_sctp_encrypted.LWG
p819
aVtc_47_002_imsi_attach_ap_gain.LWG
p820
aVtc_341_682_x2_activity_event_handover_inter_s1_new.LWG
p821
aVtc_288_220_pgw_init_bearer_mod_QoS_paging_partly_fail_modification_fails.LWG
p822
aVtc_165_10_check_resource_alarms_ap.LWG
p823
aVtc_314_022_hss_reset_restoration_followed_by_service_request_smah_off.LWG
p824
aVtc_297_407_move_at_periodic_rau.G14b
p825
aVtc_239_620_inter_rau_new_with_bearer_sgw_not_change_isd_odb_bit0_wf_rau_compl_deactivation.G14b
p826
aVtc_225_103_csfb_stand_alone_ue_context_release_active_mode.LW
p827
aVtc_286_118_pdn_disconnect_finished_pdn_connectivity_with_same_pti.LW
p828
aVtc_341_682_x2_activity_event_handover_inter_s1_new.LW
p829
aVtc_231_666_hlr_init_deatch_after_create_two_session_s4_tz_change.LW
p830
aVtc_220_411_csfb_to_1xrtt_in_ecm_connected_path_switch_request_subscription_cancelled.LW
p831
aVtc_256_367_srvcc_ho_source_cs_only_gsm_2_msc_available.LW
p832
aVtc_275_060_tau_inter_new_pgw_node_name_missing_in_context_response.LW
p833
aVtc_103_704_delete_peer_send_DPR.LW
p834
aVtc_103_708_modify_peer_send_DPR.LW
p835
aVtc_241_301_israu_new_create_session_failed_and_paging_timeout.W14b
p836
aVtc_322_161_smooth_move_ef_nas_after_paging_response_ignore.W14b
p837
aVtc_334_103_sgw_restart_mf_one_pdn_locally_delete_noaction_s8.W14b
p838
aVtc_208_43_interception_after_small_restart.G14b
p839
aVtc_286_118_pdn_disconnect_finished_pdn_connectivity_with_same_pti.LW
p840
aVtc_341_682_x2_activity_event_handover_inter_s1_new.LW
p841
aVtc_103_701_MME_restarts.LW
p842
aVtc_103_704_delete_peer_send_DPR.LW
p843
aVtc_298_424_ms_init_deact_ef_delicated_non_gbr_bearer_deact_interfered_by_rab_release_request.LW
p844
aVtc_225_103_csfb_stand_alone_ue_context_release_active_mode.LW
p845
aVtc_279_009_tai_list_intra_tau_only_current.LW
p846
aVtc_202_431_mf_seamless_move_target_service_request_modifyBearerReq_onePdnMultiBearer_oneBearerFail.LW
p847
aVtc_236_048_s4_3gdt_deactivation_during_waiting_for_modify_bearer_rsp_in_activation_procedure_no_context.LW
p848
aVtc_304_266_tau_from_gnsgsn_2g_control_mode_wf_delete_all_bearers_response_exception_case_reject_congestion_subscriber_cancelled.LW
p849
aVtc_325_206_inter_old_srns_reloc_s4_to_gn_wf_fwd_reloc_compl_interrupted_by_detach_on_new_iu.LW
p850
aVtc_44_403_s1ap_id_error_indication__id_pair_mismatch.LW
p851
aVtc_327_172_recovery_intra_TAU_SGSN_Context_Request_while_waiting_for_Location_Update_Response.LW
p852
aVtc_288_365_pgw_init_bearer_mod_qci_counters__qci4_8_128_129_254_255.LW
p853
aVtc_324_388_ef_mo_sms_wf_ula.WG14a
p854
aVtc_286_118_pdn_disconnect_finished_pdn_connectivity_with_same_pti.LWG
p855
aVtc_103_708_modify_peer_send_DPR.LWG
p856
aVtc_103_704_delete_peer_send_DPR.LWG
p857
aVtc_103_1155_sx_retransmit__Small_restart_terminate_request.LWG
p858
aVtc_348_007_activation_mf__3gdt_with_sx.LWG
p859
aVtc_225_103_csfb_stand_alone_ue_context_release_active_mode.LWG
p860
aVtc_343_012_Modify.LWG
p861
aVtc_343_031_check_measurement_reader_with_converted_ms_struct_and_indices.LWG
p862
aVtc_343_007_PM_Jobs_with_same_Job_Group_in_same_Log.LWG
p863
aVtc_343_006_JobGroup_measInfoId_measObjLdn.LWG
p864
aVtc_364_214_af_trigger_hits_before_UE_id_is_known_wcdma.LWG
p865
aVtc_31_116_hlr_reset_many_subscribers.LWG
p866
aVtc_341_682_x2_activity_event_handover_inter_s1_new.LWG
p867
aVtc_218_074_tau_from_sgsn_deactivate_mbr0_inactive_bearers.LWG
p868
aVtc_259_106_ef_tads_s4_interfere_inter_rau_old_w.LWG
p869
aVtc_73_41_gtpu_sgsn_dont_send_gpu_echo_request_w.LWG
p870
aVtc_194_508_Notification_during_Intra_TAU_without_SGW_Relocation_HSS_Reset_after_SMC.LWG
p871
aVtc_183_008_itc_sctp_encrypted.LWG
p872
aVtc_23_09_transfer_to_primary_and_change_vip_addr.LWG
p873
aVtc_327_037_recovery_intra_TAU_active_off_sgw_unchanged__RAR_wf_CSR_due_to_S11_linkdown.LWG
p874
aVtc_12_134_attach_with_extended_mmumoc_iu_inactivity_timer.LWG
p875
aVtc_359_122_handover_from_3gpp_af_deact_ms_no_response.LWG
p876
aVtc_44_004_small_restart__sctp_fe_restart.LWG
p877
aVtc_267_510_Service_Request_SGW_unavailable__SGSN_Context_Request_while_wf_Create_Session_Response.LWG
p878
aVtc_267_553_DDN_MBR_timeout__Delete_Bearer_Request_wf_UE_Context_Release_Complete.LWG
p879
aVtc_288_365_pgw_init_bearer_mod_qci_counters__qci4_8_128_129_254_255.LWG
p880
aVtc_141_031_eth_v4_v6_traffic_over_sctp.LWG
p881
aVtc_251_62_l_to_w_to_l_with_cl_type_updateProcedure.LWG
p882
aVtc_275_711_tau_inter_without_SGW_Change_receive_TZCR_flag_set_in_context_response_SN_change.L14b
p883
aVtc_47_002_imsi_attach_ap_gain.L14b
p884
aVtc_266_026_DownlinkDataFailureInd_repeat_paging_timer_small_local_restart.L14b
p885
aVtc_304_320_PDN_connectivity__control_mode_threshold_exceeded_action_reject_while_same_pdn_connectivity_ongoing_wf_modify_bearer_response.L14b
p886
aVtc_194_505_Notification_during_Intra_TAU_without_SGW_Relocation_HSS_Reset_Before_TAU.L14b
p887
aVtc_288_365_pgw_init_bearer_mod_qci_counters__qci4_8_128_129_254_255.L14b
p888
aVtc_327_022_recovery_intra_TAU__initial_Detach_Request_while_waiting_for_Ue_Backup_Response.L14b
p889
aVtc_327_167_recovery_intra_TAU_SGSN_Context_Request_while_waiting_for_Update_Location_Answer.L14b
p890
aVtc_286_118_pdn_disconnect_finished_pdn_connectivity_with_same_pti.L14b
p891
aVtc_225_103_csfb_stand_alone_ue_context_release_active_mode.L14b
p892
aVtc_341_682_x2_activity_event_handover_inter_s1_new.L14b
p893
aVtc_243_712_tau_from_sgsn_s3_ue_already_registered_in_mme.L14b
p894
aVtc_73_07_itc_encrypted_gtpu_s4_payload_w.WG14a
p895
aVtc_324_152_af_rab_assignment_resp_downgrade_qos_dedicated_bearer_3gdt_rab_partially_setup.W14b
p896
aVtc_204_067_mme_eps_ho__intra_mme_handover_during_ue_context_modification.LWG
p897
aVtc_324_121_af_service_request_with_data_only_ulr_timeout_3gdt.LWG
p898
aVtc_319_200_sgwTempUnavailableDuration_timeout_before_path_detection_interval.LWG
p899
aVtc_260_272_receive_sm_stop_req_while_wf_setup_iteration.LWG
p900
aVtc_183_008_itc_sctp_encrypted.LWG
p901
aVtc_341_682_x2_activity_event_handover_inter_s1_new.LWG
p902
aVtc_179_318_Ccheck_TraceCollectionIpv6server.LWG
p903
aVtc_262_1055_imsi_attach_with_csg_id_is_rejected.LWG
p904
aVtc_286_118_pdn_disconnect_finished_pdn_connectivity_with_same_pti.LWG
p905
aVtc_103_708_modify_peer_send_DPR.LWG
p906
aVtc_103_704_delete_peer_send_DPR.LWG
p907
aVtc_103_1100_resending_AIR_dpl_changed.LWG
p908
aVtc_288_365_pgw_init_bearer_mod_qci_counters__qci4_8_128_129_254_255.LWG
p909
aVtc_259_94_ef_provide_subscriber_information_psho_intra_w_to_g.LWG
p910
aVtc_225_103_csfb_stand_alone_ue_context_release_active_mode.LWG
p911
aVtc_241_159_israu_old_wait_for_sgsn_context_ack_interfere_by_reset_and_detach.LWG
p912
aVtc_268_010_UE_Release_Flow_delete_bearer_request_while_wf_ue_context_release_complete.LWG
p913
aVtc_251_62_l_to_w_to_l_with_cl_type_updateProcedure.LWG
p914
aVtc_343_031_check_measurement_reader_with_converted_ms_struct_and_indices.LWG
p915
aVtc_326_437_Inter_TAU_Recovery_Fail__SGW_Relocation_Create_Session_Fail.LWG
p916
aVtc_157_4_snmp_consistent.LWG
p917
aVtc_322_126_smooth_move_ef_cancel_location_initialAttach_wf_cancel_location.LWG
p918
aVtc_23_09_transfer_to_primary_and_change_vip_addr.LWG
p919
aVtc_327_037_recovery_intra_TAU_active_off_sgw_unchanged__RAR_wf_CSR_due_to_S11_linkdown.LWG
p920
aVtc_327_372_recovery_service_request__initial_extended_service_request_while_waiting_for_Update_Location_Answer.LWG
p921
aVtc_24_01_gprs_attach_while_already_imsi_attached.LWG
p922
aVtc_12_512_pmm_undefined_attach_when_updating_location_interfered_by_rnc_reset.LWG
p923
aVtc_73_41_gtpu_sgsn_dont_send_gpu_echo_request_w.LWG
p924
aVtc_341_682_x2_activity_event_handover_inter_s1_new.L14b
p925
aVtc_256_097_mme_eps_srvcc_ho_source_cs_only_handover_cancel_wf_srvcc_ps_to_cs_response_timeout.L14b
p926
aVtc_103_704_delete_peer_send_DPR.L14b
p927
aVtc_103_708_modify_peer_send_DPR.L14b
p928
aVtc_327_022_recovery_intra_TAU__initial_Detach_Request_while_waiting_for_Ue_Backup_Response.L14b
p929
aVtc_327_363_recovery_service_request__new_Service_Request_while_waiting_for_Sub_Procedure__Security_Mode_Comlete.L14b
p930
aVtc_304_126_initial_ue_intra_tau_ecm_idle_control_mode_threshold_exceeded_usc_detach.L14b
p931
aVtc_286_118_pdn_disconnect_finished_pdn_connectivity_with_same_pti.L14b
p932
aVtc_288_365_pgw_init_bearer_mod_qci_counters__qci4_8_128_129_254_255.L14b
p933
aVtc_225_103_csfb_stand_alone_ue_context_release_active_mode.L14b
p934
aVtc_44_301_sctp_counter_MessageSent_Received.L14b
p935
aVtc_44_505_s1ap_id_checks__ho_request_ack_unknown_ids.L14b
p936
aVtc_243_334_tau_from_sgsn_s3_emergency_type_c_ptmsi_sign_mismatch.L14b
p937
aVtc_332_002_mf__changed_mps_subscription_data.L14b
p938
aVtc_236_048_s4_3gdt_deactivation_during_waiting_for_modify_bearer_rsp_in_activation_procedure_no_context.LW
p939
aVtc_326_267_Intra_TAU_with_unknown_GUTI_Restriction_2_pdn_SAU_license_limit_reached.LW
p940
aVtc_326_662_tau_intra_periodic_SGW_unavailable_after_MME_large_restart__two_pdn_one_fail.LW
p941
aVtc_103_708_modify_peer_send_DPR.LW
p942
aVtc_103_704_delete_peer_send_DPR.LW
p943
aVtc_202_431_mf_seamless_move_target_service_request_modifyBearerReq_onePdnMultiBearer_oneBearerFail.LW
p944
aVtc_288_365_pgw_init_bearer_mod_qci_counters__qci4_8_128_129_254_255.LW
p945
aVtc_23_09_transfer_to_primary_and_change_vip_addr.LW
p946
aVtc_341_682_x2_activity_event_handover_inter_s1_new.LW
p947
aVtc_286_118_pdn_disconnect_finished_pdn_connectivity_with_same_pti.LW
p948
aVtc_38_80_intra_rau_new_rnc_with_authentication_wrong_ptmsi_signature.LW
p949
aVtc_289_007_Modify_Bearer__Update_Bearer_Request_while_wf_modify_eps_bearer_context_accept_Idle.LW
p950
aVtc_225_103_csfb_stand_alone_ue_context_release_active_mode.LW
p951
aVtc_39_601_mas_unsucc_fwd_reloc_resp_mandatory_ie_missing_stop_source.LW
p952
aVtc_327_021_recovery_intra_TAU__uplink_Detach_Request_while_waiting_for_Update_Location_Response.LW
p953
aVtc_364_214_af_trigger_hits_before_UE_id_is_known_wcdma.LW
p954
aVtc_250_105_ignore_IDR_when_EPS_sub_downgrade_GPRS_sub.LW
p955
aVtc_282_020_delete_bearer_request_handover_to_non_3GPP_ecm_connected_multi_pdn.LW
p956
aVtc_297_407_move_at_periodic_rau.G14b
p957
aVtc_30_139_hlr_reset_dp_unavailable.G14b
p958
aVtc_322_161_smooth_move_ef_nas_after_paging_response_ignore.WG14a
p959
aVtc_266_026_DownlinkDataFailureInd_repeat_paging_timer_small_local_restart.L14b
p960
aVtc_220_587_csfb_to_1xrtt_in_extended_service_request_during_attach_waiting_for_modify_bearer_response.L14b
p961
aVtc_194_100_check_gauge_unstable_not_parked.L14b
p962
aVtc_194_182_hss_reset_ue_activity_tau_request_after_handover.L14b
p963
aVtc_194_506_Notification_during_Intra_MME_TAU_without_SGW_Relocation_Procedure.L14b
p964
aVtc_194_505_Notification_during_Intra_TAU_without_SGW_Relocation_HSS_Reset_Before_TAU.L14b
p965
aVtc_288_365_pgw_init_bearer_mod_qci_counters__qci4_8_128_129_254_255.L14b
p966
aVtc_265_160_Detach_Flow_NW_init__Ue_moved_to_non_3gpp_while_imsi_detach.L14b
p967
aVtc_262_1055_imsi_attach_with_csg_id_is_rejected.L14b
p968
aVtc_286_118_pdn_disconnect_finished_pdn_connectivity_with_same_pti.L14b
p969
aVtc_341_682_x2_activity_event_handover_inter_s1_new.L14b
p970
aVtc_329_156_intra_tau_rr_restricted_plmn_change.L14b
p971
aVtc_44_201_sctp_endpoint_config__modify_rt_Diameter.L14b
p972
aVtc_225_103_csfb_stand_alone_ue_context_release_active_mode.L14b
p973
aVtc_203_327_mme_eps_ho_source_type_d__S1_Reset_while_wf_Forw_Reloc_Response.L14b
p974
aVtc_103_704_delete_peer_send_DPR.L14b
p975
aVtc_327_022_recovery_intra_TAU__initial_Detach_Request_while_waiting_for_Ue_Backup_Response.L14b
p976
aVtc_322_021_smooth_move_af_frr_with_service_not_supported.W14b
p977
aVtc_322_161_smooth_move_ef_nas_after_paging_response_ignore.W14b
p978
aVtc_298_689_S4_3GDT_Service_request_wait_MBR_ef_delete_bearer_request.W14b
p979
aVgn_wcdma_payload_no_context_ensure_stored.LWG
p980
aVtc_183_008_itc_sctp_encrypted.LWG
p981
aVtc_322_302_smooth_move_3GDT_with_one_PDN_TZCR_set.LWG
p982
aVtc_335_23_wifi_to_mobility_in_ecm_idle_mf__all_cells_failed_from_eNB_when_ppf_cleared.LWG
p983
aVtc_141_015_eth_traffic_vlan_novlan.LWG
p984
aVtc_23_09_transfer_to_primary_and_change_vip_addr.LWG
p985
aVtc_310_207_ef__Attach_wf_FR_Complete_Notification.LWG
p986
aVtc_103_708_modify_peer_send_DPR.LWG
p987
aVtc_103_704_delete_peer_send_DPR.LWG
p988
aVtc_304_263_tau_from_gnsgsn_when_wf_tau_complete_control_mode_reject_congestion.LWG
p989
aVtc_304_494_initial_csfb_to_1xrtt_control_mode_threshold_exceeded_int_prot_nok_usc_detach_wf_icsr.LWG
p990
aVtc_25_33_israu_qos_req_0kbps.LWG
p991
aVtc_236_307_Activation_DtSelMode_5_APN_requested_wrong_SGSN_default_APN_in_APN_list_TAC_in_TAC_list.LWG
p992
aVtc_219_233_TAU_Dual_Access_WtoL_without_SGW_Change_SGW_unavailable_no_other_SGW.LWG
p993
aVtc_208_43_interception_after_small_restart.LWG
p994
aVtc_288_365_pgw_init_bearer_mod_qci_counters__qci4_8_128_129_254_255.LWG
p995
aVtc_319_072_path_management_from_available_to_temporary_unavailable.LWG
p996
aVtc_276_305_Inter_TAU_New_MME__Downlink_Data_Notification_while_waiting_for_failing_Modify_Bearer_Response.LWG
p997
aVtc_110_005_inbound_outbound_pf_rule_cli_ip.LWG
p998
aVtc_12_4_attach_ptmsi_signalling_connection_release.LWG
p999
aVtc_12_512_pmm_undefined_attach_when_updating_location_interfered_by_rnc_reset.LWG
p1000
aVtc_251_62_l_to_w_to_l_with_cl_type_updateProcedure.LWG
p1001
aVtc_56_21_sending_recognized_information_in_log.LWG
p1002
aVtc_225_103_csfb_stand_alone_ue_context_release_active_mode.LWG
p1003
aVtc_286_118_pdn_disconnect_finished_pdn_connectivity_with_same_pti.LWG
p1004
aVtc_341_682_x2_activity_event_handover_inter_s1_new.LWG
p1005
aVtc_26_016_ms_initiated_pdp_context_modification.LW
p1006
aVtc_23_09_transfer_to_primary_and_change_vip_addr.LW
p1007
aVtc_286_118_pdn_disconnect_finished_pdn_connectivity_with_same_pti.LW
p1008
aVtc_288_365_pgw_init_bearer_mod_qci_counters__qci4_8_128_129_254_255.LW
p1009
aVtc_225_103_csfb_stand_alone_ue_context_release_active_mode.LW
p1010
aVtc_316_242_MME_Pool_Seamless_Move_No_Forward_Relocation_Complete_Notification_GUTI_Reallocation__No_UE_Backup.LW
p1011
aVtc_268_002_release_request_with_gbr_bearers_user_inactivity.LW
p1012
aVtc_103_708_modify_peer_send_DPR.LW
p1013
aVtc_103_704_delete_peer_send_DPR.LW
p1014
aVtc_578_32_check_ebm_para_statistics_ue_return_duration.LW
p1015
aVtc_341_682_x2_activity_event_handover_inter_s1_new.LW
p1016
aVtc_12_74_service_reject_umts_authentication_no_response.LW
p1017
aVtc_221_141_configurable_paging_timer__operator_profile_used_matched_on_QCI131.LW
p1018
aVtc_26_024_modification_interrupted_by_insert_subscriber_data_II.LW
p1019
aVtc_341_682_x2_activity_event_handover_inter_s1_new.LW
p1020
aVtc_44_004_small_restart__sctp_fe_restart.LW
p1021
aVtc_286_118_pdn_disconnect_finished_pdn_connectivity_with_same_pti.LW
p1022
aVtc_310_119_af__HO_Cancel_after_HO_Command_before_Complete_from_MSC_after_Complete_from_SGSN.LW
p1023
aVtc_311_204_intra_srns_reloc_s4_sgw_change_wf_reloc_req_ack_interrupted_by_cancel_loc_subscrip_withdrawn.LW
p1024
aVtc_225_103_csfb_stand_alone_ue_context_release_active_mode.LW
p1025
aVtc_262_1055_imsi_attach_with_csg_id_is_rejected.LW
p1026
aVtc_288_365_pgw_init_bearer_mod_qci_counters__qci4_8_128_129_254_255.LW
p1027
aVtc_23_09_transfer_to_primary_and_change_vip_addr.LW
p1028
aVtc_103_708_modify_peer_send_DPR.LW
p1029
aVtc_103_704_delete_peer_send_DPR.LW
p1030
aVtc_166_271_israu_new_dt_apn_list_empty_mode_2_no_3gdt_in_hlr.WG14a
p1031
aVtc_322_161_smooth_move_ef_nas_after_paging_response_ignore.WG14a
p1032
aVtc_324_216_ef_attach_request_abort_wf_update_location_hss_service_request_done.W14b
p1033
aVtc_208_43_interception_after_small_restart.G14b
p1034
aVtc_44_400_s1ap_id_error_indication__id_pair_match.L14b
p1035
aVtc_44_301_sctp_counter_MessageSent_Received.L14b
p1036
aVtc_44_700_ip_invalid_sip_valid.L14b
p1037
aVtc_346_665_pra_cn_predefined_small_restart_after_attach_pdn_and_then_service_request.L14b
p1038
aVtc_220_587_csfb_to_1xrtt_in_extended_service_request_during_attach_waiting_for_modify_bearer_response.L14b
p1039
aVtc_327_012_recovery_intra_TAU__initial_Attach_Request_while_waiting_for_Ue_Backup_Response.L14b
p1040
aVtc_327_022_recovery_intra_TAU__initial_Detach_Request_while_waiting_for_Ue_Backup_Response.L14b
p1041
aVtc_225_103_csfb_stand_alone_ue_context_release_active_mode.L14b
p1042
aVtc_286_118_pdn_disconnect_finished_pdn_connectivity_with_same_pti.L14b
p1043
aVtc_262_097_emergency_guti_attach_integrity_not_ok_unauthentication_fails_in_ue.L14b
p1044
aVtc_341_682_x2_activity_event_handover_inter_s1_new.L14b
p1045
aVtc_103_704_delete_peer_send_DPR.L14b
p1046
aVtc_275_730_inter_tau_target_detach_with_cause_of_reattach_not_required_with_not_allowed_apn_in_odb_free_apn_list__odb_bit0.L14b
p1047
aVtc_288_365_pgw_init_bearer_mod_qci_counters__qci4_8_128_129_254_255.L14b
p1048
aVtc_23_09_transfer_to_primary_and_change_vip_addr.LWG
p1049
aVtc_195_208_mme_logging_maximum_modify_eps_bearer_context.LWG
p1050
aVtc_259_99_ef_s6d_s4_attach_old_w.LWG
p1051
aVtc_322_029_smooth_move_af_security_mode_reject.LWG
p1052
aVtc_288_365_pgw_init_bearer_mod_qci_counters__qci4_8_128_129_254_255.LWG
p1053
aVtc_316_206_TAU_From_S4_SGSN_Multiple_PDN_Connections_With_Max_Dedicated_Bearers__Backup_UE.LWG
p1054
aVtc_101_021_mbms_session_streaming.LWG
p1055
aVtc_348_104_isc_rau_mf__l_to_w_multiple_pdp_with_sx.LWG
p1056
aVtc_12_134_attach_with_extended_mmumoc_iu_inactivity_timer.LWG
p1057
aVtc_38_65_israu_old_sgsn_interfering_after_acknowledge.LWG
p1058
aVtc_218_125_tau_from_sgsn_s1_reset_when_wf_tau_complete.LWG
p1059
aVtc_218_213_3_TAU_from_SGSN__downlink_data_notification_while_waiting_for_Initial_Context_Setup_Response.LWG
p1060
aVtc_219_131_s3_handover_w_to_l_with_cl_two_pdns_one_failed_sgw_relocation.LWG
p1061
aVtc_103_850_error_code_DIAMETER_REALM_NOT_SERVED.LWG
p1062
aVtc_103_708_modify_peer_send_DPR.LWG
p1063
aVtc_103_704_delete_peer_send_DPR.LWG
p1064
aVtc_103_903_primary_or_secondary_realm_routing_own_realm.LWG
p1065
aVtc_103_1155_sx_retransmit__Small_restart_terminate_request.LWG
p1066
aVtc_321_098_provide_subscriber_location_report_control_mf.LWG
p1067
aVtc_193_014_service_req_auth_failure_separation_bit.LWG
p1068
aVtc_193_064_attach_plain_nas.LWG
p1069
aVtc_193_115_authorization_rejected_emm_cause_15.LWG
p1070
aVtc_304_266_tau_from_gnsgsn_2g_control_mode_wf_delete_all_bearers_response_exception_case_reject_congestion_subscriber_cancelled.LWG
p1071
aVtc_251_62_l_to_w_to_l_with_cl_type_updateProcedure.LWG
p1072
aVtc_310_121_af__No_Delete_Bearer_Request_received_from_SGW_after_Delete_Bearer_Command.LWG
p1073
aVtc_141_016_eth_conf_vlan_novlan.LWG
p1074
aVtc_141_028_eth_v6_traffic_conf_deconf_vlan.LWG
p1075
aVtc_208_43_interception_after_small_restart.LWG
p1076
aVtc_286_118_pdn_disconnect_finished_pdn_connectivity_with_same_pti.LWG
p1077
aVtc_179_318_Ccheck_TraceCollectionIpv6server.LWG
p1078
aVtc_307_001_HSS_Init_QoS_Modification__APNAMBR_RFSP_and_ARP_Changed_2PDN_CONNECTED.LWG
p1079
aVtc_225_103_csfb_stand_alone_ue_context_release_active_mode.LWG
p1080
aVtc_341_682_x2_activity_event_handover_inter_s1_new.LWG
p1081
aVtc_73_37_buffer_packets_with_3gdt.LWG
p1082
aVtc_73_21_itc_gtpu_s4_sgsn_send_echo_request_w.LWG
p1083
aVtc_284_561_emergency_pdn_connectivity_first_pgw_in_list_successful.LWG
p1084
aVtc_183_005_itc_folder_file_names.LWG
p1085
aVtc_183_008_itc_sctp_encrypted.LWG
p1086
a.