(lp0
Vtc_316_242_MME_Pool_Seamless_Move_No_Forward_Relocation_Complete_Notification_GUTI_Reallocation__No_UE_Backup.L14b
p1
aVtc_346_719_pra_cn_predefined_lrc_optimization_enb_configuration_update_lrc_changed.L14b
p2
aVtc_260_092_one_mbms_session_started_one_mce_add_one_session_not_send_to_new_mce.L14b
p3
aVtc_310_335_ef_dbr_non_voice_bearer_wf_forward_relocation_complete_and_forward_relocation_complete_ack.L14b
p4
aVtc_335_150_Locator_Restart__Service_Request__GA_Change.L14b
p5
aVtc_43_005_s1ap_setup.L14b
p6
aVtc_43_101__removal_of_disconnected_eNodeBs__CLI_removal.L14b
p7
aVtc_341_682_x2_activity_event_handover_inter_s1_new.L14b
p8
aVtc_578_33_check_ebm_para_statistics_enb_sn.L14b
p9
aVtc_578_02_check_parse_ebm_and_ci_eci_l.L14b
p10
aVtc_286_118_pdn_disconnect_finished_pdn_connectivity_with_same_pti.L14b
p11
aVtc_327_022_recovery_intra_TAU__initial_Detach_Request_while_waiting_for_Ue_Backup_Response.L14b
p12
aVtc_275_073_tau_inter_new_no_update_location_response_sgsn00040258.L14b
p13
aVtc_347_350_Ho_Non_3GPP__RAR_while_waiting_delete_bearer_response.L14b
p14
aVtc_266_026_DownlinkDataFailureInd_repeat_paging_timer_small_local_restart.L14b
p15
aVtc_225_103_csfb_stand_alone_ue_context_release_active_mode.L14b
p16
aVtc_310_335_ef_dbr_non_voice_bearer_wf_forward_relocation_complete_and_forward_relocation_complete_ack.LWG
p17
aVtc_251_62_l_to_w_to_l_with_cl_type_updateProcedure.LWG
p18
aVtc_23_09_transfer_to_primary_and_change_vip_addr.LWG
p19
aVtc_298_208_SIBD_S4_Service_Request_PDP_Context_Status_Connect.LWG
p20
aVtc_214_1099_la_selection_mf_reselection_combined_tau_with_imsi_attach_after_mme_triggered_imsi_detach_when_handling_sgs_paging.LWG
p21
aVtc_314_022_hss_reset_restoration_followed_by_service_request_smah_off.LWG
p22
aVtc_311_204_intra_srns_reloc_s4_sgw_change_wf_reloc_req_ack_interrupted_by_cancel_loc_subscrip_withdrawn.LWG
p23
aVtc_59_9_mtmsi_restart_counter.LWG
p24
aVtc_302_070_mt_sms_main_flow_connected.LWG
p25
aVtc_179_318_Ccheck_TraceCollectionIpv6server.LWG
p26
aVtc_289_103_multi_pdns_pgw_init_bearer_mod_ecm_idle_interrupted_by_dbr_with_lbi.LWG
p27
aVtc_286_118_pdn_disconnect_finished_pdn_connectivity_with_same_pti.LWG
p28
aVtc_341_682_x2_activity_event_handover_inter_s1_new.LWG
p29
aVtc_326_225_Intra_TAU_Recovery_after_Node_Restart_fail_Retrieval_Response_timeout.LWG
p30
aVtc_183_008_itc_sctp_encrypted.LWG
p31
aVtc_183_011_itc_trace_file_wrap.LWG
p32
aVtc_225_103_csfb_stand_alone_ue_context_release_active_mode.LWG
p33
aVtc_266_313_service_request_1_pdn_Modify_Bearer_Response_with_dedicated_bearer_not_match.LWG
p34
aVtc_56_2_restart.LWG
p35
aVtc_56_21_sending_recognized_information_in_log.LWG
p36
aVtc_28_007_mo_sms_sms_command.LWG
p37
aVtc_337_005_validation_move_manually_stopped_between_two_pool_moves_smooth_move.LWG
p38
aVtc_316_242_MME_Pool_Seamless_Move_No_Forward_Relocation_Complete_Notification_GUTI_Reallocation__No_UE_Backup.LWG
p39
aVtc_578_32_check_ebm_para_statistics_ue_return_duration.LW
p40
aVtc_284_341_pdn_connectivity_request_successful_ue_ambr_as_configured_in_qos_policy_used.LW
p41
aVtc_341_682_x2_activity_event_handover_inter_s1_new.LW
p42
aVtc_286_118_pdn_disconnect_finished_pdn_connectivity_with_same_pti.LW
p43
aVtc_288_220_pgw_init_bearer_mod_QoS_paging_partly_fail_modification_fails.LW
p44
aVtc_298_074_s4_nrspca_activate_same_nsapi_of_dedicated_bearer_apn_failed.LW
p45
aVtc_298_424_ms_init_deact_ef_delicated_non_gbr_bearer_deact_interfered_by_rab_release_request.LW
p46
aVtc_277_113_tau_inter_old_ddn_with_imsi_while_received_context_ack.LW
p47
aVtc_225_103_csfb_stand_alone_ue_context_release_active_mode.LW
p48
aVtc_310_335_ef_dbr_non_voice_bearer_wf_forward_relocation_complete_and_forward_relocation_complete_ack.LW
p49
aVtc_44_004_small_restart__sctp_fe_restart.LW
p50
aVtc_194_506_Notification_during_Intra_MME_TAU_without_SGW_Relocation_Procedure.LW
p51
aVtc_38_80_intra_rau_new_rnc_with_authentication_wrong_ptmsi_signature.W14b
p52
aVtc_298_073_s4_nrspca_activate_same_nsapi_of_dedicated_bearer_rab_released.W14b
p53
aVtc_310_335_ef_dbr_non_voice_bearer_wf_forward_relocation_complete_and_forward_relocation_complete_ack.LW
p54
aVtc_231_281_activate_pdp_request_ignore_during_s4_pdp_deactivating.LW
p55
aVtc_286_118_pdn_disconnect_finished_pdn_connectivity_with_same_pti.LW
p56
aVtc_194_1551_HSS_initiated_ISD_in_Connected_mode_when_current_CSG_Id_expired__timeout_wwf_UCMR.LW
p57
aVtc_197_547_inter_gnsgsn_handover_table_not_matched_snaptr.LW
p58
aVtc_23_09_transfer_to_primary_and_change_vip_addr.LW
p59
aVtc_347_054_Intra_HO_S1__RAR_while_waiting_for_Handover_Notify_and_TAU_Request.LW
p60
aVtc_225_103_csfb_stand_alone_ue_context_release_active_mode.LW
p61
aVtc_262_084_emergency_imsi_attach_unauthentication_fails_in_hss.LW
p62
aVtc_341_682_x2_activity_event_handover_inter_s1_new.LW
p63
aVtc_326_218_Intra_TAU_Recovery_two_PDN_partial_fail.LW
p64
aVtc_578_02_check_parse_ebm_and_ci_eci_w.W14b
p65
aVtc_28_001_mo_sms.W14b
p66
aVtc_341_682_x2_activity_event_handover_inter_s1_new.LWG
p67
aVtc_324_327_ef_service_req_data_direct_transfer_ingore.LWG
p68
aVtc_141_002_eth_deconf_conf_vlan_many.LWG
p69
aVtc_103_830_preserve_proxy_info_order.LWG
p70
aVtc_39_601_mas_unsucc_fwd_reloc_resp_mandatory_ie_missing_stop_source.LWG
p71
aVtc_310_335_ef_dbr_non_voice_bearer_wf_forward_relocation_complete_and_forward_relocation_complete_ack.LWG
p72
aVtc_183_008_itc_sctp_encrypted.LWG
p73
aVtc_79_082_sgsn_init_modification_rnc_not_supporting_modify_cause19.LWG
p74
aVtc_251_62_l_to_w_to_l_with_cl_type_updateProcedure.LWG
p75
aVtc_73_21_itc_gtpu_s4_sgsn_send_echo_request_w.LWG
p76
aVtc_73_41_gtpu_sgsn_dont_send_gpu_echo_request_w.LWG
p77
aVtc_73_07_itc_encrypted_gtpu_s4_payload_w.LWG
p78
aVtc_316_242_MME_Pool_Seamless_Move_No_Forward_Relocation_Complete_Notification_GUTI_Reallocation__No_UE_Backup.LWG
p79
aVtc_286_118_pdn_disconnect_finished_pdn_connectivity_with_same_pti.LWG
p80
aVtc_92_09_20_autoupdate.LWG
p81
aVtc_209_71_intercept_same_id_wrong_id_type.LWG
p82
aVtc_199_120_s11_path_management_small_restarted.LWG
p83
aVtc_225_103_csfb_stand_alone_ue_context_release_active_mode.LWG
p84
aVtc_269_001_s1_reset_emm_registered.L14b
p85
aVtc_225_103_csfb_stand_alone_ue_context_release_active_mode.L14b
p86
aVtc_262_1031_emergency_imsi_attach_multiple_pgw_try_next_pgw_fqdn_error.L14b
p87
aVtc_276_284_Inter_TAU_New_MME__Delete_Bearer_Request_change_to_non_3gpp_while_waiting_for_failing_Modify_Bearer_Response.L14b
p88
aVtc_286_118_pdn_disconnect_finished_pdn_connectivity_with_same_pti.L14b
p89
aVtc_274_261_Intra_and_pTAU__Path_Switch_Request_with_old_TA_while_waiting_for_TAU_Request_after_HO.L14b
p90
aVtc_310_335_ef_dbr_non_voice_bearer_wf_forward_relocation_complete_and_forward_relocation_complete_ack.L14b
p91
aVtc_341_682_x2_activity_event_handover_inter_s1_new.L14b
p92
aVtc_244_045_mt_lr_detach_request_received_wf_location_report.L14b
p93
aVtc_219_131_s3_handover_w_to_l_with_cl_two_pdns_one_failed_sgw_relocation.LW
p94
aVtc_12_512_pmm_undefined_attach_when_updating_location_interfered_by_rnc_reset.LW
p95
aVtc_103_701_MME_restarts.LW
p96
aVtc_341_682_x2_activity_event_handover_inter_s1_new.LW
p97
aVtc_225_103_csfb_stand_alone_ue_context_release_active_mode.LW
p98
aVtc_358_046_lte_iterator_EF_Attach_Request_wf_delete_session_response.LW
p99
aVtc_310_335_ef_dbr_non_voice_bearer_wf_forward_relocation_complete_and_forward_relocation_complete_ack.LW
p100
aVtc_274_004_Intra_and_pTAU__Attach_Request_while_waiting_for_Authentication_Response.LW
p101
aVtc_326_835_Intra_TAU_Recovery_after_Node_Restart_SGW_Unchange_active_flag_on_no_modify_bearer_response_two_pdn.LW
p102
aVtc_23_09_transfer_to_primary_and_change_vip_addr.LW
p103
aVtc_238_177_mme_eps_irat_Gn_ho_target__type_d_emc_cancel_using_IMEISV.LW
p104
aVtc_286_118_pdn_disconnect_finished_pdn_connectivity_with_same_pti.LW
p105
aVtc_194_505_Notification_during_Intra_TAU_without_SGW_Relocation_HSS_Reset_Before_TAU.L14b
p106
aVtc_310_335_ef_dbr_non_voice_bearer_wf_forward_relocation_complete_and_forward_relocation_complete_ack.L14b
p107
aVtc_286_118_pdn_disconnect_finished_pdn_connectivity_with_same_pti.L14b
p108
aVtc_204_1309_mme_eps_ho__ho_required_intra_same_sgw_wf_authentication_information_answer_security_failure_during_tau.L14b
p109
aVtc_225_103_csfb_stand_alone_ue_context_release_active_mode.L14b
p110
aVtc_327_316_recovery_service_request__initial_Attach_Request_while_waiting_for_Sub_Procedure__Create_Session_Response_Old_Sgw_Unavailable.L14b
p111
aVtc_341_682_x2_activity_event_handover_inter_s1_new.L14b
p112
aVtc_243_712_tau_from_sgsn_s3_ue_already_registered_in_mme.L14b
p113
aVtc_244_051_mt_lr_delete_bearer_request_received_wf_location_report.LWG
p114
aVtc_310_335_ef_dbr_non_voice_bearer_wf_forward_relocation_complete_and_forward_relocation_complete_ack.LWG
p115
aVtc_275_006_tau_inter_new_integrity_algorithm_mismatch.LWG
p116
aVtc_205_71_08_SCTP_OctetsChunksSent.LWG
p117
aVtc_31_086_concurrent_msd.LWG
p118
aVtc_183_008_itc_sctp_encrypted.LWG
p119
aVtc_236_307_Activation_DtSelMode_5_APN_requested_wrong_SGSN_default_APN_in_APN_list_TAC_in_TAC_list.LWG
p120
aVtc_298_424_ms_init_deact_ef_delicated_non_gbr_bearer_deact_interfered_by_rab_release_request.LWG
p121
aVtc_286_118_pdn_disconnect_finished_pdn_connectivity_with_same_pti.LWG
p122
aVtc_220_403_csfb_to_1xrtt_in_ecm_connected_path_switch_request_HO_success.LWG
p123
aVtc_341_682_x2_activity_event_handover_inter_s1_new.LWG
p124
aVtc_23_09_transfer_to_primary_and_change_vip_addr.LWG
p125
aVtc_59_9_mtmsi_restart_counter.LWG
p126
aVtc_251_62_l_to_w_to_l_with_cl_type_updateProcedure.LWG
p127
aVtc_24_164_msc_pool_attach_combined_no_response_from_msc_select_second_msc_reject.LWG
p128
aVtc_340_14_validation_move_w_filter_all_apn_with_two_pdns.LWG
p129
aVtc_316_242_MME_Pool_Seamless_Move_No_Forward_Relocation_Complete_Notification_GUTI_Reallocation__No_UE_Backup.LWG
p130
aVtc_208_43_interception_after_small_restart.LWG
p131
aVtc_225_103_csfb_stand_alone_ue_context_release_active_mode.LWG
p132
aVtc_56_21_sending_recognized_information_in_log.LWG
p133
aVtc_203_118_S1_Based_HO_Source_MME_UE_Context_Release_Request_while_waiting_for_Forward_Relocation_Complete_Notification.LWG
p134
aVtc_179_318_Ccheck_TraceCollectionIpv6server.LWG
p135
aVtc_208_43_interception_after_small_restart.G14b
p136
aVtc_297_407_move_at_periodic_rau.G14b
p137
aVtc_322_161_smooth_move_ef_nas_after_paging_response_ignore.W14b
p138
aVtc_59_9_mtmsi_restart_counter.LWG
p139
aVtc_25_50_activate_bss_change_to_0kbps.LWG
p140
aVtc_341_682_x2_activity_event_handover_inter_s1_new.LWG
p141
aVtc_23_09_transfer_to_primary_and_change_vip_addr.LWG
p142
aVtc_179_318_Ccheck_TraceCollectionIpv6server.LWG
p143
aVtc_262_084_emergency_imsi_attach_unauthentication_fails_in_hss.LWG
p144
aVtc_251_62_l_to_w_to_l_with_cl_type_updateProcedure.LWG
p145
aVtc_286_118_pdn_disconnect_finished_pdn_connectivity_with_same_pti.LWG
p146
aVtc_291_40_action_ue_trace.LWG
p147
aVtc_267_204_Service_Request__Cancel_Location_Subscription_Withdrawal_while_waiting_for_Initial_Context_Setup_Response.LWG
p148
aVtc_183_008_itc_sctp_encrypted.LWG
p149
aVtc_73_40_gtpu_sgsn_send_gpu_echo_request_w.LWG
p150
aVtc_324_137_af_service_request_data_only_utran_not_allowed_3gdt.LWG
p151
aVtc_324_327_ef_service_req_data_direct_transfer_ingore.LWG
p152
aVtc_310_335_ef_dbr_non_voice_bearer_wf_forward_relocation_complete_and_forward_relocation_complete_ack.LWG
p153
aVtc_357_319_gsm_local_user_reject_intra_ps_handover_non_ip_area_to_ip_area.LWG
p154
aVtc_327_037_recovery_intra_TAU_active_off_sgw_unchanged__RAR_wf_CSR_due_to_S11_linkdown.LWG
p155
aVtc_225_103_csfb_stand_alone_ue_context_release_active_mode.LWG
p156
aVtc_346_494_Small_Local_Restart__Terminate_when_UE1_PDN_Connectivity_waiting_for_CCAI_UE2_Location_Report_waiting_for_CCAU.L14b
p157
aVtc_341_682_x2_activity_event_handover_inter_s1_new.L14b
p158
aVtc_195_020_send_failure_indication.L14b
p159
aVtc_310_335_ef_dbr_non_voice_bearer_wf_forward_relocation_complete_and_forward_relocation_complete_ack.L14b
p160
aVtc_327_118_recovery_intra_TAU__Delete_Subscriber_Data_while_waiting_for_Update_Location_Answer.L14b
p161
aVtc_578_52_check_uetracer_parser.L14b
p162
aVtc_286_118_pdn_disconnect_finished_pdn_connectivity_with_same_pti.L14b
p163
aVtc_263_522_ReAttach_Flow_mt_cs_call_while_waiting_for_attach_complete.L14b
p164
aVtc_316_242_MME_Pool_Seamless_Move_No_Forward_Relocation_Complete_Notification_GUTI_Reallocation__No_UE_Backup.L14b
p165
aVtc_266_026_DownlinkDataFailureInd_repeat_paging_timer_small_local_restart.L14b
p166
aVtc_225_103_csfb_stand_alone_ue_context_release_active_mode.L14b
p167
aVtc_326_217_Intra_TAU_Recovery_with_active_flag_two_PDN_partial_fail.LW
p168
aVtc_310_335_ef_dbr_non_voice_bearer_wf_forward_relocation_complete_and_forward_relocation_complete_ack.LW
p169
aVtc_236_210_W_to_W_Inter_RAU_S4_over_Gn_target_DtSelMode_2_APN_not_in_APN_list_TAC_in_TAC_list.LW
p170
aVtc_23_09_transfer_to_primary_and_change_vip_addr.LW
p171
aVtc_286_118_pdn_disconnect_finished_pdn_connectivity_with_same_pti.LW
p172
aVtc_341_682_x2_activity_event_handover_inter_s1_new.LW
p173
aVtc_265_145_Detach_Flow_NW_init__Reattach_Not_Required_Detach_Request_poweroff_Initial_UE_while_waiting_for_Detach_Accept.LW
p174
aVtc_225_103_csfb_stand_alone_ue_context_release_active_mode.LW
p175
aVtc_322_161_smooth_move_ef_nas_after_paging_response_ignore.WG14a
p176
aVtc_213_062_nrspca_ms_activate_sec_request_ril3_decode_error.G14b
p177
aVtc_23_09_transfer_to_primary_and_change_vip_addr.LW
p178
aVtc_275_073_tau_inter_new_no_update_location_response_sgsn00040258.LW
p179
aVtc_39_022_moving_mss_to_different_targets.LW
p180
aVtc_310_335_ef_dbr_non_voice_bearer_wf_forward_relocation_complete_and_forward_relocation_complete_ack.LW
p181
aVtc_286_118_pdn_disconnect_finished_pdn_connectivity_with_same_pti.LW
p182
aVtc_316_242_MME_Pool_Seamless_Move_No_Forward_Relocation_Complete_Notification_GUTI_Reallocation__No_UE_Backup.LW
p183
aVtc_225_103_csfb_stand_alone_ue_context_release_active_mode.LW
p184
aVtc_311_204_intra_srns_reloc_s4_sgw_change_wf_reloc_req_ack_interrupted_by_cancel_loc_subscrip_withdrawn.WG14a
p185
aVtc_26_063_israu_mbr_set_to_zero_background.W14b
p186
aVtc_241_201_s4_sgsn_pool_ms_move_target_sgsn_mf.W14b
p187
aVtc_44_850_mme_assoc_reestablish__board_restart_s1_mme.L14b
p188
aVtc_266_026_DownlinkDataFailureInd_repeat_paging_timer_small_local_restart.L14b
p189
aVtc_194_100_check_gauge_unstable_not_parked.L14b
p190
aVtc_267_536_DDN_SGW_unavailable__Context_Request_while_wf_Create_Session_Request.L14b
p191
aVtc_286_118_pdn_disconnect_finished_pdn_connectivity_with_same_pti.L14b
p192
aVtc_225_103_csfb_stand_alone_ue_context_release_active_mode.L14b
p193
aVtc_310_335_ef_dbr_non_voice_bearer_wf_forward_relocation_complete_and_forward_relocation_complete_ack.L14b
p194
aVtc_256_061_mme_eps_srvcc_ho_source_to_geran_cs_only_mf_after_attach_without_dtm.L14b
p195
aVtc_304_200_inter_tau_reject__control_mode_threshold_exceeded.L14b
p196
aVtc_295_124_tau_after_ho_tz_change_emm_information_meanwhile_handover_required_HO_success.L14b
p197
aVtc_183_008_itc_sctp_encrypted.LWG
p198
aVtc_289_102_multi_pdns_pgw_init_bearer_mod_ecm_active_interrupted_by_dbr_with_lbi.LWG
p199
aVtc_23_09_transfer_to_primary_and_change_vip_addr.LWG
p200
aVtc_310_335_ef_dbr_non_voice_bearer_wf_forward_relocation_complete_and_forward_relocation_complete_ack.LWG
p201
aVtc_178_910_modify_sctp_hb.LWG
p202
aVtc_275_932_tau_inter_new_volte_bearer_gauge_new_sgw_create_session_response_with_new_qci.LWG
p203
aVtc_205_71_08_SCTP_OctetsChunksSent.LWG
p204
aVtc_334_290_service_req_relocation_multi_3gdt_ef_iu_release_when_wf_rab_assignment_response.LWG
p205
aVtc_251_62_l_to_w_to_l_with_cl_type_updateProcedure.LWG
p206
aVtc_179_318_Ccheck_TraceCollectionIpv6server.LWG
p207
aVtc_304_315_PDN_connectivity__control_mode_threshold_exceeded_action_detach_while_same_pdn_connectivity_ongoing_wf_nas_default_bearer_activation_accept.LWG
p208
aVtc_214_1126_la_selection_mf_oldlapreferred_combined_intra_tau_after_imsi_detach_triggered_by_sgs_paging.LWG
p209
aVtc_225_103_csfb_stand_alone_ue_context_release_active_mode.LWG
p210
aVtc_286_118_pdn_disconnect_finished_pdn_connectivity_with_same_pti.LWG
p211
aVtc_56_21_sending_recognized_information_in_log.LWG
p212
aVtc_225_103_csfb_stand_alone_ue_context_release_active_mode.L14b
p213
aVtc_304_236_isc_active_flag_on_control_mode_threshold_exceeded_ignore_replace_s1_wf_initial_context_setup_response.L14b
p214
aVtc_284_502_mme_pdn_connection_apnredirectformultipleapn_sgsndefaultorlowest_no_default_apn_misspelled_apn.L14b
p215
aVtc_316_242_MME_Pool_Seamless_Move_No_Forward_Relocation_Complete_Notification_GUTI_Reallocation__No_UE_Backup.L14b
p216
aVtc_286_118_pdn_disconnect_finished_pdn_connectivity_with_same_pti.L14b
p217
aVtc_310_335_ef_dbr_non_voice_bearer_wf_forward_relocation_complete_and_forward_relocation_complete_ack.L14b
p218
aVtc_194_506_Notification_during_Intra_MME_TAU_without_SGW_Relocation_Procedure.L14b
p219
aVtc_298_424_ms_init_deact_ef_delicated_non_gbr_bearer_deact_interfered_by_rab_release_request.LW
p220
aVtc_286_118_pdn_disconnect_finished_pdn_connectivity_with_same_pti.LW
p221
aVtc_225_103_csfb_stand_alone_ue_context_release_active_mode.LW
p222
aVtc_289_023_Modify_bearer__ERAB_modify_response_x2_handover_triggered_two_pdn_HO_all_sessions_fail.LW
p223
aVtc_256_175_mme_eps_srvcc_ho_source_cs_only_ue_release_request_wf_srvcc_ps_to_cs_response.LW
p224
aVtc_248_78_af_inter_l_to_w_new_handover_visitor_s4sgsn_selects_gp_with_rau_request_time_out.LW
p225
aVtc_578_32_check_ebm_para_statistics_ue_return_duration.LW
p226
aVtc_326_246_Intra_TAU_Recovery_fail_Modify_Bearer_fail_active_flag_SGW_Change.LW
p227
aVtc_310_335_ef_dbr_non_voice_bearer_wf_forward_relocation_complete_and_forward_relocation_complete_ack.LW
p228
aVtc_23_09_transfer_to_primary_and_change_vip_addr.LW
p229
aVtc_11_322_serv_req_data_uplink_data_status_two_serv_req.LW
p230
aVtc_284_350_pdn_connectivity_interrupted_by_path_switch_request.LW
p231
aVtc_103_705_delete_peer_send_DPR_timeout_on_DPA.LW
p232
aVtc_342_146_update_one_of_two_targets_x2_x3_address_ccoutput.LWG
p233
aVtc_183_008_itc_sctp_encrypted.LWG
p234
aVtc_202_362_mf_seamless_move_by_ue_5_subscribers_2_target_mmes.LWG
p235
aVtc_289_017_Modify_bearer__ERAB_modify_request_meanwhile_path_switch_request_HO_success.LWG
p236
aVtc_251_62_l_to_w_to_l_with_cl_type_updateProcedure.LWG
p237
aVtc_56_21_sending_recognized_information_in_log.LWG
p238
aVtc_304_006_attach_reject__control_mode_stop_discarding_when_control_period_ends.LWG
p239
aVtc_316_298_GUTI_Attach_Known_Large_Restart_Broadcast_Force_Delete_Among_Pool.LWG
p240
aVtc_52_12_inter_old_relocation_cancel_no_response.LWG
p241
aVtc_77_5_attach_activate2_g_crash.LWG
p242
aVtc_225_103_csfb_stand_alone_ue_context_release_active_mode.LWG
p243
aVtc_209_70_israu_new_sgsn_one_pdp_context_wrong_pdp_type.LWG
p244
aVtc_286_118_pdn_disconnect_finished_pdn_connectivity_with_same_pti.LWG
p245
aVtc_340_124_oms_consistence_check_for_action_pool_move_validation_start.LWG
p246
aVtc_23_09_transfer_to_primary_and_change_vip_addr.LWG
p247
aVtc_250_105_ignore_IDR_when_EPS_sub_downgrade_GPRS_sub.LWG
p248
aVtc_92_09_10_autoupdate.LWG
p249
aVtc_327_173_recovery_intra_TAU_SGSN_Context_Request_while_waiting_for_Initial_Context_Setup_Response.LWG
p250
aVtc_327_037_recovery_intra_TAU_active_off_sgw_unchanged__RAR_wf_CSR_due_to_S11_linkdown.LWG
p251
aVtc_310_335_ef_dbr_non_voice_bearer_wf_forward_relocation_complete_and_forward_relocation_complete_ack.LWG
p252
aVtc_59_9_mtmsi_restart_counter.LWG
p253
aVtc_220_593_csfb_to_1xrtt_context_request_during_extended_service_request.LWG
p254
aVtc_239_620_inter_rau_new_with_bearer_sgw_not_change_isd_odb_bit0_wf_rau_compl_deactivation.G14b
p255
aVtc_208_43_interception_after_small_restart.G14b
p256
aVtc_239_620_inter_rau_new_with_bearer_sgw_not_change_isd_odb_bit0_wf_rau_compl_deactivation.G14b
p257
aVtc_208_43_interception_after_small_restart.G14b
p258
aVtc_265_160_Detach_Flow_NW_init__Ue_moved_to_non_3gpp_while_imsi_detach.LW
p259
aVtc_310_335_ef_dbr_non_voice_bearer_wf_forward_relocation_complete_and_forward_relocation_complete_ack.LW
p260
aVtc_241_066_israu_new_gn_to_s4_pdp_to_bearer_two_pdp_one_arp_higher_than_policy_map.LW
p261
aVtc_225_103_csfb_stand_alone_ue_context_release_active_mode.LW
p262
aVtc_199_102_seq_no_overflow_release_access_bearers_request.LW
p263
aVtc_286_118_pdn_disconnect_finished_pdn_connectivity_with_same_pti.LW
p264
aVtc_44_004_small_restart__sctp_fe_restart.LW
p265
aVtc_202_431_mf_seamless_move_target_service_request_modifyBearerReq_onePdnMultiBearer_oneBearerFail.LW
p266
aVtc_244_044_mt_lr_intra_handover_required_received_wf_location_report.LW
p267
aVtc_23_13_israu_out.LW
p268
aVtc_23_09_transfer_to_primary_and_change_vip_addr.LW
p269
aVtc_225_103_csfb_stand_alone_ue_context_release_active_mode.LWG
p270
aVtc_346_576_AF__HO_X2_2PDN_CSR_failure_for_1PDN_terminate_sx.LWG
p271
aVtc_272_011_adaptive_paging_dl_selectbyqci_qos99.LWG
p272
aVtc_250_105_ignore_IDR_when_EPS_sub_downgrade_GPRS_sub.LWG
p273
aVtc_215_001_ipv6_InReceives.LWG
p274
aVtc_23_09_transfer_to_primary_and_change_vip_addr.LWG
p275
aVtc_92_02_30_meas_type.LWG
p276
aVtc_92_09_10_autoupdate.LWG
p277
aVtc_183_008_itc_sctp_encrypted.LWG
p278
aVtc_236_169_s4_3gdt_with_2_pdn_9_dedicated_bearer_service_request_all_rab_setup_successful.LWG
p279
aVtc_56_21_sending_recognized_information_in_log.LWG
p280
aVtc_251_62_l_to_w_to_l_with_cl_type_updateProcedure.LWG
p281
aVtc_141_002_eth_deconf_conf_vlan_many.LWG
p282
aVtc_208_43_interception_after_small_restart.LWG
p283
aVtc_286_118_pdn_disconnect_finished_pdn_connectivity_with_same_pti.LWG
p284
aVtc_297_407_move_at_periodic_rau.LWG
p285
aVtc_220_403_csfb_to_1xrtt_in_ecm_connected_path_switch_request_HO_success.LWG
p286
aVtc_310_335_ef_dbr_non_voice_bearer_wf_forward_relocation_complete_and_forward_relocation_complete_ack.LWG
p287
aVtc_286_118_pdn_disconnect_finished_pdn_connectivity_with_same_pti.L14b
p288
aVtc_225_103_csfb_stand_alone_ue_context_release_active_mode.L14b
p289
aVtc_243_712_tau_from_sgsn_s3_ue_already_registered_in_mme.L14b
p290
aVtc_310_335_ef_dbr_non_voice_bearer_wf_forward_relocation_complete_and_forward_relocation_complete_ack.L14b
p291
aVtc_103_830_preserve_proxy_info_order.L14b
p292
aVtc_103_1000_modify_diameter_peer_prio.L14b
p293
aVtc_316_204_UE_Without_UICC_IMEI_Attach_Emergency__No_UE_Backup.L14b
p294
aVtc_239_620_inter_rau_new_with_bearer_sgw_not_change_isd_odb_bit0_wf_rau_compl_deactivation.WG14a
p295
aVtc_250_51_standalone_cancel_location_initial_attach_not_combined_node.W14b
p296
aVtc_39_626_mas_no_paging_resp_resend_once_target.W14b
p297
aVtc_225_103_csfb_stand_alone_ue_context_release_active_mode.LW
p298
aVtc_236_274_IRAT_PSHO_LtoW_target_DtSelMode_5_RAB_modify_fail_after_HO_switch_back_procedure.LW
p299
aVtc_286_118_pdn_disconnect_finished_pdn_connectivity_with_same_pti.LW
p300
aVtc_310_335_ef_dbr_non_voice_bearer_wf_forward_relocation_complete_and_forward_relocation_complete_ack.LW
p301
aVtc_275_073_tau_inter_new_no_update_location_response_sgsn00040258.LW
p302
aVtc_316_242_MME_Pool_Seamless_Move_No_Forward_Relocation_Complete_Notification_GUTI_Reallocation__No_UE_Backup.LW
p303
aVtc_12_512_pmm_undefined_attach_when_updating_location_interfered_by_rnc_reset.W14b
p304
aVtc_23_09_transfer_to_primary_and_change_vip_addr.LWG
p305
aVtc_39_601_mas_unsucc_fwd_reloc_resp_mandatory_ie_missing_stop_source.LWG
p306
aVtc_12_83_service_request_pmmidle_data.LWG
p307
aVtc_12_134_attach_with_extended_mmumoc_iu_inactivity_timer.LWG
p308
aVtc_284_350_pdn_connectivity_interrupted_by_path_switch_request.LWG
p309
aVtc_251_62_l_to_w_to_l_with_cl_type_updateProcedure.LWG
p310
aVtc_96_064_intra_sgsn_intra_ra_psho_interfered_by_delete_pdp_then_received_error_indi_from_ggsn.LWG
p311
aVtc_298_727_service_request_wf_rab_assignment_response_ef_dbr_ef_cancel_location.LWG
p312
aVtc_298_691_S4_3GDT_Service_request_wait_Rab_Assignment_ef_delete_bearer_request.LWG
p313
aVtc_103_701_MME_restarts.LWG
p314
aVtc_179_318_Ccheck_TraceCollectionIpv6server.LWG
p315
aVtc_289_017_Modify_bearer__ERAB_modify_request_meanwhile_path_switch_request_HO_success.LWG
p316
aVtc_183_008_itc_sctp_encrypted.LWG
p317
aVtc_225_103_csfb_stand_alone_ue_context_release_active_mode.LWG
p318
aVtc_286_118_pdn_disconnect_finished_pdn_connectivity_with_same_pti.LWG
p319
aVtc_310_335_ef_dbr_non_voice_bearer_wf_forward_relocation_complete_and_forward_relocation_complete_ack.LWG
p320
aVtc_73_07_itc_encrypted_gtpu_s4_payload_w.WG14a
p321
aVtc_286_118_pdn_disconnect_finished_pdn_connectivity_with_same_pti.L14b
p322
aVtc_358_046_lte_iterator_EF_Attach_Request_wf_delete_session_response.L14b
p323
aVtc_43_101__removal_of_disconnected_eNodeBs__CLI_removal.L14b
p324
aVtc_310_335_ef_dbr_non_voice_bearer_wf_forward_relocation_complete_and_forward_relocation_complete_ack.L14b
p325
aVtc_225_103_csfb_stand_alone_ue_context_release_active_mode.L14b
p326
aVtc_578_32_check_ebm_para_statistics_ue_return_duration.L14b
p327
aVtc_31_064_activate_loc_not_confirmed_ul_fails_network_failure.W14b
p328
aVtc_59_9_mtmsi_restart_counter.LWG
p329
aVtc_327_333_recovery_service_request__initial_Detach_Request_while_waiting_for_Sub_Procedure__Modify_Bearer_Response.LWG
p330
aVtc_25_35_israu_qos_neg_preserved.LWG
p331
aVtc_347_056_Intra_HO_S1__Location_Report_from_target_BCM_SxGx_while_waiting_for_Modify_Bearer_Response.LWG
p332
aVtc_347_320_HSS_init_Bearer_Modification__Location_Report_while_waiting_update_Bearer_request.LWG
p333
aVtc_259_93_ef_provide_subscriber_information_service_request_w.LWG
p334
aVtc_183_008_itc_sctp_encrypted.LWG
p335
aVtc_73_41_gtpu_sgsn_dont_send_gpu_echo_request_w.LWG
p336
aVtc_263_252_Attach_Flow__Attach_Request_with_diff_IE_while_waiting_for_identity_response__enhanced_imei_check.LWG
p337
aVtc_286_118_pdn_disconnect_finished_pdn_connectivity_with_same_pti.LWG
p338
aVtc_310_335_ef_dbr_non_voice_bearer_wf_forward_relocation_complete_and_forward_relocation_complete_ack.LWG
p339
aVtc_225_103_csfb_stand_alone_ue_context_release_active_mode.LWG
p340
aVtc_320_044_create_bss_pfc_nack.LWG
p341
aVtc_238_211_mme_eps_irat_ho_target__SGW_unavailable.LWG
p342
aVtc_23_09_transfer_to_primary_and_change_vip_addr.LWG
p343
aVtc_231_281_activate_pdp_request_ignore_during_s4_pdp_deactivating.LWG
p344
aVtc_141_003_eth_traffic_vlan.LWG
p345
aVtc_251_62_l_to_w_to_l_with_cl_type_updateProcedure.LWG
p346
aVtc_214_802_mo_sms_active_nas_non_delivery_s1_inter_system_handover_triggered_HO_undetected_retry_counter_exceed.LWG
p347
aVtc_206_010_attach_while_only_streaming.LWG
p348
aVtc_23_09_transfer_to_primary_and_change_vip_addr.LW
p349
aVtc_256_179_mme_eps_srvcc_ho_source_cs_only_ue_release_request_s1_expired_wf_srvcc_ps_to_cs_complete_notification.LW
p350
aVtc_324_327_ef_service_req_data_direct_transfer_ingore.LW
p351
aVtc_347_140_Seamless_Move_Target__RAR_while_waiting_for_modify_bearer_response_and_update_location_answer.LW
p352
aVtc_286_118_pdn_disconnect_finished_pdn_connectivity_with_same_pti.LW
p353
aVtc_225_103_csfb_stand_alone_ue_context_release_active_mode.LW
p354
aVtc_260_271_receive_sm_start_req_while_wf_setup_iteration.LW
p355
aVtc_260_272_receive_sm_stop_req_while_wf_setup_iteration.LW
p356
aVtc_220_403_csfb_to_1xrtt_in_ecm_connected_path_switch_request_HO_success.LW
p357
aVtc_310_335_ef_dbr_non_voice_bearer_wf_forward_relocation_complete_and_forward_relocation_complete_ack.LW
p358
aVtc_578_52_check_uetracer_parser.LW
p359
aVtc_289_031_Modify_bearer__Downlink_nas_transport_meanwhile_path_switch_request_HO_success.LW
p360
aVtc_208_43_interception_after_small_restart.G14b
p361
aVtc_275_711_tau_inter_without_SGW_Change_receive_TZCR_flag_set_in_context_response_SN_change.L14b
p362
aVtc_310_335_ef_dbr_non_voice_bearer_wf_forward_relocation_complete_and_forward_relocation_complete_ack.L14b
p363
aVtc_318_266_sgw_restart_af_relocation_triggered_by_DDN_modify_bearer_request_failure.L14b
p364
aVtc_103_701_MME_restarts.L14b
p365
aVtc_103_705_delete_peer_send_DPR_timeout_on_DPA.L14b
p366
aVtc_326_209_Intra_TAU_Recovery_node_restart_combined_type.L14b
p367
aVtc_225_103_csfb_stand_alone_ue_context_release_active_mode.L14b
p368
aVtc_243_712_tau_from_sgsn_s3_ue_already_registered_in_mme.L14b
p369
aVtc_286_118_pdn_disconnect_finished_pdn_connectivity_with_same_pti.L14b
p370
aVtc_297_407_move_at_periodic_rau.G14b
p371
aVtc_324_362_ef_cancel_location_with_subscriptionWithdraw_wf_paging_response.LW
p372
aVtc_290_019_Timer_Based_GBR_Deact__s1_reset_wf_release_access_bearer_response_before_timer_expires.LW
p373
aVtc_194_100_check_gauge_unstable_not_parked.LW
p374
aVtc_286_118_pdn_disconnect_finished_pdn_connectivity_with_same_pti.LW
p375
aVtc_103_701_MME_restarts.LW
p376
aVtc_310_335_ef_dbr_non_voice_bearer_wf_forward_relocation_complete_and_forward_relocation_complete_ack.LW
p377
aVtc_578_32_check_ebm_para_statistics_ue_return_duration.LW
p378
aVtc_316_242_MME_Pool_Seamless_Move_No_Forward_Relocation_Complete_Notification_GUTI_Reallocation__No_UE_Backup.LW
p379
aVtc_225_103_csfb_stand_alone_ue_context_release_active_mode.LW
p380
aVtc_285_003_PDN_Connectivity_Pb__Detach_request_while_wf_ERAB_setup_response.LW
p381
aVtc_194_505_Notification_during_Intra_TAU_without_SGW_Relocation_HSS_Reset_Before_TAU.LWG
p382
aVtc_273_406_tau_intra_dedicated_bearers_active_flag_modify_bearer_partially_accepted_default_bearer_cc94.LWG
p383
aVtc_183_008_itc_sctp_encrypted.LWG
p384
aVtc_225_103_csfb_stand_alone_ue_context_release_active_mode.LWG
p385
aVtc_236_307_Activation_DtSelMode_5_APN_requested_wrong_SGSN_default_APN_in_APN_list_TAC_in_TAC_list.LWG
p386
aVtc_237_026_mme_eps_irat_ho_source__sgsn_context_request_before_all_bearers_deleted.LWG
p387
aVtc_327_037_recovery_intra_TAU_active_off_sgw_unchanged__RAR_wf_CSR_due_to_S11_linkdown.LWG
p388
aVtc_238_427_mme_eps_irat_ho_target__cs_paging_wf_forward_relocation_complete_acknowledge.LWG
p389
aVtc_59_9_mtmsi_restart_counter.LWG
p390
aVtc_286_118_pdn_disconnect_finished_pdn_connectivity_with_same_pti.LWG
p391
aVtc_298_832_NRSPCA_S4_nsapi_collision_after_RAU_one_pdn_failed.LWG
p392
aVtc_23_09_transfer_to_primary_and_change_vip_addr.LWG
p393
aVtc_316_242_MME_Pool_Seamless_Move_No_Forward_Relocation_Complete_Notification_GUTI_Reallocation__No_UE_Backup.LWG
p394
aVtc_208_43_interception_after_small_restart.LWG
p395
aVtc_103_701_MME_restarts.LWG
p396
aVtc_73_41_gtpu_sgsn_dont_send_gpu_echo_request_w.LWG
p397
aVtc_251_62_l_to_w_to_l_with_cl_type_updateProcedure.LWG
p398
aVtc_310_335_ef_dbr_non_voice_bearer_wf_forward_relocation_complete_and_forward_relocation_complete_ack.LWG
p399
aVtc_310_335_ef_dbr_non_voice_bearer_wf_forward_relocation_complete_and_forward_relocation_complete_ack.L14b
p400
aVtc_304_236_isc_active_flag_on_control_mode_threshold_exceeded_ignore_replace_s1_wf_initial_context_setup_response.L14b
p401
aVtc_286_118_pdn_disconnect_finished_pdn_connectivity_with_same_pti.L14b
p402
aVtc_225_103_csfb_stand_alone_ue_context_release_active_mode.L14b
p403
aVtc_236_048_s4_3gdt_deactivation_during_waiting_for_modify_bearer_rsp_in_activation_procedure_no_context.W14b
p404
aVtc_236_117_s4_3gdt_based_on_sr_dt_to_non_dt_gtpu_data_received_not_all_rabs_reestablished.W14b
p405
aVtc_322_161_smooth_move_ef_nas_after_paging_response_ignore.WG14a
p406
aVtc_298_723_service_request_ef_ms_deact_ti_default_wf_rab_assignment_response.W14b
p407
aVtc_38_511_israu_old_sgsn_israu_new_sgsn_one_pdp_context_update_failed.W14b
p408
aVtc_307_010_HSS_Init_QoS_Modification__UEAMBR_Changed_When_2PDN_CONNECTED.LW
p409
aVtc_236_311_HO_over_S3_3GDT_switchback_ef_delete_bearer_request_received_wf_rab_assignment_response.LW
p410
aVtc_286_118_pdn_disconnect_finished_pdn_connectivity_with_same_pti.LW
p411
aVtc_214_1126_la_selection_mf_oldlapreferred_combined_intra_tau_after_imsi_detach_triggered_by_sgs_paging.LW
p412
aVtc_346_1000_seamless_move_target_estabilish_sx_session.LW
p413
aVtc_194_620_DSD_EF__Receive_DSDR_when_Waiting_for_Delete_Session_Response_during_Detach_Procedure.LW
p414
aVtc_298_440_ms_init_deact_ef_default_bearer_deact_with_rab_interfered_by_dedicate_bearer_deact_request.LW
p415
aVtc_310_335_ef_dbr_non_voice_bearer_wf_forward_relocation_complete_and_forward_relocation_complete_ack.LW
p416
aVtc_225_103_csfb_stand_alone_ue_context_release_active_mode.LW
p417
aVtc_286_118_pdn_disconnect_finished_pdn_connectivity_with_same_pti.L14b
p418
aVtc_225_103_csfb_stand_alone_ue_context_release_active_mode.L14b
p419
aVtc_327_012_recovery_intra_TAU__initial_Attach_Request_while_waiting_for_Ue_Backup_Response.L14b
p420
aVtc_44_550_s1ap_reset_reset_resource.L14b
p421
aVtc_310_335_ef_dbr_non_voice_bearer_wf_forward_relocation_complete_and_forward_relocation_complete_ack.L14b
p422
aVtc_266_026_DownlinkDataFailureInd_repeat_paging_timer_small_local_restart.L14b
p423
aVtc_225_103_csfb_stand_alone_ue_context_release_active_mode.LWG
p424
aVtc_310_335_ef_dbr_non_voice_bearer_wf_forward_relocation_complete_and_forward_relocation_complete_ack.LWG
p425
aVtc_23_09_transfer_to_primary_and_change_vip_addr.LWG
p426
aVtc_349_108_RAU_new_sgsn__RAU_Req_on_new_iu_while_waiting_for_CCA_initial_transfer.LWG
p427
aVtc_183_010_itc_snaplength.LWG
p428
aVtc_183_009_itc_sctp_trace.LWG
p429
aVtc_183_008_itc_sctp_encrypted.LWG
p430
aVtc_250_105_ignore_IDR_when_EPS_sub_downgrade_GPRS_sub.LWG
p431
aVtc_26_067_activate_background_2048kbps.LWG
p432
aVtc_286_118_pdn_disconnect_finished_pdn_connectivity_with_same_pti.LWG
p433
aVtc_268_105_ue_release__cs_paging_wf_release_access_bearer_resp.LWG
p434
aVtc_178_471_modify_ss7_sys_noss7.LWG
p435
aVtc_73_41_gtpu_sgsn_dont_send_gpu_echo_request_w.LWG
p436
aVtc_298_820_activate_secondary_pdp_context_request_with_NSAPI_exist_dedicate_bearer_idle_state.LWG
p437
aVtc_251_62_l_to_w_to_l_with_cl_type_updateProcedure.LWG
p438
aVtc_195_416_ue_trace_deactivate_trace_s1_intra_system_handover_triggered.LWG
p439
aVtc_281_028_Activate_bearer__ERAB_setup_response_x2_ho_triggered_HO_ongoing_when_hold_timeout.LWG
p440
aVtc_327_037_recovery_intra_TAU_active_off_sgw_unchanged__RAR_wf_CSR_due_to_S11_linkdown.LWG
p441
aVtc_347_227_Extended_Service_Request__RAR_while_waiting_for_UE_Context_Release_Request_csfb_to_1xrtt_in_ecm_idle.LW
p442
aVtc_26_057_ms_initiated_pdp_context_modification_ms_wants_conversational_2.LW
p443
aVtc_295_028_Intra_S1_HO__TAU_request_in_new_S1AP_from_source_while_wf_tau_request.LW
p444
aVtc_273_259_tau_intra__sgw_relocation_no_tau_complete.LW
p445
aVtc_310_335_ef_dbr_non_voice_bearer_wf_forward_relocation_complete_and_forward_relocation_complete_ack.LW
p446
aVtc_284_106_pdn_connectivity_modify_bearer_failure_no_context_from_sgw.LW
p447
aVtc_263_520_ReAttach_Flow_mt_cs_call_while_waiting_for_create_session_response.LW
p448
aVtc_225_103_csfb_stand_alone_ue_context_release_active_mode.LW
p449
aVtc_219_131_s3_handover_w_to_l_with_cl_two_pdns_one_failed_sgw_relocation.LW
p450
aVtc_326_681_tau_intra_SGW_unavailable_active_flag_off_after_MME_large_restart__two_pdn_one_timeout.LW
p451
aVtc_103_1102_fallback_to_imsins_success.LW
p452
aVtc_286_118_pdn_disconnect_finished_pdn_connectivity_with_same_pti.LW
p453
aVtc_304_020_intruder_imsi_attach_when_correct_ue_attaching__control_mode_threshold_exceeded_usc_reject_congestion.LW
p454
aVtc_23_09_transfer_to_primary_and_change_vip_addr.LW
p455
aVtc_578_52_check_uetracer_parser.LWG
p456
aVtc_92_09_10_autoupdate.LWG
p457
aVtc_316_242_MME_Pool_Seamless_Move_No_Forward_Relocation_Complete_Notification_GUTI_Reallocation__No_UE_Backup.LWG
p458
aVtc_73_41_gtpu_sgsn_dont_send_gpu_echo_request_w.LWG
p459
aVtc_73_40_gtpu_sgsn_send_gpu_echo_request_w.LWG
p460
aVtc_250_105_ignore_IDR_when_EPS_sub_downgrade_GPRS_sub.LWG
p461
aVtc_305_040_oms_mmi.LWG
p462
aVtc_310_335_ef_dbr_non_voice_bearer_wf_forward_relocation_complete_and_forward_relocation_complete_ack.LWG
p463
aVtc_44_004_small_restart__sctp_fe_restart.LWG
p464
aVtc_183_008_itc_sctp_encrypted.LWG
p465
aVtc_335_51_mobility_to_wifi_in_ecm_idle_mf_ue_deregistered_in_mme.LWG
p466
aVtc_251_62_l_to_w_to_l_with_cl_type_updateProcedure.LWG
p467
aVtc_362_100_rau_l_to_g_sgw_change_one_pdn_two_ubr_before_rau_complete.LWG
p468
aVtc_141_032_eth_v4_v6_traffic_vlan.LWG
p469
aVtc_346_467_AF__Service_Request_CCA_Update_with_Result_Code_5002.LWG
p470
aVtc_56_21_sending_recognized_information_in_log.LWG
p471
aVtc_286_118_pdn_disconnect_finished_pdn_connectivity_with_same_pti.LWG
p472
aVtc_225_103_csfb_stand_alone_ue_context_release_active_mode.LWG
p473
aVtc_23_09_transfer_to_primary_and_change_vip_addr.LWG
p474
aVtc_77_5_attach_activate2_g_crash.LWG
p475
aVtc_322_029_smooth_move_af_security_mode_reject.LWG
p476
aVtc_288_101_pgw_init_bearer_mod_one_bad_one_good_one_unknown_one_not_responding_bearer.LWG
p477
aVtc_225_103_csfb_stand_alone_ue_context_release_active_mode.L14b
p478
aVtc_286_118_pdn_disconnect_finished_pdn_connectivity_with_same_pti.L14b
p479
aVtc_310_335_ef_dbr_non_voice_bearer_wf_forward_relocation_complete_and_forward_relocation_complete_ack.L14b
p480
aVtc_322_038_smooth_move_af_no_cancel_location_request_from_hlr.WG14a
p481
aVtc_311_204_intra_srns_reloc_s4_sgw_change_wf_reloc_req_ack_interrupted_by_cancel_loc_subscrip_withdrawn.WG14a
p482
aVtc_183_008_itc_sctp_encrypted.LWG
p483
aVtc_286_118_pdn_disconnect_finished_pdn_connectivity_with_same_pti.LWG
p484
aVtc_310_335_ef_dbr_non_voice_bearer_wf_forward_relocation_complete_and_forward_relocation_complete_ack.LWG
p485
aVtc_274_140_Intra_and_pTAU__Imei_Check_Answer_Unknown_Equipment_while_waiting_for_TAU_Complete.LWG
p486
aVtc_266_153_DownlinkDataNotification_without_CSG_Id_list_to_HeNB_GW_when_CSG_feature_off.LWG
p487
aVtc_326_246_Intra_TAU_Recovery_fail_Modify_Bearer_fail_active_flag_SGW_Change.LWG
p488
aVtc_326_202_Intra_TAU_after_large_restart_after_combined_attach.LWG
p489
aVtc_251_62_l_to_w_to_l_with_cl_type_updateProcedure.LWG
p490
aVtc_56_21_sending_recognized_information_in_log.LWG
p491
aVtc_225_103_csfb_stand_alone_ue_context_release_active_mode.LWG
p492
aVtc_25_38_ggsn_modify_secondary_qos_nochange_download_bss_pfc_lower_abqp.LWG
p493
aVtc_179_318_Ccheck_TraceCollectionIpv6server.LWG
p494
aVtc_209_104_dual_stack_not_supported_ipv4.LWG
p495
aVtc_197_005_pgw_ipv6_only.LWG
p496
aVtc_194_107_tau_ul_fails_access_restriction.L14b
p497
aVtc_103_008_prioritized_peer_destination_realm_only_handled_by_peer.L14b
p498
aVtc_44_850_mme_assoc_reestablish__board_restart_s1_mme.L14b
p499
aVtc_286_118_pdn_disconnect_finished_pdn_connectivity_with_same_pti.L14b
p500
aVtc_266_101_service_request_no_tz_change.L14b
p501
aVtc_266_026_DownlinkDataFailureInd_repeat_paging_timer_small_local_restart.L14b
p502
aVtc_197_470_pdn_connectivity_table_not_matched_type_a_failed.L14b
p503
aVtc_225_103_csfb_stand_alone_ue_context_release_active_mode.L14b
p504
aVtc_306_1053_ef_seamless_move_target_receive_cancel_location_withdraw_wf_lur_and_icsr_with_emergency_pdn.L14b
p505
aVtc_316_242_MME_Pool_Seamless_Move_No_Forward_Relocation_Complete_Notification_GUTI_Reallocation__No_UE_Backup.L14b
p506
aVtc_310_335_ef_dbr_non_voice_bearer_wf_forward_relocation_complete_and_forward_relocation_complete_ack.L14b
p507
aVtc_346_493_Small_Local_Restart__Terminate_when_UE_S1_release.L14b
p508
aVtc_260_032_mbms_session_start_mf_two_mce_with_overlapping_sa.L14b
p509
aVtc_245_301_inter_rau_insert_entry_into_interface_cache.LW
p510
aVtc_225_103_csfb_stand_alone_ue_context_release_active_mode.LW
p511
aVtc_12_512_pmm_undefined_attach_when_updating_location_interfered_by_rnc_reset.LW
p512
aVtc_326_206_Intra_TAU_Recovery_with_old_GUTI.LW
p513
aVtc_310_335_ef_dbr_non_voice_bearer_wf_forward_relocation_complete_and_forward_relocation_complete_ack.LW
p514
aVtc_304_102_emergency_intra_tau_success__control_mode_threshold_exceeded.LW
p515
aVtc_23_09_transfer_to_primary_and_change_vip_addr.LW
p516
aVtc_28_006_mo_sms_no_cp_ack.LW
p517
aVtc_103_603_georedundant_modify_diameter_peer.LW
p518
aVtc_298_702_pgw_init_modification_ef_ms_deact_req_tdi_false_ti_default_wf_modify_accept.LW
p519
aVtc_286_118_pdn_disconnect_finished_pdn_connectivity_with_same_pti.LW
p520
aVtc_297_407_move_at_periodic_rau.G14b
p521
aVtc_298_610_sgsn_init_bearer_deact_ef_iu_release_wf_delete_req.LW
p522
aVtc_322_050_smooth_move_ebt_rau_after_move.LW
p523
aVtc_310_335_ef_dbr_non_voice_bearer_wf_forward_relocation_complete_and_forward_relocation_complete_ack.LW
p524
aVtc_225_103_csfb_stand_alone_ue_context_release_active_mode.LW
p525
aVtc_292_171_intra_handover_before_timer_expiration_of_x2_ho.LW
p526
aVtc_79_082_sgsn_init_modification_rnc_not_supporting_modify_cause19.LW
p527
aVtc_349_121_RAU_back_in_20s__sx_reestablish_camel_subscriber.LW
p528
aVtc_286_118_pdn_disconnect_finished_pdn_connectivity_with_same_pti.LW
p529
aVtc_81_013_israu_conversational_use_sub_ggsn_modifies_to_conv.LW
p530
aVtc_23_09_transfer_to_primary_and_change_vip_addr.LW
p531
aVtc_103_860_ue_trace_retransmit.LW
p532
aVtc_248_419_inter_l_to_w_new_two_pdns_with_target_gw_interface_gp_and_ipv6_user_plan_off.LW
p533
aVtc_260_271_receive_sm_start_req_while_wf_setup_iteration.LW
p534
aVtc_241_066_israu_new_gn_to_s4_pdp_to_bearer_two_pdp_one_arp_higher_than_policy_map.LW
p535
aVtc_286_118_pdn_disconnect_finished_pdn_connectivity_with_same_pti.L14b
p536
aVtc_295_170_Intra_S1_HO__PDN_connectivity_request_while_wf_delete_session.L14b
p537
aVtc_214_710_combined_tau_intra_eps_attach_interfering_mt_sms_paging_wf_tau_complete_then_ddn.L14b
p538
aVtc_103_860_ue_trace_retransmit.L14b
p539
aVtc_304_023_attach_detach_then_guti_attach_when_attaching__control_mode_threshold_exceeded_usc_reject_congestion.L14b
p540
aVtc_225_103_csfb_stand_alone_ue_context_release_active_mode.L14b
p541
aVts_346_630_pra_cn_predefined_tai_list__attach_out_of_pra1_pdn_in_pra2.L14b
p542
aVtc_316_242_MME_Pool_Seamless_Move_No_Forward_Relocation_Complete_Notification_GUTI_Reallocation__No_UE_Backup.L14b
p543
aVtc_256_068_mme_eps_srvcc_ho_source_to_geran_cs_only_mf_after_service_request_with_dtm.L14b
p544
aVtc_310_335_ef_dbr_non_voice_bearer_wf_forward_relocation_complete_and_forward_relocation_complete_ack.L14b
p545
aVtc_298_231_SIBD_S4_RAB_Reestablishment_failed.LWG
p546
aVtc_219_131_s3_handover_w_to_l_with_cl_two_pdns_one_failed_sgw_relocation.LWG
p547
aVtc_100_21_inter_w_to_g_old_mf_with_lawful_intercept.LWG
p548
aVtc_56_21_sending_recognized_information_in_log.LWG
p549
aVtc_183_008_itc_sctp_encrypted.LWG
p550
aVtc_202_443_af_seamless_move_target_la_selection_oldreselection.LWG
p551
aVtc_251_62_l_to_w_to_l_with_cl_type_updateProcedure.LWG
p552
aVtc_95_13_atm277_emergency.LWG
p553
aVtc_286_118_pdn_disconnect_finished_pdn_connectivity_with_same_pti.LWG
p554
aVtc_96_008_intra_sgsn_intra_ra_psho_main_flow_with_payload.LWG
p555
aVtc_321_092_mt_sms_error.LWG
p556
aVtc_347_281_PDN_Disconnect__RAR_while_waiting_Delete_Session_Response.LWG
p557
aVtc_327_172_recovery_intra_TAU_SGSN_Context_Request_while_waiting_for_Location_Update_Response.LWG
p558
aVtc_267_730_Service_Request__CS_paging_while_waiting_for_Modify_Bearer_Response.LWG
p559
aVtc_284_362_pdn_connectivity_handover_indication_no_override_other_apn.LWG
p560
aVtc_23_13_israu_out.LWG
p561
aVtc_23_09_transfer_to_primary_and_change_vip_addr.LWG
p562
aVtc_225_103_csfb_stand_alone_ue_context_release_active_mode.LWG
p563
aVtc_310_335_ef_dbr_non_voice_bearer_wf_forward_relocation_complete_and_forward_relocation_complete_ack.LWG
p564
aVtc_259_67_ef_provide_subscriber_information_attach_old_w.LWG
p565
aVtc_259_112_ef_s6d_tads_interfere_inter_rau_old_g.LWG
p566
aVtc_141_029_eth_v6_delete_nw.LWG
p567
aVtc_73_41_gtpu_sgsn_dont_send_gpu_echo_request_w.LWG
p568
aVtc_217_091_rau_to_sgsn_insert_subscriber_data_request_when_wf_sgsn_context_ack.LWG
p569
aVtc_248_419_inter_l_to_w_new_two_pdns_with_target_gw_interface_gp_and_ipv6_user_plan_off.W14b
p570
aVtc_241_711_inter_rau_dedicate_bearer_feature_off_and_pgw_delete_bearer_after_rau.W14b
p571
aVtc_322_029_smooth_move_af_security_mode_reject.WG14a
p572
aVtc_320_066_cp_error_from_ms.G14b
p573
aVtc_358_048_lte_iterator_EF_Erab_Release_Indication_dedicate_bearer_wf_delete_session_response.LW
p574
aVtc_286_118_pdn_disconnect_finished_pdn_connectivity_with_same_pti.LW
p575
aVtc_310_335_ef_dbr_non_voice_bearer_wf_forward_relocation_complete_and_forward_relocation_complete_ack.LW
p576
aVtc_12_120_attach_imsi_imei_check_black_listed_during_iu_release.LW
p577
aVtc_12_134_attach_with_extended_mmumoc_iu_inactivity_timer.LW
p578
aVtc_44_004_small_restart__sctp_fe_restart.LW
p579
aVtc_225_103_csfb_stand_alone_ue_context_release_active_mode.LW
p580
aVtc_23_13_israu_out.LW
p581
aVtc_103_832_DPR_cause_REBOOTING.LW
p582
aVtc_298_690_S4_3GDT_Service_request_wait_MBR_ef_delete_bearer_request_lbi.LW
p583
aVtc_219_131_s3_handover_w_to_l_with_cl_two_pdns_one_failed_sgw_relocation.LW
p584
aVtc_260_271_receive_sm_start_req_while_wf_setup_iteration.LW
p585
aVtc_241_711_inter_rau_dedicate_bearer_feature_off_and_pgw_delete_bearer_after_rau.W14b
p586
aVtc_248_116_inter_l_to_w_new_initial_attach_request_received_wf_fwd_reloc_comp_ack.W14b
p587
aVtc_250_105_ignore_IDR_when_EPS_sub_downgrade_GPRS_sub.W14b
p588
aVtc_11_091_activate_secondary_pdp_context_wrong_LinkedTI.W14b
p589
aVtc_26_085_subscriber_data_changed_when_iu_released.W14b
p590
aVtc_310_335_ef_dbr_non_voice_bearer_wf_forward_relocation_complete_and_forward_relocation_complete_ack.L14b
p591
aVtc_286_118_pdn_disconnect_finished_pdn_connectivity_with_same_pti.L14b
p592
aVtc_267_006_Service_Request__Tracking_Area_Update_while_waiting_for_Service_Request.L14b
p593
aVtc_225_103_csfb_stand_alone_ue_context_release_active_mode.L14b
p594
aVtc_335_125_Attach_when_registered_with_foreign_GUTI.L14b
p595
aVtc_103_701_MME_restarts.L14b
p596
aVtc_95_3_load_lkf.LWG
p597
aVtc_248_86_inter_l_to_w_new_inactive_pdp_context_status_dedicated_inactive.LWG
p598
aVtc_73_41_gtpu_sgsn_dont_send_gpu_echo_request_w.LWG
p599
aVtc_73_07_itc_encrypted_gtpu_s4_payload_w.LWG
p600
aVtc_214_513_combined_attach_after_paging_sms_indicate_no_lu.LWG
p601
aVtc_84_71_provide_subscriber_location_ef_paging_interrupted_by_rau_req.LWG
p602
aVtc_286_118_pdn_disconnect_finished_pdn_connectivity_with_same_pti.LWG
p603
aVtc_241_495_israu_new_gn_to_s4_pdp_to_bearer_with_10_secondary_pdp.LWG
p604
aVtc_23_13_israu_out.LWG
p605
aVtc_310_335_ef_dbr_non_voice_bearer_wf_forward_relocation_complete_and_forward_relocation_complete_ack.LWG
p606
aVtc_309_123_two_sessions_notification.LWG
p607
aVtc_183_008_itc_sctp_encrypted.LWG
p608
aVtc_236_311_HO_over_S3_3GDT_switchback_ef_delete_bearer_request_received_wf_rab_assignment_response.LWG
p609
aVtc_251_62_l_to_w_to_l_with_cl_type_updateProcedure.LWG
p610
aVtc_244_055_mt_lr_cancel_location_with_update_procedure_received_wf_location_report.LWG
p611
aVtc_298_702_pgw_init_modification_ef_ms_deact_req_tdi_false_ti_default_wf_modify_accept.LWG
p612
aVtc_262_024_attach_modify_bearer_failed.LWG
p613
aVtc_259_93_ef_provide_subscriber_information_service_request_w.LWG
p614
aVtc_225_103_csfb_stand_alone_ue_context_release_active_mode.LWG
p615
aVtc_219_131_s3_handover_w_to_l_with_cl_two_pdns_one_failed_sgw_relocation.LWG
p616
aVtc_39_920_ef_seamless_move_interrupted_by_transferred_attach.LWG
p617
aVtc_84_71_provide_subscriber_location_ef_paging_interrupted_by_rau_req.G14b
p618
aVtc_359_142_handover_from_3gpp_pgw_init_deletion_ef_ms_deact_Notify_ue_false.LW
p619
aVtc_263_204_Attach_Flow_Pb__Attach_Request_Same_IEs_while_waiting_for_Attach_Complete.LW
p620
aVtc_225_103_csfb_stand_alone_ue_context_release_active_mode.LW
p621
aVtc_298_685_S4_3GDT_Iu_release_wait_RABR_ef_delete_bearer_request_ebi.LW
p622
aVtc_204_1222_mme_eps_ho_target_tau_ula_dia_resources_exceeded_severe_nw_failure.LW
p623
aVtc_195_208_mme_logging_maximum_modify_eps_bearer_context.LW
p624
aVtc_23_09_transfer_to_primary_and_change_vip_addr.LW
p625
aVtc_12_512_pmm_undefined_attach_when_updating_location_interfered_by_rnc_reset.LW
p626
aVtc_327_166_recovery_intra_TAU_SGSN_Context_Request_while_waiting_for_Update_Location_Answer_sgw_change.LW
p627
aVtc_327_172_recovery_intra_TAU_SGSN_Context_Request_while_waiting_for_Location_Update_Response.LW
p628
aVtc_219_131_s3_handover_w_to_l_with_cl_two_pdns_one_failed_sgw_relocation.LW
p629
aVtc_310_335_ef_dbr_non_voice_bearer_wf_forward_relocation_complete_and_forward_relocation_complete_ack.LW
p630
aVtc_326_206_Intra_TAU_Recovery_with_old_GUTI.LW
p631
aVtc_286_118_pdn_disconnect_finished_pdn_connectivity_with_same_pti.LW
p632
aVtc_202_431_mf_seamless_move_target_service_request_modifyBearerReq_onePdnMultiBearer_oneBearerFail.LW
p633
aVtc_26_083_israu_streaming_stand_alone_no_rnc_support.LW
p634
aVtc_321_098_provide_subscriber_location_report_control_mf.LWG
p635
aVtc_321_126_ms_attach_with_mocn.LWG
p636
aVtc_236_039_s4_3gdt_detach_during_waiting_for_modify_bearer_rsp_in_active_procedure.LWG
p637
aVtc_259_66_ef_provide_subscriber_information_attach_old_g.LWG
p638
aVtc_251_66_w_to_l_to_w_with_cl_type_initialAttach_cl_after_sgsn_con_req.LWG
p639
aVtc_251_62_l_to_w_to_l_with_cl_type_updateProcedure.LWG
p640
aVtc_241_432_intra_rau_with_bearer_sgw_unchange_2_pdns_3gdt.LWG
p641
aVtc_241_495_israu_new_gn_to_s4_pdp_to_bearer_with_10_secondary_pdp.LWG
p642
aVtc_73_41_gtpu_sgsn_dont_send_gpu_echo_request_w.LWG
p643
aVtc_314_093_sgsn_init_qos_mod_wf_ms_modify_accept_rab_released_ef_pgw_init_ubr.LWG
p644
aVtc_286_118_pdn_disconnect_finished_pdn_connectivity_with_same_pti.LWG
p645
aVtc_208_65_restart_lea_test.LWG
p646
aVtc_208_156_dl_payload_msisdn_imsi_imei_udp.LWG
p647
aVtc_304_404_Service_Request__control_mode_threshold_not_reached.LWG
p648
aVtc_183_008_itc_sctp_encrypted.LWG
p649
aVtc_23_09_transfer_to_primary_and_change_vip_addr.LWG
p650
aVtc_44_750_s1_with_two_sctp_endpoints.LWG
p651
aVtc_24_110_msc_pool_off_comb_proc_on_create_new_msc_to_la_with_no_default_msc.LWG
p652
aVtc_92_09_20_autoupdate.LWG
p653
aVtc_31_136_cli_delete_subscriber_hlr_small_restart.LWG
p654
aVtc_274_042_Intra_and_pTAU__Intra_TAU_other_ta_while_waiting_for_Ue_Release_Complete.LWG
p655
aVtc_274_340_Intra_and_pTAU__Downlink_Data_Notification_while_wating_for_Context_Setup_Response.LWG
p656
aVtc_39_601_mas_unsucc_fwd_reloc_resp_mandatory_ie_missing_stop_source.LWG
p657
aVtc_327_037_recovery_intra_TAU_active_off_sgw_unchanged__RAR_wf_CSR_due_to_S11_linkdown.LWG
p658
aVtc_225_103_csfb_stand_alone_ue_context_release_active_mode.LWG
p659
aVtc_275_073_tau_inter_new_no_update_location_response_sgsn00040258.LWG
p660
aVtc_141_002_eth_deconf_conf_vlan_many.LWG
p661
aVtc_141_005_eth_traffic_novlan.LWG
p662
aVtc_310_335_ef_dbr_non_voice_bearer_wf_forward_relocation_complete_and_forward_relocation_complete_ack.LWG
p663
aVtc_214_099_large_and_sctp_restart.LWG
p664
aVtc_179_318_Ccheck_TraceCollectionIpv6server.LWG
p665
aVtc_39_066_attach_move_resend_attach_request.W14b
p666
aVtc_236_056_s4_3gdt_delete_bearer_during_modify_bearer_in_service_request_procedure.W14b
p667
aVtc_248_128_inter_l_to_w_new_rau_request_intial_ue_received_wf_update_location_resp.W14b
p668
aVtc_256_397_mme_eps_srvcc_ho_source_cs_only_ef_dbr_for_non_voice_bearer_wf_srvcc_ps_to_cs_response.L14b
p669
aVtc_263_412_Attach_Flow_in_ecm_idle__HSS_Init_QoS_Modification_wf_Initial_Context_Setup_Response.L14b
p670
aVtc_286_118_pdn_disconnect_finished_pdn_connectivity_with_same_pti.L14b
p671
aVtc_103_701_MME_restarts.L14b
p672
aVtc_44_850_mme_assoc_reestablish__board_restart_s1_mme.L14b
p673
aVtc_194_100_check_gauge_unstable_not_parked.L14b
p674
aVtc_194_152_notify_non_3gpp_not_allowed.L14b
p675
aVtc_310_335_ef_dbr_non_voice_bearer_wf_forward_relocation_complete_and_forward_relocation_complete_ack.L14b
p676
aVtc_225_103_csfb_stand_alone_ue_context_release_active_mode.L14b
p677
aVtc_284_501_mme_pdn_connection_apnredirectformultipleapn_lowestcontextid_no_apn.LW
p678
aVtc_219_131_s3_handover_w_to_l_with_cl_two_pdns_one_failed_sgw_relocation.LW
p679
aVtc_12_512_pmm_undefined_attach_when_updating_location_interfered_by_rnc_reset.LW
p680
aVtc_23_13_israu_out.LW
p681
aVtc_195_208_mme_logging_maximum_modify_eps_bearer_context.LW
p682
aVtc_304_104_intra_tau_success__control_mode_threshold_exceeded.LW
p683
aVtc_304_266_tau_from_gnsgsn_2g_control_mode_wf_delete_all_bearers_response_exception_case_reject_congestion_subscriber_cancelled.LW
p684
aVtc_225_103_csfb_stand_alone_ue_context_release_active_mode.LW
p685
aVtc_310_335_ef_dbr_non_voice_bearer_wf_forward_relocation_complete_and_forward_relocation_complete_ack.LW
p686
aVtc_286_118_pdn_disconnect_finished_pdn_connectivity_with_same_pti.LW
p687
aVtc_26_058_activate_3_primary_contexts_different_policy_maps.LW
p688
aVtc_346_623_pra_cn_predefined_ecgi_list__attach_from_non_3gpp_in_pra.LW
p689
aVtc_241_066_israu_new_gn_to_s4_pdp_to_bearer_two_pdp_one_arp_higher_than_policy_map.LW
p690
aVtc_335_152_Locator_Restart__HO_GA_Change.LW
p691
aVtc_39_601_mas_unsucc_fwd_reloc_resp_mandatory_ie_missing_stop_source.LW
p692
aVtc_327_151_recovery_intra_TAU_Create_Bearer_Request_while_waiting_for_Modify_Bearer_Response.LWG
p693
aVtc_179_318_Ccheck_TraceCollectionIpv6server.LWG
p694
aVtc_665_21_lr_then_gain.LWG
p695
aVtc_665_22_sr_then_gain.LWG
p696
aVtc_214_099_large_and_sctp_restart.LWG
p697
aVtc_251_62_l_to_w_to_l_with_cl_type_updateProcedure.LWG
p698
aVtc_241_432_intra_rau_with_bearer_sgw_unchange_2_pdns_3gdt.LWG
p699
aVtc_298_319_EF_SIBD_S4_RAB_Release.LWG
p700
aVtc_183_008_itc_sctp_encrypted.LWG
p701
aVtc_39_920_ef_seamless_move_interrupted_by_transferred_attach.LWG
p702
aVtc_39_921_ef_seamless_move_interrupted_by_normal_attach.LWG
p703
aVtc_166_300_ggsn_initiated_deactivation_interfered_by_rab_release_request.LWG
p704
aVtc_225_103_csfb_stand_alone_ue_context_release_active_mode.LWG
p705
aVtc_218_312_tau_from_sgsn_preserved_gbr_bearer_2_pdn_buffer_1_ubr_1_dbr.LWG
p706
aVtc_100_21_inter_w_to_g_old_mf_with_lawful_intercept.LWG
p707
aVtc_334_176_sgw_restart_af_create_session_with_dedicated_bearer_qos_failed.LWG
p708
aVtc_12_70_ms_initiated_pdp_context_activation.LWG
p709
aVtc_310_128_af__UE_does_not_support_SRVCC.LWG
p710
aVtc_310_335_ef_dbr_non_voice_bearer_wf_forward_relocation_complete_and_forward_relocation_complete_ack.LWG
p711
aVtc_73_41_gtpu_sgsn_dont_send_gpu_echo_request_w.LWG
p712
aVtc_286_118_pdn_disconnect_finished_pdn_connectivity_with_same_pti.LWG
p713
aVtc_236_056_s4_3gdt_delete_bearer_during_modify_bearer_in_service_request_procedure.LWG
p714
aVtc_326_216_Intra_TAU_Recovery_combined_type_Location_Update_Reject.LWG
p715
aVtc_23_13_israu_out.LWG
p716
aVtc_23_09_transfer_to_primary_and_change_vip_addr.LWG
p717
aVtc_81_032_israu_conversational_no_lic.W14b
p718
aVtc_84_80_provide_subscriber_locaiton_ef_paging_interrupted_by_attach.G14b
p719
aVtc_286_118_pdn_disconnect_finished_pdn_connectivity_with_same_pti.L14b
p720
aVtc_266_026_DownlinkDataFailureInd_repeat_paging_timer_small_local_restart.L14b
p721
aVtc_310_335_ef_dbr_non_voice_bearer_wf_forward_relocation_complete_and_forward_relocation_complete_ack.L14b
p722
aVtc_225_103_csfb_stand_alone_ue_context_release_active_mode.L14b
p723
aVtc_209_44_sgsn_init_pdp_modification.LWG
p724
aVtc_100_67_intra_w_to_g_mf_with_lawful_intercept.LWG
p725
aVtc_361_510_rau_l_to_w_S4SGSN_check_old_qos_failed_node_function_deactivate_pdp_after_rau_on.LWG
p726
aVtc_219_131_s3_handover_w_to_l_with_cl_two_pdns_one_failed_sgw_relocation.LWG
p727
aVtc_157_4_snmp_consistent.LWG
p728
aVtc_251_62_l_to_w_to_l_with_cl_type_updateProcedure.LWG
p729
aVtc_327_711_recovery_for_DDN__pdn_req_succ_while_wf_guti_complete.LWG
p730
aVtc_230_111_delete_subscriber_during_ms_init_deactivation_EF_s4.LWG
p731
aVtc_256_143_mme_eps_srvcc_ho_source_cs_only_initial_ue_extended_service_request_wf_srvcc_ps_to_cs_response.LWG
p732
aVtc_236_056_s4_3gdt_delete_bearer_during_modify_bearer_in_service_request_procedure.LWG
p733
aVtc_236_311_HO_over_S3_3GDT_switchback_ef_delete_bearer_request_received_wf_rab_assignment_response.LWG
p734
aVtc_98_050_inter_sgsn_new_psho_old_pfi_nsapi_plus_4_then_activate_same_pfi.LWG
p735
aVtc_286_118_pdn_disconnect_finished_pdn_connectivity_with_same_pti.LWG
p736
aVtc_289_017_Modify_bearer__ERAB_modify_request_meanwhile_path_switch_request_HO_success.LWG
p737
aVtc_320_072_ue_trace_ptmsi_conflict_with_another_ms.LWG
p738
aVtc_259_67_ef_provide_subscriber_information_attach_old_w.LWG
p739
aVtc_259_93_ef_provide_subscriber_information_service_request_w.LWG
p740
aVtc_59_9_mtmsi_restart_counter.LWG
p741
aVtc_95_13_atm277_emergency.LWG
p742
aVtc_225_103_csfb_stand_alone_ue_context_release_active_mode.LWG
p743
aVtc_183_008_itc_sctp_encrypted.LWG
p744
aVtc_291_40_action_ue_trace.LWG
p745
aVtc_23_09_transfer_to_primary_and_change_vip_addr.LWG
p746
aVtc_220_593_csfb_to_1xrtt_context_request_during_extended_service_request.LWG
p747
aVtc_316_270_RAU_To_Gn_SGSN_With_Dedicated_Bearers_Backup_Option_Change__Delete_UE_Backup.LWG
p748
aVtc_316_242_MME_Pool_Seamless_Move_No_Forward_Relocation_Complete_Notification_GUTI_Reallocation__No_UE_Backup.LWG
p749
aVtc_241_301_israu_new_create_session_failed_and_paging_timeout.LWG
p750
aVtc_241_618_intra_rau_with_dedicated_bearer_sgw_change_wait_rau_complete_handle_dbr.LWG
p751
aVtc_39_921_ef_seamless_move_interrupted_by_normal_attach.LWG
p752
aVtc_78_360_intra_rau_with_undefined_imsi_reject_with_cc_10_and_redirection_complete.LWG
p753
aVtc_310_335_ef_dbr_non_voice_bearer_wf_forward_relocation_complete_and_forward_relocation_complete_ack.LWG
p754
aVtc_665_21_lr_then_gain.LWG
p755
aVtc_179_318_Ccheck_TraceCollectionIpv6server.LWG
p756
aVtc_73_39_gtpu_sgsn_send_gnu_echo_request_w.LWG
p757
aVtc_275_073_tau_inter_new_no_update_location_response_sgsn00040258.LWG
p758
aVtc_248_86_inter_l_to_w_new_inactive_pdp_context_status_dedicated_inactive.LWG
p759
aVtc_236_181_hard_ho_intra_rau_with_3gdt_wf_release_access_bearer_resp_si_cancel_location_update.W14b
p760
aVtc_314_049_sgsn_init_qos_modification_handover_l_to_w_interrupt_by_reset_paging_succ.W14b
p761
aVtc_38_80_intra_rau_new_rnc_with_authentication_wrong_ptmsi_signature.W14b
p762
aVtc_321_091_mt_sms_mf.W14b
p763
aVtc_321_090_mo_sms_mf.W14b
p764
aVtc_298_235_SIBD_S4_Modify_Bearer_failed_Default_Bearer_ContextNotFound.W14b
p765
aVtc_322_161_smooth_move_ef_nas_after_paging_response_ignore.W14b
p766
aVtc_06_157_activate_deactivate_collision_with_delete_3.G14b
p767
aVtc_103_702_CEA_timeout.LW
p768
aVtc_286_118_pdn_disconnect_finished_pdn_connectivity_with_same_pti.LW
p769
aVtc_241_066_israu_new_gn_to_s4_pdp_to_bearer_two_pdp_one_arp_higher_than_policy_map.LW
p770
aVtc_241_405_israu_new_with_16m_flag_allowed_in_context_response_and_epc_cap_in_rau_req_transfer_to_new_tcw.LW
p771
aVtc_241_431_intra_rau_with_bearer_sgw_unchange_2_pdns_with_one_modify_no_response.LW
p772
aVtc_241_618_intra_rau_with_dedicated_bearer_sgw_change_wait_rau_complete_handle_dbr.LW
p773
aVtc_219_131_s3_handover_w_to_l_with_cl_two_pdns_one_failed_sgw_relocation.LW
p774
aVtc_324_239_ef_nas_ignore_update_loc_received_wf_modify_bearer_response.LW
p775
aVtc_217_009_rau_to_sgsn_some_bearers_successfully_moved.LW
p776
aVtc_256_176_mme_eps_srvcc_ho_source_cs_only_ue_release_request_wf_srvcc_ps_to_cs_complete_notification.LW
p777
aVtc_256_367_srvcc_ho_source_cs_only_gsm_2_msc_available.LW
p778
aVtc_310_335_ef_dbr_non_voice_bearer_wf_forward_relocation_complete_and_forward_relocation_complete_ack.LW
p779
aVtc_361_510_rau_l_to_w_S4SGSN_check_old_qos_failed_node_function_deactivate_pdp_after_rau_on.LW
p780
aVtc_12_134_attach_with_extended_mmumoc_iu_inactivity_timer.LW
p781
aVtc_39_601_mas_unsucc_fwd_reloc_resp_mandatory_ie_missing_stop_source.LW
p782
aVtc_26_058_activate_3_primary_contexts_different_policy_maps.LW
p783
aVtc_289_107_Modify_Bearer__Create_Bearer_Request_wf_UE_Context_Modification_Resp_aborted_by_handover_required.LW
p784
aVtc_322_022_smooth_move_af_frr_with_service_not_supported_no_moveIndicator.LW
p785
aVtc_248_86_inter_l_to_w_new_inactive_pdp_context_status_dedicated_inactive.LW
p786
aVtc_248_165_inter_l_to_w_new_iu_release_request_none_user_inactivity_received_wf_modify_bearer_response.LW
p787
aVtc_225_103_csfb_stand_alone_ue_context_release_active_mode.LW
p788
aVtc_286_118_pdn_disconnect_finished_pdn_connectivity_with_same_pti.L14b
p789
aVtc_225_103_csfb_stand_alone_ue_context_release_active_mode.L14b
p790
aVtc_310_335_ef_dbr_non_voice_bearer_wf_forward_relocation_complete_and_forward_relocation_complete_ack.L14b
p791
aVtc_220_019_csfb_to_1xrtt_ue_suspended_update_bearer_request.L14b
p792
aVtc_332_071_mf__cs_paging_during_ps_paging_ps_is_mps_and_cs_is_mps.L14b
p793
aVtc_322_161_smooth_move_ef_nas_after_paging_response_ignore.WG14a
p794
a.