(lp0
Vtc_50_056_israu_new_sgsn_one_interactive_pdp_context_16mbit_neg_from_old_32mbit_req.LWG
p1
aVtc_244_535_SLg_Location_Request__Downlink_A21_AIS_wwf_Location_Response_from_ESMLC.LWG
p2
aVtc_11_400_Gn_UseGTPv0HomePlmn_false_home_subscriber.LWG
p3
aVtc_666_02_reboot_ss7_board.LWG
p4
aVtc_119_202_ospf_interface_opt_vals.LWG
p5
aVtc_241_801_israu_interfering_context_request_no_cancel_location_s4.LWG
p6
aVtc_44_871_mme_assoc_reestablish__board_block_sbc.LWG
p7
aVtc_326_268_Periodic_Intra_TAU_with_unknown_GUTI_update_location_fail.LWG
p8
aVtc_202_10_downlink_data_during_paging.LWG
p9
aVtc_205_71_03_ss7_M3UA_ASP_counters.LWG
p10
aVtc_250_74_s6d_EF_hss_reset_waiting_delete_session_response.LWG
p11
aVtc_43_100__removal_of_disconnected_eNodeBs__alarm_and_gauge.LWG
p12
aVtc_225_204_in_ecm_idle_initial_context_setup_failure.LWG
p13
aVtc_225_619_exp_flow_handover_required_intra_while_wf_ue_context_release_complete.LWG
p14
aVtc_97_035_inter_sgsn_psho_mf_with_lawful_intercept.LWG
p15
aVtc_313_001_inter_new_srns_reloc_s16_without_sgw_change.LWG
p16
aVtc_282_131_deactivate_default_bearer.LWG
p17
aVtc_219_412_intra_tau_from_sgsn_no_pdp_context_from_old_sgsn.LWG
p18
aVtc_59_9_mtmsi_restart_counter.LWG
p19
aVtc_318_253_restoration_triggered_by_modify_bearer_response.LWG
p20
aVtc_103_1102_fallback_to_imsins_success.LWG
p21
aVtc_245_123_inter_rau_old_s4_sgsn_activated_on_ggsn.LWG
p22
aVtc_324_124_af_service_request_data_ula_imsi_unknown.LWG
p23
aVtc_324_386_ef_mt_sms_wf_frcn_wf_frca_wf_ula.LWG
p24
aVtc_276_022_Inter_TAU_New_MME__New_TAU_Request_while_waiting_for_Modify_Bearer_Response.LW
p25
aVtc_306_1130_ef_seamless_move_target_receive_detach_request_with_switchoff_wf_service_request.LW
p26
aVtc_32_75_test_transfer_2.LW
p27
aVtc_313_001_inter_new_srns_reloc_s16_without_sgw_change.LW
p28
aVtc_289_101_multi_pdn_pgw_init_bearer_mod_wf_service_interrupted_by_dbr_with_lbi.LW
p29
aVtc_101_004_single_mbms_session_rnc_rab_and_iu_release.LW
p30
aVtc_39_771_mas_rnc_reset_when_wf_ptmsi_realloc_cmpl_source.LW
p31
aVtc_329_203_inter_tau_new_rs_restricted_emergency.LW
p32
aVtc_274_381_Intra_and_pTAU__Downlink_A21_AIS_while_waiting_for_Authentication_Response.LW
p33
aVtc_23_13_israu_out.LW
p34
aVtc_327_024_recovery_intra_TAU__initial_Detach_Request_while_waiting_for_Modify_Bearer_Response.LW
p35
aVtc_260_100_one_mbms_session_started_two_mce_response_timeout_one_mce_add.LW
p36
aVtc_290_036_Timer_Based_GBR_Deact__handover_required_wf_ue_context_release_complete_before_timer_expires.LW
p37
aVtc_304_200_inter_tau_reject__control_mode_threshold_exceeded.LW
p38
aVtc_304_408_Emergency_Service_Request__control_mode_threshold_not_reached.LW
p39
aVtc_304_266_tau_from_gnsgsn_2g_control_mode_wf_delete_all_bearers_response_exception_case_reject_congestion_subscriber_cancelled.LW
p40
aVtc_52_04_inter_old_srns_reloc_one_unstable_context.LW
p41
aVtc_44_850_mme_assoc_reestablish__board_restart_s1_mme.LW
p42
aVtc_44_871_mme_assoc_reestablish__board_block_sbc.LW
p43
aVtc_256_005_mme_eps_srvcc_ho_source_cs_only_mf_after_tau_from_s4_sgsn.LW
p44
aVtc_297_407_move_at_periodic_rau.G14b
p45
aVtc_208_43_interception_after_small_restart.G14b
p46
aVtc_225_404_mt_call_idle_mode_faulty_paging_response.L14b
p47
aVtc_47_001_imsi_attach_ap_loss.L14b
p48
aVtc_284_131_pdn_connectivity_attached_ue_with_emergency.L14b
p49
aVtc_327_022_recovery_intra_TAU__initial_Detach_Request_while_waiting_for_Ue_Backup_Response.L14b
p50
aVtc_268_014_UE_Release_Flow__Downlink_A21_AIS_while_waiting_for_Relase_Access_Bearer_Response.L14b
p51
aVtc_268_030_Timer_Based_GBR_Deact__Specific_APN_One_Voice_Bearer.L14b
p52
aVtc_262_203_guti_attach_when_unauthenticated_attached.L14b
p53
aVtc_318_107_sgw_restart_mf_one_of_pdns_create_after_sgw_restart.L14b
p54
aVtc_318_187_sgw_restart_ef_relocate_interrupt_by_CreateBearerReq.L14b
p55
aVtc_329_003_attach_rs_allowed_emergency_plmn_change_ula_fails.L14b
p56
aVtc_103_831_DPR_cause_BUSY.L14b
p57
aVtc_103_703_duplicate_peer_ips.L14b
p58
aVtc_307_020_HSS_Init_QoS_Modification__MBC_partially_failure_context_not_found.L14b
p59
aVtc_44_042_config_ep_S6a.L14b
p60
aVtc_44_043_config_ep_SGs.L14b
p61
aVtc_44_045_config_ep_SBc.L14b
p62
aVtc_44_070_sctp_large_message.L14b
p63
aVtc_44_871_mme_assoc_reestablish__board_block_sbc.L14b
p64
aVtc_274_410_Intra_and_pTAU__PDN_Connectivity_Request_while_wating_for_TAU_Complete.L14b
p65
aVtc_195_406_ue_trace_start_meanwhile_handover_required.L14b
p66
aVtc_294_022_intra_mme_handover_HeNB_format_targetid_HeNB_GW_table_not_matched.L14b
p67
aVtc_12_183_wcdma_repeat_paging_with_old_ptmsi_N3313_oldptmsi_0.W14b
p68
aVtc_298_723_service_request_ef_ms_deact_ti_default_wf_rab_assignment_response.W14b
p69
aVtc_11_234_sgsn_modify_interfer_ser_req_II.W14b
p70
aVtc_321_093_mt_sms_segmented_tc_u_abort_after_second_segment.W14b
p71
aVtc_245_340_israu_new_l_to_w_with_GBR_dedicated_bearer_ipv6_3gdt.W14b
p72
aVtc_26_119_inter_SGSN_RAU_WtoW_old_ARP_ggsn_not_support.W14b
p73
aVtc_241_751_W2W_S4SGSN_S4SGSN_no_create_session_response_node_function_deactivate_pdp_after_rau_on.W14b
p74
aVtc_248_144_inter_l_to_w_new_reset_received_received_wf_fwd_reloc_comp_ack.W14b
p75
aVtc_324_072_af_modify_bearer_with_different_interface.W14b
p76
aVtc_236_055_s4_3gdt_delete_bearer_during_modify_bearer_in_rab_release_procedure.W14b
p77
aVtc_313_001_inter_new_srns_reloc_s16_without_sgw_change.W14b
p78
aVtc_313_134_inter_new_srns_reloc_s16_check_attach_limit_failed.W14b
p79
aVtc_26_105_MS_init_PDP_modify_ARP.W14b
p80
aVtc_241_181_intra_rau_completed_with_bearer_create_failed_interfere_by_context_request.W14b
p81
aVtc_241_405_israu_new_with_16m_flag_allowed_in_context_response_and_epc_cap_in_rau_req_transfer_to_new_tcw.W14b
p82
aVtc_322_161_smooth_move_ef_nas_after_paging_response_ignore.W14b
p83
aVtc_322_173_smooth_move_ef_cli_s6d_delete_subscriber_data_wf_ptmsi_relocation_complete.W14b
p84
aVtc_342_079_x3_tcp_fail_during_signalling.W14b
p85
aVtc_11_239_inter_new_srns_reloc_mtz.W14b
p86
aVtc_245_340_israu_new_l_to_w_with_GBR_dedicated_bearer_ipv6_3gdt.W14b
p87
aVtc_359_106_handover_from_3gpp_mf_tobeDeact_Notify_UE_false.W14b
p88
aVtc_239_620_inter_rau_new_with_bearer_sgw_not_change_isd_odb_bit0_wf_rau_compl_deactivation.G14b
p89
aVtc_208_22_attach_detach_imsi.G14b
p90
aVtc_44_831_mme_assoc_reestablish__local_ep_restart_sbc.L14b
p91
aVtc_44_871_mme_assoc_reestablish__board_block_sbc.L14b
p92
aVtc_44_850_mme_assoc_reestablish__board_restart_s1_mme.L14b
p93
aVtc_274_321_Intra_and_pTAU__SGSN_Context_Request_while_waiting_for_Delete_Bearer_Request_no_SGW_answer.L14b
p94
aVtc_274_380_Intra_and_pTAU__Downlink_A21_AIS_while_waiting_for_Create_Session_Response.L14b
p95
aVtc_318_252_restoration_triggered_by_create_session_response.L14b
p96
aVtc_225_321_mt_call_active_mode_nas_non_delivery__cs_service_notification__handover_required_meanwhile_CBR_received.L14b
p97
aVtc_295_137_mt_call_during_s1_ho_tau_request_when_wf_handover_notify.L14b
p98
aVtc_346_504_AF__TAU_Inter_New__CSR_failure_terminate_sx.L14b
p99
aVtc_327_022_recovery_intra_TAU__initial_Detach_Request_while_waiting_for_Ue_Backup_Response.L14b
p100
aVtc_327_601_Inter_TAU_Recovery__Attach_Request_while_waiting_for_Ue_Backup_Retrieval_Response.L14b
p101
aVtc_234_018_deactivate_unknown_case.L14b
p102
aVtc_103_1000_modify_diameter_peer_prio.L14b
p103
aVtc_103_1004_secondary_dpl_used_when_all_peers_in_dpl_unavailable_no_sls.L14b
p104
aVtc_202_01_ecm_connected_s1_release.L14b
p105
aVtc_202_40_emergency_pdn_ecm_connected.L14b
p106
aVtc_257_10_pws_etws_write_replace_warning_request_feature_off.L14b
p107
aVtc_257_13_pws_etws_write_replace_warning_request_license_off.L14b
p108
aVtc_194_100_check_gauge_unstable_not_parked.L14b
p109
aVtc_195_519_mme_logging_downlinkdataNotification_paging_failure_ue_not_responding.L14b
p110
aVtc_260_211_receive_sm_start_req_while_wf_m3_start_resp_same_abs_time.L14b
p111
aVtc_43_040_eNB_configuration_update_mf.L14b
p112
aVtc_210_052_tau_inter_old.L14b
p113
aVtc_340_130_intra_rau_during_validation_move_job_with_trigger_move_configured.WG14a
p114
aVtc_313_001_inter_new_srns_reloc_s16_without_sgw_change.WG14a
p115
aVtc_322_126_smooth_move_ef_cancel_location_initialAttach_wf_cancel_location.WG14a
p116
aVtc_304_204_inter_tau_control_mode_threshold_exceeded_reject_congestion.LW
p117
aVtc_203_141_mme_eps_handover_source_inter__other_guti_tau_wf_delete_session_resp.LW
p118
aVtc_326_406_Inter_TAU_Recovery_Unkonwn_GUTI__1xrtt_CS_Registration_Then_CSFB_To_1xRTT.LW
p119
aVtc_326_267_Intra_TAU_with_unknown_GUTI_Restriction_2_pdn_SAU_license_limit_reached.LW
p120
aVtc_345_350_ef__mo_csfb_with_psho__service_request_while_wf_delete_session_response.LW
p121
aVtc_313_001_inter_new_srns_reloc_s16_without_sgw_change.LW
p122
aVtc_341_697_x2_activity_event_irat_handover_source_l_to_gn_sgsn.LW
p123
aVtc_241_159_israu_old_wait_for_sgsn_context_ack_interfere_by_reset_and_detach.LW
p124
aVtc_241_640_intra_rau_with_bearer_sgw_change_with_3gdt_wait_release_access_resp_interfer_by_update_bearer_req.LW
p125
aVtc_245_301_inter_rau_insert_entry_into_interface_cache.LW
p126
aVtc_23_13_israu_out.LW
p127
aVtc_250_105_ignore_IDR_when_EPS_sub_downgrade_GPRS_sub.LW
p128
aVtc_43_100__removal_of_disconnected_eNodeBs__alarm_and_gauge.LW
p129
aVtc_43_100__removal_of_disconnected_eNodeBs__alarm_and_gauge.LWG
p130
aVtc_183_005_itc_folder_file_names.LWG
p131
aVtc_183_011_itc_trace_file_wrap.LWG
p132
aVtc_59_9_mtmsi_restart_counter.LWG
p133
aVtc_326_406_Inter_TAU_Recovery_Unkonwn_GUTI__1xrtt_CS_Registration_Then_CSFB_To_1xRTT.LWG
p134
aVtc_44_871_mme_assoc_reestablish__board_block_sbc.LWG
p135
aVtc_231_173_ms_init_detach_interfered_by_cancel_location_withdraw.LWG
p136
aVtc_107_101_eth_vlan_cli.LWG
p137
aVtc_346_495_Small_Local_Restart__No_Terminate_when_UE1_Attach_waiting_for_CCA_Initial_UE2_Attach_waiting_for_MBR.LWG
p138
aVtc_306_1130_ef_seamless_move_target_receive_detach_request_with_switchoff_wf_service_request.LWG
p139
aVtc_205_71_03_ss7_M3UA_ASP_counters.LWG
p140
aVtc_110_005_inbound_outbound_pf_rule_cli_ip.LWG
p141
aVtc_73_22_continous_paging_failure.LWG
p142
aVtc_261_08_tau_from_sgsn_s3_isd_voip_restricted_ga_cc90_cc91_imsins_cc91.LWG
p143
aVtc_119_101_ospf_area_cli.LWG
p144
aVtc_327_116_recovery_intra_TAU__Delete_Subscriber_Data_while_waiting_for_Identity_Response.LWG
p145
aVtc_327_552_Recovery_for_DDN__Service_Request_while_waiting_for_Ue_Backup_Response.LWG
p146
aVtc_327_010_recovery_intra_TAU__uplink_Attach_Request_while_waiting_for_TAU_Complete.LWG
p147
aVtc_236_107_s4_3gdt_based_on_sr_change_DtThresholdNumber.LWG
p148
aVtc_318_116_sgw_restart_mf_one_pdn_with_relocate_by_ReleaseAccessBearersResponse.LWG
p149
aVtc_292_134_x2_ho_with_sgw_relocation_dedicated_bearers_failed_in_eNb.LWG
p150
aVtc_324_069_af_modify_bearer_dedicated_bearer_fail.LWG
p151
aVtc_267_224_Service_Request__PDN_Connectivity_Request_while_waiting_for_Modify_Bearer_Response_where_dedicated_fails.LWG
p152
aVtc_218_311_tau_from_sgsn_preserved_gbr_bearer_buffer_1_ubr_1_cbr.LWG
p153
aVtc_329_203_inter_tau_new_rs_restricted_emergency.LWG
p154
aVtc_211_014_streamed_cell_trace_mapping_alarm.LWG
p155
aVtc_666_06_block_rt_board.LWG
p156
aVtc_202_03_emm_deregistered_no_s1_release.LWG
p157
aVtc_324_327_ef_service_req_data_direct_transfer_ingore.LWG
p158
aVtc_292_030_x2_ho_with_sgw_relocation_main_flow_multiple_pdns_multiple_bearers.LWG
p159
aVtc_196_055_nrspca_with_ti.LWG
p160
aVtc_73_21_itc_gtpu_s4_sgsn_send_echo_request_w.LWG
p161
aVtc_73_41_gtpu_sgsn_dont_send_gpu_echo_request_w.LWG
p162
aVtc_73_43_gtpu_sgsn_turn_off_gnu_echo_request_w.LWG
p163
aVtc_218_311_tau_from_sgsn_preserved_gbr_bearer_buffer_1_ubr_1_cbr.LWG
p164
aVtc_305_040_oms_mmi.LWG
p165
aVtc_259_99_ef_s6d_s4_attach_old_w.LWG
p166
aVtc_666_06_block_rt_board.LWG
p167
aVtc_202_454_af_seamless_move_source_unsuccessful_forward_relocation_response_other_cause.LWG
p168
aVtc_119_101_ospf_area_cli.LWG
p169
aVtc_119_202_ospf_interface_opt_vals.LWG
p170
aVtc_205_71_03_ss7_M3UA_ASP_counters.LWG
p171
aVtc_39_601_mas_unsucc_fwd_reloc_resp_mandatory_ie_missing_stop_source.LWG
p172
aVtc_219_131_s3_handover_w_to_l_with_cl_two_pdns_one_failed_sgw_relocation.LWG
p173
aVtc_313_001_inter_new_srns_reloc_s16_without_sgw_change.LWG
p174
aVtc_313_270_inter_new_srns_reloc_s16_without_sgw_change_update_bearer_request_received_wf_rau_request.LWG
p175
aVtc_310_001_mf__S3_same_SGW_1_voice_bearer_1_PDN_no_emergency_PDN.LWG
p176
aVtc_257_11_pws_etws_stop_warning_request_feature_off.LWG
p177
aVtc_183_005_itc_folder_file_names.LWG
p178
aVtc_44_071_attach_long_imsi.LWG
p179
aVtc_44_004_small_restart__sctp_fe_restart.LWG
p180
aVtc_44_871_mme_assoc_reestablish__board_block_sbc.LWG
p181
aVtc_326_207_Intra_TAU_Recovery_with_1xrtt_cs_registration_then_CSFB_to_1xrtt.LWG
p182
aVtc_326_406_Inter_TAU_Recovery_Unkonwn_GUTI__1xrtt_CS_Registration_Then_CSFB_To_1xRTT.LWG
p183
aVtc_326_461_Inter_TAU_Recovery_Unknown_GUTI__Emergency_Type_b_LTE_SAU_Limit_Reach.LWG
p184
aVtc_244_044_mt_lr_intra_handover_required_received_wf_location_report.LWG
p185
aVtc_316_298_GUTI_Attach_Known_Large_Restart_Broadcast_Force_Delete_Among_Pool.LWG
p186
aVtc_53_407_inter_new_mbr_set_to_zero_with_eps_subscription_data.LWG
p187
aVtc_256_006_mme_eps_srvcc_ho_source_cs_only_mf_after_tau_after_s1_ho.LWG
p188
aVtc_236_107_s4_3gdt_based_on_sr_change_DtThresholdNumber.LWG
p189
aVtc_340_130_intra_rau_during_validation_move_job_with_trigger_move_configured.LWG
p190
aVtc_178_471_modify_ss7_sys_noss7.LWG
p191
aVtc_325_244_inter_old_srns_reloc_s4_to_gn_wf_fwd_reloc_compl_interrupted_by_gtpv2_context_request.LWG
p192
aVtc_43_101__removal_of_disconnected_eNodeBs__CLI_removal.LWG
p193
aVtc_110_005_inbound_outbound_pf_rule_cli_ip.LWG
p194
aVtc_231_113_rnc_reset_during_ms_act_si_ms_deact_rnc_contact.LWG
p195
aVtc_266_011_DownlinkDataNotification_interfering_ISD_sgsn00026976.L14b
p196
aVtc_266_020_DownlinkDataFailureInd_repeat_paging_timer_on.L14b
p197
aVtc_266_026_DownlinkDataFailureInd_repeat_paging_timer_small_local_restart.L14b
p198
aVtc_43_100__removal_of_disconnected_eNodeBs__alarm_and_gauge.L14b
p199
aVtc_214_1028_la_selection_af_oldlapreferred_combined_intra_tau_without_old_la.L14b
p200
aVtc_214_1099_la_selection_mf_reselection_combined_tau_with_imsi_attach_after_mme_triggered_imsi_detach_when_handling_sgs_paging.L14b
p201
aVtc_326_203_Intra_TAU_after_node_restart_with_two_retrieval_responses_with_SGW_change_with_emergency_PDN.L14b
p202
aVtc_346_495_Small_Local_Restart__No_Terminate_when_UE1_Attach_waiting_for_CCA_Initial_UE2_Attach_waiting_for_MBR.L14b
p203
aVtc_210_052_tau_inter_old.L14b
p204
aVtc_329_310_s1_inter_ho_target_rs_restricted.L14b
p205
aVtc_44_043_config_ep_SGs.L14b
p206
aVtc_44_045_config_ep_SBc.L14b
p207
aVtc_44_071_attach_long_imsi.L14b
p208
aVtc_44_810_mme_assoc_reestablish__abort_s1_mme.L14b
p209
aVtc_44_850_mme_assoc_reestablish__board_restart_s1_mme.L14b
p210
aVtc_194_991_downlink_A21_AIS_during_waiting_location_report__idr_flags_ef.L14b
p211
aVtc_274_080_Intra_and_pTAU__S1_Reset_while_waiting_for_Security_Mode_Complete.L14b
p212
aVtc_310_001_mf__S3_same_SGW_1_voice_bearer_1_PDN_no_emergency_PDN.L14b
p213
aVtc_225_321_mt_call_active_mode_nas_non_delivery__cs_service_notification__handover_required_meanwhile_CBR_received.L14b
p214
aVtc_340_130_intra_rau_during_validation_move_job_with_trigger_move_configured.WG14a
p215
aVtc_322_161_smooth_move_ef_nas_after_paging_response_ignore.WG14a
p216
aVtc_313_001_inter_new_srns_reloc_s16_without_sgw_change.WG14a
p217
aVtc_247_201_inter_w_to_l_old_two_pdns_with_dedicated_bearer_one_pdn_failed_with_sgw_change.LW
p218
aVtc_310_001_mf__S3_same_SGW_1_voice_bearer_1_PDN_no_emergency_PDN.LW
p219
aVtc_347_250_UE_initiated_detach__location_report_while_waiting_for_delete_session_response_ue_context_release_complete.LW
p220
aVtc_236_107_s4_3gdt_based_on_sr_change_DtThresholdNumber.LW
p221
aVtc_51_071_reloc_wf_reloc_complete_interrupted_by_rau_on_new_iu.LW
p222
aVtc_51_099_intra_srns_reloc_relocation_cancel_radio_connection_lost.LW
p223
aVtc_51_107_intra_srns_reloc_ipv4v6_daf_on.LW
p224
aVtc_327_021_recovery_intra_TAU__uplink_Detach_Request_while_waiting_for_Update_Location_Response.LW
p225
aVtc_43_100__removal_of_disconnected_eNodeBs__alarm_and_gauge.LW
p226
aVtc_11_365_sgsn_initiated_ipv4v6_pdp_context_modification.LW
p227
aVtc_12_181_wcdma_repeat_paging_step_60_worker_parks.LW
p228
aVtc_275_215_tau_inter_new_emergency_type_c_imsi_analysis_fails.LW
p229
aVtc_313_001_inter_new_srns_reloc_s16_without_sgw_change.LW
p230
aVtc_313_112_inter_new_srns_reloc_s16_without_imsi_in_forward_relocation_request.LW
p231
aVtc_202_41_type_a_emergency_pdn_ecm_idle.LW
p232
aVtc_44_071_attach_long_imsi.LW
p233
aVtc_44_830_mme_assoc_reestablish__local_ep_restart_s1_mme.LW
p234
aVtc_44_871_mme_assoc_reestablish__board_block_sbc.LW
p235
aVtc_26_110_nrspca_ARP_GGSN_not_support.W14b
p236
aVtc_11_239_inter_new_srns_reloc_mtz.W14b
p237
aVtc_324_300_ef_frr_ignore.W14b
p238
aVtc_324_434_ef_payload_buffered_wf_rab_assignment_response_qos_downgrade.W14b
p239
aVtc_241_721_israu_old_sgw_context_response_with_tzcr_set_in_partial_pdns_3gdt.W14b
p240
aVtc_12_4_attach_ptmsi_signalling_connection_release.W14b
p241
aVtc_313_001_inter_new_srns_reloc_s16_without_sgw_change.W14b
p242
aVtc_313_138_inter_new_srns_reloc_s16_without_sgw_change_one_pdn_all_bearer_preserved.W14b
p243
aVtc_313_251_inter_new_srns_reloc_s16_with_sgw_change_dsd_received_from_hlr_wf_update_location_ack.W14b
p244
aVtc_303_002_Service_Request__Downlink_A21_AIS_while_wf_Initial_Context_Setup_Response__Extended_Service_Request_while_wf_Initial_Context_Setup_Response.LWG
p245
aVtc_303_004_X2_Based_HO__Downlink_A21_AIS_while_wf_TAU_Request_and_Emm_Information_in_nas_nondeliver.LWG
p246
aVtc_327_552_Recovery_for_DDN__Service_Request_while_waiting_for_Ue_Backup_Response.LWG
p247
aVtc_225_325_mt_call_resend_paging_after_ue_release.LWG
p248
aVtc_225_642_hss_reset_mt_call_extended_service_request_while_wf_ms_activity_with_full_imsi.LWG
p249
aVtc_119_101_ospf_area_cli.LWG
p250
aVtc_194_991_downlink_A21_AIS_during_waiting_location_report__idr_flags_ef.LWG
p251
aVtc_132_002_create_ip_interface_eth.LWG
p252
aVtc_12_512_pmm_undefined_attach_when_updating_location_interfered_by_rnc_reset.LWG
p253
aVtc_250_105_ignore_IDR_when_EPS_sub_downgrade_GPRS_sub.LWG
p254
aVtc_231_173_ms_init_detach_interfered_by_cancel_location_withdraw.LWG
p255
aVtc_247_213_inter_w_to_l_old_with_sgw_relo_wf_cancel_location_interrupted_by_transfered_rau.LWG
p256
aVtc_73_15_error_indication.LWG
p257
aVtc_76_016_iu_release_during_ggsn_init_deactivate_with_linked_pdps.LWG
p258
aVtc_241_801_israu_interfering_context_request_no_cancel_location_s4.LWG
p259
aVtc_44_860_mme_assoc_reestablish__sctp_fe_restart_s1_mme.LWG
p260
aVtc_306_1130_ef_seamless_move_target_receive_detach_request_with_switchoff_wf_service_request.LWG
p261
aVtc_243_202_tau_from_sgsn_s3_get_new_sgw_two_pdn_connections_first_ok_second_failed.LWG
p262
aVtc_316_215_Service_Request_With_Dedicated_Bearers_Partial_Success__Backup_UE.LWG
p263
aVtc_267_110_Service_Request__S1_Reset_while_waiting_for_Initial_Ctx_Setup_Response.LWG
p264
aVtc_324_135_af_service_request_signalling_isd_odb0.LWG
p265
aVtc_238_201_mme_eps_irat_Gn_ho_target__three_pdn_one_MBR_with_lbi.LWG
p266
aVtc_205_71_03_ss7_M3UA_ASP_counters.LWG
p267
aVtc_666_06_block_rt_board.LWG
p268
aVtc_298_145_EF_NRSPCA_interfere_Activation.LWG
p269
aVtc_313_001_inter_new_srns_reloc_s16_without_sgw_change.LWG
p270
aVtc_289_070_GW_Init_Bearer_Modification_Flow_two_CBR_one_UBR_while_wf_modify_eps_bearer_context_accept.LWG
p271
aVtc_288_101_pgw_init_bearer_mod_one_bad_one_good_one_unknown_one_not_responding_bearer.LWG
p272
aVtc_208_31_sms_mo.LWG
p273
aVtc_324_018_mf_ser_req_data_partially_setup_3gdt.LW
p274
aVtc_327_172_recovery_intra_TAU_SGSN_Context_Request_while_waiting_for_Location_Update_Response.LW
p275
aVtc_313_101_inter_new_srns_reloc_s16_srns_relocation_feature_off.LW
p276
aVtc_26_221_activate_primary_apn_based_qos_policy_off.LW
p277
aVtc_225_350_mt_call_active_mode_ongoing_ims_call.LW
p278
aVtc_51_079_intra_srns_reloc_wf_reloc_req_ack_interrupted_by_delete_req.LW
p279
aVtc_318_116_sgw_restart_mf_one_pdn_with_relocate_by_ReleaseAccessBearersResponse.LW
p280
aVtc_43_100__removal_of_disconnected_eNodeBs__alarm_and_gauge.LW
p281
aVtc_274_380_Intra_and_pTAU__Downlink_A21_AIS_while_waiting_for_Create_Session_Response.LW
p282
aVtc_44_831_mme_assoc_reestablish__local_ep_restart_sbc.LW
p283
aVtc_44_871_mme_assoc_reestablish__board_block_sbc.LW
p284
aVtc_276_045_Inter_TAU_New_MME__S1_Reset_while_waiting_for_Identity_Response__enhanced_imei_check.LW
p285
aVtc_218_311_tau_from_sgsn_preserved_gbr_bearer_buffer_1_ubr_1_cbr.LW
p286
aVtc_322_124_smooth_move_ef_cancel_location_wf_frcn.LW
p287
aVtc_103_831_DPR_cause_BUSY.LW
p288
aVtc_263_074_Attach_Flow__Cancel_Location_Subscription_Withdrawal_while_waiting_for_Modify_Bearer_Response.LW
p289
aVtc_289_100_last_pdn_pgw_init_bearer_mod_wf_service_interrupted_by_dbr_with_lbi.LW
p290
aVtc_231_113_rnc_reset_during_ms_act_si_ms_deact_rnc_contact.LW
p291
aVtc_295_130_Intra_S1_HO__Sgw_reloc__Downlink_A21_AIS_while_waiting_for_Delete_Session_Response.LW
p292
aVtc_298_074_s4_nrspca_activate_same_nsapi_of_dedicated_bearer_apn_failed.LW
p293
aVtc_298_145_EF_NRSPCA_interfere_Activation.LW
p294
aVtc_304_204_inter_tau_control_mode_threshold_exceeded_reject_congestion.LW
p295
aVtc_04_69_periodic_auth_timer_expires_during_SM_procedure.G14b
p296
aVtc_208_22_attach_detach_imsi.G14b
p297
aVtc_11_232_activate_primary_after_LR_III.W14b
p298
aVtc_209_44_sgsn_init_pdp_modification.W14b
p299
aVtc_28_035_mt_sms_access_restriced_mt_sms.W14b
p300
aVtc_313_001_inter_new_srns_reloc_s16_without_sgw_change.W14b
p301
aVtc_313_016_inter_new_srns_reloc_s16_with_sgw_change_two_pdns_with_preserved_bearer_create_session_partially_success.W14b
p302
aVtc_26_058_activate_3_primary_contexts_different_policy_maps.W14b
p303
aVtc_273_306_tau_intra_emergency_ongoing_roaming_restricted_different_configuration.L14b
p304
aVtc_262_203_guti_attach_when_unauthenticated_attached.L14b
p305
aVtc_262_824_attach_then_cancel_location_subscription_withdrawal_CLR_flag_s6d.L14b
p306
aVtc_276_045_Inter_TAU_New_MME__S1_Reset_while_waiting_for_Identity_Response__enhanced_imei_check.L14b
p307
aVtc_276_305_Inter_TAU_New_MME__Downlink_Data_Notification_while_waiting_for_failing_Modify_Bearer_Response.L14b
p308
aVtc_282_118_mme_initiated_deactivate_some_fails_in_sgw_message_pco_not_unique.L14b
p309
aVtc_225_321_mt_call_active_mode_nas_non_delivery__cs_service_notification__handover_required_meanwhile_CBR_received.L14b
p310
aVtc_44_042_config_ep_S6a.L14b
p311
aVtc_44_043_config_ep_SGs.L14b
p312
aVtc_44_044_config_ep_SLg.L14b
p313
aVtc_44_254_sctp_assoc_config__modify_rt_LCSAP.L14b
p314
aVtc_44_860_mme_assoc_reestablish__sctp_fe_restart_s1_mme.L14b
p315
aVtc_346_388_handover_intra_2PDN_BCM_sx_only_and_sxgx_location_report.L14b
p316
aVtc_218_332_tau_from_sgsn_active_flag_on_tau_complete_come_first_detach_odb_bit0.L14b
p317
aVtc_310_103_af__no_voice_bearers_for_UE.L14b
p318
aVtc_293_241_X2_Based_HO__location_report_while_wf_update_location_wf_location_update.L14b
p319
aVtc_194_100_check_gauge_unstable_not_parked.L14b
p320
aVtc_194_907_ecm_idle__userstate_locationinfo__subscriptiondata_to_detach__idr_flags.L14b
p321
aVtc_43_101__removal_of_disconnected_eNodeBs__CLI_removal.L14b
p322
aVtc_202_18_downlink_data_after_s1_release.L14b
p323
aVtc_304_266_tau_from_gnsgsn_2g_control_mode_wf_delete_all_bearers_response_exception_case_reject_congestion_subscriber_cancelled.L14b
p324
aVtc_274_410_Intra_and_pTAU__PDN_Connectivity_Request_while_wating_for_TAU_Complete.L14b
p325
aVtc_318_107_sgw_restart_mf_one_of_pdns_create_after_sgw_restart.L14b
p326
aVtc_266_020_DownlinkDataFailureInd_repeat_paging_timer_on.L14b
p327
aVtc_313_001_inter_new_srns_reloc_s16_without_sgw_change.WG14a
p328
aVtc_340_130_intra_rau_during_validation_move_job_with_trigger_move_configured.WG14a
p329
aVtc_44_042_config_ep_S6a.L14b
p330
aVtc_44_043_config_ep_SGs.L14b
p331
aVtc_44_044_config_ep_SLg.L14b
p332
aVtc_44_250_sctp_assoc_config__modify_rt_Diameter.L14b
p333
aVtc_44_841_mme_assoc_reestablish__device_restart_sbc.L14b
p334
aVtc_44_890_mme_assoc_reestablish__service_request_on_reestablished_sctp_association.L14b
p335
aVtc_44_871_mme_assoc_reestablish__board_block_sbc.L14b
p336
aVtc_195_406_ue_trace_start_meanwhile_handover_required.L14b
p337
aVtc_195_417_ue_trace_deactivate_trace_s1_intra_system_handover_triggered_HO_ongoing_timeout.L14b
p338
aVtc_268_014_UE_Release_Flow__Downlink_A21_AIS_while_waiting_for_Relase_Access_Bearer_Response.L14b
p339
aVtc_326_302_Service_Request_with_unknown_STMSI_max_bearers_PDN_Type_IPv6.L14b
p340
aVtc_326_406_Inter_TAU_Recovery_Unkonwn_GUTI__1xrtt_CS_Registration_Then_CSFB_To_1xRTT.L14b
p341
aVtc_214_1099_la_selection_mf_reselection_combined_tau_with_imsi_attach_after_mme_triggered_imsi_detach_when_handling_sgs_paging.L14b
p342
aVtc_304_109_initial_ue_intra_tau_control_mode_threshold_exceeded_usc_detach_then_reattach.L14b
p343
aVtc_238_164_mme_eps_irat_Gn_ho_target__SGW_update_fails.L14b
p344
aVtc_103_902_load_sharing_realm_routing_own_realm.L14b
p345
aVtc_103_903_primary_or_secondary_realm_routing_own_realm.L14b
p346
aVtc_225_312_mt_call_active_mode_nas_non_delivery__s1_intra_system_handover_triggered_resend_2_times.L14b
p347
aVtc_293_004_X2_Based_HO__Initial_UE_TAU_Request_from_source_eNodeB_while_wf_TAU_request.L14b
p348
aVtc_266_026_DownlinkDataFailureInd_repeat_paging_timer_small_local_restart.L14b
p349
aVtc_262_1055_imsi_attach_with_csg_id_is_rejected.L14b
p350
aVtc_220_413_csfb_to_1xrtt_in_ecm_connected_handover_required_meanwhile_CBR_received.L14b
p351
aVtc_318_252_restoration_triggered_by_create_session_response.L14b
p352
aVtc_43_040_eNB_configuration_update_mf.L14b
p353
aVtc_313_248_inter_new_srns_reloc_s16_with_sgw_change_isd_received_from_hss_wf_update_location_ack.W14b
p354
aVtc_311_204_intra_srns_reloc_s4_sgw_change_wf_reloc_req_ack_interrupted_by_cancel_loc_subscrip_withdrawn.W14b
p355
aVtc_241_473_intra_rau_with_dedicated_bearer_create_session_response_all_bearers_failed.W14b
p356
aVtc_359_061_handover_from_non3gpp_ef_activate_pdp_context_request_with_handover_other_nsapi.W14b
p357
aVtc_298_074_s4_nrspca_activate_same_nsapi_of_dedicated_bearer_apn_failed.W14b
p358
aVtc_26_138_inter_srns_reloc_not_allowed_ARP.W14b
p359
aVtc_324_253_ef_rau_request_wf_forward_relocation_complete_ack.W14b
p360
aVtc_312_244_inter_old_srns_reloc_wf_fwd_reloc_compl_interrupted_by_gtpv2_context_request.W14b
p361
aVtc_313_001_inter_new_srns_reloc_s16_without_sgw_change.WG14a
p362
aVtc_340_130_intra_rau_during_validation_move_job_with_trigger_move_configured.WG14a
p363
aVtc_276_045_Inter_TAU_New_MME__S1_Reset_while_waiting_for_Identity_Response__enhanced_imei_check.LW
p364
aVtc_202_385_mf_seamless_move_target_service_request_before_ula_without_ddn_seq2.LW
p365
aVtc_52_17_inter_old_treloccomplete_timeout_before_ack.LW
p366
aVtc_347_236_GW_Dedicated_Bearer_Deactivate__Location_Report_while_waiting_for_eRAB_Release_Response.LW
p367
aVtc_578_32_check_ebm_para_statistics_ue_return_duration.LW
p368
aVtc_313_001_inter_new_srns_reloc_s16_without_sgw_change.LW
p369
aVtc_313_027_inter_new_srns_reloc_s16_without_sgw_change_wait_rau_timeout.LW
p370
aVtc_313_207_inter_new_srns_reloc_s16_with_sgw_change_attach_request_initial_ue_received_wf_update_location_ack.LW
p371
aVtc_324_099_af_ue_initiate_service_request_security_mode_reject.LW
p372
aVtc_324_522_ef_create_bearer_request_ignore_payload_after_ulr.LW
p373
aVtc_327_020_recovery_intra_TAU__uplink_Detach_Request_while_waiting_for_Modify_Bearer_Response.LW
p374
aVtc_103_831_DPR_cause_BUSY.LW
p375
aVtc_103_854_error_code_DIAMETER_INVALID_AVP_VALUE.LW
p376
aVtc_103_1101_resending_AIR_interfering_CLR.LW
p377
aVtc_103_1145_sx_resend__CCR_U_retransmit_but_no_resending.LW
p378
aVtc_238_052_mme_eps_irat_ho_target__tau_request_during_wf_handover_notify.LW
p379
aVtc_238_231_mme_eps_irat_Gn_ho_target_macro_eNB_format_targetid_HeNB_GW_table_matched.LW
p380
aVtc_241_801_israu_interfering_context_request_no_cancel_location_s4.LW
p381
aVtc_298_783_S4_3GDT_downlink_data_notification_wait_MBR_ef_detach.LW
p382
aVtc_194_085_hss_reset_after_subdata_read_from_cache.LW
p383
aVtc_260_070_mbms_session_start_af_gw_resend_request_msg_diff_absolute_time.LW
p384
aVtc_318_107_sgw_restart_mf_one_of_pdns_create_after_sgw_restart.LW
p385
aVtc_220_403_csfb_to_1xrtt_in_ecm_connected_path_switch_request_HO_success.LW
p386
aVtc_218_311_tau_from_sgsn_preserved_gbr_bearer_buffer_1_ubr_1_cbr.LW
p387
aVtc_44_810_mme_assoc_reestablish__abort_s1_mme.LW
p388
aVtc_44_004_small_restart__sctp_fe_restart.LW
p389
aVtc_51_011_intra_srns_reloc_all_rabs_not_allocated_in_target_rnc.LW
p390
aVtc_23_09_transfer_to_primary_and_change_vip_addr.LWG
p391
aVtc_214_061_combined_attach_combined_tau_interfering_non_combined_attach.LWG
p392
aVtc_214_1126_la_selection_mf_oldlapreferred_combined_intra_tau_after_imsi_detach_triggered_by_sgs_paging.LWG
p393
aVtc_225_104_mo_call_active_mode_downlink_data_failure.LWG
p394
aVtc_316_405_Periodic_Backup_IMEI_Attach_Emergency__No_UE_Backup.LWG
p395
aVtc_236_307_Activation_DtSelMode_5_APN_requested_wrong_SGSN_default_APN_in_APN_list_TAC_in_TAC_list.LWG
p396
aVtc_309_106_internal_class_sends_no_notification.LWG
p397
aVtc_310_001_mf__S3_same_SGW_1_voice_bearer_1_PDN_no_emergency_PDN.LWG
p398
aVtc_306_1130_ef_seamless_move_target_receive_detach_request_with_switchoff_wf_service_request.LWG
p399
aVtc_110_001_inbound_outbound_pf_policy_cli.LWG
p400
aVtc_110_005_inbound_outbound_pf_rule_cli_ip.LWG
p401
aVtc_202_102_small_restart.LWG
p402
aVtc_39_780_smooth_move_service_request_wf_move_ms_finished.LWG
p403
aVtc_183_011_itc_trace_file_wrap.LWG
p404
aVtc_194_100_check_gauge_unstable_not_parked.LWG
p405
aVtc_132_002_create_ip_interface_eth.LWG
p406
aVtc_313_001_inter_new_srns_reloc_s16_without_sgw_change.LWG
p407
aVtc_11_645_downlink_gtpu_wf_paging_resp_ef_transfer_service_req_data.LWG
p408
aVtc_666_06_block_rt_board.LWG
p409
aVtc_324_121_af_service_request_with_data_only_ulr_timeout_3gdt.LWG
p410
aVtc_208_43_interception_after_small_restart.LWG
p411
aVtc_326_406_Inter_TAU_Recovery_Unkonwn_GUTI__1xrtt_CS_Registration_Then_CSFB_To_1xRTT.LWG
p412
aVtc_231_640_activate_pdp_interfered_by_detach_reqeust.LWG
p413
aVtc_205_71_03_ss7_M3UA_ASP_counters.LWG
p414
aVtc_73_21_itc_gtpu_s4_sgsn_send_echo_request_w.LWG
p415
aVtc_220_593_csfb_to_1xrtt_context_request_during_extended_service_request.LWG
p416
aVtc_241_801_israu_interfering_context_request_no_cancel_location_s4.LWG
p417
aVtc_44_071_attach_long_imsi.LWG
p418
aVtc_110_003_inbound_outbound_pf_rule_cli_icmp.LWG
p419
aVtc_244_055_mt_lr_cancel_location_with_update_procedure_received_wf_location_report.LWG
p420
aVtc_324_224_ef_detach_request_abort_wf_security_mode_complete.LWG
p421
aVtc_324_364_ef_cancel_location_with_subscriptionWithdraw_wf_security_hss.LWG
p422
aVtc_103_831_DPR_cause_BUSY.LWG
p423
aVtc_250_67_s6d_activation_with_EPS_data_s4_license_off.LWG
p424
aVtc_119_202_ospf_interface_opt_vals.LWG
p425
aVtc_47_004_mobile_reachble_timer_ap_loss.LWG
p426
aVtc_263_200_Attach_Flow_Pb__Detach_Request_Power_Off_while_waiting_for_Initial_Context_Setup_Response.LWG
p427
aVtc_194_601_DSD__IMSI_Unknown.LWG
p428
aVtc_205_71_03_ss7_M3UA_ASP_counters.LWG
p429
aVtc_218_217_2_TAU_from_SGSN__create_bearer_request_while_waiting_for_Initial_Context_Setup_Response.LWG
p430
aVtc_218_407_tau_from_sgsn_two_pdn_connections_one_ok_one_failed_due_to_sgw_selection.LWG
p431
aVtc_306_1130_ef_seamless_move_target_receive_detach_request_with_switchoff_wf_service_request.LWG
p432
aVtc_304_263_tau_from_gnsgsn_when_wf_tau_complete_control_mode_reject_congestion.LWG
p433
aVtc_141_028_eth_v6_traffic_conf_deconf_vlan.LWG
p434
aVtc_666_02_reboot_ss7_board.LWG
p435
aVtc_666_06_block_rt_board.LWG
p436
aVtc_59_9_mtmsi_restart_counter.LWG
p437
aVtc_236_107_s4_3gdt_based_on_sr_change_DtThresholdNumber.LWG
p438
aVtc_236_307_Activation_DtSelMode_5_APN_requested_wrong_SGSN_default_APN_in_APN_list_TAC_in_TAC_list.LWG
p439
aVtc_44_871_mme_assoc_reestablish__board_block_sbc.LWG
p440
aVtc_313_001_inter_new_srns_reloc_s16_without_sgw_change.LWG
p441
aVtc_313_234_inter_new_srns_reloc_s16_with_sgw_change_service_request_direct_transfer_received_bf_rau_complete.LWG
p442
aVtc_132_002_create_ip_interface_eth.LWG
p443
aVtc_220_403_csfb_to_1xrtt_in_ecm_connected_path_switch_request_HO_success.LWG
p444
aVtc_256_140_mme_eps_srvcc_ho_source_cs_only_initial_ue_tau_request_wf_delete_bearer_request.LWG
p445
aVtc_73_14_itc_paging_and_store_of_dl_packets_gtp99.WG14a
p446
aVtc_313_001_inter_new_srns_reloc_s16_without_sgw_change.WG14a
p447
aVtc_304_266_tau_from_gnsgsn_2g_control_mode_wf_delete_all_bearers_response_exception_case_reject_congestion_subscriber_cancelled.L14b
p448
aVtc_261_15_tau_intra_home_voip_none_plmn_support.L14b
p449
aVtc_220_413_csfb_to_1xrtt_in_ecm_connected_handover_required_meanwhile_CBR_received.L14b
p450
aVtc_276_045_Inter_TAU_New_MME__S1_Reset_while_waiting_for_Identity_Response__enhanced_imei_check.L14b
p451
aVtc_262_700_attach_t3412_extended.L14b
p452
aVtc_310_001_mf__S3_same_SGW_1_voice_bearer_1_PDN_no_emergency_PDN.L14b
p453
aVtc_44_042_config_ep_S6a.L14b
p454
aVtc_44_043_config_ep_SGs.L14b
p455
aVtc_44_201_sctp_endpoint_config__modify_rt_Diameter.L14b
p456
aVtc_44_810_mme_assoc_reestablish__abort_s1_mme.L14b
p457
aVtc_44_830_mme_assoc_reestablish__local_ep_restart_s1_mme.L14b
p458
aVtc_44_840_mme_assoc_reestablish__device_restart_s1_mme.L14b
p459
aVtc_44_860_mme_assoc_reestablish__sctp_fe_restart_s1_mme.L14b
p460
aVtc_44_870_mme_assoc_reestablish__board_block_s1_mme.L14b
p461
aVtc_44_890_mme_assoc_reestablish__service_request_on_reestablished_sctp_association.L14b
p462
aVtc_44_897_mme_assoc_reestablish__emergency_attach.L14b
p463
aVtc_44_831_mme_assoc_reestablish__local_ep_restart_sbc.L14b
p464
aVtc_44_871_mme_assoc_reestablish__board_block_sbc.L14b
p465
aVtc_274_266_Intra_and_pTAU__Path_Switch_Request_with_new_TA_while_waiting_for_TAU_Request_after_HO.L14b
p466
aVtc_225_321_mt_call_active_mode_nas_non_delivery__cs_service_notification__handover_required_meanwhile_CBR_received.L14b
p467
aVtc_103_903_primary_or_secondary_realm_routing_own_realm.L14b
p468
aVtc_293_004_X2_Based_HO__Initial_UE_TAU_Request_from_source_eNodeB_while_wf_TAU_request.L14b
p469
aVtc_329_310_s1_inter_ho_target_rs_restricted.L14b
p470
aVtc_43_040_eNB_configuration_update_mf.L14b
p471
aVtc_43_100__removal_of_disconnected_eNodeBs__alarm_and_gauge.L14b
p472
aVtc_195_406_ue_trace_start_meanwhile_handover_required.L14b
p473
aVtc_257_30_pws_sctp_device_failure.L14b
p474
aVtc_40_010_mo_sms_camel_connect_sms.LW
p475
aVtc_11_335_apnresolving_cc27_check_session_log.LW
p476
aVtc_44_340_sctp_counter_index_SGsAP.LW
p477
aVtc_44_871_mme_assoc_reestablish__board_block_sbc.LW
p478
aVtc_32_75_test_transfer_2.LW
p479
aVtc_310_001_mf__S3_same_SGW_1_voice_bearer_1_PDN_no_emergency_PDN.LW
p480
aVtc_236_048_s4_3gdt_deactivation_during_waiting_for_modify_bearer_rsp_in_activation_procedure_no_context.LW
p481
aVtc_318_116_sgw_restart_mf_one_pdn_with_relocate_by_ReleaseAccessBearersResponse.LW
p482
aVtc_218_311_tau_from_sgsn_preserved_gbr_bearer_buffer_1_ubr_1_cbr.LW
p483
aVtc_250_105_ignore_IDR_when_EPS_sub_downgrade_GPRS_sub.LW
p484
aVtc_324_090_af_frca_timeout_service_request_with_inactive_pdp_context_status.LW
p485
aVtc_324_214_ef_attach_request_abort_wf_modify_bearer_response_direct_transfer.LW
p486
aVtc_324_432_ef_payload_buffered_wf_rab_assignment_response_with_different_contextId.LW
p487
aVtc_82_022_rab_modify_interrupted_by_israu_II.LW
p488
aVtc_298_145_EF_NRSPCA_interfere_Activation.LW
p489
aVtc_241_754_intra_rau_with_multi_bearer_sgw_change_one_context_failed_node_function_deactivate_pdp_after_rau_on.LW
p490
aVtc_286_120_pdn_disconnect_delete_session_no_response_from_sgw.LW
p491
aVtc_275_216_tau_inter_new_emergency_type_a_restricted.LW
p492
aVtc_39_771_mas_rnc_reset_when_wf_ptmsi_realloc_cmpl_source.LW
p493
aVtc_194_991_downlink_A21_AIS_during_waiting_location_report__idr_flags_ef.LW
p494
aVtc_23_13_israu_out.LW
p495
aVtc_202_421_af_seamless_move_target_initialCtxSetupResponse_noSuccDefaultBearer_implicit_detach.LW
p496
aVtc_274_272_Intra_and_pTAU__Handover_Required_with_old_TA_MSC_not_change_while_waiting_for_Location_Update_Response.LW
p497
aVtc_274_430_Intra_and_pTAU__Insert_Subscriber_Data_Request_with_ODB_Bit0_while_wf_Initial_Context_Setup_Response.LW
p498
aVtc_324_021_mf_payload_after_ack_service_req_data_paging_response_3gdt.W14b
p499
aVtc_324_040_af_priority_level_higher.W14b
p500
aVtc_324_062_af_frcn_fail.W14b
p501
aVtc_324_115_af_all_rab_fai_to_setup_after_ulr_3gdt.W14b
p502
aVtc_324_205_ef_attach_request_abort_wf_update_location_hss.W14b
p503
aVtc_236_048_s4_3gdt_deactivation_during_waiting_for_modify_bearer_rsp_in_activation_procedure_no_context.W14b
p504
aVtc_11_091_activate_secondary_pdp_context_wrong_LinkedTI.W14b
p505
aVtc_313_001_inter_new_srns_reloc_s16_without_sgw_change.W14b
p506
aVtc_313_213_inter_new_srns_reloc_s16_without_sgw_change_transfered_attach_request_received_wf_modify_bearer_response.W14b
p507
aVtc_231_116_rnc_resetresource_when_ms_act_si_ms_deact_rab_est.W14b
p508
aVtc_298_654_pgw_init_modification_mf_3gdt_enable.W14b
p509
aVtc_322_161_smooth_move_ef_nas_after_paging_response_ignore.W14b
p510
aVtc_334_311_pgw_restart_after_s4_move_3gdt.W14b
p511
aVtc_239_620_inter_rau_new_with_bearer_sgw_not_change_isd_odb_bit0_wf_rau_compl_deactivation.G14b
p512
aVtc_208_43_interception_after_small_restart.G14b
p513
aVtc_100_67_intra_w_to_g_mf_with_lawful_intercept.LWG
p514
aVtc_246_068_israu_new_l_to_g_sgw_change_ubr_before_rau_complete_interfered_by_intra_rau_sgw_unchange_wf_rau_complete.LWG
p515
aVtc_257_30_pws_sctp_device_failure.LWG
p516
aVtc_119_202_ospf_interface_opt_vals.LWG
p517
aVtc_241_801_israu_interfering_context_request_no_cancel_location_s4.LWG
p518
aVtc_205_71_03_ss7_M3UA_ASP_counters.LWG
p519
aVtc_236_048_s4_3gdt_deactivation_during_waiting_for_modify_bearer_rsp_in_activation_procedure_no_context.LWG
p520
aVtc_208_43_interception_after_small_restart.LWG
p521
aVtc_666_02_reboot_ss7_board.LWG
p522
aVtc_666_06_block_rt_board.LWG
p523
aVtc_244_051_mt_lr_delete_bearer_request_received_wf_location_report.LWG
p524
aVtc_110_005_inbound_outbound_pf_rule_cli_ip.LWG
p525
aVtc_44_851_mme_assoc_reestablish__board_restart_sbc.LWG
p526
aVtc_44_871_mme_assoc_reestablish__board_block_sbc.LWG
p527
aVtc_59_9_mtmsi_restart_counter.LWG
p528
aVtc_159_200_check_ctum_log.LWG
p529
aVtc_326_203_Intra_TAU_after_node_restart_with_two_retrieval_responses_with_SGW_change_with_emergency_PDN.LWG
p530
aVtc_326_406_Inter_TAU_Recovery_Unkonwn_GUTI__1xrtt_CS_Registration_Then_CSFB_To_1xRTT.LWG
p531
aVtc_326_380_Service_Request_with_unknown_STMSI_multiple_retrieve_responses.LWG
p532
aVtc_324_131_af_service_request_data_isd_timeout_3gdt.LWG
p533
aVtc_342_864_online_change_LI_U.LWG
p534
aVtc_202_17_service_request_during_release_access_bearers.LWG
p535
aVtc_578_23_check_usc_report.LWG
p536
aVtc_284_351_pdn_connectivity_pb_activate_1_dedicated_bearer_interrupted_by_path_switch_request.LWG
p537
aVtc_39_930_pool_smooth_move_AF_no_cancel_location.LWG
p538
aVtc_11_017_activate_pco_length_more_than_252_included_from_ggsn.LWG
p539
aVtc_11_027_activate_2_primary_pdp_context_static_address_same_apn_and_pdpaddress.LWG
p540
aVtc_11_335_apnresolving_cc27_check_session_log.LWG
p541
aVtc_11_644_downlink_gtpu_wf_paging_resp_ef_transfer_attach.LWG
p542
aVtc_304_416_Service_Request_UE_Initiated__control_mode_threshold_exceeded_implicit_detach_int_prot_nok.LWG
p543
aVtc_263_241_Attach_Flow__Attach_Request_with_diff_IE_while_waiting_for_identification_response.LWG
p544
aVtc_23_09_transfer_to_primary_and_change_vip_addr.LWG
p545
aVtc_298_317_EF_SIBD_S4_Create_Bearer_Request.LWG
p546
aVtc_239_111_inter_rau_new_unchanged_sgw_two_pdn_connection_report_sn.LWG
p547
aVtc_97_035_inter_sgsn_psho_mf_with_lawful_intercept.LWG
p548
aVtc_306_1130_ef_seamless_move_target_receive_detach_request_with_switchoff_wf_service_request.LWG
p549
aVtc_293_040_X2_Based_HO__Downlink_A21_AIS_while_wf_Modify_Bearer_Response.LWG
p550
aVtc_327_225_recovery_service_request__Delete_Subscriber_Data_while_waiting_for_Create_Session_Response.LWG
p551
aVtc_327_552_Recovery_for_DDN__Service_Request_while_waiting_for_Ue_Backup_Response.LWG
p552
aVtc_250_67_s6d_activation_with_EPS_data_s4_license_off.LWG
p553
aVtc_337_005_validation_move_manually_stopped_between_two_pool_moves_smooth_move.LWG
p554
aVtc_200_82_move_detach_intra_rau.G14b
p555
aVtc_208_43_interception_after_small_restart.G14b
p556
aVtc_194_079_cl_subscription_withdrawn_during_ul.LW
p557
aVtc_52_19_inter_old_srns_reloc_camel_subscr.LW
p558
aVtc_52_40_reloc_wf_forw_rel_compl_interrupted_by_rau_on_new_iu.LW
p559
aVtc_52_47_inter_old_srns_reloc_main_flow_interfered_by_ms_modify.LW
p560
aVtc_578_23_check_usc_report.LW
p561
aVtc_313_001_inter_new_srns_reloc_s16_without_sgw_change.LW
p562
aVtc_313_023_inter_new_srns_reloc_s16_with_sgw_change_charging.LW
p563
aVtc_303_001_MT_CSFB_to_1xRTT_idle__S1_Reset_while_wf_Initial_Context_Setup_Response.LW
p564
aVtc_53_35_inter_new_srns_reloc_interfering_signal_cancel_location_wf_rau_complete.LW
p565
aVtc_12_512_pmm_undefined_attach_when_updating_location_interfered_by_rnc_reset.LW
p566
aVtc_324_201_ef_attach_request_abort_wf_modify_bearer_response.LW
p567
aVtc_231_275_rab_release_si_deactivate_with_TDI_false_TI_dedicated_bearer.LW
p568
aVtc_273_101_tau_intra_wrong_guti_2.LW
p569
aVtc_11_645_downlink_gtpu_wf_paging_resp_ef_transfer_service_req_data.LW
p570
aVtc_199_83_imsi_attach_echo_alarm.LW
p571
aVtc_346_546_AF__HO_Inter_Target__2PDN_BCM_Sx_only_one_CCA_U_cause_5003.LW
p572
aVtc_214_1126_la_selection_mf_oldlapreferred_combined_intra_tau_after_imsi_detach_triggered_by_sgs_paging.LW
p573
aVtc_51_107_intra_srns_reloc_ipv4v6_daf_on.LW
p574
aVtc_318_116_sgw_restart_mf_one_pdn_with_relocate_by_ReleaseAccessBearersResponse.LW
p575
aVtc_166_003_establish_two_tunnel_since_ggsn_gtpv0.WG14a
p576
aVtc_33_17_isc_rau_authenticating_interrupted_by_subscription_withdrawn.WG14a
p577
aVtc_340_130_intra_rau_during_validation_move_job_with_trigger_move_configured.WG14a
p578
aVtc_313_001_inter_new_srns_reloc_s16_without_sgw_change.WG14a
p579
aVtc_346_493_Small_Local_Restart__Terminate_when_UE_S1_release.L14b
p580
aVtc_275_731_inter_tau_target_with_emergency_pdn_regardless_of_odb_function__odb_bit0.L14b
p581
aVtc_103_005_destination_realm_is_not_realm_of_a_peer.L14b
p582
aVtc_103_1101_resending_AIR_interfering_CLR.L14b
p583
aVtc_43_040_eNB_configuration_update_mf.L14b
p584
aVtc_203_324_mme_eps_ho_source_type_d__TAU_Request_while_wf_Forw_Reloc_Comp_Notification.L14b
p585
aVtc_214_1099_la_selection_mf_reselection_combined_tau_with_imsi_attach_after_mme_triggered_imsi_detach_when_handling_sgs_paging.L14b
p586
aVtc_293_004_X2_Based_HO__Initial_UE_TAU_Request_from_source_eNodeB_while_wf_TAU_request.L14b
p587
aVtc_310_001_mf__S3_same_SGW_1_voice_bearer_1_PDN_no_emergency_PDN.L14b
p588
aVtc_266_011_DownlinkDataNotification_interfering_ISD_sgsn00026976.L14b
p589
aVtc_266_020_DownlinkDataFailureInd_repeat_paging_timer_on.L14b
p590
aVtc_266_026_DownlinkDataFailureInd_repeat_paging_timer_small_local_restart.L14b
p591
aVtc_274_262_Intra_and_pTAU__Path_Switch_Request_with_old_TA_MSC_not_change_while_waiting_for_Location_Update_Response.L14b
p592
aVtc_274_430_Intra_and_pTAU__Insert_Subscriber_Data_Request_with_ODB_Bit0_while_wf_Initial_Context_Setup_Response.L14b
p593
aVtc_276_045_Inter_TAU_New_MME__S1_Reset_while_waiting_for_Identity_Response__enhanced_imei_check.L14b
p594
aVtc_578_23_check_usc_report.L14b
p595
aVtc_304_109_initial_ue_intra_tau_control_mode_threshold_exceeded_usc_detach_then_reattach.L14b
p596
aVtc_195_417_ue_trace_deactivate_trace_s1_intra_system_handover_triggered_HO_ongoing_timeout.L14b
p597
aVtc_44_040_config_ep_S1.L14b
p598
aVtc_44_831_mme_assoc_reestablish__local_ep_restart_sbc.L14b
p599
aVtc_44_871_mme_assoc_reestablish__board_block_sbc.L14b
p600
aVtc_193_008_background_fetching_s1_sel_freq_1.L14b
p601
aVtc_313_001_inter_new_srns_reloc_s16_without_sgw_change.W14b
p602
aVtc_313_006_inter_new_srns_reloc_s16_without_sgw_change_two_pdns_with_dedicate_bearer_one_pdn_failed.W14b
p603
aVtc_313_130_inter_new_srns_reloc_s16_with_sgw_change_waiting_for_create_session_response_timeout.W14b
p604
aVtc_313_245_inter_new_srns_reloc_s16_with_sgw_change_cancel_location_subscription_withdrawn_received_from_hlr_wf_rau_complete.W14b
p605
aVtc_39_739_iu_release_request_user_inactivity_ignore_target.W14b
p606
aVtc_245_338_israu_new_l_to_w_buffer_ubr_interferred_with_modify_pdp_request.W14b
p607
aVtc_324_305_ef_gr_provide_subscriber_information_service_request_after_ack.W14b
p608
aVtc_324_440_ebt_ddn_received_non_gbr_rab_partially_success_wf_ula.W14b
p609
aVtc_231_705_activation_empty_apn_ApnRedirectToSubscribedApn_false.W14b
p610
aVtc_11_219_activate_primary_APN_test_I.W14b
p611
aVtc_322_161_smooth_move_ef_nas_after_paging_response_ignore.W14b
p612
aVtc_183_005_itc_folder_file_names.LWG
p613
aVtc_59_12_sequence_on_demand_indexbased_replica_values_during_takeover.LWG
p614
aVtc_59_9_mtmsi_restart_counter.LWG
p615
aVtc_256_143_mme_eps_srvcc_ho_source_cs_only_initial_ue_extended_service_request_wf_srvcc_ps_to_cs_response.LWG
p616
aVtc_306_1130_ef_seamless_move_target_receive_detach_request_with_switchoff_wf_service_request.LWG
p617
aVtc_313_114_inter_new_srns_reloc_s16_with_sgw_change_qos_exceed_to_policy_map_pl.LWG
p618
aVtc_324_137_af_service_request_data_only_utran_not_allowed_3gdt.LWG
p619
aVtc_295_107_Intra_S1_HO__UE_Context_Release_Request_from_Target_while_waiting_for_TAU_Request.LWG
p620
aVtc_340_34_validation_move_g_s4_filter_all_apn.LWG
p621
aVtc_44_895_mme_assoc_reestablish__s1_setup_when_iterator_started_finished.LWG
p622
aVtc_44_871_mme_assoc_reestablish__board_block_sbc.LWG
p623
aVtc_241_159_israu_old_wait_for_sgsn_context_ack_interfere_by_reset_and_detach.LWG
p624
aVtc_241_431_intra_rau_with_bearer_sgw_unchange_2_pdns_with_one_modify_no_response.LWG
p625
aVtc_241_600_intra_rau_s4_sgsn_wf_create_session_response_intefered_by_detach_request.LWG
p626
aVtc_289_103_multi_pdns_pgw_init_bearer_mod_ecm_idle_interrupted_by_dbr_with_lbi.LWG
p627
aVtc_326_406_Inter_TAU_Recovery_Unkonwn_GUTI__1xrtt_CS_Registration_Then_CSFB_To_1xRTT.LWG
p628
aVtc_326_245_Intra_TAU_Recovery_TAU_Complete_timeout.LWG
p629
aVtc_232_402_bfd__ipv6_alarm.LWG
p630
aVtc_578_23_check_usc_report.LWG
p631
aVtc_205_71_03_ss7_M3UA_ASP_counters.LWG
p632
aVtc_159_200_check_ctum_log.LWG
p633
aVtc_194_1554_HSS_initiated_ISD_in_Connected_mode_when_current_CSG_Id_removed__TAU_Request.LWG
p634
aVtc_16_063_SNw_sameAp_israu_back_before_t3.LWG
p635
aVtc_208_43_interception_after_small_restart.LWG
p636
aVtc_202_02_ecm_idle_s1_release.LWG
p637
aVtc_119_101_ospf_area_cli.LWG
p638
aVtc_11_031_activate_one_primary_secondary_fails_due_to_FLS.LWG
p639
aVtc_11_090_activate_primary_and_secondary_pdp_context.LWG
p640
aVtc_250_182_s6d_inter_new_rau_ul_rejected_roaming_not_allowed_remap_on_with_err_diag.LWG
p641
aVtc_132_002_create_ip_interface_eth.LWG
p642
aVtc_221_150_paging__counter_VS_MM_S1PagingMessages.LWG
p643
aVtc_297_407_move_at_periodic_rau.G14b
p644
aVtc_11_368_activate_ipv4v6_pdp_context_isd_pdp_type_single_to_dual.W14b
p645
aVtc_324_014_mf_ser_req_data_instead_of_ack_rnc_not_support_3gdt.W14b
p646
aVtc_324_137_af_service_request_data_only_utran_not_allowed_3gdt.W14b
p647
aVtc_324_396_af_gbr_bearer_admission_control_pass_2_Bearers.W14b
p648
aVtc_314_101_sgsn_init_qos_mod_inter_srns_reloc_with_sgw_change.W14b
p649
aVtc_313_001_inter_new_srns_reloc_s16_without_sgw_change.W14b
p650
aVtc_313_005_inter_new_srns_reloc_s16_without_sgw_change_one_pdn_with_dedicate_bearer_partially_success.W14b
p651
aVtc_313_231_inter_new_srns_reloc_s16_with_sgw_change_rau_request_direct_transfer_received_wf_forward_reloc_complete_ack.W14b
p652
aVtc_322_131_smooth_move_ef_context_request_wf_paging_response.W14b
p653
aVtc_39_420_mas_one_pdp_srv_req_upd_loc_ack_after_rab_assign_resp_target.W14b
p654
aVtc_266_011_DownlinkDataNotification_interfering_ISD_sgsn00026976.L14b
p655
aVtc_329_310_s1_inter_ho_target_rs_restricted.L14b
p656
aVtc_326_406_Inter_TAU_Recovery_Unkonwn_GUTI__1xrtt_CS_Registration_Then_CSFB_To_1xRTT.L14b
p657
aVtc_103_701_MME_restarts.L14b
p658
aVtc_103_702_CEA_timeout.L14b
p659
aVtc_295_135_mt_call_during_Intra_S1_HO_SGSN_Context_Request_while_wf_the_tau.L14b
p660
aVtc_225_050_csfb_to_wg_in_ecm_idle_with_gbr_bears.L14b
p661
aVtc_225_405_mt_call_idle_mode_while_ps_paging.L14b
p662
aVtc_225_638_exp_flow_handover_required_inter_while_wf_release_access_bearer_response.L14b
p663
aVtc_332_014_mf__paging_due_to_update_bearer_request_QoS_update_for_some_bearers.L14b
p664
aVtc_211_024_streamed_cell_trace_mapping_alarm_ipv6.L14b
p665
aVtc_43_040_eNB_configuration_update_mf.L14b
p666
aVtc_43_100__removal_of_disconnected_eNodeBs__alarm_and_gauge.L14b
p667
aVtc_214_513_combined_attach_after_paging_sms_indicate_no_lu.L14b
p668
aVtc_214_822_SGW_unavailable_Combined_Attach_mt_sms.L14b
p669
aVtc_214_1078_la_selection_mf_oldmscpreferred_combined_intra_tau_la_with_old_msc_not_candidate.L14b
p670
aVtc_220_413_csfb_to_1xrtt_in_ecm_connected_handover_required_meanwhile_CBR_received.L14b
p671
aVtc_281_029_Activate_bearer__ERAB_setup_response_s1_inta_system_handover_triggered_resend_2_times.L14b
p672
aVtc_281_071_conclude_dedicated_bearer_activation_for_interfered_x2_intra_handover.L14b
p673
aVtc_194_991_downlink_A21_AIS_during_waiting_location_report__idr_flags_ef.L14b
p674
aVtc_262_1031_emergency_imsi_attach_multiple_pgw_try_next_pgw_fqdn_error.L14b
p675
aVtc_44_042_config_ep_S6a.L14b
p676
aVtc_44_044_config_ep_SLg.L14b
p677
aVtc_44_045_config_ep_SBc.L14b
p678
aVtc_44_850_mme_assoc_reestablish__board_restart_s1_mme.L14b
p679
aVtc_44_860_mme_assoc_reestablish__sctp_fe_restart_s1_mme.L14b
p680
aVtc_44_841_mme_assoc_reestablish__device_restart_sbc.L14b
p681
aVtc_44_871_mme_assoc_reestablish__board_block_sbc.L14b
p682
aVtc_44_895_mme_assoc_reestablish__s1_setup_when_iterator_started_finished.L14b
p683
aVtc_316_253_Combined_Attach_UE_Init_IMSI_Detach_Remove_Sgs_Association__Update_UE_Backup.L14b
p684
aVtc_202_550_af_seamless_move_by_mme_ue_ecm_idle_paging_failed_due_to_OLP.L14b
p685
aVtc_578_23_check_usc_report.L14b
p686
aVtc_276_381_Inter_TAU_New_MME__active_flag_false_Update_Bearer_Request_and_new_TAU_wf_TAU_Complete.L14b
p687
aVtc_304_124_uplink_nas_intra_tau_control_mode_threshold_exceeded_usc_reject_lead_to_implicit_detach_wf_icsr.L14b
p688
aVtc_304_266_tau_from_gnsgsn_2g_control_mode_wf_delete_all_bearers_response_exception_case_reject_congestion_subscriber_cancelled.L14b
p689
aVtc_244_531_SLg_Location_Request__other_SGs_messages_wwf_Location_Response_from_ESMLC.L14b
p690
aVtc_306_1104_ef_seamless_move_target_ecm_idle_receive_sgs_paging_with_sms_indicator_wf_lua.L14b
p691
aVtc_306_1379_ef_seamless_move_target_receive_downlink_unitdata_af_lua_wf_service_request_ignore.L14b
p692
aVtc_292_178_X2_Based_HO_interfered_by_MT_Call_then_interfered_by_Newly_TAU_Req.L14b
p693
aVtc_256_360_mme_eps_srvcc_ho_source_cs_only_triggered_by_lcs.L14b
p694
aVtc_327_170_recovery_intra_TAU_SGSN_Context_Request_while_waiting_for_Create_Session_Response.L14b
p695
aVtc_203_324_mme_eps_ho_source_type_d__TAU_Request_while_wf_Forw_Reloc_Comp_Notification.L14b
p696
aVtc_261_20_isd_tads_combined_attach.L14b
p697
aVtc_293_004_X2_Based_HO__Initial_UE_TAU_Request_from_source_eNodeB_while_wf_TAU_request.L14b
p698
aVtc_293_241_X2_Based_HO__location_report_while_wf_update_location_wf_location_update.L14b
p699
aVtc_322_161_smooth_move_ef_nas_after_paging_response_ignore.WG14a
p700
aVtc_322_126_smooth_move_ef_cancel_location_initialAttach_wf_cancel_location.WG14a
p701
aVtc_313_001_inter_new_srns_reloc_s16_without_sgw_change.WG14a
p702
aVtc_327_105_recovery_intra_TAU__Cancel_Location_subscription_withdrawal_while_waiting_for_Ue_Backup_Response.LW
p703
aVtc_313_001_inter_new_srns_reloc_s16_without_sgw_change.LW
p704
aVtc_219_131_s3_handover_w_to_l_with_cl_two_pdns_one_failed_sgw_relocation.LW
p705
aVtc_298_073_s4_nrspca_activate_same_nsapi_of_dedicated_bearer_rab_released.LW
p706
aVtc_298_667_pgw_init_modification_af_bearer_pco_take_precedence.LW
p707
aVtc_12_157_service_request_identity_check_no_response.LW
p708
aVtc_293_040_X2_Based_HO__Downlink_A21_AIS_while_wf_Modify_Bearer_Response.LW
p709
aVtc_256_382_Sv_Path_Mgt__available_MSC_disable_Sv.LW
p710
aVtc_324_011_mf_ser_req_data_instead_of_ack_partially_rab_no_3gdt.LW
p711
aVtc_324_386_ef_mt_sms_wf_frcn_wf_frca_wf_ula.LW
p712
aVtc_44_831_mme_assoc_reestablish__local_ep_restart_sbc.LW
p713
aVtc_44_871_mme_assoc_reestablish__board_block_sbc.LW
p714
aVtc_44_860_mme_assoc_reestablish__sctp_fe_restart_s1_mme.LW
p715
aVtc_220_403_csfb_to_1xrtt_in_ecm_connected_path_switch_request_HO_success.LW
p716
aVtc_289_103_multi_pdns_pgw_init_bearer_mod_ecm_idle_interrupted_by_dbr_with_lbi.LW
p717
aVtc_23_34_record_two_cause_codes.LW
p718
aVtc_23_38_get_cause_codes_from_rab_release_request_and_iu_release_cmd_cause_diff.LW
p719
aVtc_23_41_filter_cause_code_succ_relocation.LW
p720
aVtc_329_403_x2_ho_rs_restrict_emergency_plmn_change.LW
p721
aVtc_310_001_mf__S3_same_SGW_1_voice_bearer_1_PDN_no_emergency_PDN.LW
p722
aVtc_310_302_ef__Cancel_Location_wf_Delete_Session_Response_old_SGW.LW
p723
aVtc_578_23_check_usc_report.LW
p724
aVtc_284_350_pdn_connectivity_interrupted_by_path_switch_request.LW
p725
aVtc_288_205_pgw_init_bearer_mod_QoS_UE_timeout_for_all_bearers.LW
p726
aVtc_11_075_deactivate_sgsn_initiated_delete_subscriber_data_pmm_idle.LW
p727
aVtc_11_226_activate_primary_APN_test_VIII.LW
p728
aVtc_247_151_inter_w_to_l_old_sgsn_context_request_wf_3gdt_ue_lost_relocation_cancel_response.LW
p729
aVtc_306_1130_ef_seamless_move_target_receive_detach_request_with_switchoff_wf_service_request.LW
p730
aVtc_306_1308_ef_seamless_move_target_buffer_update_bearer_request.LW
p731
aVtc_241_754_intra_rau_with_multi_bearer_sgw_change_one_context_failed_node_function_deactivate_pdp_after_rau_on.LW
p732
aVtc_324_201_ef_attach_request_abort_wf_modify_bearer_response.W14b
p733
aVtc_39_046_attach_move_timeout_during_israu_old.W14b
p734
aVtc_26_162_service_request_after_ISRAU_complete_with_subscriber_data_changed.W14b
p735
aVtc_334_167_sgw_restart_mf_one_pdn_3gdt_to_be_relocated_idle.W14b
p736
aVtc_313_001_inter_new_srns_reloc_s16_without_sgw_change.W14b
p737
aVtc_313_108_inter_new_srns_reloc_s16_target_rnc_id_unknown.W14b
p738
aVtc_327_020_recovery_intra_TAU__uplink_Detach_Request_while_waiting_for_Modify_Bearer_Response.LW
p739
aVtc_26_221_activate_primary_apn_based_qos_policy_off.LW
p740
aVtc_324_258_ef_rau_request_wf_rab_assignment_response_wf_update_location_hss_service_req_data.LW
p741
aVtc_11_235_ser_req_interfer_deactivation.LW
p742
aVtc_11_255_apnresolving_apnopid_hplmn_present_apn_redirect_dont_log_cc33.LW
p743
aVtc_298_531_sgsn_init_pdn_deact_ef_deact_req_ti_dedicated_bearer_wf_delete_session_resp.LW
p744
aVtc_284_351_pdn_connectivity_pb_activate_1_dedicated_bearer_interrupted_by_path_switch_request.LW
p745
aVtc_293_040_X2_Based_HO__Downlink_A21_AIS_while_wf_Modify_Bearer_Response.LW
p746
aVtc_578_23_check_usc_report.LW
p747
aVtc_241_801_israu_interfering_context_request_no_cancel_location_s4.LW
p748
aVtc_194_190_hss_reset_apn_ambr_changed_followed_by_service_request.LW
p749
aVtc_194_991_downlink_A21_AIS_during_waiting_location_report__idr_flags_ef.LW
p750
aVtc_313_001_inter_new_srns_reloc_s16_without_sgw_change.LW
p751
aVtc_193_402_auth_vectors_answer_from_hss_with_more_vectors_than_requested.LW
p752
aVtc_304_266_tau_from_gnsgsn_2g_control_mode_wf_delete_all_bearers_response_exception_case_reject_congestion_subscriber_cancelled.LW
p753
aVtc_39_071_intra_rau_move_no_rau_complete_from_ms.LW
p754
aVtc_39_212_detach_trigger_paging_fails.LW
p755
aVtc_43_100__removal_of_disconnected_eNodeBs__alarm_and_gauge.LW
p756
aVtc_44_820_mme_assoc_reestablish__shutdown_s1_mme.LW
p757
aVtc_44_004_small_restart__sctp_fe_restart.LW
p758
aVtc_44_871_mme_assoc_reestablish__board_block_sbc.LW
p759
aVtc_256_194_mme_eps_srvcc_ho_source_cs_only_delete_subscription_wf_release_access_bearers_request.LW
p760
aVtc_310_001_mf__S3_same_SGW_1_voice_bearer_1_PDN_no_emergency_PDN.LW
p761
aVtc_23_17_volume_based_cdr.LW
p762
aVtc_210_053_tau_inter_new.LW
p763
aVtc_202_18_downlink_data_after_s1_release.LW
p764
aVtc_38_154_periodic_rau_no_follow_on.LW
p765
aVtc_340_130_intra_rau_during_validation_move_job_with_trigger_move_configured.WG14a
p766
aVtc_313_001_inter_new_srns_reloc_s16_without_sgw_change.WG14a
p767
aVtc_214_1140_la_selection_mf_oldlapreferred_prau_during_ue_restoration.LWG
p768
aVtc_202_41_type_a_emergency_pdn_ecm_idle.LWG
p769
aVtc_256_143_mme_eps_srvcc_ho_source_cs_only_initial_ue_extended_service_request_wf_srvcc_ps_to_cs_response.LWG
p770
aVtc_110_005_inbound_outbound_pf_rule_cli_ip.LWG
p771
aVtc_257_37_pws_etws_write_replace_warning_request_feature_off_when_olp_rshl_false.LWG
p772
aVtc_204_902_mme_eps_ho_target_with_odb_bit0_pdn_connectivity_request_wf_tau_complete.LWG
p773
aVtc_183_005_itc_folder_file_names.LWG
p774
aVtc_159_200_check_ctum_log.LWG
p775
aVtc_275_629_tau_inter_new_sgw_unavailable_no_other_sgw_found.LWG
p776
aVtc_12_512_pmm_undefined_attach_when_updating_location_interfered_by_rnc_reset.LWG
p777
aVtc_221_031__Selection_Table_Matches_On_ARP.LWG
p778
aVtc_578_23_check_usc_report.LWG
p779
aVtc_225_323_csfb_mt_call_X2_HO_NonDeliveryIndication_before_path_switch_ack.LWG
p780
aVtc_11_645_downlink_gtpu_wf_paging_resp_ef_transfer_service_req_data.LWG
p781
aVtc_26_025_activate_release_rab_streaming_context.LWG
p782
aVtc_26_021_activate_interrupted_by_insert_subscriber_data_I.LWG
p783
aVtc_26_068_activate_streaming_gbr_higher_than_512kbps.LWG
p784
aVtc_205_71_03_ss7_M3UA_ASP_counters.LWG
p785
aVtc_262_203_guti_attach_when_unauthenticated_attached.LWG
p786
aVtc_306_071_ef_seamless_move_source_receive_extended_service_request_wf_service_request.LWG
p787
aVtc_306_1130_ef_seamless_move_target_receive_detach_request_with_switchoff_wf_service_request.LWG
p788
aVtc_267_512_Service_Request_SGW_unavailable__S1_Reset_while_wf_Create_Session_Response.LWG
p789
aVtc_166_064_all_rab_release_reestablish_streaming.LWG
p790
aVtc_166_038_rnc_initiated_modify_ggsn_teid_change.LWG
p791
aVtc_44_004_small_restart__sctp_fe_restart.LWG
p792
aVtc_326_406_Inter_TAU_Recovery_Unkonwn_GUTI__1xrtt_CS_Registration_Then_CSFB_To_1xRTT.LWG
p793
aVtc_326_223_Intra_TAU_Recovery_fail_Identity_Response_timeout_then_Recover_successful.LWG
p794
aVtc_289_103_multi_pdns_pgw_init_bearer_mod_ecm_idle_interrupted_by_dbr_with_lbi.LWG
p795
aVtc_23_09_transfer_to_primary_and_change_vip_addr.LWG
p796
aVtc_208_43_interception_after_small_restart.G14b
p797
aVtc_297_407_move_at_periodic_rau.G14b
p798
aVtc_243_331_tau_from_sgsn_s3_emergency_type_d_no_restriction.L14b
p799
aVtc_326_203_Intra_TAU_after_node_restart_with_two_retrieval_responses_with_SGW_change_with_emergency_PDN.L14b
p800
aVtc_326_406_Inter_TAU_Recovery_Unkonwn_GUTI__1xrtt_CS_Registration_Then_CSFB_To_1xRTT.L14b
p801
aVtc_194_1558_HSS_initiated_ISD_Emergency_Type_A_in_Connected_mode_when_current_CSG_Id_removed.L14b
p802
aVtc_578_23_check_usc_report.L14b
p803
aVtc_266_026_DownlinkDataFailureInd_repeat_paging_timer_small_local_restart.L14b
p804
aVtc_44_040_config_ep_S1.L14b
p805
aVtc_44_871_mme_assoc_reestablish__board_block_sbc.L14b
p806
aVtc_276_045_Inter_TAU_New_MME__S1_Reset_while_waiting_for_Identity_Response__enhanced_imei_check.L14b
p807
aVtc_346_492_Small_Restart__No_Terminate_when_UE1_Attach_waiting_for_CCA_Initial_UE2_Attach_waiting_for_MBR.L14b
p808
aVtc_242_157_rau_to_sgsn_s3_type_b_emergency_allowed_irat_and_plmn_change.L14b
p809
aVtc_268_014_UE_Release_Flow__Downlink_A21_AIS_while_waiting_for_Relase_Access_Bearer_Response.L14b
p810
aVtc_293_040_X2_Based_HO__Downlink_A21_AIS_while_wf_Modify_Bearer_Response.L14b
p811
aVtc_310_001_mf__S3_same_SGW_1_voice_bearer_1_PDN_no_emergency_PDN.L14b
p812
aVtc_257_35_pws_etws_write_replace_warning_request_when_olp_rshl_false.L14b
p813
aVtc_277_103_tau_inter_old_plmn_change_unauthenticated_emergency_ongoing_implicit_detach.L14b
p814
aVtc_274_381_Intra_and_pTAU__Downlink_A21_AIS_while_waiting_for_Authentication_Response.L14b
p815
aVtc_103_1101_resending_AIR_interfering_CLR.L14b
p816
aVtc_303_004_X2_Based_HO__Downlink_A21_AIS_while_wf_TAU_Request_and_Emm_Information_in_nas_nondeliver.L14b
p817
aVtc_313_001_inter_new_srns_reloc_s16_without_sgw_change.WG14a
p818
aVtc_324_069_af_modify_bearer_dedicated_bearer_fail.WG14a
p819
aVtc_340_130_intra_rau_during_validation_move_job_with_trigger_move_configured.WG14a
p820
aVtc_243_124_tau_from_sgsn_s3_modify_bearer_response_partially_accepted_bearer_status_mismatch.L14b
p821
aVtc_256_143_mme_eps_srvcc_ho_source_cs_only_initial_ue_extended_service_request_wf_srvcc_ps_to_cs_response.L14b
p822
aVtc_244_510_SLg_Location_Request__UE_Release_Request_user_inactivity_wwf_Location_Response_from_ESMLC.L14b
p823
aVtc_274_441_Intra_TAU_Detach_Request_while_waiting_for_Create_Session_Response_2PDNs_partially_failure_sgw_unavailable.L14b
p824
aVtc_225_315_mt_call_active_mode_nas_non_delivery__cs_service_notification_meanwhile_handover_required.L14b
p825
aVtc_44_040_config_ep_S1.L14b
p826
aVtc_44_004_small_restart__sctp_fe_restart.L14b
p827
aVtc_44_050_sctp_s1ap_corrupt_data_length_6.L14b
p828
aVtc_44_201_sctp_endpoint_config__modify_rt_Diameter.L14b
p829
aVtc_578_23_check_usc_report.L14b
p830
aVtc_43_040_eNB_configuration_update_mf.L14b
p831
aVtc_214_1126_la_selection_mf_oldlapreferred_combined_intra_tau_after_imsi_detach_triggered_by_sgs_paging.L14b
p832
aVtc_103_831_DPR_cause_BUSY.L14b
p833
aVtc_103_1101_resending_AIR_interfering_CLR.L14b
p834
aVtc_266_020_DownlinkDataFailureInd_repeat_paging_timer_on.L14b
p835
aVtc_303_003_Intra_S1_HO__Downlink_A21_AIS_while_wf_Handover_Request_Ack__Reset_from_source_eNB_while_wf_Handover_Notify.L14b
p836
aVtc_303_001_MT_CSFB_to_1xRTT_idle__S1_Reset_while_wf_Initial_Context_Setup_Response.L14b
p837
aVtc_202_43_type_d_emergency_pdn_ecm_idle.L14b
p838
aVtc_202_41_type_a_emergency_pdn_ecm_idle.L14b
p839
aVtc_202_40_emergency_pdn_ecm_connected.L14b
p840
aVtc_304_266_tau_from_gnsgsn_2g_control_mode_wf_delete_all_bearers_response_exception_case_reject_congestion_subscriber_cancelled.L14b
p841
aVtc_304_121_initial_ue_intra_tau_control_mode_threshold_exceeded_usc_detach_wf_release_request_response.L14b
p842
aVtc_304_417_Service_Request_control_mode_deregistered_reject_congestion.L14b
p843
aVtc_295_130_Intra_S1_HO__Sgw_reloc__Downlink_A21_AIS_while_waiting_for_Delete_Session_Response.LWG
p844
aVtc_178_932_modify_sctpremote_endpoint_ica.LWG
p845
aVtc_73_28_verify_pxm_counters.LWG
p846
aVtc_326_380_Service_Request_with_unknown_STMSI_multiple_retrieve_responses.LWG
p847
aVtc_326_406_Inter_TAU_Recovery_Unkonwn_GUTI__1xrtt_CS_Registration_Then_CSFB_To_1xRTT.LWG
p848
aVtc_298_317_EF_SIBD_S4_Create_Bearer_Request.LWG
p849
aVtc_578_23_check_usc_report.LWG
p850
aVtc_304_263_tau_from_gnsgsn_when_wf_tau_complete_control_mode_reject_congestion.LWG
p851
aVtc_220_602_csfb_to_1xrtt_uplink_nas_transport_interfere_tau_inter_new.LWG
p852
aVtc_666_06_block_rt_board.LWG
p853
aVtc_208_43_interception_after_small_restart.LWG
p854
aVtc_159_200_check_ctum_log.LWG
p855
aVtc_250_105_ignore_IDR_when_EPS_sub_downgrade_GPRS_sub.LWG
p856
aVtc_17_91_inter_new_rau_g_to_hz_ggsninfo_scdrinfo.LWG
p857
aVtc_23_09_transfer_to_primary_and_change_vip_addr.LWG
p858
aVtc_95_4_load_lkf2.LWG
p859
aVtc_313_001_inter_new_srns_reloc_s16_without_sgw_change.LWG
p860
aVtc_224_101_ipv6_discard_on_ipv4_interface.LWG
p861
aVtc_324_386_ef_mt_sms_wf_frcn_wf_frca_wf_ula.LWG
p862
aVtc_305_057_oms_mmi_hwm.LWG
p863
aVtc_103_302_diameter_peer_change_sip.LWG
p864
aVtc_205_71_03_ss7_M3UA_ASP_counters.LWG
p865
aVtc_294_353_intra_handover_sgw_relocation_2_pdns_dedicated_fails_notify_timeout.LWG
p866
aVtc_267_512_Service_Request_SGW_unavailable__S1_Reset_while_wf_Create_Session_Response.LWG
p867
aVtc_183_005_itc_folder_file_names.LWG
p868
aVtc_06_513_apn_resolution_main_flow_resolute_based_on_apn.LWG
p869
aVtc_303_003_Intra_S1_HO__Downlink_A21_AIS_while_wf_Handover_Request_Ack__Reset_from_source_eNB_while_wf_Handover_Notify.LWG
p870
aVtc_165_10_check_resource_alarms_ap.LWG
p871
aVtc_26_017_ms_initiated_pdp_context_modification_validation_error_at_ggsn.LW
p872
aVtc_26_028_israu_old_new_is_gtpv0_mixed_contexts_I.LW
p873
aVtc_303_001_MT_CSFB_to_1xRTT_idle__S1_Reset_while_wf_Initial_Context_Setup_Response.LW
p874
aVtc_11_255_apnresolving_apnopid_hplmn_present_apn_redirect_dont_log_cc33.LW
p875
aVtc_11_645_downlink_gtpu_wf_paging_resp_ef_transfer_service_req_data.LW
p876
aVtc_11_623_activate_pdp_context_tac_based_apn_redirection_dnsfail_succeed.LW
p877
aVtc_274_381_Intra_and_pTAU__Downlink_A21_AIS_while_waiting_for_Authentication_Response.LW
p878
aVtc_23_42_filter_cause_code_user_inactivity_and_normal_release.LW
p879
aVtc_194_081_cl_subscription_withdrawn_during_auth.LW
p880
aVtc_194_116_hss_reset_many_subscribers.LW
p881
aVtc_194_184_hss_reset_ue_activity_s1_ho.LW
p882
aVtc_194_182_hss_reset_ue_activity_tau_request_after_handover.LW
p883
aVtc_194_626_DSD_EF__Receive_DSDR_when_Waiting_for_UE_Context_Modification_Response_during_PGW_Init_Bearer_Modification_Procedure.LW
p884
aVtc_194_991_downlink_A21_AIS_during_waiting_location_report__idr_flags_ef.LW
p885
aVtc_306_133_ef_seamless_move_source_receive_s1_setup_wf_source_guti_reallocation_complete.LW
p886
aVtc_306_1343_ef_seamless_move_target_receive_Insert_Subscription_Data_TADS_ecm_idle.LW
p887
aVtc_310_001_mf__S3_same_SGW_1_voice_bearer_1_PDN_no_emergency_PDN.LW
p888
aVtc_38_124_israu_new_sgsn_one_pdp_context_using_dns.LW
p889
aVtc_44_812_mme_assoc_reestablish__abort_m3.LW
p890
aVtc_44_871_mme_assoc_reestablish__board_block_sbc.LW
p891
aVtc_78_025_israu_new_sgsn_redirection_cause_15.LW
p892
aVtc_231_120_isd_vplmn_not_allowed_during_ms_init_deactivation_s4.LW
p893
aVtc_231_173_ms_init_detach_interfered_by_cancel_location_withdraw.LW
p894
aVtc_231_275_rab_release_si_deactivate_with_TDI_false_TI_dedicated_bearer.LW
p895
aVtc_197_582_tai_list_management1.LW
p896
aVtc_43_100__removal_of_disconnected_eNodeBs__alarm_and_gauge.LW
p897
aVtc_276_045_Inter_TAU_New_MME__S1_Reset_while_waiting_for_Identity_Response__enhanced_imei_check.LW
p898
aVtc_324_062_af_frcn_fail.LW
p899
aVtc_324_386_ef_mt_sms_wf_frcn_wf_frca_wf_ula.LW
p900
aVtc_324_396_af_gbr_bearer_admission_control_pass_2_Bearers.LW
p901
aVtc_318_116_sgw_restart_mf_one_pdn_with_relocate_by_ReleaseAccessBearersResponse.LW
p902
aVtc_313_018_inter_new_srns_reloc_s16_with_sgw_change_admission_control_streaming_conversational.LW
p903
aVts_336_012_estimate_request__initial_ue_message_while_waiting_for_eab_throughput_estimate_response.LW
p904
aVtc_277_100_tau_inter_old_unauthenticated_emergency_ongoing_no_clr.LW
p905
aVtc_578_23_check_usc_report.LW
p906
aVtc_304_410_Service_Request_UE_Initiated__control_mode_threshold_exceeded_request_reject_idle_mode.LW
p907
aVtc_12_134_attach_with_extended_mmumoc_iu_inactivity_timer.LW
p908
aVtc_324_131_af_service_request_data_isd_timeout_3gdt.W14b
p909
aVtc_241_1503_intra_rau_with_bearer_sgw_nochange_wf_modify_bearer_response_interfere_by_cancel_location.W14b
p910
aVtc_298_073_s4_nrspca_activate_same_nsapi_of_dedicated_bearer_rab_released.W14b
p911
aVtc_26_175_inter_rau_new_s4_sgsn_with_higher_pec_and_pev_than_policy_map.W14b
p912
aVtc_313_001_inter_new_srns_reloc_s16_without_sgw_change.W14b
p913
aVtc_313_012_inter_new_srns_reloc_s16_with_sgw_change_two_pdns_with_dedicate_bearer_setup_rabs_one_pdn_failed.W14b
p914
aVtc_81_013_israu_conversational_use_sub_ggsn_modifies_to_conv.W14b
p915
aVtc_44_071_attach_long_imsi.LWG
p916
aVtc_44_841_mme_assoc_reestablish__device_restart_sbc.LWG
p917
aVtc_44_871_mme_assoc_reestablish__board_block_sbc.LWG
p918
aVtc_198_001_UDPPort.LWG
p919
aVtc_198_004_TLLI.LWG
p920
aVtc_198_002_TEID.LWG
p921
aVtc_198_006_TCPPort.LWG
p922
aVtc_198_003_FlowLabel.LWG
p923
aVtc_198_008_GTPUEchoReq.LWG
p924
aVtc_198_007_GTPUError.LWG
p925
aVtc_198_009_S102FixedPort.LWG
p926
aVtc_198_010_TCPUDPPortToNCB.LWG
p927
aVtc_198_011_UDPFragments.LWG
p928
aVtc_198_012_TCPFragments.LWG
p929
aVtc_198_015_SCTPv4VerTag0.LWG
p930
aVtc_198_016_SCTPv4IndexEntry00.LWG
p931
aVtc_198_013_SCTPv4ToAllValidIndex.LWG
p932
aVtc_198_014_SCTPv4ToInvalidIndex.LWG
p933
aVtc_198_018_ICMPv4DstUnreachSCTP.LWG
p934
aVtc_198_019_ICMPv4EchoReq.LWG
p935
aVtc_198_020_SCTPFragments.LWG
p936
aVtc_198_021_SCTPv4VerTag0MultipleNetworks.LWG
p937
aVtc_198_030_UDPv6_TEID.LWG
p938
aVtc_198_031_TCPv6_DNS.LWG
p939
aVtc_198_036_SCTPv6ToInvalidIndex.LWG
p940
aVtc_198_035_SCTPv6ToAllValidIndex.LWG
p941
aVtc_198_039_SCTPv6EmptyIndexMap.LWG
p942
aVtc_198_038_SCTPv6IndexEntry00.LWG
p943
aVtc_198_040_ICMPv6DstUnreachGTPv2.LWG
p944
aVtc_198_042_ICMPv6EchoResp.LWG
p945
aVtc_198_045_ICMPv6DstUnreachTCPv6Port.LWG
p946
aVtc_198_043_ICMPv6DstUnreachSCTP.LWG
p947
aVtc_198_044_ICMPv6DstUnreachGTPv2NoPort.LWG
p948
aVtc_198_050_IPv4_traffic_flow.LWG
p949
aVtc_198_051_IPv6_traffic_flow.LWG
p950
aVtc_198_055_IPv6_load_sharing.LWG
p951
aVtc_198_057_IPv6_route_selection.LWG
p952
aVtc_198_053_IPv6_traffic_flow_multiple_vpn.LWG
p953
aVtc_198_058_IPv4_no_route.LWG
p954
aVtc_198_060_TCPv6Port.LWG
p955
aVtc_198_061_TCPUDPPortToNCB_IPv6.LWG
p956
aVtc_198_059_IPv6_no_route.LWG
p957
aVtc_216_106_icmpv6_outNeighborSol.LWG
p958
aVtc_313_001_inter_new_srns_reloc_s16_without_sgw_change.LWG
p959
aVtc_26_024_modification_interrupted_by_insert_subscriber_data_II.LWG
p960
aVtc_306_1130_ef_seamless_move_target_receive_detach_request_with_switchoff_wf_service_request.LWG
p961
aVtc_273_033_tau_intra_normal_idle_authentication_timeout.LWG
p962
aVtc_197_551_inter_s1_handover_ipv4_in_table_receive_ipv6_select_ipv4.LWG
p963
aVtc_132_002_create_ip_interface_eth.LWG
p964
aVtc_578_23_check_usc_report.LWG
p965
aVtc_166_428_rnc_initiated_rab_release_interfered_by_rnc_initiated_iu_release_request.LWG
p966
aVtc_275_037_tau_inter_new_bearer_status_mismatch.LWG
p967
aVtc_59_9_mtmsi_restart_counter.LWG
p968
aVtc_238_072_mme_eps_irat_ho_target__handover_required_during_wf_check_security_complete_after_tau.LWG
p969
aVtc_308_011_HSS_Init_QoS_Modification__IDR_during_intra_ISC_TAU.LWG
p970
aVtc_232_403_bfd__ipv4ipv6_alarm.LWG
p971
aVtc_324_006_mf_ser_req_signaling_after_ack_3gdt.LWG
p972
aVtc_324_386_ef_mt_sms_wf_frcn_wf_frca_wf_ula.LWG
p973
aVtc_208_43_interception_after_small_restart.LWG
p974
aVtc_205_71_03_ss7_M3UA_ASP_counters.LWG
p975
aVtc_289_070_GW_Init_Bearer_Modification_Flow_two_CBR_one_UBR_while_wf_modify_eps_bearer_context_accept.LWG
p976
aVtc_289_017_Modify_bearer__ERAB_modify_request_meanwhile_path_switch_request_HO_success.LWG
p977
aVtc_289_103_multi_pdns_pgw_init_bearer_mod_ecm_idle_interrupted_by_dbr_with_lbi.LWG
p978
aVtc_218_311_tau_from_sgsn_preserved_gbr_bearer_buffer_1_ubr_1_cbr.LWG
p979
aVtc_666_02_reboot_ss7_board.LWG
p980
aVtc_666_06_block_rt_board.LWG
p981
aVtc_241_754_intra_rau_with_multi_bearer_sgw_change_one_context_failed_node_function_deactivate_pdp_after_rau_on.LWG
p982
aVtc_16_032_intra_rau_tz_changed_after_rau_accept.LWG
p983
aVtc_183_005_itc_folder_file_names.LWG
p984
aVtc_11_305_iu_release_with_aace_mtz_gmm_info.LWG
p985
aVtc_11_337_service_request_modify_rab_si_rnc_reset.LWG
p986
aVtc_159_200_check_ctum_log.LWG
p987
aVtc_245_123_inter_rau_old_s4_sgsn_activated_on_ggsn.LWG
p988
aVtc_178_471_modify_ss7_sys_noss7.LWG
p989
aVtc_303_002_Service_Request__Downlink_A21_AIS_while_wf_Initial_Context_Setup_Response__Extended_Service_Request_while_wf_Initial_Context_Setup_Response.LWG
p990
aVtc_303_003_Intra_S1_HO__Downlink_A21_AIS_while_wf_Handover_Request_Ack__Reset_from_source_eNB_while_wf_Handover_Notify.LWG
p991
aVtc_297_407_move_at_periodic_rau.G14b
p992
aVtc_281_009_Activate_bearer__Handover_Required_while_wf_eps_bearer_context_accept.L14b
p993
aVtc_281_011_Activate_bearer__Handover_required_while_wf_erab_setup_response.L14b
p994
aVtc_281_064_Activate_bearer__Service_Request_NOK_OK_Integrity_check_while_wf_erab_setup_response.L14b
p995
aVtc_256_004_mme_eps_srvcc_ho_source_cs_only_mf_after_tau_from_gn_sgsn.L14b
p996
aVtc_256_037_mme_eps_srvcc_ho_source_cs_only_without_stn_sr_after_attach.L14b
p997
aVtc_256_048_mme_eps_srvcc_ho_source_cs_only_emergency_attach_delete_session_response_not_received.L14b
p998
aVtc_256_107_mme_eps_srvcc_ho_source_cs_only_context_request_wf_srvcc_ps_to_cs_complete_notification.L14b
p999
aVtc_256_144_mme_eps_srvcc_ho_source_cs_only_uplink_extended_service_request_wf_srvcc_ps_to_cs_complete_notification.L14b
p1000
aVtc_256_160_mme_eps_srvcc_ho_source_cs_only_provide_location_request_wf_srvcc_ps_to_cs_response.L14b
p1001
aVtc_256_194_mme_eps_srvcc_ho_source_cs_only_delete_subscription_wf_release_access_bearers_request.L14b
p1002
aVtc_256_204_mme_eps_srvcc_ho_source_cs_only_service_request_wf_srvcc_ps_to_cs_complete_notification.L14b
p1003
aVtc_263_019_Attach_Flow__Attach_Request_Different_IEs_IP_OK_while_waiting_for_ESM_Information_Response.L14b
p1004
aVtc_263_043_Attach_Flow__Handover_Required_while_waiting_for_Modify_Bearer_Response.L14b
p1005
aVtc_263_067_Attach_Flow__S1_Reset_while_waiting_for_ESM_Information_Response.L14b
p1006
aVtc_263_101_Attach_Flow__Service_Request_while_waiting_for_Identity_Response.L14b
p1007
aVtc_263_240_Attach_Flow__Attach_Request_with_same_IE_while_waiting_for_identification_response.L14b
p1008
aVtc_263_320_Attach_Flow__Attach_Request_Different_IEs_IP_OK_while_waiting_for_Update_Location_Answer.L14b
p1009
aVtc_335_35_wifi_to_mobility_in_ecm_idle_af__no_estimation_response_from_eNB_timeout_max_3000.L14b
p1010
aVtc_335_102_Inter_MME_TA_Update_New_MME__from_G_S4.L14b
p1011
aVtc_345_221_af__mt_csfb_with_psho__ecm_idle_sgw_relocation_no_cancel_location_from_hss.L14b
p1012
aVtc_578_34_check_test_la_selection_config.L14b
p1013
aVtc_578_23_check_usc_report.L14b
p1014
aVtc_244_007_mt_lr_idle_mode_para_PerformLocationReportMTLR_true.L14b
p1015
aVtc_244_046_mt_lr_service_request_received_wf_location_report.L14b
p1016
aVtc_244_504_SLg_Location_Request__Extended_Service_Request_wwf_Location_Response_from_ESMLC.L14b
p1017
aVtc_244_906_mt_lr_ecm_idle_and_t3x01_time_out_when_connected_oriented_info_with_LPP.L14b
p1018
aVtc_332_051_4_mf__paging_due_to_CBR_during_paging_due_to_UBR_latest_with_higher_prio.L14b
p1019
aVtc_332_101_af__inter_mme_TAU_rrc_cause_high_when_not_MPS_subscriber.L14b
p1020
aVtc_197_501_inter_tau_with_sgw_relocation_table_matched.L14b
p1021
aVtc_197_540_inter_s1_handover_without_sgw_relocation_same_table_matched.L14b
p1022
aVtc_197_570_sgw_selection_removal_of_sgw_infomation1.L14b
p1023
aVtc_197_602_inter_mme_tau_new_with_sgw_reselection_lbo_allowed_for_all_apns.L14b
p1024
aVtc_197_720_apn_oi_replacement_attach_succ_first_try_apn_oi_replacement_then_try_default_oi.L14b
p1025
aVtc_197_725_apn_oi_replacement_pdn_connectivity_reject_first_local_breakout_fail_then_try_apn_oi_replacement_then_try_default_oi.L14b
p1026
aVtc_201_001_imsi_attach_existing_msisdn.L14b
p1027
aVtc_341_017_x1_query_target_info_request_msisdn_emm_deregister.L14b
p1028
aVtc_341_512_x2_activity_event_attached_user_notification_multi_pdn.L14b
p1029
aVtc_341_950_test_event_serial_number.L14b
p1030
aVtc_302_052_mt_csfb_to_1xrtt_main_flow_idle_first_page_fails.L14b
p1031
aVtc_302_102_mme_relocation_seamless_move_target_service_request_instead_ack.L14b
p1032
aVtc_289_022_Modify_bearer__ERAB_modify_request_meanwhile_handover_required_HO_all_bearers_fail.L14b
p1033
aVtc_289_036_Modify_bearer__Downlink_nas_transport_s1_intra_system_handover_triggered_two_pdn_HO_all_sessions_fail.L14b
p1034
aVtc_289_053_Modify_bearer__UE_context_modification_failure_x2_ho_triggered_HO_ongoing_when_hold_timeout.L14b
p1035
aVtc_280_137_activate_bearer_erab_setup_response_in_wrong_state.L14b
p1036
aVtc_44_042_config_ep_S6a.L14b
p1037
aVtc_44_043_config_ep_SGs.L14b
p1038
aVtc_44_044_config_ep_SLg.L14b
p1039
aVtc_44_251_sctp_assoc_config__modify_rt_Diameter.L14b
p1040
aVtc_44_403_s1ap_id_error_indication__id_pair_mismatch.L14b
p1041
aVtc_44_500_s1ap_id_checks__init_ue_reuse_enb_id.L14b
p1042
aVtc_44_505_s1ap_id_checks__ho_request_ack_unknown_ids.L14b
p1043
aVtc_44_506_s1ap_id_checks__uplink_nas_change_enb_id.L14b
p1044
aVtc_44_522_s1ap_device_broking__x2_ho_unknown_sid.L14b
p1045
aVtc_44_602_instance_id_wrong.L14b
p1046
aVtc_214_006_combined_attach_implicit_detach_timer_expiry.L14b
p1047
aVtc_214_034_combined_tau_intra_combined_attach.L14b
p1048
aVtc_214_045_combined_tau_intra_la_change_wrong_msc_reject.L14b
p1049
aVtc_214_069_combined_attach_combined_tau_interfering_s1_reset.L14b
p1050
aVtc_214_305_mt_sms_idle_mode_tau_response_non_combined.L14b
p1051
aVtc_214_320_mt_sms_mt_cs_call.L14b
p1052
aVtc_214_406_combined_tau_inter_new_imei_check_answer_blacklisted_after_la_update_accept.L14b
p1053
aVtc_214_611_Inter_RAU_To_SGSN_And_Inter_TAU_Back_With_Associated_MSC_Info.L14b
p1054
aVtc_214_800_mo_sms_active_nas_non_delivery_x2_handover_triggered.L14b
p1055
aVtc_214_811_mo_sms_active_donwlink_nas_transport_meanwhile_path_switch_request_HO_success_mo_sms_fail.L14b
p1056
aVtc_214_1020_la_selection_af_one_la_with_node_level_la_selection_profile_without_ue_capbility_profile.L14b
p1057
aVtc_214_1041_la_selection_af_combined_attach_access_restriction_for_wcdma.L14b
p1058
aVtc_214_1078_la_selection_mf_oldmscpreferred_combined_intra_tau_la_with_old_msc_not_candidate.L14b
p1059
aVtc_214_1151_la_selection_af_combined_attach_access_restriction_for_wcdma_and_gsm.L14b
p1060
aVtc_214_1016_la_selection_mf_reselection_dyn_tailist_updated_csfb_off.L14b
p1061
aVtc_103_101_destination_host_is_peer.L14b
p1062
aVtc_103_208_hostname_in_conf_unavail.L14b
p1063
aVtc_103_700_diameter_retransmit_due_to_peer_down.L14b
p1064
aVtc_103_710_commlost_small_restart.L14b
p1065
aVtc_103_1003_highest_prio_peer_unavailable_lower_prio_peer_chosen.L14b
p1066
aVtc_103_1004_secondary_dpl_used_when_all_peers_in_dpl_unavailable_no_sls.L14b
p1067
aVtc_103_1007_secondary_dpl_set_and_then_emptied.L14b
p1068
aVtc_103_1103_fallback_to_imsins_resend_no_more_peers.L14b
p1069
aVtc_103_1105_attach_no_diameter_peer_available.L14b
p1070
aVtc_103_1107_fallback_to_imsins_resend_fail_due_to_result_code.L14b
p1071
aVtc_103_1120_attach_ula_dia_unable_to_deliver.L14b
p1072
aVtc_103_1136_sx_resend__CCR_I_not_resend_for_application_unsupported.L14b
p1073
aVtc_103_1142_sx_resend__resend_during_inter_mme_tau_2_pdns.L14b
p1074
aVtc_347_104_Inter_TAU_Old_MME__TAU_Req_other_GUTI_while_waiting_for_TAU_timer_out.L14b
p1075
aVtc_347_228_Extended_Service_Request__RAR_while_waiting_for_Forward_Relocation_Response_MT_Connected_With_PS_HO.L14b
p1076
aVtc_347_335_Intra_TAU_With_Active_Flag__MS_Network_Cap_Set_RAR_while_waiting_for_Modify_Eps_Bearer_Context_Accept.L14b
p1077
aVtc_275_018_tau_inter_new_including_old_ptmsi_signature.L14b
p1078
aVtc_275_049_tau_inter_new_keep_old_sgw_two_pdn_connections_first_ok_second_failed.L14b
p1079
aVtc_275_310_tau_inter_new_active_flag_keep_two_pdns_one_default_bearer_fail_in_eNB.L14b
p1080
aVtc_275_633_tau_inter_new_sgw_unavailable_too_high_QoS_for_one_default_and_one_dedicated_bearer.L14b
p1081
aVtc_329_010_attach_rs_allowed_hrl_eqplmns.L14b
p1082
aVtc_329_102_intra_tau_rs_allowed_plmn_change.L14b
p1083
aVtc_329_350_s1_intra_ho_rs_allowed_plmn_change.L14b
p1084
aVtc_329_661_irat_s4_ho_inter_target_rs_restricted_emergency_allowed.L14b
p1085
aVtc_292_030_x2_ho_with_sgw_relocation_main_flow_multiple_pdns_multiple_bearers.L14b
p1086
aVtc_292_070_x2_handover_type_b_new_plmn_no_emc_sup.L14b
p1087
aVtc_292_131_x2_ho_with_sgw_relocation_1_pdn_fail_tau_while_cleanup.L14b
p1088
aVtc_292_173_intra_handover_with_timer_expiration_of_x2_ho.L14b
p1089
aVtc_340_68_validation_move_l_filter_all_TA.L14b
p1090
aVtc_266_011_DownlinkDataNotification_interfering_ISD_sgsn00026976.L14b
p1091
aVtc_262_016_attach_create_session_failed.L14b
p1092
aVtc_262_026_attach_modify_bearer_non_existent.L14b
p1093
aVtc_262_036_esm_information_no_pco_in_attach_request_pco_in_esm_information_no_apn_in_esm_information.L14b
p1094
aVtc_262_050_guti_attach_roaming_restriction.L14b
p1095
aVtc_262_086_emergency_imsi_attach_unauthenticated_no_imei_in_smc.L14b
p1096
aVtc_262_122_emergency_attach_type_c_imei_check_answer_unknown_before_accept_ire_true.L14b
p1097
aVtc_262_173_new_mme_identification_procedure_no_mmContext.L14b
p1098
aVtc_262_202_attach_emergency_call_too_high_qos.L14b
p1099
aVtc_262_501_emergency_attach_pb_activate_3_dedicated_bearers.L14b
p1100
aVtc_262_524_emergency_attach_pb_activate_dedicated_bearer_after_configured_max_bearers_setup.L14b
p1101
aVtc_262_721_emergency_attach_license_lte_sau_limit_reached.L14b
p1102
aVtc_262_905_attach_apnredirectforsingleapn_subscribed_misspelled_apn.L14b
p1103
aVtc_262_1024_apn_resolution_ext_no_fallback.L14b
p1104
aVtc_262_1081_attach_tac_based_roaming_restriction_table_matched_blacklist_exemptedlist.L14b
p1105
aVtc_283_020_MME_Deactivate_Bearer__Create_Bearer_Request_while_wf_Delete_Bearer_Request.L14b
p1106
aVtc_202_21_ecm_idle_no_release_access_bearers_response.L14b
p1107
aVtc_202_102_small_restart.L14b
p1108
aVtc_202_304_mf_seamless_move_by_mme_emergency_attach_unauthenticated_IMSI.L14b
p1109
aVtc_202_384_mf_seamless_move_target_service_request_before_ula_without_ddn_seq1.L14b
p1110
aVtc_202_419_af_seamless_move_target_initialCtxSetupResponse_timeout.L14b
p1111
aVtc_202_434_af_seamless_move_target_service_request_prot_nok_without_ddn.L14b
p1112
aVtc_202_461_af_seamless_move_source_no_cancel_location.L14b
p1113
aVtc_202_520_seamless_move_target_ddn_sgw_unavailable_in_service_request.L14b
p1114
aVtc_202_552_ecm_idle_ms_move_paging_failed_due_to_OLP.L14b
p1115
aVtc_202_567_seamless_move_target_Connected_mode__service_request_with_CSG_Id_before_ULA_then_X2_HO.L14b
p1116
aVtc_279_015_tai_list_ps_only_attach_ho_intra_diff_la.L14b
p1117
aVtc_279_552_la_selection_reselection_eps_attach_dyn_tailist_update_sms_over_sgs_off.L14b
p1118
aVtc_288_105_pgw_init_bearer_mod_ue_not_responding_all_bearers.L14b
p1119
aVtc_288_200_pgw_init_bearer_mod_QoS_eNodeB_failure_for_all_bearers.L14b
p1120
aVtc_288_219_pgw_init_bearer_mod_QoS_paging_partly_fail_modification_succeeds.L14b
p1121
aVtc_288_234_pgw_init_bearer_mod_QoS_eNodeB_says_unknown_default_bearer_one_conn.L14b
p1122
aVtc_288_261_pgw_init_bearer_mod_QoS_from_non_GBR_to_GBR_idle_mode.L14b
p1123
aVtc_293_013_X2_Based_HO__S1_Reset_from_source_while_waiting_for_Modify_Bearer_Response.L14b
p1124
aVtc_293_004_X2_Based_HO__Initial_UE_TAU_Request_from_source_eNodeB_while_wf_TAU_request.L14b
p1125
aVtc_293_030_X2_Based_HO_Sgw_reloc_Attach_request_while_wf_create_session_response.L14b
p1126
aVtc_293_241_X2_Based_HO__location_report_while_wf_update_location_wf_location_update.L14b
p1127
aVtc_287_003_PDN_Disconnect__Delete_dedicated_bearer_while_wf_delete_session_response.L14b
p1128
aVtc_221_054__Emergency_type_a_notification_on_normal_ebi_id_3_default.L14b
p1129
aVtc_294_005_mme_handle_eps_handover_main_flow_with_ue_trace.L14b
p1130
aVtc_294_035_s1_intra_handover_type_a_new_plmn_roaming_restricted_emc_sup_sim_only_same_profile.L14b
p1131
aVtc_294_051_s1_intra_handover_type_b_new_plmn_no_roaming_restriction_emc_sup_all_same_profile.L14b
p1132
aVtc_294_128_s1_intra_handover_emergency_type_a_not_allowed_in_csg.L14b
p1133
aVtc_294_322_intra_mme_handover_with_ta_change_guti_reallocation.L14b
p1134
aVtc_294_372_s1_intra_handover_emc_type_c_hss_reset.L14b
p1135
aVtc_206_018_activate_EbmStream_events_in_type_list.L14b
p1136
aVtc_260_341_mbms_session_large_restart.L14b
p1137
aVtc_273_002_tau_intra_normal_idle_guti_realloc.L14b
p1138
aVtc_273_017_tau_intra_normal_idle_authentication_security_mode_reject.L14b
p1139
aVtc_273_033_tau_intra_normal_idle_authentication_timeout.L14b
p1140
aVtc_273_133_tau_intra_normal_idle_active_two_pdn_connections_all_failed.L14b
p1141
aVtc_273_203_tau_intra_periodic_roaming_restricted_ta_after_reconf.L14b
p1142
aVtc_273_253_tau_intra__sgw_relocation_create_session_partially_accepted_3_failed.L14b
p1143
aVtc_273_264_tau_intra__sgw_relocation_active_enb_fails_all_dedicated.L14b
p1144
aVtc_273_509_TAU_intra_SGW_unavailable__static_gw_selection.L14b
p1145
aVtc_273_557_tau_intra__sgw_relocation_with_csg_id_plmn_change_service_request_reject.L14b
p1146
aVtc_242_002_rau_to_sgsn_s3_keep_sgw_nwcap_max.L14b
p1147
aVtc_242_123_rau_to_sgsn_s3_keep_sgw_dedicated_bearer_unstable.L14b
p1148
aVtc_242_604_rau_sgsn_s3_interrupted_by_tranfer_attach_when_wf_session_response_buffer_signal.L14b
p1149
aVtc_346_010_PGW_Selection__IMSI_Attach__Create_Session_Failure.L14b
p1150
aVtc_346_205_RFSP__last_sx_session_delete_remove_RFSP_from_SAPC.L14b
p1151
aVtc_346_383_handover_inter_target_from_gn_establish_sx_session_with_bearer_control_mode_sx_only.L14b
p1152
aVtc_346_481_AF__RAR_with_new_RFSP_ue_context_modification_failure.L14b
p1153
aVtc_346_449_AF__Intra_TAU_CCA_Update_unknown_session_id_5002.L14b
p1154
aVtc_346_517_AF__TAU_Inter_New_from_gn_ULR_timeout_terminate_sx.L14b
p1155
aVtc_346_1008_seamless_move_source_ecm_connected_terminate_sx.L14b
p1156
aVtc_238_052_mme_eps_irat_ho_target__tau_request_during_wf_handover_notify.L14b
p1157
aVtc_238_082_mme_eps_irat_ho_target__handover_from_mme_to_mme_to_s4_sgsn.L14b
p1158
aVtc_238_166_mme_eps_irat_Gn_ho_target__No_fwd_rel_com_ack.L14b
p1159
aVtc_278_201_Inter_TAU_Old_MME__Context_Request_while_wf_session_response_SGW_Changed.L14b
p1160
aVtc_278_2000_8_Inter_TAU_Old_MME__Fwd_Reloc_Req_SGW_Changed_Cancel_LocUL_Interfering.L14b
p1161
aVtc_210_028_target_info_query_multiple.L14b
p1162
aVtc_210_056_pdn_connectivity_failure_cc_81.L14b
p1163
aVtc_203_012_mme_eps_handover_source_inter_sgw_relocation_no_delete_resp.L14b
p1164
aVtc_203_058_S1_Based_HO_Source_MME_Context_Request_while_waiting_for_Forward_Relocation_Complete_Notification.L14b
p1165
aVtc_203_104_mme_eps_handover_source_inter__s1_reset_ignored.L14b
p1166
aVtc_203_116_S1_Based_HO_Source_MME_Handover_Required_while_waiting_for_Forward_Relocation_Response.L14b
p1167
aVtc_203_141_mme_eps_handover_source_inter__other_guti_tau_wf_delete_session_resp.L14b
p1168
aVtc_220_006_csfb_to_1xrtt_ue_return_with_attach_request.L14b
p1169
aVtc_220_032_csfb_to_1xrtt_in_ecm_idle_initial_context_setup_failure.L14b
p1170
aVtc_220_202_csfb_to_1xrtt_suspend_t3n3_expired.L14b
p1171
aVtc_220_402_csfb_to_1xrtt_in_ecm_connected_ue_context_modification_failure_s1_intra_system_handover_triggered_receive_HO_failure.L14b
p1172
aVtc_220_507_csfb_to_1xrtt_in_ecm_idle_service_request_wf_ue_context_release_request.L14b
p1173
aVtc_220_577_csfb_to_1xrtt_in_ecm_connected_detach_request_wf_ue_context_modification_response.L14b
p1174
aVtc_220_601_csfb_to_1xrtt_initial_ue_message_interfere_tau_intra.L14b
p1175
aVtc_220_625_Extended_Service_Request__Update_Bearer_Request_while_waiting_for_Initial_Context_Setup_Response.L14b
p1176
aVtc_307_052_IRAT_Mobility__TAU_from_W_S4SGSN_Active_flag_on.L14b
p1177
aVtc_304_019_attach_failed_then_imsi_attach__control_mode_threshold_exceeded_usc_reject_illegal_ue.L14b
p1178
aVtc_304_031_attach_failed_then_imsi_attach__measurement_mode_threshold_exceeded_usc_then_action_start_reject_illegal_ue.L14b
p1179
aVtc_304_118_initial_ue_intra_tau_control_mode_threshold_exceeded_usc_ignore_intruder.L14b
p1180
aVtc_304_109_initial_ue_intra_tau_control_mode_threshold_exceeded_usc_detach_then_reattach.L14b
p1181
aVtc_304_116_initial_ue_intra_tau_control_mode_threshold_exceeded_usc_reject_intruder_wf_icsr.L14b
p1182
aVtc_304_223_inter_tau_control_mode_threshold_exceeded_reject_wf_update_location_response_intruder.L14b
p1183
aVtc_304_274_tau_from_gnsgsn_intruder_when_wf_initial_context_setup_response_control_mode_reject_illegal_ue.L14b
p1184
aVtc_304_327_PDN_connectivity__control_mode_threshold_exceeded_action_reject_change_to_detach.L14b
p1185
aVtc_304_431_Service_Request_UE_Initiated__control_mode_threshold_exceeded_explicit_detach_connected_mode.L14b
p1186
aVtc_304_458_uplink_nas_csfb_to_wg_control_mode_threshold_exceeded_usc_reject_implicit_detach_in_ecm_connected_wf_ue_release_request.L14b
p1187
aVtc_290_012_Timer_Based_GBR_Deact__detach_request_uplink_nas_wf_release_access_bearer_response_before_timer_expires.L14b
p1188
aVtc_290_036_Timer_Based_GBR_Deact__handover_required_wf_ue_context_release_complete_before_timer_expires.L14b
p1189
aVtc_290_066_Timer_Based_GBR_Deact__delete_subscription_data_ecm_idle_before_timer_expires.L14b
p1190
aVtc_199_31_unknown_teid_response.L14b
p1191
aVtc_243_001_tau_from_sgsn_s3_keep_old_sgw.L14b
p1192
aVtc_243_240_tau_from_sgsn_s3_visiting_ue_coming_from_same_plmn_same_sgw.L14b
p1193
aVtc_243_310_tau_from_sgsn_s3_security_failure_no_sm_complete.L14b
p1194
aVtc_243_532_tau_from_sgsn_s3_active_flag_false_dl_data_notification_wf_tau_complete.L14b
p1195
aVtc_316_202_IMSI_Attach_Emergency__Backup_UE.L14b
p1196
aVtc_316_241_HSS_Init_QoS_Modification_APNAMBR_RFSP_and_ARP_Changed__Backup_UE.L14b
p1197
aVtc_316_282_Implicitly_Detach_Timer_Expire__Delete_UE_Backup.L14b
p1198
aVtc_306_006_ef_seamless_move_source_receive_attach_request_wf_frcn.L14b
p1199
aVtc_306_045_ef_seamless_move_source_receive_cancel_location_withdraw_wf_frcn.L14b
p1200
aVtc_306_077_ef_seamless_move_source_receive_uplink_nas_transport_wf_frr_ecm_connected.L14b
p1201
aVtc_306_103_ef_seamless_move_source_receive_ue_context_release_request_wf_target_guti_reallocation_complete.L14b
p1202
aVtc_306_154_ef_in_af_seamless_move_source_receive_insert_subscription_data_wf_modify_bearer_response.L14b
p1203
aVtc_306_200_ef_seamless_move_source_receive_me_identity_check_answer_wf_frr_ecm_connected.L14b
p1204
aVtc_306_240_ef_seamless_move_source_receive_pdn_disconnect_request_ignore.L14b
p1205
aVtc_306_320_ef_seamless_move_source_receive_location_response_wf_frr.L14b
p1206
aVtc_306_1023_ef_seamless_move_target_ignore_tau_request_initial_with_ddn.L14b
p1207
aVtc_306_1058_ef_seamless_move_target_receive_cancel_location_update_wf_service_request.L14b
p1208
aVtc_306_1126_ef_seamless_move_target_receive_detach_request_with_switchoff_wf_ula_without_service.L14b
p1209
aVtc_306_1257_ef_seamless_move_target_receive_sgsn_context_request_wf_icsr.L14b
p1210
aVtc_306_1372_ef_seamless_move_target_ignore_erab_release_indication_wf_lua_icsr.L14b
p1211
aVtc_264_012_MME_Initiated_Detach__Attach__GTP_Cause_Other_Than_64__MME_Detach__ReAttach_Required__Attach.L14b
p1212
aVtc_264_029_detach_NOK_emm_registered_ecm_connected.L14b
p1213
aVtc_282_016_delete_bearer_request_at_handover_to_non_3GPP_ecm_connected.L14b
p1214
aVtc_282_114_mme_initiated_deactivate_bearer_1_of_2_default_bearer.L14b
p1215
aVtc_268_051_Timer_Based_GBR_Deact__Service_Request_DDN_Only_GBR_in_EBI_Received.L14b
p1216
aVtc_268_082_Timer_Based_GBR_Deact__receive_DDN_only_GBR_bearer_set_to_allbearers.L14b
p1217
aVtc_284_015_pdn_connectivity_with_static_pdn_address_paa_type_ipv4_addr_ipv4.L14b
p1218
aVtc_284_044_pdn_connectivity_pb_activate_3_dedicated_bearers.L14b
p1219
aVtc_284_116_pdn_connectivity_pdn_type_ipv4_or_ipv6.L14b
p1220
aVtc_284_158_pdn_conn_successful_csr_piggybacked_with_cbr_pvi_pci_downgraded.L14b
p1221
aVtc_284_510_pdn_connectivity_activate_bearer_with_cause_33.L14b
p1222
aVtc_284_576_emergency_pdn_connectivity_after_non_emergency_max_bearers_setup.L14b
p1223
aVtc_327_114_recovery_intra_TAU__Insert_Subscriber_Data_while_waiting_for_Ue_Backup_Response.L14b
p1224
aVtc_327_169_recovery_intra_TAU_SGSN_Context_Request_while_waiting_for_Authentication_Response_from_HSS.L14b
p1225
aVtc_327_221_recovery_service_request__Insert_Subscriber_Data_while_waiting_for_Guti_Reallocation_Complete.L14b
p1226
aVtc_327_317_recovery_service_request__initial_Attach_Request_while_waiting_for_Sub_Procedure__Initial_Context_Setup_Response.L14b
p1227
aVtc_327_370_recovery_service_request__initial_extended_service_request_while_waiting_for_Sub_procedure_Initial_Context_Setup_Response.L14b
p1228
aVtc_327_553_Recovery_for_DDN__Normal_TAU_Request_while_waiting_for_Ue_Backup_Response.L14b
p1229
aVtc_194_008_cl_update_procedure_detached_unknown_mme.L14b
p1230
aVtc_194_018_attach_ul_fails_network_failure_other.L14b
p1231
aVtc_194_050_purge_error.L14b
p1232
aVtc_194_080_cl_update_procedure_during_auth.L14b
p1233
aVtc_194_109_tau_ul_fails_all_3gpp_access_restricted.L14b
p1234
aVtc_194_124_cli_delete_subscriber_msisdn_reattach_required.L14b
p1235
aVtc_194_132_cli_delete_subscriber_imsi_reattach_not_required_idle_state.L14b
p1236
aVtc_194_139_attach_ul_fails_rat_not_allowed.L14b
p1237
aVtc_194_145_cl_initial_attach.L14b
p1238
aVtc_194_171_hss_reset_ue_activity_tau_request.L14b
p1239
aVtc_194_179_hss_reset_multiple_reset_request_from_hss.L14b
p1240
aVtc_194_185_hss_reset_with_full_user_id_list.L14b
p1241
aVtc_194_188_hss_reset_ef_wait_for_notify_response_with_full_imsi.L14b
p1242
aVtc_194_200_isd_apn_change_with_all_apn_included.L14b
p1243
aVtc_194_201_isd_apn_change_not_all_apn_included.L14b
p1244
aVtc_194_204_isd_consecutive_idr_for_multi_subscribers.L14b
p1245
aVtc_194_401_attach_ul_fails_imsi_unknown_remap_15.L14b
p1246
aVtc_194_506_Notification_during_Intra_MME_TAU_without_SGW_Relocation_Procedure.L14b
p1247
aVtc_194_611_DSD__PDN_subscription_contexts_Withdrawal_All_PDN_Disconnect.L14b
p1248
aVtc_194_627_EBT_DSD_in_guti_attach.L14b
p1249
aVtc_194_706_HSS_initiated_ISD_ue_context_modification_request_meanwhile_path_switch_request.L14b
p1250
aVtc_194_800_isd_private_extension_of_wi_denied_from_allowed_to_denied_followed_by_pdn_connectivity_request.L14b
p1251
aVtc_194_802_isd_private_extension_of_wi_denied_from_unknown_to_allowed_followed_by_service_request.L14b
p1252
aVtc_194_812_isd_private_extension_of_lzone_from_invalid_to_nolzone_followed_by_pdn_connectivity_request.L14b
p1253
aVtc_194_823_normal_attach_insert_odb_feature_off.L14b
p1254
aVtc_194_908_ecm_idle__userstate__mobile_reachable_timer_expired__idr_flags.L14b
p1255
aVtc_194_918_ecm_connected__notification_reachability_tads_userstate_locationinfo_currentinfo_timezone__idr_flags.L14b
p1256
aVtc_194_964_s1_reset_from_enb_during_waiting_location_report__idr_flags_ef.L14b
p1257
aVtc_194_977_downlink_data_notification_with_cause_during_waiting_location_report__idr_flags_ef.L14b
p1258
aVtc_194_987_uplink_ue_associated_LPPa_transport_during_waiting_location_report__idr_flags_ef.L14b
p1259
aVtc_194_1012_normal_attach_insert_odb_detach_with_cause_of_reattach_required_with_not_allowed_apn_in_odb_free_apn_list__odb_bit0.L14b
p1260
aVtc_194_1508_dsd_apn_oi_replacement_remove_ue_level_together_with_CC.L14b
p1261
aVtc_194_1552_HSS_initiated_ISD_in_Connected_mode_when_other_CSG_Id_removed.L14b
p1262
aVtc_295_003_Intra_S1_HO__EnodeB_status_transfer_while_wf_handover_request.L14b
p1263
aVtc_295_019_Intra_S1_HO__Ue_context_release_request_from_target_while_wf_handover_notify.L14b
p1264
aVtc_295_097_Intra_S1_HO__Handover_Required_while_waiting_for_TAU_Request.L14b
p1265
aVtc_295_120_tau_after_ho_tz_change_nas_non_delivery_s1_inter_system_handover_triggered_HO_undetected_retry_counter_exceed.L14b
p1266
aVtc_225_100_mo_call_active_mode.L14b
p1267
aVtc_225_105_mo_call_active_mode_no_ue_release.L14b
p1268
aVtc_225_209_mo_call_after_msc_reset_tamr_false_sysprop_on.L14b
p1269
aVtc_225_315_mt_call_active_mode_nas_non_delivery__cs_service_notification_meanwhile_handover_required.L14b
p1270
aVtc_225_309_mt_call_interfered_by_S1HO_including_TAU.L14b
p1271
aVtc_225_355_mt_call_active_mode_ongoing_ims_call_csfb_during_voice_call_not_allowed.L14b
p1272
aVtc_225_624_exp_enb_configuration_update_while_wf_ue_context_release_request.L14b
p1273
aVtc_225_655_mt_call_active_mode_no_lai_in_paging_req_current_la_not_supported.L14b
p1274
aVtc_225_692_mt_call_paging_req_no_lai_non_associated_msc_while_waiting_to_imsi_detach.L14b
p1275
aVtc_318_022_pgw_restart_notification_ef_pdn_disconn_wf_paging_interfer_by_tau.L14b
p1276
aVtc_318_132_sgw_restart_mf_relocation_triggered_by_service_request_multi_pdn.L14b
p1277
aVtc_318_216_idle_deactivate_dedicated_bearer_reactivate_req_no_resource_in_sgw.L14b
p1278
aVtc_326_209_Intra_TAU_Recovery_node_restart_combined_type.L14b
p1279
aVtc_326_203_Intra_TAU_after_node_restart_with_two_retrieval_responses_with_SGW_change_with_emergency_PDN.L14b
p1280
aVtc_326_242_Intra_TAU_Recovery_Initial_Context_Setup_timeout.L14b
p1281
aVtc_326_260_Intra_TAU_with_unknown_GUTI_Restriction_SAU_license_limit_reached.L14b
p1282
aVtc_326_274_Periodic_Intra_TAU_with_unknown_GUTI_old_SGW_unavailable.L14b
p1283
aVtc_326_318_Service_Request_with_unknown_STMSI_node_restart_sgs.L14b
p1284
aVtc_326_336_Service_Request_with_unknown_STMSI_Modify_Bearer_fail.L14b
p1285
aVtc_326_369_Service_Request_with_unknown_STMSI_Restriction_imsi_defined_emergency_unauthenticated.L14b
p1286
aVtc_326_406_Inter_TAU_Recovery_Unkonwn_GUTI__1xrtt_CS_Registration_Then_CSFB_To_1xRTT.L14b
p1287
aVtc_326_416_Combined_Inter_TAU_Recovery__Location_Update_Reject_Then_Sgsap_Paging.L14b
p1288
aVtc_326_457_Inter_TAU_Recovery_Fail__Update_Location_Fail_Emergency_Type_a.L14b
p1289
aVtc_237_026_mme_eps_irat_ho_source__sgsn_context_request_before_all_bearers_deleted.L14b
p1290
aVtc_237_110_mme_eps_irat_ho_source_type_a_new_plmn_fep_on_feu_on.L14b
p1291
aVtc_237_315_mme_eps_irat_Gn_ho_source_visitor_with_local_rfsp.L14b
p1292
aVtc_43_040_eNB_configuration_update_mf.L14b
p1293
aVtc_43_101__removal_of_disconnected_eNodeBs__CLI_removal.L14b
p1294
aVtc_204_054_mme_eps_ho__security_failure_on_buffered_tau.L14b
p1295
aVtc_204_151_inter_s1ho_target_HeNB_with_csg_id_reject.L14b
p1296
aVtc_204_236_mme_eps_ho__multi_pdn_sgw_relocation__default_bearers_fail_in_eNB.L14b
p1297
aVtc_204_403_mme_eps_ho_target_type_b_no_restriction_same_profile_emc_sup_all.L14b
p1298
aVtc_204_801_inter_s1ho_with_sgw_change_private_extension_of_both_wi_denied_and_lzone.L14b
p1299
aVtc_204_1011_emergency_mme_eps_ho_target_attach_license_lte_sau_limit_reached.L14b
p1300
aVtc_258_003_activate_cell_change_reporting_during_tau_inter_active_flag_same_sgw.L14b
p1301
aVtc_258_107_location_report_with_strange_request_type_from_eNodeB.L14b
p1302
aVtc_285_011_PDN_Connectivity_Request__X2_Based_HO_while_waiting_for_Erab_Setup_Resp.L14b
p1303
aVtc_310_001_mf__S3_same_SGW_1_voice_bearer_1_PDN_no_emergency_PDN.L14b
p1304
aVtc_310_006_mf__Gn_new_SGW_1_voice_bearer_1_PDN_no_emergency_PDN.L14b
p1305
aVtc_310_121_af__No_Delete_Bearer_Request_received_from_SGW_after_Delete_Bearer_Command.L14b
p1306
aVtc_310_243_ef__S1_Reset_wf_PS_to_CS_Complete_and_FR_Complete.L14b
p1307
aVtc_218_021_tau_from_sgsn_no_colocated_gw_cause_from_sgw_tau_accept.L14b
p1308
aVtc_218_033_tau_from_sgsn_use_common_subset.L14b
p1309
aVtc_218_051_tau_from_sgsn_visiting_ue_coming_from_other_plmn.L14b
p1310
aVtc_218_074_tau_from_sgsn_deactivate_mbr0_inactive_bearers.L14b
p1311
aVtc_218_116_tau_from_sgsn_one_pdn_active_flag_on.L14b
p1312
aVtc_218_201_tau_from_sgsn_bearer_status_mismatch.L14b
p1313
aVtc_218_218_1_TAU_from_SGSN__delete_bearer_request_while_waiting_for_TAU_Complete.L14b
p1314
aVtc_218_317_tau_from_sgsn_preserved_gbr_bearer_buffer_1_ubr_wf_mbca_interfered_by_ue_context_release_req_active_flag_on.L14b
p1315
aVtc_218_411_TAU_from_SGSN__downlink_data_notification_while_waiting_for_update_location_answer_check_subscribed_apn_fail_sgw_fail.L14b
p1316
aVtc_276_200_Inter_TAU_New_MME__Path_Switch_Request_while_waiting_for_Initial_Context_Setup_Response.L14b
p1317
aVtc_276_045_Inter_TAU_New_MME__S1_Reset_while_waiting_for_Identity_Response__enhanced_imei_check.L14b
p1318
aVtc_276_370_Inter_TAU_New_MME__Attach_Request_while_waiting_for_Create_Session_Response_sgw_unavailable.L14b
p1319
aVtc_193_014_service_req_auth_failure_separation_bit.L14b
p1320
aVtc_193_027_auth_failure_S6a_ResyncCounter_2.L14b
p1321
aVtc_193_066_attach_emergency_attach_S1_SelAuthFreq.L14b
p1322
aVtc_193_173_security_mode_reject_during_attach.L14b
p1323
aVtc_193_219_attach_on_new_s1_no_auth_vects_from_hss.L14b
p1324
aVtc_193_406_auth_vectors_inter_handover_0_vectors.L14b
p1325
aVtc_193_431_tau_req_with_wrapped_sequence_number.L14b
p1326
aVtc_274_007_Intra_and_pTAU__Attach_Request_new_S1_while_waiting_for_Initial_Context_Setup_Response.L14b
p1327
aVtc_274_140_Intra_and_pTAU__Imei_Check_Answer_Unknown_Equipment_while_waiting_for_TAU_Complete.L14b
p1328
aVtc_274_271_Intra_and_pTAU__Handover_Required_with_old_TA_while_waiting_for_TAU_Request_after_HO.L14b
p1329
aVtc_274_380_Intra_and_pTAU__Downlink_A21_AIS_while_waiting_for_Create_Session_Response.L14b
p1330
aVtc_261_30_isd_standalone_ue_detached.L14b
p1331
aVtc_261_49_isd_ef_tau_inter_new_from_gn_sgsn.L14b
p1332
aVtc_261_110_tai_list_attach_in_same_tai_with_diff_voip_restriction.L14b
p1333
aVtc_217_013_rau_to_sgsn_qos_mapping.L14b
p1334
aVtc_217_024_rau_to_sgsn_imsi_attach_when_wf_timeout.L14b
p1335
aVtc_217_035_rau_to_sgsn_detach_request_ms_initiated_when_wf_20s_timeout.L14b
p1336
aVtc_217_046_rau_to_sgsn_context_request_when_wf_sgsn_context_ack.L14b
p1337
aVtc_217_060_rau_to_sgsn_create_bearer_request_when_wf_sgsn_context_ack.L14b
p1338
aVtc_217_073_rau_to_sgsn_update_bearer_request_when_wf_20s_timeout.L14b
p1339
aVtc_217_094_rau_to_sgsn_no_answer_from_sgw_and_interfering_s1_reset.L14b
p1340
aVtc_217_106_rau_to_sgsn_tau_request_when_wf_20s_timeout_delete_session_transaction_failed.L14b
p1341
aVtc_217_802_rau_to_gn_sgsn_tranfer_attach_when_wf_sgsn_context_ack.L14b
p1342
aVtc_340_130_intra_rau_during_validation_move_job_with_trigger_move_configured.WG14a
p1343
aVtc_166_269_israu_new_dt_apn_list_empty_mode_3.WG14a
p1344
aVtc_294_013_intra_s1_ho_without_time_zone_change.LW
p1345
aVtc_298_711_pgw_init_modification_ef_update_bearer_request_apn_ambr_in_second_UBR.LW
p1346
aVtc_298_783_S4_3GDT_downlink_data_notification_wait_MBR_ef_detach.LW
p1347
aVtc_44_851_mme_assoc_reestablish__board_restart_sbc.LW
p1348
aVtc_276_045_Inter_TAU_New_MME__S1_Reset_while_waiting_for_Identity_Response__enhanced_imei_check.LW
p1349
aVtc_326_201_Intra_TAU_with_unknown_GUTI_with_active_flag.LW
p1350
aVtc_326_248_Intra_TAU_Recovery_fail_default_bearer_inactive.LW
p1351
aVtc_326_406_Inter_TAU_Recovery_Unkonwn_GUTI__1xrtt_CS_Registration_Then_CSFB_To_1xRTT.LW
p1352
aVtc_326_802_Service_Request_with_unknown_STMSI_no_ULA_then_detach_reattach.LW
p1353
aVtc_289_103_multi_pdns_pgw_init_bearer_mod_ecm_idle_interrupted_by_dbr_with_lbi.LW
p1354
aVtc_11_255_apnresolving_apnopid_hplmn_present_apn_redirect_dont_log_cc33.LW
p1355
aVtc_11_427_ggsn_update_with_lower_qos_during_secondary_pdp_activation.LW
p1356
aVtc_274_380_Intra_and_pTAU__Downlink_A21_AIS_while_waiting_for_Create_Session_Response.LW
p1357
aVtc_194_081_cl_subscription_withdrawn_during_auth.LW
p1358
aVtc_194_114_standalone_isd_all_3gpp_access_restricted.LW
p1359
aVtc_313_001_inter_new_srns_reloc_s16_without_sgw_change.LW
p1360
aVtc_202_424_af_seamless_move_target_unsuccessful_modifyBearerReq_before_ulr_no_response.LW
p1361
aVtc_578_23_check_usc_report.LW
p1362
aVtc_307_021_HSS_Init_QoS_Modification__MBC_failure_no_Response.LW
p1363
aVtc_295_122_tau_after_ho_tz_change_nas_non_delivery_s1_intra_system_handover_triggered_HO_cancel.LW
p1364
aVtc_241_801_israu_interfering_context_request_no_cancel_location_s4.LW
p1365
aVtc_197_327_visiting_non_ims_apn_in_allowed_apn_list_and_lbo_mode_restricted.LW
p1366
aVtc_197_544_inter_s1_handover_without_sgw_relocation_table_not_matched_snaptr.LW
p1367
aVtc_23_39_get_cause_codes_from_rab_assignment_response.LW
p1368
aVtc_247_201_inter_w_to_l_old_two_pdns_with_dedicated_bearer_one_pdn_failed_with_sgw_change.W14b
p1369
aVtc_322_098_smooth_move_ef_reset_wf_service_request.W14b
p1370
aVtc_322_161_smooth_move_ef_nas_after_paging_response_ignore.W14b
p1371
aVtc_313_001_inter_new_srns_reloc_s16_without_sgw_change.W14b
p1372
aVtc_313_256_inter_new_srns_reloc_s16_with_sgw_change_reset_received_from_hss_wf_rau_complete.W14b
p1373
aVtc_31_077_cli_get_subscriber_during_ul.W14b
p1374
aVtc_231_640_activate_pdp_interfered_by_detach_reqeust.W14b
p1375
aVtc_196_172_nrspca_during_t3385_when_receive_sgsn_context_ack_not_accepted.LW
p1376
aVtc_214_062_combined_attach_combined_tau_interfering_non_combined_tau.LW
p1377
aVtc_578_23_check_usc_report.LW
p1378
aVtc_273_258_tau_intra__sgw_relocation_no_del_session_resp.LW
p1379
aVtc_326_406_Inter_TAU_Recovery_Unkonwn_GUTI__1xrtt_CS_Registration_Then_CSFB_To_1xRTT.LW
p1380
aVtc_274_381_Intra_and_pTAU__Downlink_A21_AIS_while_waiting_for_Authentication_Response.LW
p1381
aVtc_276_381_Inter_TAU_New_MME__active_flag_false_Update_Bearer_Request_and_new_TAU_wf_TAU_Complete.LW
p1382
aVtc_324_326_ef_service_req_paging_response_initial_ue_ignore.LW
p1383
aVtc_324_386_ef_mt_sms_wf_frcn_wf_frca_wf_ula.LW
p1384
aVtc_306_1130_ef_seamless_move_target_receive_detach_request_with_switchoff_wf_service_request.LW
p1385
aVtc_313_229_inter_new_srns_reloc_s16_with_sgw_change_rau_request_initial_ue_with_old_ptmsi_rai_received_wf_rau_complete.LW
p1386
aVtc_52_62_reloc_wf_forw_rel_compl_interrupted_by_sgsn_context_request.LW
p1387
aVtc_194_505_Notification_during_Intra_TAU_without_SGW_Relocation_HSS_Reset_Before_TAU.LW
p1388
aVtc_194_500_Notification_IMEI_change_during_Attach_Procedure.LW
p1389
aVtc_329_110_intra_tau_rs_allowed_plmn_change_hrl_eqplmns.LW
p1390
aVtc_44_841_mme_assoc_reestablish__device_restart_sbc.LW
p1391
aVtc_44_004_small_restart__sctp_fe_restart.LW
p1392
aVtc_11_405_iu_satellite_hpa_downlink_payload.LW
p1393
aVtc_195_532_mme_logging_ue_unrechable.LW
p1394
aVtc_12_512_pmm_undefined_attach_when_updating_location_interfered_by_rnc_reset.LW
p1395
aVtc_268_014_UE_Release_Flow__Downlink_A21_AIS_while_waiting_for_Relase_Access_Bearer_Response.LW
p1396
aVtc_318_107_sgw_restart_mf_one_of_pdns_create_after_sgw_restart.L14b
p1397
aVtc_318_187_sgw_restart_ef_relocate_interrupt_by_CreateBearerReq.L14b
p1398
aVtc_44_040_config_ep_S1.L14b
p1399
aVtc_44_071_attach_long_imsi.L14b
p1400
aVtc_44_810_mme_assoc_reestablish__abort_s1_mme.L14b
p1401
aVtc_44_841_mme_assoc_reestablish__device_restart_sbc.L14b
p1402
aVtc_44_871_mme_assoc_reestablish__board_block_sbc.L14b
p1403
aVtc_327_216_recovery_service_request__HSS_Reset_while_waiting_for_Guti_Reallocation_Complete.L14b
p1404
aVtc_225_616_exp_flow_handover_required_intra_while_wf_modification_context_response.L14b
p1405
aVtc_304_114_initial_ue_intra_tau_control_mode_threshold_exceeded_usc_ignore_replace_s1.L14b
p1406
aVtc_304_105_intra_tau_success__control_mode_threshold_not_reached.L14b
p1407
aVtc_304_200_inter_tau_reject__control_mode_threshold_exceeded.L14b
p1408
aVtc_304_236_isc_active_flag_on_control_mode_threshold_exceeded_ignore_replace_s1_wf_initial_context_setup_response.L14b
p1409
aVtc_304_109_initial_ue_intra_tau_control_mode_threshold_exceeded_usc_detach_then_reattach.L14b
p1410
aVtc_304_266_tau_from_gnsgsn_2g_control_mode_wf_delete_all_bearers_response_exception_case_reject_congestion_subscriber_cancelled.L14b
p1411
aVtc_217_850_rau_to_sgsn_and_tau_back_to_mme_check_detach_register_table.L14b
p1412
aVtc_262_1031_emergency_imsi_attach_multiple_pgw_try_next_pgw_fqdn_error.L14b
p1413
aVtc_310_001_mf__S3_same_SGW_1_voice_bearer_1_PDN_no_emergency_PDN.L14b
p1414
aVtc_335_45_wifi_to_mobility_in_ecm_idle_unknown_user_af__no_estimation_response_from_eNB_timeout.L14b
p1415
aVtc_329_003_attach_rs_allowed_emergency_plmn_change_ula_fails.L14b
p1416
aVtc_103_1005_secondary_dpl_used_when_all_peers_in_dpl_unavailable_with_sls.L14b
p1417
aVtc_346_374_tau_inter_new_emergency_pdn_type_a.L14b
p1418
aVtc_578_23_check_usc_report.L14b
p1419
aVtc_578_32_check_ebm_para_statistics_ue_return_duration.L14b
p1420
aVtc_244_535_SLg_Location_Request__Downlink_A21_AIS_wwf_Location_Response_from_ESMLC.L14b
p1421
aVtc_43_040_eNB_configuration_update_mf.L14b
p1422
aVtc_43_102__removal_of_disconnected_eNodeBs__gauge_threshold.L14b
p1423
aVtc_43_100__removal_of_disconnected_eNodeBs__alarm_and_gauge.L14b
p1424
aVtc_322_161_smooth_move_ef_nas_after_paging_response_ignore.W14b
p1425
aVtc_324_388_ef_mo_sms_wf_ula.W14b
p1426
aVtc_26_152_activate_primary_pdp_with_qos_upgradeNotAllowed.W14b
p1427
aVtc_183_005_itc_folder_file_names.LWG
p1428
aVtc_205_71_03_ss7_M3UA_ASP_counters.LWG
p1429
aVtc_119_202_ospf_interface_opt_vals.LWG
p1430
aVtc_22_036_restart.LWG
p1431
aVtc_16_063_DNw_diffAp_israu_back_before_t3.LWG
p1432
aVtc_179_318_Ccheck_TraceCollectionIpv6server.LWG
p1433
aVtc_162_3117_Ccheck_SctpRemoteEndpoint_IpAddress.LWG
p1434
aVtc_95_7_negative_tests.LWG
p1435
aVtc_17_76_intra_rau_hz_no_ggsninfo_no_scdrinfo_to_hz_no_ggsninfo_scdrinfo.LWG
p1436
aVtc_306_1130_ef_seamless_move_target_receive_detach_request_with_switchoff_wf_service_request.LWG
p1437
aVtc_33_17_isc_rau_authenticating_interrupted_by_subscription_withdrawn.LWG
p1438
aVtc_11_010_activate_pdp_context_dynamic_address_ipv6.LWG
p1439
aVtc_11_441_delete_primary_context_and_rab_before_receive_secondary_update_pdp_context_resp.LWG
p1440
aVtc_11_535_ser_req_interfer_activate_2_multiple_primary_pdp_context.LWG
p1441
aVtc_172_04_get_latest_cause_code_for_create_bss_pfc_nack.LWG
p1442
aVtc_326_242_Intra_TAU_Recovery_Initial_Context_Setup_timeout.LWG
p1443
aVtc_326_406_Inter_TAU_Recovery_Unkonwn_GUTI__1xrtt_CS_Registration_Then_CSFB_To_1xRTT.LWG
p1444
aVtc_159_200_check_ctum_log.LWG
p1445
aVtc_220_043_csfb_to_1xrtt_in_ecm_idle_s1_reset_wf_initial_context_setup_response.LWG
p1446
aVtc_12_512_pmm_undefined_attach_when_updating_location_interfered_by_rnc_reset.LWG
p1447
aVtc_166_412_apn_redirect_to_default_apn_ip_in_dt_ggsn_list_dada_false.LWG
p1448
aVtc_166_417_sgsn_default_3gdt_feature_on_fallback_two_tunnel_not_in_dt_ggsn_list.LWG
p1449
aVtc_304_004_attach_success__only_measurement_mode_threshold_reached.LWG
p1450
aVtc_263_063_Attach_Flow__S1_Reset_while_waiting_for_Attach_Complete_then_Attach_Request_with_new_guti_valid.LWG
p1451
aVtc_298_208_SIBD_S4_Service_Request_PDP_Context_Status_Connect.LWG
p1452
aVtc_298_783_S4_3GDT_downlink_data_notification_wait_MBR_ef_detach.LWG
p1453
aVtc_06_135_delete_req_ggsn_during_activate_ggsn.LWG
p1454
aVtc_110_005_inbound_outbound_pf_rule_cli_ip.LWG
p1455
aVtc_54_006_ran_information_collission_during_activation.LWG
p1456
aVtc_666_02_reboot_ss7_board.LWG
p1457
aVtc_204_901_mme_eps_ho_target_insert_subscriber_data_with_odb_bit0_during_wf_tau_complete.LWG
p1458
aVtc_324_332_ef_service_req_signalling_wf_paging_response_payload.LWG
p1459
aVtc_44_750_s1_with_two_sctp_endpoints.LWG
p1460
aVtc_43_101__removal_of_disconnected_eNodeBs__CLI_removal.LWG
p1461
aVtc_23_09_transfer_to_primary_and_change_vip_addr.LWG
p1462
aVtc_313_001_inter_new_srns_reloc_s16_without_sgw_change.LWG
p1463
aVtc_578_23_check_usc_report.LWG
p1464
aVtc_578_32_check_ebm_para_statistics_ue_return_duration.LWG
p1465
aVtc_26_027_israu_old_streaming_context.LWG
p1466
aVtc_239_620_inter_rau_new_with_bearer_sgw_not_change_isd_odb_bit0_wf_rau_compl_deactivation.G14b
p1467
aVtc_294_017_intra_handover_after_x2_handover_with_sgw_relocation_main_flow.L14b
p1468
aVtc_318_252_restoration_triggered_by_create_session_response.L14b
p1469
aVtc_103_603_georedundant_modify_diameter_peer.L14b
p1470
aVtc_103_1101_resending_AIR_interfering_CLR.L14b
p1471
aVtc_258_110_location_report_IMSI_unknown_in_PGW_for_one_of_several_pdn_connections.L14b
p1472
aVtc_578_23_check_usc_report.L14b
p1473
aVtc_43_101__removal_of_disconnected_eNodeBs__CLI_removal.L14b
p1474
aVtc_43_102__removal_of_disconnected_eNodeBs__gauge_threshold.L14b
p1475
aVtc_43_100__removal_of_disconnected_eNodeBs__alarm_and_gauge.L14b
p1476
aVtc_43_105__alarm_after_restart.L14b
p1477
aVtc_347_001_Inter_TAU_New_MME__Attach_Req_while_waiting_for_CCA_initial.L14b
p1478
aVtc_347_341_SGW_Restart__RAR_while_waiting_Create_Session_Response.L14b
p1479
aVtc_274_278_Intra_and_pTAU__Handover_Required_with_new_TA_while_waiting_for_TAU_Request_after_HO.L14b
p1480
aVtc_306_1127_ef_seamless_move_target_receive_detach_request_with_switchoff_wf_ula_with_service_finished.L14b
p1481
aVtc_304_117_initial_ue_intra_tau_control_mode_threshold_exceeded_usc_detach_intruder_wf_release_request_response.L14b
p1482
aVtc_220_400_csfb_to_1xrtt_in_ecm_connected_ue_context_modification_failure_x2_ho_triggered.L14b
p1483
aVtc_220_413_csfb_to_1xrtt_in_ecm_connected_handover_required_meanwhile_CBR_received.L14b
p1484
aVtc_44_042_config_ep_S6a.L14b
p1485
aVtc_44_043_config_ep_SGs.L14b
p1486
aVtc_44_044_config_ep_SLg.L14b
p1487
aVtc_44_070_sctp_large_message.L14b
p1488
aVtc_44_890_mme_assoc_reestablish__service_request_on_reestablished_sctp_association.L14b
p1489
aVtc_287_005_PDN_Disconnect__Path_Switch_Request_while_wf_delete_session_response.L14b
p1490
aVtc_293_004_X2_Based_HO__Initial_UE_TAU_Request_from_source_eNodeB_while_wf_TAU_request.L14b
p1491
aVtc_334_311_pgw_restart_after_s4_move_3gdt.W14b
p1492
aVtc_324_016_mf_ser_req_data_before_ack_ulr_after_ack.W14b
p1493
aVtc_324_050_af_frca_timeout_paging_timeout.W14b
p1494
aVtc_324_112_af_service_request_default_bearer_fail_in_rab_assignment_non_3gdt.W14b
p1495
aVtc_324_210_ef_attach_request_abort_wf_rab_assignment_response_payload.W14b
p1496
aVtc_313_001_inter_new_srns_reloc_s16_without_sgw_change.W14b
p1497
aVtc_248_122_inter_l_to_w_new_detach_request_direct_transfer_received_wf_forward_relocation_complete_ack.W14b
p1498
aVtc_340_130_intra_rau_during_validation_move_job_with_trigger_move_configured.WG14a
p1499
aVtc_281_009_Activate_bearer__Handover_Required_while_wf_eps_bearer_context_accept.LW
p1500
aVtc_241_801_israu_interfering_context_request_no_cancel_location_s4.LW
p1501
aVtc_44_071_attach_long_imsi.LW
p1502
aVtc_44_831_mme_assoc_reestablish__local_ep_restart_sbc.LW
p1503
aVtc_324_205_ef_attach_request_abort_wf_update_location_hss.LW
p1504
aVtc_324_386_ef_mt_sms_wf_frcn_wf_frca_wf_ula.LW
p1505
aVtc_231_113_rnc_reset_during_ms_act_si_ms_deact_rnc_contact.LW
p1506
aVtc_318_150_sgw_restart_af_invalid_restart_counter.LW
p1507
aVtc_11_356a_activate_secondary_reject_CC32_33.LW
p1508
aVtc_194_080_cl_update_procedure_during_auth.LW
p1509
aVtc_194_608_DSD__PDN_subscription_contexts_Withdrawal_Context_Identifier_Missing.LW
p1510
aVtc_578_23_check_usc_report.LW
p1511
aVtc_313_001_inter_new_srns_reloc_s16_without_sgw_change.LW
p1512
aVtc_313_230_inter_new_srns_reloc_s16_with_sgw_change_rau_request_direct_transfer_received_bf_reloc_complete.LW
p1513
aVtc_103_850_error_code_DIAMETER_REALM_NOT_SERVED.LW
p1514
aVtc_314_102_sgsn_init_qos_mod_inter_srns_reloc_mbc_timeout.LW
p1515
aVtc_11_012_activate_same_context_secondary_exists.LWG
p1516
aVtc_11_425_ggsn_update_with_lower_qos_during_primary_pdp_activation.LWG
p1517
aVtc_59_9_mtmsi_restart_counter.LWG
p1518
aVtc_183_005_itc_folder_file_names.LWG
p1519
aVtc_250_67_s6d_activation_with_EPS_data_s4_license_off.LWG
p1520
aVtc_107_101_eth_vlan_cli.LWG
p1521
aVtc_179_318_Ccheck_TraceCollectionIpv6server.LWG
p1522
aVtc_06_175_apnresolving_apnopid_hplmn_present_apn_redirect_log_cc33.LWG
p1523
aVtc_06_201_apnresolving_apnopid_hplmn_present_apn_criteria_ga.LWG
p1524
aVtc_220_597_csfb_to_1xrtt_hss_reset_during_extended_service_request.LWG
p1525
aVtc_23_41_filter_cause_code_succ_relocation.LWG
p1526
aVtc_23_524_volume_per_rai_no_new_container.LWG
p1527
aVtc_205_71_03_ss7_M3UA_ASP_counters.LWG
p1528
aVtc_205_40_ss7_M3ua.LWG
p1529
aVtc_578_23_check_usc_report.LWG
p1530
aVtc_110_002_inbound_outbound_pf_rule_cli_mand_vals.LWG
p1531
aVtc_110_004_inbound_outbound_pf_rule_cli_udp_sctp_tcp.LWG
p1532
aVtc_73_41_gtpu_sgsn_dont_send_gpu_echo_request_w.LWG
p1533
aVtc_666_02_reboot_ss7_board.LWG
p1534
aVtc_666_06_block_rt_board.LWG
p1535
aVtc_276_284_Inter_TAU_New_MME__Delete_Bearer_Request_change_to_non_3gpp_while_waiting_for_failing_Modify_Bearer_Response.LWG
p1536
aVtc_95_10_fingerprint.LWG
p1537
aVtc_318_116_sgw_restart_mf_one_pdn_with_relocate_by_ReleaseAccessBearersResponse.LWG
p1538
aVtc_257_17_pws_etws_write_replace_warning_request_rejected_when_olp.LWG
p1539
aVtc_267_229_Service_Request__PDN_connectivity_request_while_wf_authentication_response.LWG
p1540
aVtc_159_200_check_ctum_log.LWG
p1541
aVtc_236_071_hard_ho_intra_rau_with_3gdt_bearer_sgw_change_without_seq.LWG
p1542
aVtc_236_107_s4_3gdt_based_on_sr_change_DtThresholdNumber.LWG
p1543
aVtc_103_831_DPR_cause_BUSY.LWG
p1544
aVtc_103_1004_secondary_dpl_used_when_all_peers_in_dpl_unavailable_no_sls.LWG
p1545
aVtc_238_026_mme_eps_irat_ho_target__multi_pdn_sgw_relocation_setup_fails.LWG
p1546
aVtc_44_871_mme_assoc_reestablish__board_block_sbc.LWG
p1547
aVtc_327_030_recovery_intra_TAU__uplink_same_ie_intra_TAU_Request_while_waiting_for_Ue_Backup_Response.LWG
p1548
aVtc_33_17_isc_rau_authenticating_interrupted_by_subscription_withdrawn.LWG
p1549
aVtc_310_001_mf__S3_same_SGW_1_voice_bearer_1_PDN_no_emergency_PDN.LWG
p1550
aVtc_310_330_mf__S3_same_SGW_1_voice_bearer_1_PDN_not_send_voice_bearer_in_handover_command.LWG
p1551
aVtc_256_138_mme_eps_srvcc_ho_source_cs_only_initial_ue_tau_request_wf_srvcc_ps_to_cs_response.LWG
p1552
aVtc_313_001_inter_new_srns_reloc_s16_without_sgw_change.LWG
p1553
aVtc_324_006_mf_ser_req_signaling_after_ack_3gdt.LWG
p1554
aVtc_324_013_mf_ser_req_data_instead_of_ack_gbr_all_setup_3gdt.LWG
p1555
aVtc_119_101_ospf_area_cli.LWG
p1556
aVtc_247_201_inter_w_to_l_old_two_pdns_with_dedicated_bearer_one_pdn_failed_with_sgw_change.LWG
p1557
aVtc_313_001_inter_new_srns_reloc_s16_without_sgw_change.WG14a
p1558
aVtc_103_704_delete_peer_send_DPR.LW
p1559
aVtc_194_961_handover_required_during_waiting_for_location_report__idr_flags_ef.LW
p1560
aVtc_324_386_ef_mt_sms_wf_frcn_wf_frca_wf_ula.LW
p1561
aVtc_284_350_pdn_connectivity_interrupted_by_path_switch_request.LW
p1562
aVtc_313_001_inter_new_srns_reloc_s16_without_sgw_change.LW
p1563
aVtc_257_21_pws_etws_write_replace_warning_request_with_unknown_tai.LW
p1564
aVtc_578_23_check_usc_report.LW
p1565
aVtc_195_208_mme_logging_maximum_modify_eps_bearer_context.LW
p1566
aVtc_47_004_mobile_reachble_timer_ap_loss.LW
p1567
aVtc_267_214_Service_Request__Detach_Request_while_waiting_for_ERAB_Release_Response.LW
p1568
aVtc_44_850_mme_assoc_reestablish__board_restart_s1_mme.LW
p1569
aVtc_44_004_small_restart__sctp_fe_restart.LW
p1570
aVtc_44_871_mme_assoc_reestablish__board_block_sbc.LW
p1571
aVtc_241_671_israu_new_create_session_response_all_bearers_failed_then_intra_rau_sgw_change.LW
p1572
aVtc_241_801_israu_interfering_context_request_no_cancel_location_s4.LW
p1573
aVtc_292_110_x2_ho_1_pdn_fail_in_enb_1_pdn_fail_in_sgw_1_dedicated_failed.LW
p1574
aVtc_244_535_SLg_Location_Request__Downlink_A21_AIS_wwf_Location_Response_from_ESMLC.LW
p1575
aVtc_11_154_rab_reestablish_fails.LW
p1576
aVtc_11_165_active_cancel_location_subscription_withdrawn.LW
p1577
aVtc_11_323_serv_req_data_uplink_data_status_sec_context_downlink_payload.LW
p1578
aVtc_11_548_report_full_rai_feature_turn_on_between_primary_and_secondary_pdp_activation.LW
p1579
aVtc_231_173_ms_init_detach_interfered_by_cancel_location_withdraw.LW
p1580
aVtc_236_039_s4_3gdt_detach_during_waiting_for_modify_bearer_rsp_in_active_procedure.W14b
p1581
aVtc_26_133_actiavet_pri_visitor_not_allowed_ARP.W14b
p1582
aVtc_324_223_ef_detach_request_abort_wf_paging_response_ack_timeout.W14b
p1583
aVtc_324_283_ef_insert_subscriber_data_execute_hss.W14b
p1584
aVtc_324_332_ef_service_req_signalling_wf_paging_response_payload.W14b
p1585
aVtc_324_432_ef_payload_buffered_wf_rab_assignment_response_with_different_contextId.W14b
p1586
aVtc_322_146_smooth_move_ef_provide_location_request_with_pp_true_plr_true.W14b
p1587
aVtc_313_001_inter_new_srns_reloc_s16_without_sgw_change.W14b
p1588
aVtc_313_270_inter_new_srns_reloc_s16_without_sgw_change_update_bearer_request_received_wf_rau_request.W14b
p1589
aVtc_11_096_activate_secondary_reject_217.LWG
p1590
aVtc_11_047_create_pdp_context_ggsn_retransmission_expires_gtpv0.LWG
p1591
aVtc_11_149_rab_reestablish_on_service_request_no_paging_response.LWG
p1592
aVtc_313_001_inter_new_srns_reloc_s16_without_sgw_change.LWG
p1593
aVtc_313_006_inter_new_srns_reloc_s16_without_sgw_change_two_pdns_with_dedicate_bearer_one_pdn_failed.LWG
p1594
aVtc_313_293_inter_new_srns_reloc_s16_without_sgw_change_two_pdns_tzcr_false_sncr_change_one_pdn.LWG
p1595
aVtc_28_052_mo_sms_homer_block_visiting_redirection.LWG
p1596
aVtc_214_041_combined_attach_non_combined_attach.LWG
p1597
aVtc_231_173_ms_init_detach_interfered_by_cancel_location_withdraw.LWG
p1598
aVtc_23_36_record_four_cause_codes.LWG
p1599
aVtc_23_524_volume_per_rai_no_new_container.LWG
p1600
aVtc_159_200_check_ctum_log.LWG
p1601
aVtc_666_06_block_rt_board.LWG
p1602
aVtc_250_67_s6d_activation_with_EPS_data_s4_license_off.LWG
p1603
aVtc_244_051_mt_lr_delete_bearer_request_received_wf_location_report.LWG
p1604
aVtc_06_175_apnresolving_apnopid_hplmn_present_apn_redirect_log_cc33.LWG
p1605
aVtc_110_005_inbound_outbound_pf_rule_cli_ip.LWG
p1606
aVtc_110_004_inbound_outbound_pf_rule_cli_udp_sctp_tcp.LWG
p1607
aVtc_238_265_mme_eps_irat_ho_target__emm_registered_state_no_ho_request_ack.LWG
p1608
aVtc_578_23_check_usc_report.LWG
p1609
aVtc_346_600_Location_Based_Policies__User_Location_Changes_Sx_Only_2_CCR_for_same_PDN.LWG
p1610
aVtc_100_21_inter_w_to_g_old_mf_with_lawful_intercept.LWG
p1611
aVtc_73_28_verify_pxm_counters.LWG
p1612
aVtc_298_040_S4_Network_Request_Secondary_PDP_Activation_after_PSHO_3GDT.LWG
p1613
aVtc_311_219_intra_srns_reloc_s4_wf_reloc_complete_interrupted_by_downlink_data_notification_with_cause.LWG
p1614
aVtc_119_202_ospf_interface_opt_vals.LWG
p1615
aVtc_241_431_intra_rau_with_bearer_sgw_unchange_2_pdns_with_one_modify_no_response.LWG
p1616
aVtc_310_001_mf__S3_same_SGW_1_voice_bearer_1_PDN_no_emergency_PDN.LWG
p1617
aVtc_306_1130_ef_seamless_move_target_receive_detach_request_with_switchoff_wf_service_request.LWG
p1618
aVtc_306_217_ef_seamless_move_source_receive_pdn_connectivity_request_wf_source_guti_reallocation_complete.LWG
p1619
aVtc_324_386_ef_mt_sms_wf_frcn_wf_frca_wf_ula.LWG
p1620
aVtc_59_9_mtmsi_restart_counter.LWG
p1621
aVtc_44_071_attach_long_imsi.LWG
p1622
aVtc_44_822_mme_assoc_reestablish__shutdown_m3.LWG
p1623
aVtc_44_860_mme_assoc_reestablish__sctp_fe_restart_s1_mme.LWG
p1624
aVtc_327_022_recovery_intra_TAU__initial_Detach_Request_while_waiting_for_Ue_Backup_Response.LWG
p1625
aVtc_205_71_03_ss7_M3UA_ASP_counters.LWG
p1626
aVtc_208_43_interception_after_small_restart.G14b
p1627
aVtc_249_261_inter_rau_new_context_request_reject_due_to_dia_congestion.G14b
p1628
aVtc_172_05_get_latest_cause_codes_for_ps_handover_cancel.G14b
p1629
aVtc_202_01_ecm_connected_s1_release.L14b
p1630
aVtc_44_040_config_ep_S1.L14b
p1631
aVtc_44_071_attach_long_imsi.L14b
p1632
aVtc_44_871_mme_assoc_reestablish__board_block_sbc.L14b
p1633
aVtc_44_860_mme_assoc_reestablish__sctp_fe_restart_s1_mme.L14b
p1634
aVtc_293_004_X2_Based_HO__Initial_UE_TAU_Request_from_source_eNodeB_while_wf_TAU_request.L14b
p1635
aVtc_268_014_UE_Release_Flow__Downlink_A21_AIS_while_waiting_for_Relase_Access_Bearer_Response.L14b
p1636
aVtc_578_23_check_usc_report.L14b
p1637
aVtc_220_503_csfb_to_1xrtt_in_ecm_idle_tau_request_wf_initial_context_setup_response.L14b
p1638
aVtc_103_203_send_to_peer.L14b
p1639
aVtc_103_1101_resending_AIR_interfering_CLR.L14b
p1640
aVtc_310_001_mf__S3_same_SGW_1_voice_bearer_1_PDN_no_emergency_PDN.L14b
p1641
aVtc_318_116_sgw_restart_mf_one_pdn_with_relocate_by_ReleaseAccessBearersResponse.L14b
p1642
aVtc_318_150_sgw_restart_af_invalid_restart_counter.L14b
p1643
aVtc_326_406_Inter_TAU_Recovery_Unkonwn_GUTI__1xrtt_CS_Registration_Then_CSFB_To_1xRTT.L14b
p1644
aVtc_202_384_mf_seamless_move_target_service_request_before_ula_without_ddn_seq1.LW
p1645
aVtc_202_43_type_d_emergency_pdn_ecm_idle.LW
p1646
aVtc_236_216_W_to_W_Inter_RAU_S4_over_Gn_target_DtSelMode_8_APN_not_in_APN_list_TAC_in_TAC_list.LW
p1647
aVtc_241_045_intra_with_multi_bearer_sgw_change_try_next.LW
p1648
aVtc_347_236_GW_Dedicated_Bearer_Deactivate__Location_Report_while_waiting_for_eRAB_Release_Response.LW
p1649
aVtc_103_706_delete_peer_send_DPR_error_result_code_in_DPA.LW
p1650
aVtc_280_118_activate_dedicated_bearer_ue_reject_nas_cause_normal.LW
p1651
aVtc_313_001_inter_new_srns_reloc_s16_without_sgw_change.LW
p1652
aVtc_284_053_emergency_pdn_connectivity_pb_activate_1_dedicated_bearer.LW
p1653
aVtc_284_135_emergency_pdn_connectivity_no_notify_request.LW
p1654
aVtc_298_145_EF_NRSPCA_interfere_Activation.LW
p1655
aVtc_298_702_pgw_init_modification_ef_ms_deact_req_tdi_false_ti_default_wf_modify_accept.LW
p1656
aVtc_194_063_hss_reset.LW
p1657
aVtc_231_173_ms_init_detach_interfered_by_cancel_location_withdraw.LW
p1658
aVtc_44_071_attach_long_imsi.LW
p1659
aVtc_44_821_mme_assoc_reestablish__shutdown_sbc.LW
p1660
aVtc_44_871_mme_assoc_reestablish__board_block_sbc.LW
p1661
aVtc_23_23_ms_negative_time_zone.LW
p1662
aVtc_23_47_rab_assignment_response_cause_256.LW
p1663
aVtc_23_17_volume_based_cdr.LW
p1664
aVtc_43_100__removal_of_disconnected_eNodeBs__alarm_and_gauge.LW
p1665
aVtc_329_203_inter_tau_new_rs_restricted_emergency.LW
p1666
aVtc_578_23_check_usc_report.LW
p1667
aVtc_276_045_Inter_TAU_New_MME__S1_Reset_while_waiting_for_Identity_Response__enhanced_imei_check.LW
p1668
aVtc_11_255_apnresolving_apnopid_hplmn_present_apn_redirect_dont_log_cc33.LW
p1669
aVtc_340_130_intra_rau_during_validation_move_job_with_trigger_move_configured.WG14a
p1670
aVtc_33_17_isc_rau_authenticating_interrupted_by_subscription_withdrawn.WG14a
p1671
aVtc_313_001_inter_new_srns_reloc_s16_without_sgw_change.WG14a
p1672
aVtc_28_64_mt_sms_allow_unknown_mtbs_false.W14b
p1673
aVtc_12_512_pmm_undefined_attach_when_updating_location_interfered_by_rnc_reset.W14b
p1674
aVtc_247_201_inter_w_to_l_old_two_pdns_with_dedicated_bearer_one_pdn_failed_with_sgw_change.W14b
p1675
aVtc_248_128_inter_l_to_w_new_rau_request_intial_ue_received_wf_update_location_resp.W14b
p1676
aVtc_313_001_inter_new_srns_reloc_s16_without_sgw_change.W14b
p1677
aVtc_208_43_interception_after_small_restart.G14b
p1678
aVtc_96_024_intra_sgsn_intra_ra_psho_llc_pdu_arrives_no_psho_complete_t14_expiry.G14b
p1679
aVtc_26_019_ms_initiated_pdp_context_modification_from_streaming_to_interactive.LWG
p1680
aVtc_244_050_mt_lr_imei_check_answer_received_wf_location_report.LWG
p1681
aVtc_244_535_SLg_Location_Request__Downlink_A21_AIS_wwf_Location_Response_from_ESMLC.LWG
p1682
aVtc_198_040_ICMPv6DstUnreachGTPv2.LWG
p1683
aVtc_132_002_create_ip_interface_eth.LWG
p1684
aVtc_578_23_check_usc_report.LWG
p1685
aVtc_44_831_mme_assoc_reestablish__local_ep_restart_sbc.LWG
p1686
aVtc_44_004_small_restart__sctp_fe_restart.LWG
p1687
aVtc_44_871_mme_assoc_reestablish__board_block_sbc.LWG
p1688
aVtc_110_005_inbound_outbound_pf_rule_cli_ip.LWG
p1689
aVtc_110_004_inbound_outbound_pf_rule_cli_udp_sctp_tcp.LWG
p1690
aVtc_202_41_type_a_emergency_pdn_ecm_idle.LWG
p1691
aVtc_73_21_itc_gtpu_s4_sgsn_send_echo_request_w.LWG
p1692
aVtc_205_71_03_ss7_M3UA_ASP_counters.LWG
p1693
aVtc_324_386_ef_mt_sms_wf_frcn_wf_frca_wf_ula.LWG
p1694
aVtc_241_674_israu_new_dedicated_bearer_failed_receive_deactivate_before_service_request.LWG
p1695
aVtc_241_801_israu_interfering_context_request_no_cancel_location_s4.LWG
p1696
aVtc_11_614_ggsn_update_during_primary_pdp_activation_sgsn_initiated_modification_buffer_upd_req.LWG
p1697
aVtc_11_645_downlink_gtpu_wf_paging_resp_ef_transfer_service_req_data.LWG
p1698
aVtc_216_106_icmpv6_outNeighborSol.LWG
p1699
aVtc_236_073_hard_ho_intra_rau_with_3gdt_bearer_sgw_nochange_without_seq.LWG
p1700
aVtc_298_783_S4_3GDT_downlink_data_notification_wait_MBR_ef_detach.LWG
p1701
aVtc_294_051_s1_intra_handover_type_b_new_plmn_no_roaming_restriction_emc_sup_all_same_profile.LWG
p1702
aVtc_17_72_intra_rau_hz_no_ggsninfo_no_scdrinfo_to_g.LWG
p1703
aVtc_17_78_intra_same_hz.LWG
p1704
aVtc_250_67_s6d_activation_with_EPS_data_s4_license_off.LWG
p1705
aVtc_274_380_Intra_and_pTAU__Downlink_A21_AIS_while_waiting_for_Create_Session_Response.LWG
p1706
aVtc_274_381_Intra_and_pTAU__Downlink_A21_AIS_while_waiting_for_Authentication_Response.LWG
p1707
aVtc_59_9_mtmsi_restart_counter.LWG
p1708
aVtc_28_64_mt_sms_allow_unknown_mtbs_false.LWG
p1709
aVtc_159_200_check_ctum_log.LWG
p1710
aVtc_23_09_transfer_to_primary_and_change_vip_addr.LWG
p1711
aVtc_666_02_reboot_ss7_board.LWG
p1712
aVtc_313_001_inter_new_srns_reloc_s16_without_sgw_change.LWG
p1713
aVtc_289_028_Modify_bearer__Downlink_nas_non_delivery_s1_intra_system_handover_triggered.LWG
p1714
aVtc_327_552_Recovery_for_DDN__Service_Request_while_waiting_for_Ue_Backup_Response.LWG
p1715
aVtc_44_042_config_ep_S6a.L14b
p1716
aVtc_44_043_config_ep_SGs.L14b
p1717
aVtc_44_045_config_ep_SBc.L14b
p1718
aVtc_578_23_check_usc_report.L14b
p1719
aVtc_47_003_unstable_ue_ap_loss.L14b
p1720
aVtc_265_140_Detach_Flow_NW_init__Reattach_Not_Required_Detach_Request_non_poweroff_while_waiting_for_Paging_Response.L14b
p1721
aVtc_276_045_Inter_TAU_New_MME__S1_Reset_while_waiting_for_Identity_Response__enhanced_imei_check.L14b
p1722
aVtc_103_1101_resending_AIR_interfering_CLR.L14b
p1723
aVtc_335_16_mobility_to_wifi_in_ecm_connected_af__granted_without_ecgi_in_cell_info_from_eNB.L14b
p1724
aVtc_243_532_tau_from_sgsn_s3_active_flag_false_dl_data_notification_wf_tau_complete.L14b
p1725
aVtc_346_495_Small_Local_Restart__No_Terminate_when_UE1_Attach_waiting_for_CCA_Initial_UE2_Attach_waiting_for_MBR.L14b
p1726
aVtc_329_157_intra_tau_rs_restricted_tai_list_rs_config_change_range.L14b
p1727
aVtc_238_052_mme_eps_irat_ho_target__tau_request_during_wf_handover_notify.L14b
p1728
aVtc_203_440_mme_eps_ho_source__subscription_deleted_during_wf_ho_notify.L14b
p1729
aVtc_304_116_initial_ue_intra_tau_control_mode_threshold_exceeded_usc_reject_intruder_wf_icsr.L14b
p1730
aVtc_304_124_uplink_nas_intra_tau_control_mode_threshold_exceeded_usc_reject_lead_to_implicit_detach_wf_icsr.L14b
p1731
aVtc_304_117_initial_ue_intra_tau_control_mode_threshold_exceeded_usc_detach_intruder_wf_release_request_response.L14b
p1732
aVtc_304_435_Service_Request_UE_Initiated__control_mode_threshold_exceeded_explicit_detach_mbr_int_prot_nok.L14b
p1733
aVtc_304_440_Service_Request_UE_Initiated__control_mode_threshold_exceeded_ongoing_icsr_ignore.L14b
p1734
aVtc_256_050_mme_eps_srvcc_ho_source_cs_only_invalid_ho_type_target_id_mapping.L14b
p1735
aVtc_43_040_eNB_configuration_update_mf.L14b
p1736
aVtc_43_100__removal_of_disconnected_eNodeBs__alarm_and_gauge.L14b
p1737
aVtc_282_020_delete_bearer_request_handover_to_non_3GPP_ecm_connected_multi_pdn.L14b
p1738
aVtc_326_406_Inter_TAU_Recovery_Unkonwn_GUTI__1xrtt_CS_Registration_Then_CSFB_To_1xRTT.L14b
p1739
aVtc_244_535_SLg_Location_Request__Downlink_A21_AIS_wwf_Location_Response_from_ESMLC.L14b
p1740
aVtc_345_008_mf__mt_csfb_with_psho__ecm_idle_S3_sgw_relocation.L14b
p1741
aVtc_194_991_downlink_A21_AIS_during_waiting_location_report__idr_flags_ef.L14b
p1742
aVtc_322_161_smooth_move_ef_nas_after_paging_response_ignore.WG14a
p1743
aVtc_322_173_smooth_move_ef_cli_s6d_delete_subscriber_data_wf_ptmsi_relocation_complete.WG14a
p1744
aVtc_340_130_intra_rau_during_validation_move_job_with_trigger_move_configured.WG14a
p1745
aVtc_313_001_inter_new_srns_reloc_s16_without_sgw_change.WG14a
p1746
aVtc_311_108_intra_srns_reloc_s4_rab_partial_success_with_sgw_change_rau_time_out.WG14a
p1747
aVtc_172_09_get_latest_cause_codes_for_radio_status.G14b
p1748
aVtc_297_407_move_at_periodic_rau.G14b
p1749
aVtc_103_011_disconnect_peer.L14b
p1750
aVtc_103_006_load_sharing_between_peers.L14b
p1751
aVtc_103_1100_resending_AIR_dpl_changed.L14b
p1752
aVtc_103_1101_resending_AIR_interfering_CLR.L14b
p1753
aVtc_44_040_config_ep_S1.L14b
p1754
aVtc_44_851_mme_assoc_reestablish__board_restart_sbc.L14b
p1755
aVtc_276_045_Inter_TAU_New_MME__S1_Reset_while_waiting_for_Identity_Response__enhanced_imei_check.L14b
p1756
aVtc_578_23_check_usc_report.L14b
p1757
aVtc_273_002_tau_intra_normal_idle_guti_realloc.L14b
p1758
aVtc_193_014_service_req_auth_failure_separation_bit.L14b
p1759
aVtc_327_600_Inter_TAU_Recovery__Attach_Request_IMSI_while_waiting_for_ue_backup_retrieval_Response.L14b
p1760
aVtc_327_602_Inter_TAU_Recovery__Attach_Request_while_waiting_for_Ue_Authentication_Response.L14b
p1761
aVtc_293_004_X2_Based_HO__Initial_UE_TAU_Request_from_source_eNodeB_while_wf_TAU_request.L14b
p1762
aVtc_275_711_tau_inter_without_SGW_Change_receive_TZCR_flag_set_in_context_response_SN_change.L14b
p1763
aVtc_197_062_s1_handover_sgw_reselection_topon_emc_ims_allpdn.L14b
p1764
aVtc_318_107_sgw_restart_mf_one_of_pdns_create_after_sgw_restart.L14b
p1765
aVtc_318_187_sgw_restart_ef_relocate_interrupt_by_CreateBearerReq.L14b
p1766
aVtc_304_266_tau_from_gnsgsn_2g_control_mode_wf_delete_all_bearers_response_exception_case_reject_congestion_subscriber_cancelled.L14b
p1767
aVtc_310_001_mf__S3_same_SGW_1_voice_bearer_1_PDN_no_emergency_PDN.L14b
p1768
aVtc_326_230_Intra_TAU_Recovery_fail_Authentication_failure_from_UE.L14b
p1769
aVtc_326_267_Intra_TAU_with_unknown_GUTI_Restriction_2_pdn_SAU_license_limit_reached.L14b
p1770
aVtc_326_406_Inter_TAU_Recovery_Unkonwn_GUTI__1xrtt_CS_Registration_Then_CSFB_To_1xRTT.L14b
p1771
aVtc_329_003_attach_rs_allowed_emergency_plmn_change_ula_fails.L14b
p1772
aVtc_328_108_Backup_MME__MaximumNumberOfUeBackups_reached_replace_oldest_ue_backups.L14b
p1773
aVtc_220_587_csfb_to_1xrtt_in_extended_service_request_during_attach_waiting_for_modify_bearer_response.L14b
p1774
aVtc_346_388_handover_intra_2PDN_BCM_sx_only_and_sxgx_location_report.L14b
p1775
aVtc_262_203_guti_attach_when_unauthenticated_attached.L14b
p1776
aVtc_262_820_clr_from_hss_without_CLR_flag.L14b
p1777
aVtc_340_130_intra_rau_during_validation_move_job_with_trigger_move_configured.LWG
p1778
aVtc_305_057_oms_mmi_hwm.LWG
p1779
aVtc_231_173_ms_init_detach_interfered_by_cancel_location_withdraw.LWG
p1780
aVtc_231_640_activate_pdp_interfered_by_detach_reqeust.LWG
p1781
aVtc_260_035_mbms_session_start_mf_three_session_with_diff_tmgi_same_flow_id.LWG
p1782
aVtc_285_006_PDN_Connectivity_Pb__Delete_default_bearer_request_while_wf_modify_bearer_response.LWG
p1783
aVtc_297_407_move_at_periodic_rau.LWG
p1784
aVtc_193_144_service_req_detachnormal_during_auth_ue.LWG
p1785
aVtc_257_19_pws_etws_resend_write_replace_warning_request_with_ta_list.LWG
p1786
aVtc_257_13_pws_etws_write_replace_warning_request_license_off.LWG
p1787
aVtc_295_032_Intra_S1_HO__With_sgw_relocation_S1_Reset_from_Target_while_wf_modify_bearer_response.LWG
p1788
aVtc_159_200_check_ctum_log.LWG
p1789
aVtc_326_406_Inter_TAU_Recovery_Unkonwn_GUTI__1xrtt_CS_Registration_Then_CSFB_To_1xRTT.LWG
p1790
aVtc_100_21_inter_w_to_g_old_mf_with_lawful_intercept.LWG
p1791
aVtc_11_127_iu_release_during_activation_create_request.LWG
p1792
aVtc_11_215_activate_one_primary_one_secondary_pdp_context_with_limitation.LWG
p1793
aVtc_205_71_03_ss7_M3UA_ASP_counters.LWG
p1794
aVtc_110_005_inbound_outbound_pf_rule_cli_ip.LWG
p1795
aVtc_666_02_reboot_ss7_board.LWG
p1796
aVtc_666_06_block_rt_board.LWG
p1797
aVtc_44_071_attach_long_imsi.LWG
p1798
aVtc_44_700_ip_invalid_sip_valid.LWG
p1799
aVtc_44_871_mme_assoc_reestablish__board_block_sbc.LWG
p1800
aVtc_327_031_recovery_intra_TAU__uplink_same_ie_intra_TAU_Request_while_waiting_for_Create_Session_Response.LWG
p1801
aVtc_335_44_wifi_to_mobility_in_ecm_idle_unknown_user_af__feature_off_in_enodeb.LWG
p1802
aVtc_51_074_reloc_wf_reloc_request_ack_interfered_by_rau_on_new_iu_new_rai.LWG
p1803
aVtc_183_005_itc_folder_file_names.LWG
p1804
aVtc_578_23_check_usc_report.LWG
p1805
aVtc_165_12_check_resource_alarms_dp.LWG
p1806
aVtc_242_603_rau_sgsn_s3_interrupted_by_tranfer_attach_when_wf_session_response.LWG
p1807
aVtc_298_145_EF_NRSPCA_interfere_Activation.LWG
p1808
aVtc_216_013_icmpv6_inNeighborSol.LWG
p1809
aVtc_76_013_ms_initiated_modification_secondary_interrupted_by_ms_delete.LWG
p1810
aVtc_246_055_israu_new_l_to_g_sgw_unchange_one_pdn_ubr_before_rau_complete_but_rau_rejected.LWG
p1811
aVtc_324_006_mf_ser_req_signaling_after_ack_3gdt.LWG
p1812
aVtc_324_386_ef_mt_sms_wf_frcn_wf_frca_wf_ula.LWG
p1813
aVtc_247_201_inter_w_to_l_old_two_pdns_with_dedicated_bearer_one_pdn_failed_with_sgw_change.W14b
p1814
aVtc_313_001_inter_new_srns_reloc_s16_without_sgw_change.W14b
p1815
aVtc_245_336_israu_new_l_to_w_with_sgw_unchange_modify_bearer_no_resp_buffer_ubr.W14b
p1816
aVtc_23_10_transfer_to_primary_and_change_vip_addr_from_gn_to_gom.W14b
p1817
aVtc_26_146_SGSN_init_PDP_modify_GGSN_not_support_HLR_support_ARP.W14b
p1818
aVtc_262_084_emergency_imsi_attach_unauthentication_fails_in_hss.LW
p1819
aVtc_218_311_tau_from_sgsn_preserved_gbr_bearer_buffer_1_ubr_1_cbr.LW
p1820
aVtc_256_198_mme_eps_srvcc_ho_source_cs_only_cancel_location_normal_srvcc_with_emergency_pdn_wf_session_finished.LW
p1821
aVtc_256_176_mme_eps_srvcc_ho_source_cs_only_ue_release_request_wf_srvcc_ps_to_cs_complete_notification.LW
p1822
aVtc_298_783_S4_3GDT_downlink_data_notification_wait_MBR_ef_detach.LW
p1823
aVtc_53_118_inter_new_srns_reloc_interfere_service_request_paging_new_iu_1.LW
p1824
aVtc_12_501_pmm_connect_dl_pdu_rab_assignment_with_single_nsapi.LW
p1825
aVtc_11_143_rab_reestablish_on_downlink_payload_error_indication.LW
p1826
aVtc_11_250_apnresolving_apnopid_hplmn_present_apn_criteria_si.LW
p1827
aVtc_11_272_operator_deactivation_iu_released.LW
p1828
aVtc_11_321_serv_req_data_uplink_data_status_deact_prim_first.LW
p1829
aVtc_44_871_mme_assoc_reestablish__board_block_sbc.LW
p1830
aVtc_76_002_deactivate_ggsn_initiated_teardown_II.LW
p1831
aVtc_76_027_deactivate_ggsn_initiated_ms_detach_request.LW
p1832
aVtc_273_011_tau_intra_normal_idle_active_icsr_timeout.LW
p1833
aVtc_313_001_inter_new_srns_reloc_s16_without_sgw_change.LW
p1834
aVtc_241_801_israu_interfering_context_request_no_cancel_location_s4.LW
p1835
aVtc_203_324_mme_eps_ho_source_type_d__TAU_Request_while_wf_Forw_Reloc_Comp_Notification.LW
p1836
aVtc_578_23_check_usc_report.LW
p1837
aVtc_326_406_Inter_TAU_Recovery_Unkonwn_GUTI__1xrtt_CS_Registration_Then_CSFB_To_1xRTT.LW
p1838
aVtc_96_012_intra_sgsn_intra_ra_psho_llc_pdu_arrives_before_psho_complete.G14b
p1839
aVtc_297_407_move_at_periodic_rau.G14b
p1840
aVtc_43_040_eNB_configuration_update_mf.L14b
p1841
aVtc_292_170_inter_handover_before_timer_expiration_of_x2_ho.L14b
p1842
aVtc_310_001_mf__S3_same_SGW_1_voice_bearer_1_PDN_no_emergency_PDN.L14b
p1843
aVtc_293_004_X2_Based_HO__Initial_UE_TAU_Request_from_source_eNodeB_while_wf_TAU_request.L14b
p1844
aVtc_266_026_DownlinkDataFailureInd_repeat_paging_timer_small_local_restart.L14b
p1845
aVtc_195_406_ue_trace_start_meanwhile_handover_required.L14b
p1846
aVtc_44_040_config_ep_S1.L14b
p1847
aVtc_44_860_mme_assoc_reestablish__sctp_fe_restart_s1_mme.L14b
p1848
aVtc_346_301_Combination__PGW_Selection_UserLocationChange.L14b
p1849
aVtc_578_23_check_usc_report.L14b
p1850
aVtc_262_203_guti_attach_when_unauthenticated_attached.L14b
p1851
aVtc_304_124_uplink_nas_intra_tau_control_mode_threshold_exceeded_usc_reject_lead_to_implicit_detach_wf_icsr.L14b
p1852
aVtc_273_167_tau_intra_periodic_connected.L14b
p1853
aVtc_103_701_MME_restarts.LW
p1854
aVtc_103_903_primary_or_secondary_realm_routing_own_realm.LW
p1855
aVtc_103_1101_resending_AIR_interfering_CLR.LW
p1856
aVtc_23_09_transfer_to_primary_and_change_vip_addr.LW
p1857
aVtc_329_050_attach_rs_restricted_emergency.LW
p1858
aVtc_214_1103_la_selection_mf_reselection_combined_intra_tau_with_imsi_attach_after_csfb.LW
p1859
aVtc_214_1141_la_selection_mf_oldmscpreferred_prau_during_ue_restoration.LW
p1860
aVtc_276_045_Inter_TAU_New_MME__S1_Reset_while_waiting_for_Identity_Response__enhanced_imei_check.LW
p1861
aVtc_231_281_activate_pdp_request_ignore_during_s4_pdp_deactivating.LW
p1862
aVtc_318_107_sgw_restart_mf_one_of_pdns_create_after_sgw_restart.LW
p1863
aVtc_44_201_sctp_endpoint_config__modify_rt_Diameter.LW
p1864
aVtc_44_004_small_restart__sctp_fe_restart.LW
p1865
aVtc_44_871_mme_assoc_reestablish__board_block_sbc.LW
p1866
aVtc_11_254_apnresolving_apnopid_hplmn_present_apn_redirect_log_cc33.LW
p1867
aVtc_324_006_mf_ser_req_signaling_after_ack_3gdt.LW
p1868
aVtc_324_386_ef_mt_sms_wf_frcn_wf_frca_wf_ula.LW
p1869
aVtc_313_001_inter_new_srns_reloc_s16_without_sgw_change.LW
p1870
aVtc_81_020_ms_modify_conversational.LW
p1871
aVtc_12_512_pmm_undefined_attach_when_updating_location_interfered_by_rnc_reset.LW
p1872
aVtc_578_02_check_parse_ebm_and_ci_eci_w.LW
p1873
aVtc_578_23_check_usc_report.LW
p1874
aVtc_306_1130_ef_seamless_move_target_receive_detach_request_with_switchoff_wf_service_request.LW
p1875
aVtc_310_001_mf__S3_same_SGW_1_voice_bearer_1_PDN_no_emergency_PDN.LW
p1876
aVtc_50_029_activate_background_QoS_downgraded_by_ggsn_16oct_10mbit.LW
p1877
aVtc_578_23_check_usc_report.LWG
p1878
aVtc_202_454_af_seamless_move_source_unsuccessful_forward_relocation_response_other_cause.LWG
p1879
aVtc_78_085_intra_rau_intra_plmn_accept_home_ms_no_redirect_attempt_flag.LWG
p1880
aVtc_103_602_georedundant_realm_routing.LWG
p1881
aVtc_44_340_sctp_counter_index_SGsAP.LWG
p1882
aVtc_132_002_create_ip_interface_eth.LWG
p1883
aVtc_19_34_attach_move_initiated_imsi_attach_req_before_attach_complete_restart_attach.LWG
p1884
aVtc_107_101_eth_vlan_cli.LWG
p1885
aVtc_285_002_PDN_Connectivity_Pb__Attach_request_while_wf_activate_default_EPS_bearer_context_accept.LWG
p1886
aVtc_224_104_ipv6_discard_sctp_unconfigured.LWG
p1887
aVtc_159_200_check_ctum_log.LWG
p1888
aVtc_194_084_hss_reset_after_large_restart.LWG
p1889
aVtc_59_9_mtmsi_restart_counter.LWG
p1890
aVtc_666_06_block_rt_board.LWG
p1891
aVtc_257_37_pws_etws_write_replace_warning_request_feature_off_when_olp_rshl_false.LWG
p1892
aVtc_208_43_interception_after_small_restart.LWG
p1893
aVtc_313_001_inter_new_srns_reloc_s16_without_sgw_change.LWG
p1894
aVtc_298_317_EF_SIBD_S4_Create_Bearer_Request.LWG
p1895
aVtc_241_640_intra_rau_with_bearer_sgw_change_with_3gdt_wait_release_access_resp_interfer_by_update_bearer_req.LWG
p1896
aVtc_04_109_normal_imsi_attach_detach_ptmsi_attach_sent_5_times_then_rau_req_purge.LWG
p1897
aVtc_110_003_inbound_outbound_pf_rule_cli_icmp.LWG
p1898
aVtc_23_13_israu_out.LWG
p1899
aVtc_23_09_transfer_to_primary_and_change_vip_addr.LWG
p1900
aVtc_214_1092_la_selection_mf_oldmscpreferred_combined_intra_tau_with_imsi_attach_after_ue_initiated_imsi_detach.LWG
p1901
aVtc_310_001_mf__S3_same_SGW_1_voice_bearer_1_PDN_no_emergency_PDN.LWG
p1902
aVtc_73_41_gtpu_sgsn_dont_send_gpu_echo_request_w.LWG
p1903
aVtc_335_45_wifi_to_mobility_in_ecm_idle_unknown_user_af__no_estimation_response_from_eNB_timeout.LWG
p1904
aVtc_205_71_03_ss7_M3UA_ASP_counters.LWG
p1905
aVtc_220_020_csfb_to_1xrtt_ue_suspended_delete_bearer_request_last_pdn_connection.LWG
p1906
aVtc_324_084_af_sec_modify_bearer_response_with_s4_interface_3gdt.WG14a
p1907
aVtc_340_130_intra_rau_during_validation_move_job_with_trigger_move_configured.WG14a
p1908
aVtc_313_001_inter_new_srns_reloc_s16_without_sgw_change.WG14a
p1909
aVtc_26_130_inter_g_to_w_new_ARP.W14b
p1910
aVtc_39_187_detach_trigger_re_attach_new_iu.W14b
p1911
aVtc_247_201_inter_w_to_l_old_two_pdns_with_dedicated_bearer_one_pdn_failed_with_sgw_change.W14b
p1912
aVtc_28_038_mo_sms_fallback_v1_ok.W14b
p1913
aVtc_313_001_inter_new_srns_reloc_s16_without_sgw_change.W14b
p1914
aVtc_313_001_inter_new_srns_reloc_s16_without_sgw_change.WG14a
p1915
aVtc_273_501_TAU_intra_SGW_unavailable__normal_idle_active_guti_realloc.LW
p1916
aVtc_214_1126_la_selection_mf_oldlapreferred_combined_intra_tau_after_imsi_detach_triggered_by_sgs_paging.LW
p1917
aVtc_39_780_smooth_move_service_request_wf_move_ms_finished.LW
p1918
aVtc_266_106_service_request_wrong_ta.LW
p1919
aVtc_289_103_multi_pdns_pgw_init_bearer_mod_ecm_idle_interrupted_by_dbr_with_lbi.LW
p1920
aVtc_310_001_mf__S3_same_SGW_1_voice_bearer_1_PDN_no_emergency_PDN.LW
p1921
aVtc_103_1101_resending_AIR_interfering_CLR.LW
p1922
aVtc_318_107_sgw_restart_mf_one_of_pdns_create_after_sgw_restart.LW
p1923
aVtc_52_14_inter_old_treloccomplete_timeout.LW
p1924
aVtc_284_135_emergency_pdn_connectivity_no_notify_request.LW
p1925
aVtc_284_351_pdn_connectivity_pb_activate_1_dedicated_bearer_interrupted_by_path_switch_request.LW
p1926
aVtc_298_702_pgw_init_modification_ef_ms_deact_req_tdi_false_ti_default_wf_modify_accept.LW
p1927
aVtc_298_654_pgw_init_modification_mf_3gdt_enable.LW
p1928
aVtc_274_441_Intra_TAU_Detach_Request_while_waiting_for_Create_Session_Response_2PDNs_partially_failure_sgw_unavailable.LW
p1929
aVtc_276_045_Inter_TAU_New_MME__S1_Reset_while_waiting_for_Identity_Response__enhanced_imei_check.LW
p1930
aVtc_313_001_inter_new_srns_reloc_s16_without_sgw_change.LW
p1931
aVtc_23_09_transfer_to_primary_and_change_vip_addr.LW
p1932
aVtc_23_526_volume_per_rai_CDR_format_before_2011B.LW
p1933
aVtc_23_525_volume_per_rai_one_qos_change.LW
p1934
aVtc_578_23_check_usc_report.LW
p1935
aVtc_11_585_dual_stack_support_with_nevertrypgw.LW
p1936
aVtc_11_614_ggsn_update_during_primary_pdp_activation_sgsn_initiated_modification_buffer_upd_req.LW
p1937
aVtc_218_311_tau_from_sgsn_preserved_gbr_bearer_buffer_1_ubr_1_cbr.LW
p1938
aVtc_44_071_attach_long_imsi.LW
p1939
aVtc_44_821_mme_assoc_reestablish__shutdown_sbc.LW
p1940
aVtc_44_871_mme_assoc_reestablish__board_block_sbc.LW
p1941
aVtc_196_172_nrspca_during_t3385_when_receive_sgsn_context_ack_not_accepted.LW
p1942
aVtc_327_022_recovery_intra_TAU__initial_Detach_Request_while_waiting_for_Ue_Backup_Response.L14b
p1943
aVtc_578_23_check_usc_report.L14b
p1944
aVtc_329_310_s1_inter_ho_target_rs_restricted.L14b
p1945
aVtc_273_201_tau_intra_roaming_restricted_plmn.L14b
p1946
aVtc_276_045_Inter_TAU_New_MME__S1_Reset_while_waiting_for_Identity_Response__enhanced_imei_check.L14b
p1947
aVtc_266_026_DownlinkDataFailureInd_repeat_paging_timer_small_local_restart.L14b
p1948
aVtc_281_009_Activate_bearer__Handover_Required_while_wf_eps_bearer_context_accept.L14b
p1949
aVtc_295_130_Intra_S1_HO__Sgw_reloc__Downlink_A21_AIS_while_waiting_for_Delete_Session_Response.L14b
p1950
aVtc_103_831_DPR_cause_BUSY.L14b
p1951
aVtc_103_1101_resending_AIR_interfering_CLR.L14b
p1952
aVtc_103_1107_fallback_to_imsins_resend_fail_due_to_result_code.L14b
p1953
aVtc_103_703_duplicate_peer_ips.L14b
p1954
aVtc_44_040_config_ep_S1.L14b
p1955
aVtc_44_897_mme_assoc_reestablish__emergency_attach.L14b
p1956
aVtc_44_871_mme_assoc_reestablish__board_block_sbc.L14b
p1957
aVtc_44_861_mme_assoc_reestablish__sctp_fe_restart_sbc.L14b
p1958
aVtc_304_117_initial_ue_intra_tau_control_mode_threshold_exceeded_usc_detach_intruder_wf_release_request_response.L14b
p1959
aVtc_304_121_initial_ue_intra_tau_control_mode_threshold_exceeded_usc_detach_wf_release_request_response.L14b
p1960
aVtc_297_407_move_at_periodic_rau.G14b
p1961
aVtc_298_690_S4_3GDT_Service_request_wait_MBR_ef_delete_bearer_request_lbi.LWG
p1962
aVtc_298_783_S4_3GDT_downlink_data_notification_wait_MBR_ef_detach.LWG
p1963
aVtc_195_208_mme_logging_maximum_modify_eps_bearer_context.LWG
p1964
aVtc_110_001_inbound_outbound_pf_policy_cli.LWG
p1965
aVtc_110_005_inbound_outbound_pf_rule_cli_ip.LWG
p1966
aVtc_16_033_intra_rau_tz_changed_no_dst.LWG
p1967
aVtc_16_040_activate_context_tz_changed.LWG
p1968
aVtc_16_043_modify_context_tz_changed_paging_required.LWG
p1969
aVtc_306_1130_ef_seamless_move_target_receive_detach_request_with_switchoff_wf_service_request.LWG
p1970
aVtc_306_1308_ef_seamless_move_target_buffer_update_bearer_request.LWG
p1971
aVtc_322_122_smooth_move_ef_cancel_location_wf_security_mode_complete.LWG
p1972
aVtc_322_173_smooth_move_ef_cli_s6d_delete_subscriber_data_wf_ptmsi_relocation_complete.LWG
p1973
aVtc_666_03_block_ss7_board.LWG
p1974
aVtc_666_06_block_rt_board.LWG
p1975
aVtc_318_116_sgw_restart_mf_one_pdn_with_relocate_by_ReleaseAccessBearersResponse.LWG
p1976
aVtc_23_09_transfer_to_primary_and_change_vip_addr.LWG
p1977
aVtc_23_526_volume_per_rai_CDR_format_before_2011B.LWG
p1978
aVtc_23_530_eul11m_check_qos_in_scdr.LWG
p1979
aVtc_23_531_eul11m_cdr_format_2011b_no_octet17_18.LWG
p1980
aVtc_11_440_delete_primary_context_before_receive_secondary_update_pdp_context_resp.LWG
p1981
aVtc_326_406_Inter_TAU_Recovery_Unkonwn_GUTI__1xrtt_CS_Registration_Then_CSFB_To_1xRTT.LWG
p1982
aVtc_73_21_itc_gtpu_s4_sgsn_send_echo_request_w.LWG
p1983
aVtc_73_43_gtpu_sgsn_turn_off_gnu_echo_request_w.LWG
p1984
aVtc_232_401_bfd__ipv4_alarm.LWG
p1985
aVtc_132_002_create_ip_interface_eth.LWG
p1986
aVtc_220_302_csfb_to_1xrtt_return_with_tau_resume_t3n3_expired.LWG
p1987
aVtc_220_411_csfb_to_1xrtt_in_ecm_connected_path_switch_request_subscription_cancelled.LWG
p1988
aVtc_578_23_check_usc_report.LWG
p1989
aVtc_214_1054_la_selection_af_oldlapreferred_combined_intra_tau_old_la_not_available.LWG
p1990
aVtc_304_434_Service_Request_UE_Initiated__control_mode_threshold_exceeded_explicit_detach_int_prot_nok.LWG
p1991
aVtc_231_173_ms_init_detach_interfered_by_cancel_location_withdraw.LWG
p1992
aVtc_208_43_interception_after_small_restart.LWG
p1993
aVtc_314_007_hss_init_qos_modification_gprs_data_mbr.LWG
p1994
aVtc_237_114_mme_eps_irat_ho_source_type_b_new_plmn_fep_off_feu_on.LWG
p1995
aVtc_159_200_check_ctum_log.LWG
p1996
aVtc_44_071_attach_long_imsi.LWG
p1997
aVtc_44_820_mme_assoc_reestablish__shutdown_s1_mme.LWG
p1998
aVtc_282_014_deactivate_bearers_timeout_nas_partially_ok.LWG
p1999
aVtc_205_71_03_ss7_M3UA_ASP_counters.LWG
p2000
aVtc_293_040_X2_Based_HO__Downlink_A21_AIS_while_wf_Modify_Bearer_Response.LWG
p2001
aVtc_313_001_inter_new_srns_reloc_s16_without_sgw_change.LWG
p2002
aVtc_290_033_Timer_Based_GBR_Deact__TAU_request_wf_ue_context_release_complete_before_timer_expires.LW
p2003
aVtc_236_182_hard_ho_intra_rau_with_3gdt_wf_release_access_bearer_resp_si_cancel_location_withdraw.LW
p2004
aVtc_324_226_ef_detach_request_abort_wf_modify_bearer_response_wf_update_location_hlr_ack_timeout.LW
p2005
aVtc_324_327_ef_service_req_data_direct_transfer_ingore.LW
p2006
aVtc_194_991_downlink_A21_AIS_during_waiting_location_report__idr_flags_ef.LW
p2007
aVtc_293_040_X2_Based_HO__Downlink_A21_AIS_while_wf_Modify_Bearer_Response.LW
p2008
aVtc_203_108_S1_Based_HO_Source_MME_TAU_Request_while_waiting_for_Forward_Relocation_Complete_Notification.LW
p2009
aVtc_276_283_Inter_TAU_New_MME__Delete_Bearer_Request_change_to_non_3gpp_while_waiting_for_TAU_Complete.LW
p2010
aVtc_202_421_af_seamless_move_target_initialCtxSetupResponse_noSuccDefaultBearer_implicit_detach.LW
p2011
aVtc_202_362_mf_seamless_move_by_ue_5_subscribers_2_target_mmes.LW
p2012
aVtc_32_120_paging_source_rnc_interrupted_by_rau_from_target_rnc.LW
p2013
aVtc_39_416_mas_one_pdp_downlink_data_target.LW
p2014
aVtc_39_424_mas_one_pdp_downlink_data_target_with_higher_qosSub.LW
p2015
aVtc_326_406_Inter_TAU_Recovery_Unkonwn_GUTI__1xrtt_CS_Registration_Then_CSFB_To_1xRTT.LW
p2016
aVtc_44_071_attach_long_imsi.LW
p2017
aVtc_44_897_mme_assoc_reestablish__emergency_attach.LW
p2018
aVtc_217_701_rau_to_sgsn_type_c_emergency_allowed.LW
p2019
aVtc_289_047_Modify_bearer__ERAB_modify_response_s1_intra_system_handover_triggered_activate_dedicated_bearer_one_pdn_multiple_bearer.LW
p2020
aVtc_346_492_Small_Restart__No_Terminate_when_UE1_Attach_waiting_for_CCA_Initial_UE2_Attach_waiting_for_MBR.LW
p2021
aVtc_23_25_plmn_id.LW
p2022
aVtc_79_026_sgsn_init_modification_rnc_not_supporting_modify_II.LW
p2023
aVtc_306_1130_ef_seamless_move_target_receive_detach_request_with_switchoff_wf_service_request.LW
p2024
aVtc_329_203_inter_tau_new_rs_restricted_emergency.LW
p2025
aVtc_578_23_check_usc_report.LW
p2026
aVtc_314_022_hss_reset_restoration_followed_by_service_request_smah_off.LW
p2027
aVtc_250_105_ignore_IDR_when_EPS_sub_downgrade_GPRS_sub.LW
p2028
aVtc_11_241_rab_release_request_interrupted_by_iu_release.LW
p2029
aVtc_11_645_downlink_gtpu_wf_paging_resp_ef_transfer_service_req_data.LW
p2030
aVtc_202_01_ecm_connected_s1_release.LWG
p2031
aVtc_241_301_israu_new_create_session_failed_and_paging_timeout.LWG
p2032
aVtc_205_71_03_ss7_M3UA_ASP_counters.LWG
p2033
aVtc_23_09_transfer_to_primary_and_change_vip_addr.LWG
p2034
aVtc_256_143_mme_eps_srvcc_ho_source_cs_only_initial_ue_extended_service_request_wf_srvcc_ps_to_cs_response.LWG
p2035
aVtc_95_4_load_lkf2.LWG
p2036
aVtc_79_068_activate_reject_rab_fail_qos_cause_34_fallback_streaming.LWG
p2037
aVtc_73_12_reload_of_contexts_after_dp_restart.LWG
p2038
aVtc_39_434_mas_one_pdp_downlink_data_3gdt_switchback_target.LWG
p2039
aVtc_293_041_X2_Based_HO__Sgw_reloc__Downlink_A21_AIS_while_wf_Delete_Session_Response.LWG
p2040
aVtc_298_783_S4_3GDT_downlink_data_notification_wait_MBR_ef_detach.LWG
p2041
aVtc_211_014_streamed_cell_trace_mapping_alarm.LWG
p2042
aVtc_306_1130_ef_seamless_move_target_receive_detach_request_with_switchoff_wf_service_request.LWG
p2043
aVtc_67_006_ms_initiated_xid_negotiation_of_ack_mode_parameters.LWG
p2044
aVtc_11_012_activate_same_context_secondary_exists.LWG
p2045
aVtc_11_076_deactivate_sgsn_initiated_delete_subscriber_data_pmm_idle_no_response.LWG
p2046
aVtc_313_001_inter_new_srns_reloc_s16_without_sgw_change.LWG
p2047
aVtc_236_107_s4_3gdt_based_on_sr_change_DtThresholdNumber.LWG
p2048
aVtc_110_003_inbound_outbound_pf_rule_cli_icmp.LWG
p2049
aVtc_183_005_itc_folder_file_names.LWG
p2050
aVtc_119_202_ospf_interface_opt_vals.LWG
p2051
aVtc_203_108_S1_Based_HO_Source_MME_TAU_Request_while_waiting_for_Forward_Relocation_Complete_Notification.LWG
p2052
aVtc_132_002_create_ip_interface_eth.LWG
p2053
aVtc_159_200_check_ctum_log.LWG
p2054
aVtc_578_23_check_usc_report.LWG
p2055
aVtc_327_154_recovery_intra_TAU_Delete_Bearer_Request_while_waiting_for_Update_Location_Answer.LWG
p2056
aVtc_327_331_recovery_service_request__initial_Detach_Request_while_waiting_for_Sub_Procedure__Initial_Context_Setup_Response.LWG
p2057
aVtc_327_030_recovery_intra_TAU__uplink_same_ie_intra_TAU_Request_while_waiting_for_Ue_Backup_Response.LWG
p2058
aVtc_59_9_mtmsi_restart_counter.LWG
p2059
aVtc_324_386_ef_mt_sms_wf_frcn_wf_frca_wf_ula.LWG
p2060
aVtc_326_252_Intra_TAU_Recovery_after_node_restart_then_pool_move.LWG
p2061
aVtc_326_237_Intra_TAU_Recovery_fail_DNS_Query_fail.LWG
p2062
aVtc_326_406_Inter_TAU_Recovery_Unkonwn_GUTI__1xrtt_CS_Registration_Then_CSFB_To_1xRTT.LWG
p2063
aVtc_166_007_establish_two_tunnel_since_camel_subscriber.WG14a
p2064
aVtc_166_509_3gdt_based_on_sr_NoDtPeriod_set_to_0.WG14a
p2065
aVtc_313_001_inter_new_srns_reloc_s16_without_sgw_change.WG14a
p2066
aVtc_298_201_SIBD_S4_RAB_Release_3GDT_GTP_Resource_Unavailable.W14b
p2067
aVtc_313_001_inter_new_srns_reloc_s16_without_sgw_change.W14b
p2068
aVtc_236_292_3gdt_swichback_detach_request_received_wf_modify_bearer_response.W14b
p2069
aVtc_241_500_israu_new_gn_to_s4_pdp_to_bearer_one_pdp_conversational_mbr_0.W14b
p2070
aVtc_39_046_attach_move_timeout_during_israu_old.W14b
p2071
aVtc_31_031_service_request_ul_fails_plmn_not_allowed.W14b
p2072
aVtc_194_505_Notification_during_Intra_TAU_without_SGW_Relocation_HSS_Reset_Before_TAU.L14b
p2073
aVtc_194_991_downlink_A21_AIS_during_waiting_location_report__idr_flags_ef.L14b
p2074
aVtc_103_832_DPR_cause_REBOOTING.L14b
p2075
aVtc_103_1000_modify_diameter_peer_prio.L14b
p2076
aVtc_103_860_ue_trace_retransmit.L14b
p2077
aVtc_220_593_csfb_to_1xrtt_context_request_during_extended_service_request.L14b
p2078
aVtc_295_124_tau_after_ho_tz_change_emm_information_meanwhile_handover_required_HO_success.L14b
p2079
aVtc_225_416_recv_service_while_waiting_extended_service_request.L14b
p2080
aVtc_292_083_x2_handover_type_d_with_emergency_pdn_same_profile_in_new_plmn.L14b
p2081
aVtc_214_1055_la_selection_mf_oldlapreferred_combined_tau_dyn_tailist_updated.L14b
p2082
aVtc_214_1126_la_selection_mf_oldlapreferred_combined_intra_tau_after_imsi_detach_triggered_by_sgs_paging.L14b
p2083
aVtc_327_600_Inter_TAU_Recovery__Attach_Request_IMSI_while_waiting_for_ue_backup_retrieval_Response.L14b
p2084
aVtc_327_352_recovery_service_request__initial_intra_TAU_while_waiting_for_Ue_Backup_Response.L14b
p2085
aVtc_44_043_config_ep_SGs.L14b
p2086
aVtc_44_045_config_ep_SBc.L14b
p2087
aVtc_44_833_mme_assoc_reestablish__local_ep_restart_blocked_s1_setup_from_enodeb_s1_mme.L14b
p2088
aVtc_44_871_mme_assoc_reestablish__board_block_sbc.L14b
p2089
aVtc_276_045_Inter_TAU_New_MME__S1_Reset_while_waiting_for_Identity_Response__enhanced_imei_check.L14b
p2090
aVtc_43_040_eNB_configuration_update_mf.L14b
p2091
aVtc_43_101__removal_of_disconnected_eNodeBs__CLI_removal.L14b
p2092
aVtc_293_241_X2_Based_HO__location_report_while_wf_update_location_wf_location_update.L14b
p2093
aVtc_578_23_check_usc_report.L14b
p2094
aVtc_203_324_mme_eps_ho_source_type_d__TAU_Request_while_wf_Forw_Reloc_Comp_Notification.L14b
p2095
aVtc_326_406_Inter_TAU_Recovery_Unkonwn_GUTI__1xrtt_CS_Registration_Then_CSFB_To_1xRTT.L14b
p2096
aVtc_295_130_Intra_S1_HO__Sgw_reloc__Downlink_A21_AIS_while_waiting_for_Delete_Session_Response.LWG
p2097
aVtc_156_05_ap_loss_w_mobile_reachable_timer_expires.LWG
p2098
aVtc_244_050_mt_lr_imei_check_answer_received_wf_location_report.LWG
p2099
aVtc_79_039_ms_init_modification_rnc_not_supporting_modify_II.LWG
p2100
aVtc_79_080_sgsn_init_modification_rnc_not_responding_II.LWG
p2101
aVtc_79_081_ms_initiated_modification_rnc_does_not_respond_II.LWG
p2102
aVtc_256_140_mme_eps_srvcc_ho_source_cs_only_initial_ue_tau_request_wf_delete_bearer_request.LWG
p2103
aVtc_256_175_mme_eps_srvcc_ho_source_cs_only_ue_release_request_wf_srvcc_ps_to_cs_response.LWG
p2104
aVtc_326_406_Inter_TAU_Recovery_Unkonwn_GUTI__1xrtt_CS_Registration_Then_CSFB_To_1xRTT.LWG
p2105
aVtc_208_43_interception_after_small_restart.LWG
p2106
aVtc_342_140_update_one_of_two_targets_x2_address.LWG
p2107
aVtc_342_146_update_one_of_two_targets_x2_x3_address_ccoutput.LWG
p2108
aVtc_26_091_israu_ggsn_change_to_0kbps.LWG
p2109
aVtc_666_06_block_rt_board.LWG
p2110
aVtc_284_351_pdn_connectivity_pb_activate_1_dedicated_bearer_interrupted_by_path_switch_request.LWG
p2111
aVtc_205_71_03_ss7_M3UA_ASP_counters.LWG
p2112
aVtc_183_005_itc_folder_file_names.LWG
p2113
aVtc_313_001_inter_new_srns_reloc_s16_without_sgw_change.LWG
p2114
aVtc_289_047_Modify_bearer__ERAB_modify_response_s1_intra_system_handover_triggered_activate_dedicated_bearer_one_pdn_multiple_bearer.LWG
p2115
aVtc_11_526_ms_init_modify_pdp_ggsn_upgrade_qos_interfering_by_rnc_reset.LWG
p2116
aVtc_159_200_check_ctum_log.LWG
p2117
aVtc_203_108_S1_Based_HO_Source_MME_TAU_Request_while_waiting_for_Forward_Relocation_Complete_Notification.LWG
p2118
aVtc_304_266_tau_from_gnsgsn_2g_control_mode_wf_delete_all_bearers_response_exception_case_reject_congestion_subscriber_cancelled.LWG
p2119
aVtc_303_003_Intra_S1_HO__Downlink_A21_AIS_while_wf_Handover_Request_Ack__Reset_from_source_eNB_while_wf_Handover_Notify.LWG
p2120
aVtc_316_268_GUTI_Attach_Transfer_Due_To_Wrong_AP__Backup_UE.LWG
p2121
aVtc_316_203_IMSI_Attach_Emergency_Authentication_Fail__Backup_UE.LWG
p2122
aVtc_59_9_mtmsi_restart_counter.LWG
p2123
aVtc_267_229_Service_Request__PDN_connectivity_request_while_wf_authentication_response.LWG
p2124
aVtc_327_017_recovery_intra_TAU__uplink_Detach_Request_while_waiting_for_Ue_Backup_Response.LWG
p2125
aVtc_44_871_mme_assoc_reestablish__board_block_sbc.LWG
p2126
aVtc_17_70_intra_rau_g_to_hz_no_ggsninfo_no_scdrinfo.LWG
p2127
aVtc_17_82_intra_rau_g_to_hz_ggsninfo_scdrinfo_old_cdr_format.LWG
p2128
aVtc_23_09_transfer_to_primary_and_change_vip_addr.LWG
p2129
aVtc_06_515_apn_resolution_main_flow_resolute_based_on_imsins_when_ms_request_empty_apn.LWG
p2130
aVtc_89_001_attach_after_restart.LWG
p2131
aVtc_268_014_UE_Release_Flow__Downlink_A21_AIS_while_waiting_for_Relase_Access_Bearer_Response.LWG
p2132
aVtc_578_23_check_usc_report.LWG
p2133
aVtc_318_116_sgw_restart_mf_one_pdn_with_relocate_by_ReleaseAccessBearersResponse.LW
p2134
aVtc_262_059_no_imei_check_after_large_restart.LW
p2135
aVtc_275_037_tau_inter_new_bearer_status_mismatch.LW
p2136
aVtc_313_001_inter_new_srns_reloc_s16_without_sgw_change.LW
p2137
aVtc_241_801_israu_interfering_context_request_no_cancel_location_s4.LW
p2138
aVtc_11_241_rab_release_request_interrupted_by_iu_release.LW
p2139
aVtc_11_236_activate_primary_with_aace_mtz.LW
p2140
aVtc_263_120_Emergency_Attach_Flow_Type_A__ME_Identity_Check_Answer_Blacklisted_while_waiting_for_Create_Session_Response.LW
p2141
aVtc_39_601_mas_unsucc_fwd_reloc_resp_mandatory_ie_missing_stop_source.LW
p2142
aVtc_39_430_mas_one_pdp_downlink_data_3gdt_upd_loc_ack_b4_srv_req_target.LW
p2143
aVtc_39_434_mas_one_pdp_downlink_data_3gdt_switchback_target.LW
p2144
aVtc_310_001_mf__S3_same_SGW_1_voice_bearer_1_PDN_no_emergency_PDN.LW
p2145
aVtc_306_1130_ef_seamless_move_target_receive_detach_request_with_switchoff_wf_service_request.LW
p2146
aVtc_326_406_Inter_TAU_Recovery_Unkonwn_GUTI__1xrtt_CS_Registration_Then_CSFB_To_1xRTT.LW
p2147
aVtc_265_005_Detach_Flow_UE_init__Path_Switch_Request_while_waiting_for_Context_Release_Complete.LW
p2148
aVtc_44_071_attach_long_imsi.LW
p2149
aVtc_44_871_mme_assoc_reestablish__board_block_sbc.LW
p2150
aVtc_342_066_x2_attach_detach_imsi_msisdn.LW
p2151
aVtc_303_003_Intra_S1_HO__Downlink_A21_AIS_while_wf_Handover_Request_Ack__Reset_from_source_eNB_while_wf_Handover_Notify.LW
p2152
aVtc_303_002_Service_Request__Downlink_A21_AIS_while_wf_Initial_Context_Setup_Response__Extended_Service_Request_while_wf_Initial_Context_Setup_Response.LW
p2153
aVtc_194_081_cl_subscription_withdrawn_during_auth.LW
p2154
aVtc_220_403_csfb_to_1xrtt_in_ecm_connected_path_switch_request_HO_success.LW
p2155
aVtc_578_23_check_usc_report.LW
p2156
aVtc_578_32_check_ebm_para_statistics_ue_return_duration.LW
p2157
aVtc_298_006_S4_Network_Request_Secondary_PDP_Activation_UE_no_Response_timeout.LW
p2158
aVtc_193_005_service_req_resending_auth_req_abort.L14b
p2159
aVtc_44_042_config_ep_S6a.L14b
p2160
aVtc_44_044_config_ep_SLg.L14b
p2161
aVtc_44_045_config_ep_SBc.L14b
p2162
aVtc_44_810_mme_assoc_reestablish__abort_s1_mme.L14b
p2163
aVtc_194_187_hss_reset_after_large_restart_with_full_imsi.L14b
p2164
aVtc_194_991_downlink_A21_AIS_during_waiting_location_report__idr_flags_ef.L14b
p2165
aVtc_327_322_recovery_service_request__initial_Imsi_Attach_Request_while_waiting_for_Ue_Backup_Response.L14b
p2166
aVtc_43_040_eNB_configuration_update_mf.L14b
p2167
aVtc_43_101__removal_of_disconnected_eNodeBs__CLI_removal.L14b
p2168
aVtc_43_102__removal_of_disconnected_eNodeBs__gauge_threshold.L14b
p2169
aVtc_243_330_tau_from_sgsn_s3_emergency_type_a_no_restriction.L14b
p2170
aVtc_103_702_CEA_timeout.L14b
p2171
aVtc_295_137_mt_call_during_s1_ho_tau_request_when_wf_handover_notify.L14b
p2172
aVtc_273_508_TAU_intra_SGW_unavailable__emergency_type_a.L14b
p2173
aVtc_578_23_check_usc_report.L14b
p2174
aVtc_282_020_delete_bearer_request_handover_to_non_3GPP_ecm_connected_multi_pdn.L14b
p2175
aVtc_293_040_X2_Based_HO__Downlink_A21_AIS_while_wf_Modify_Bearer_Response.L14b
p2176
aVtc_293_241_X2_Based_HO__location_report_while_wf_update_location_wf_location_update.L14b
p2177
aVtc_202_40_emergency_pdn_ecm_connected.L14b
p2178
aVtc_31_109_rau_ul_fails_access_restriction_diff_plmn.W14b
p2179
aVtc_39_433_mas_one_pdp_downlink_data_3gdt_upd_loc_ack_b4_upd_pdp_ctx_resp_target.W14b
p2180
aVtc_313_001_inter_new_srns_reloc_s16_without_sgw_change.W14b
p2181
aVtc_324_226_ef_detach_request_abort_wf_modify_bearer_response_wf_update_location_hlr_ack_timeout.WG14a
p2182
aVtc_313_001_inter_new_srns_reloc_s16_without_sgw_change.WG14a
p2183
aVtc_340_130_intra_rau_during_validation_move_job_with_trigger_move_configured.WG14a
p2184
aVtc_22_040_ac.LW
p2185
aVtc_289_070_GW_Init_Bearer_Modification_Flow_two_CBR_one_UBR_while_wf_modify_eps_bearer_context_accept.LW
p2186
aVtc_578_23_check_usc_report.LW
p2187
aVtc_304_266_tau_from_gnsgsn_2g_control_mode_wf_delete_all_bearers_response_exception_case_reject_congestion_subscriber_cancelled.LW
p2188
aVtc_304_303_Emergency_PDN_connectivity__control_mode_threshold_not_reached.LW
p2189
aVtc_23_26_no_plmn_id.LW
p2190
aVtc_23_30_qos_change_eight_containers.LW
p2191
aVtc_346_375_tau_inter_new_activeFlag_on_from_gn_sgsn.LW
p2192
aVtc_39_920_ef_seamless_move_interrupted_by_transferred_attach.LW
p2193
aVtc_78_350_israu_new_auth_info_ack_failed_with_cause_data_missing.LW
p2194
aVtc_211_015_streamed_cell_trace_mapping_alarm_cease.LW
p2195
aVtc_335_44_wifi_to_mobility_in_ecm_idle_unknown_user_af__feature_off_in_enodeb.LW
p2196
aVtc_218_311_tau_from_sgsn_preserved_gbr_bearer_buffer_1_ubr_1_cbr.LW
p2197
aVtc_276_045_Inter_TAU_New_MME__S1_Reset_while_waiting_for_Identity_Response__enhanced_imei_check.LW
p2198
aVtc_12_134_attach_with_extended_mmumoc_iu_inactivity_timer.LW
p2199
aVtc_194_506_Notification_during_Intra_MME_TAU_without_SGW_Relocation_Procedure.LW
p2200
aVtc_11_549_report_full_rai_feature_turn_off_between_primary_and_secondary_pdp_activation.LW
p2201
aVtc_32_75_test_transfer_2.LW
p2202
aVtc_103_1000_modify_diameter_peer_prio.LW
p2203
aVtc_241_067_israu_new_s4_to_s4_illegal_me_in_imei_check_after_israu.LW
p2204
aVtc_31_063_hlr_reset.LW
p2205
aVtc_326_406_Inter_TAU_Recovery_Unkonwn_GUTI__1xrtt_CS_Registration_Then_CSFB_To_1xRTT.LW
p2206
aVtc_43_100__removal_of_disconnected_eNodeBs__alarm_and_gauge.LWG
p2207
aVtc_59_9_mtmsi_restart_counter.LWG
p2208
aVtc_159_200_check_ctum_log.LWG
p2209
aVtc_11_433_ggsn_initiated_deactivation_interfered_by_rab_release_request.LWG
p2210
aVtc_11_614_ggsn_update_during_primary_pdp_activation_sgsn_initiated_modification_buffer_upd_req.LWG
p2211
aVtc_95_7_negative_tests.LWG
p2212
aVtc_194_706_HSS_initiated_ISD_ue_context_modification_request_meanwhile_path_switch_request.LWG
p2213
aVtc_194_991_downlink_A21_AIS_during_waiting_location_report__idr_flags_ef.LWG
p2214
aVtc_236_152_s4_3gdt_ms_init_dedicated_bearer_tdi_true_deac_wf_release_bearer_resp_in_rab_release_procedure.LWG
p2215
aVtc_236_307_Activation_DtSelMode_5_APN_requested_wrong_SGSN_default_APN_in_APN_list_TAC_in_TAC_list.LWG
p2216
aVtc_110_004_inbound_outbound_pf_rule_cli_udp_sctp_tcp.LWG
p2217
aVtc_39_601_mas_unsucc_fwd_reloc_resp_mandatory_ie_missing_stop_source.LWG
p2218
aVtc_06_205_apnresolving_apnopid_hplmn_present_apn_criteria_si_cc_ga.LWG
p2219
aVtc_318_022_pgw_restart_notification_ef_pdn_disconn_wf_paging_interfer_by_tau.LWG
p2220
aVtc_205_71_03_ss7_M3UA_ASP_counters.LWG
p2221
aVtc_326_406_Inter_TAU_Recovery_Unkonwn_GUTI__1xrtt_CS_Registration_Then_CSFB_To_1xRTT.LWG
p2222
aVtc_231_173_ms_init_detach_interfered_by_cancel_location_withdraw.LWG
p2223
aVtc_313_001_inter_new_srns_reloc_s16_without_sgw_change.LWG
p2224
aVtc_313_104_inter_new_srns_reloc_s16_pool_move_in_progress.LWG
p2225
aVtc_73_41_gtpu_sgsn_dont_send_gpu_echo_request_w.LWG
p2226
aVtc_208_43_interception_after_small_restart.LWG
p2227
aVtc_241_431_intra_rau_with_bearer_sgw_unchange_2_pdns_with_one_modify_no_response.LWG
p2228
aVtc_132_002_create_ip_interface_eth.LWG
p2229
aVtc_274_003_Intra_and_pTAU__Attach_Request_while_waiting_for_Authentication_Information_Answer.LWG
p2230
aVtc_306_1130_ef_seamless_move_target_receive_detach_request_with_switchoff_wf_service_request.LWG
p2231
aVtc_203_108_S1_Based_HO_Source_MME_TAU_Request_while_waiting_for_Forward_Relocation_Complete_Notification.LWG
p2232
aVtc_578_23_check_usc_report.LWG
p2233
aVtc_316_216_ISD_Without_PDN_Impact__Backup_UE.LWG
p2234
aVtc_31_063_hlr_reset.LWG
p2235
aVtc_44_895_mme_assoc_reestablish__s1_setup_when_iterator_started_finished.LWG
p2236
aVtc_44_871_mme_assoc_reestablish__board_block_sbc.LWG
p2237
aVtc_103_831_DPR_cause_BUSY.LWG
p2238
aVtc_247_201_inter_w_to_l_old_two_pdns_with_dedicated_bearer_one_pdn_failed_with_sgw_change.W14b
p2239
aVtc_313_001_inter_new_srns_reloc_s16_without_sgw_change.W14b
p2240
aVtc_322_161_smooth_move_ef_nas_after_paging_response_ignore.W14b
p2241
aVtc_31_054_standalone_dsd_no_relevant_data.W14b
p2242
aVtc_325_007_inter_old_srns_reloc_s4_to_gn_charging.W14b
p2243
aVtc_06_300_activate_deactivate_primary_ms_99_gtp_99_dynamic_ipv4v6.G14b
p2244
aVtc_327_006_recovery_intra_TAU__uplink_Attach_Request_while_waiting_for_Update_Location_Response.L14b
p2245
aVtc_327_016_recovery_intra_TAU__uplink_Detach_Request_while_waiting_for_Identity_Response.L14b
p2246
aVtc_327_103_recovery_intra_TAU__Cancel_Location_update_procedure_while_waiting_for_Create_Session_Response.L14b
p2247
aVtc_327_115_recovery_intra_TAU__Insert_Subscriber_Data_while_waiting_for_Update_Location_Answer.L14b
p2248
aVtc_327_153_recovery_intra_TAU_Delete_Bearer_Request_while_waiting_for_Modify_Bearer_Response.L14b
p2249
aVtc_327_201_recovery_service_request__Cancel_Location_update_procedure_while_waiting_for_Ue_Backup_Response.L14b
p2250
aVtc_327_208_recovery_service_request__Cancel_Location_subscription_withdrawal_while_waiting_for_Guti_Reallocation_Complete.L14b
p2251
aVtc_327_220_recovery_service_request__Insert_Subscriber_Data_while_waiting_for_Create_Session_Response.L14b
p2252
aVtc_327_224_recovery_service_request__Delete_Subscriber_Data_while_waiting_for_Ue_Backup_Response.L14b
p2253
aVtc_327_302_recovery_service_request__uplink_Attach_Request_while_waiting_for_Ue_Backup_Response.L14b
p2254
aVtc_327_313_recovery_service_request__initial_Attach_Request_while_waiting_for_Sub_Procedure__Auth_Vector_Response.L14b
p2255
aVtc_327_329_recovery_service_request__uplink_Detach_Request_while_waiting_for_Update_Location_Answer.L14b
p2256
aVtc_327_374_recovery_service_request__uplink_extended_service_request_while_waiting_for_Sub_procedure_Initial_Context_Setup_Response.L14b
p2257
aVtc_327_460_recovery_service_request__ERAB_release_indication_dedicated_bearer_while_waiting_for_Initial_Context_Setup_Response.L14b
p2258
aVtc_327_490_recovery_service_request__enb_configuration_update_while_waiting_for_identity_response.L14b
p2259
aVtc_327_558_Recovery_for_DDN__Cancel_Location_Update_Location_while_waiting_for_Paging_Response.L14b
p2260
aVtc_327_608_Inter_TAU_Recovery__TAU_Request_while_waiting_for_Update_location_answer.L14b
p2261
aVtc_327_711_recovery_for_DDN__pdn_req_succ_while_wf_guti_complete.L14b
p2262
aVtc_202_18_downlink_data_after_s1_release.L14b
p2263
aVtc_578_23_check_usc_report.L14b
p2264
aVtc_43_100__removal_of_disconnected_eNodeBs__alarm_and_gauge.L14b
p2265
aVtc_289_046_Modify_bearer__Downlink_nas_non_delivery_x2_handover_triggered_activate_dedicated_bearer_csfb_ue_context_modification_two_pdn_mutiple_bearer.L14b
p2266
aVtc_304_116_initial_ue_intra_tau_control_mode_threshold_exceeded_usc_reject_intruder_wf_icsr.L14b
p2267
aVtc_304_117_initial_ue_intra_tau_control_mode_threshold_exceeded_usc_detach_intruder_wf_release_request_response.L14b
p2268
aVtc_304_124_uplink_nas_intra_tau_control_mode_threshold_exceeded_usc_reject_lead_to_implicit_detach_wf_icsr.L14b
p2269
aVtc_103_1101_resending_AIR_interfering_CLR.L14b
p2270
aVtc_316_254_MME_Pool_Seemless_Move_Service_Request_Before_LUR_With_DDN__Backup_UE.L14b
p2271
aVtc_316_282_Implicitly_Detach_Timer_Expire__Delete_UE_Backup.L14b
p2272
aVtc_316_296_New_BMME_Not_In_Backup_MME_List__Force_Delete.L14b
p2273
aVtc_329_003_attach_rs_allowed_emergency_plmn_change_ula_fails.L14b
p2274
aVtc_335_51_mobility_to_wifi_in_ecm_idle_mf_ue_deregistered_in_mme.L14b
p2275
aVtc_225_315_mt_call_active_mode_nas_non_delivery__cs_service_notification_meanwhile_handover_required.L14b
p2276
aVtc_225_321_mt_call_active_mode_nas_non_delivery__cs_service_notification__handover_required_meanwhile_CBR_received.L14b
p2277
aVtc_326_262_Intra_TAU_with_unknown_GUTI_Restriction_emergency_rrc_cause_authentication_failure.L14b
p2278
aVtc_326_271_Periodic_Intra_TAU_with_unknown_GUTI_active_flag.L14b
p2279
aVtc_326_278_Periodic_Intra_TAU_with_unknown_GUTI_SAU_limit_reached.L14b
p2280
aVtc_326_290_Intra_TAU_with_unknown_GUTI_with_SGW_Change.L14b
p2281
aVtc_326_305_Service_Request_with_unknown_STMSI_backup_one_vector_PDN_Type_IPv4v6.L14b
p2282
aVtc_326_310_Service_Request_with_unknown_STMSI_large_restart_1xrtt_cs_registration.L14b
p2283
aVtc_326_311_Service_Request_with_unknown_STMSI_large_restart_sgs_then_csfb_to_UTRAN.L14b
p2284
aVtc_326_318_Service_Request_with_unknown_STMSI_node_restart_sgs.L14b
p2285
aVtc_326_335_Service_Request_with_unknown_STMSI_Initial_Context_Setup_timeout.L14b
p2286
aVtc_326_353_Service_Request_with_unknown_STMSI_otherSubPool_MME_old_MME_in_same_SubPool.L14b
p2287
aVtc_326_362_Service_Request_with_unknown_STMSI_Restriction_imsi_undefined.L14b
p2288
aVtc_326_376_Service_Request_with_unknown_STMSI_Restriction_voip_check_fail_emergency_unauthenticated_reject.L14b
p2289
aVtc_326_400_Inter_TAU_Recovery_Unknown_GUTI_Old_MME_Unavailable.L14b
p2290
aVtc_326_416_Combined_Inter_TAU_Recovery__Location_Update_Reject_Then_Sgsap_Paging.L14b
p2291
aVtc_326_428_Inter_TAU_Recovery_Fail__Modify_Bearer_Fail.L14b
p2292
aVtc_326_445_Inter_TAU_Recovery_Fail__Roaming_Restricted.L14b
p2293
aVtc_326_408_Inter_TAU_Recovery_Unknown_GUTI_Backup_Option_ownSubpool_Then_Intra_TAU.L14b
p2294
aVtc_326_457_Inter_TAU_Recovery_Fail__Update_Location_Fail_Emergency_Type_a.L14b
p2295
aVtc_326_463_Inter_TAU_Recovery_Unknown_GUTI__Emergency_Type_a_LTE_SAU_Limit_Reach.L14b
p2296
aVtc_326_406_Inter_TAU_Recovery_Unkonwn_GUTI__1xrtt_CS_Registration_Then_CSFB_To_1xRTT.L14b
p2297
aVtc_326_483_Inter_TAU_Recovery_Unknown_GUTI__Then_RAU_To_2G.L14b
p2298
aVtc_326_523_Recovery_for_DDN__IMSI_analysis_failure_normal_attached.L14b
p2299
aVtc_326_700_Inter_TAU_Recovery_unknown_GUTI_Old_MME_Unavailable_with_both_allowed_apn_and_not_allowed_apn_in_ODB_free_APN_list__odb_bit0.L14b
p2300
aVtc_326_801_Service_Request_with_unknown_STMSI_Modify_Bearer_fail_Spontaneous_UL_failed_timeout.L14b
p2301
aVtc_306_330_ef_mme_pool_ecm_connected_source_receive_path_switch_request_wf_release_access_bearers_response.L14b
p2302
aVtc_306_1082_ef_seamless_move_target_buffer_extended_service_request_wf_frca.L14b
p2303
aVtc_306_1111_ef_seamless_move_target_receive_detach_request_without_switchoff_ignore.L14b
p2304
aVtc_306_1209_ef_seamless_move_target_receive_s1_reset_wf_modify_bearer_response_move_finished.L14b
p2305
aVtc_306_1130_ef_seamless_move_target_receive_detach_request_with_switchoff_wf_service_request.L14b
p2306
aVtc_306_1232_ef_seamless_move_target_receive_attach_request_wf_mbr_no_s1_fteid.L14b
p2307
aVtc_306_1341_ef_seamless_move_target_receive_Insert_Subscription_Data.L14b
p2308
aVtc_306_1390_ef_seamless_move_target_ignore_ue_context_release_request_user_inactivity.L14b
p2309
aVtc_306_2701_ef_seamless_move_target_receive_Insert_Subscription_Data_with_odb_bit0_wf_modify_bearer_response.L14b
p2310
aVtc_295_124_tau_after_ho_tz_change_emm_information_meanwhile_handover_required_HO_success.L14b
p2311
aVtc_293_004_X2_Based_HO__Initial_UE_TAU_Request_from_source_eNodeB_while_wf_TAU_request.L14b
p2312
aVtc_293_041_X2_Based_HO__Sgw_reloc__Downlink_A21_AIS_while_wf_Delete_Session_Response.L14b
p2313
aVtc_276_045_Inter_TAU_New_MME__S1_Reset_while_waiting_for_Identity_Response__enhanced_imei_check.L14b
p2314
aVtc_217_850_rau_to_sgsn_and_tau_back_to_mme_check_detach_register_table.L14b
p2315
aVtc_346_482_AF__RAR_with_new_RFSP_ue_context_modification_failure_x2_handover_triggered_HO_all_bearers_fail.L14b
p2316
aVtc_346_604_2_RAR_with_RFSP_for_same_PDN.L14b
p2317
aVtc_340_68_validation_move_l_filter_all_TA.L14b
p2318
aVtc_44_043_config_ep_SGs.L14b
p2319
aVtc_44_044_config_ep_SLg.L14b
p2320
aVtc_44_045_config_ep_SBc.L14b
p2321
aVtc_44_071_attach_long_imsi.L14b
p2322
aVtc_44_850_mme_assoc_reestablish__board_restart_s1_mme.L14b
p2323
aVtc_44_860_mme_assoc_reestablish__sctp_fe_restart_s1_mme.L14b
p2324
aVtc_44_897_mme_assoc_reestablish__emergency_attach.L14b
p2325
aVtc_310_200_ef__Attach_wf_PS_to_CS_Response_and_FR_Response.L14b
p2326
aVtc_214_822_SGW_unavailable_Combined_Attach_mt_sms.L14b
p2327
aVtc_166_280_israu_new_vplmn_3gdt_prefixed_apn.WG14a
p2328
aVtc_340_130_intra_rau_during_validation_move_job_with_trigger_move_configured.WG14a
p2329
aVtc_313_001_inter_new_srns_reloc_s16_without_sgw_change.WG14a
p2330
aVtc_33_17_isc_rau_authenticating_interrupted_by_subscription_withdrawn.WG14a
p2331
aVtc_208_43_interception_after_small_restart.G14b
p2332
aVtc_340_34_validation_move_g_s4_filter_all_apn.G14b
p2333
aVtc_346_454_AF__Intra_TAU_CCA_Update_with_out_of_range_RFSP.L14b
p2334
aVtc_346_588_sx_feature_off_during_inter_handover_from_gn_sx_gx_location_report.L14b
p2335
aVtc_578_23_check_usc_report.L14b
p2336
aVtc_220_413_csfb_to_1xrtt_in_ecm_connected_handover_required_meanwhile_CBR_received.L14b
p2337
aVtc_256_072_mme_eps_srvcc_ho_source_to_geran_cs_only_emergency_mf_without_DTM_with_GBR_bearers_in_normal_pdn.L14b
p2338
aVtc_318_187_sgw_restart_ef_relocate_interrupt_by_CreateBearerReq.L14b
p2339
aVtc_274_410_Intra_and_pTAU__PDN_Connectivity_Request_while_wating_for_TAU_Complete.L14b
p2340
aVtc_293_004_X2_Based_HO__Initial_UE_TAU_Request_from_source_eNodeB_while_wf_TAU_request.L14b
p2341
aVtc_103_1101_resending_AIR_interfering_CLR.L14b
p2342
aVtc_266_011_DownlinkDataNotification_interfering_ISD_sgsn00026976.L14b
p2343
aVtc_263_109_Attach_Flow__TAU_Request_while_waiting_for_Modify_Bearer_Response.L14b
p2344
aVtc_202_01_ecm_connected_s1_release.L14b
p2345
aVtc_304_109_initial_ue_intra_tau_control_mode_threshold_exceeded_usc_detach_then_reattach.L14b
p2346
aVtc_44_042_config_ep_S6a.L14b
p2347
aVtc_44_043_config_ep_SGs.L14b
p2348
aVtc_44_045_config_ep_SBc.L14b
p2349
aVtc_265_160_Detach_Flow_NW_init__Ue_moved_to_non_3gpp_while_imsi_detach.L14b
p2350
aVtc_326_406_Inter_TAU_Recovery_Unkonwn_GUTI__1xrtt_CS_Registration_Then_CSFB_To_1xRTT.L14b
p2351
aVtc_43_040_eNB_configuration_update_mf.L14b
p2352
aVtc_43_101__removal_of_disconnected_eNodeBs__CLI_removal.L14b
p2353
aVtc_306_261_ef_seamless_move_source_receive_forward_relocation_request_wf_source_guti_reallocation_complete.LW
p2354
aVtc_76_013_ms_initiated_modification_secondary_interrupted_by_ms_delete.LW
p2355
aVtc_326_201_Intra_TAU_with_unknown_GUTI_with_active_flag.LW
p2356
aVtc_243_722_tau_from_sgsn_s3_active_flag_false_ddn_with_imsi_wf_ula.LW
p2357
aVtc_217_081_rau_to_sgsn_sgsn_context_request_another_sgsn_when_wf_sgsn_context_ack.LW
p2358
aVtc_214_710_combined_tau_intra_eps_attach_interfering_mt_sms_paging_wf_tau_complete_then_ddn.LW
p2359
aVtc_43_100__removal_of_disconnected_eNodeBs__alarm_and_gauge.LW
p2360
aVtc_23_24_qos.LW
p2361
aVtc_23_23_ms_negative_time_zone.LW
p2362
aVtc_23_18_large_restart_abnormal_release.LW
p2363
aVtc_274_381_Intra_and_pTAU__Downlink_A21_AIS_while_waiting_for_Authentication_Response.LW
p2364
aVtc_277_018_tau_inter_old_sgw_unchanged_dedicated_bearer_unstable_no_delete_bearer_request.LW
p2365
aVtc_250_160_s6d_IDR_IDA_Change_GPRS_to_eps_subscription.LW
p2366
aVtc_241_181_intra_rau_completed_with_bearer_create_failed_interfere_by_context_request.LW
p2367
aVtc_241_801_israu_interfering_context_request_no_cancel_location_s4.LW
p2368
aVtc_26_024_modification_interrupted_by_insert_subscriber_data_II.LW
p2369
aVtc_313_001_inter_new_srns_reloc_s16_without_sgw_change.LW
p2370
aVtc_11_549_report_full_rai_feature_turn_off_between_primary_and_secondary_pdp_activation.LW
p2371
aVtc_11_593_activate_pdp_request_type_ipv4v6_subscribed_ipv4v6_daf_on_gst_preferpgwforlteue.LW
p2372
aVtc_304_266_tau_from_gnsgsn_2g_control_mode_wf_delete_all_bearers_response_exception_case_reject_congestion_subscriber_cancelled.LW
p2373
aVtc_318_116_sgw_restart_mf_one_pdn_with_relocate_by_ReleaseAccessBearersResponse.LW
p2374
aVtc_327_022_recovery_intra_TAU__initial_Detach_Request_while_waiting_for_Ue_Backup_Response.LW
p2375
aVtc_578_23_check_usc_report.LW
p2376
aVtc_194_824_combined_attach_insert_odb_initiate_detach.LW
p2377
aVtc_194_1016_normal_attach_insert_odb_detach_with_cause_of_reattach_not_required_with_not_allowed_apn_in_odb_free_apn_list_for_roamer__odb_bit0.LW
p2378
aVtc_39_601_mas_unsucc_fwd_reloc_resp_mandatory_ie_missing_stop_source.LW
p2379
aVtc_340_14_validation_move_w_filter_all_apn_with_two_pdns.W14b
p2380
aVtc_359_005_handover_from_non3gpp_mf_one_pdn_activation_static_pgw_id_in_subdata.W14b
p2381
aVtc_359_081_notify_hss_due_to_inused_pgw_diff_from_the_one_in_subscription_data.W14b
p2382
aVtc_247_201_inter_w_to_l_old_two_pdns_with_dedicated_bearer_one_pdn_failed_with_sgw_change.W14b
p2383
aVtc_28_008_mo_sms_sm_delivery_failure.W14b
p2384
aVtc_11_322_serv_req_data_uplink_data_status_two_serv_req.W14b
p2385
aVtc_313_001_inter_new_srns_reloc_s16_without_sgw_change.W14b
p2386
aVtc_241_301_israu_new_create_session_failed_and_paging_timeout.W14b
p2387
aVtc_327_022_recovery_intra_TAU__initial_Detach_Request_while_waiting_for_Ue_Backup_Response.LWG
p2388
aVtc_204_204_mme_eps_ho__multi_pdn_no_ho_notify.LWG
p2389
aVtc_337_005_validation_move_manually_stopped_between_two_pool_moves_smooth_move.LWG
p2390
aVtc_11_077_deactivate_sgsn_initiated_delete_subscriber_data_no_ggsn_response.LWG
p2391
aVtc_11_548_report_full_rai_feature_turn_on_between_primary_and_secondary_pdp_activation.LWG
p2392
aVtc_23_09_transfer_to_primary_and_change_vip_addr.LWG
p2393
aVtc_256_108_mme_eps_srvcc_ho_source_cs_only_sgsn_context_request_received_wf_srvcc_ps_to_cs_response_timeout.LWG
p2394
aVtc_256_140_mme_eps_srvcc_ho_source_cs_only_initial_ue_tau_request_wf_delete_bearer_request.LWG
p2395
aVtc_179_318_Ccheck_TraceCollectionIpv6server.LWG
p2396
aVtc_205_71_03_ss7_M3UA_ASP_counters.LWG
p2397
aVtc_205_40_ss7_M3ua.LWG
p2398
aVtc_59_9_mtmsi_restart_counter.LWG
p2399
aVtc_183_005_itc_folder_file_names.LWG
p2400
aVtc_17_71_intra_rau_g_to_hz_ggsninfo_scdrinfo.LWG
p2401
aVtc_159_200_check_ctum_log.LWG
p2402
aVtc_73_41_gtpu_sgsn_dont_send_gpu_echo_request_w.LWG
p2403
aVtc_273_501_TAU_intra_SGW_unavailable__normal_idle_active_guti_realloc.LWG
p2404
aVtc_08_010_fragmented_dl_packet_itc_capture.LWG
p2405
aVtc_236_167_intra_rau_dedicated_bearer_fail_partial_service_request.LWG
p2406
aVtc_666_06_block_rt_board.LWG
p2407
aVtc_259_53_isd_s4_umts_pmmidl_act_deact_service_req.LWG
p2408
aVtc_44_750_s1_with_two_sctp_endpoints.LWG
p2409
aVtc_44_871_mme_assoc_reestablish__board_block_sbc.LWG
p2410
aVtc_44_860_mme_assoc_reestablish__sctp_fe_restart_s1_mme.LWG
p2411
aVtc_342_140_update_one_of_two_targets_x2_address.LWG
p2412
aVtc_289_110_multi_pdns_S1_Reset_while_wf_ERAB_Modify_Resp.LWG
p2413
aVtc_214_1126_la_selection_mf_oldlapreferred_combined_intra_tau_after_imsi_detach_triggered_by_sgs_paging.LWG
p2414
aVtc_208_43_interception_after_small_restart.LWG
p2415
aVtc_306_1200_ef_seamless_move_target_receive_hss_reset.LWG
p2416
aVtc_132_002_create_ip_interface_eth.LWG
p2417
aVtc_107_101_eth_vlan_cli.LWG
p2418
aVtc_177_200_test_list_cmd.LWG
p2419
aVtc_278_2000_1_Inter_TAU_Old_MME__Fwd_Reloc_Req_wf_timeout_20s.LWG
p2420
aVtc_578_23_check_usc_report.LWG
p2421
aVtc_578_32_check_ebm_para_statistics_ue_return_duration.LWG
p2422
aVtc_53_145_ms_not_reachable_during_relocation.LWG
p2423
aVtc_340_130_intra_rau_during_validation_move_job_with_trigger_move_configured.WG14a
p2424
aVtc_313_001_inter_new_srns_reloc_s16_without_sgw_change.WG14a
p2425
aVtc_276_045_Inter_TAU_New_MME__S1_Reset_while_waiting_for_Identity_Response__enhanced_imei_check.L14b
p2426
aVtc_263_109_Attach_Flow__TAU_Request_while_waiting_for_Modify_Bearer_Response.L14b
p2427
aVtc_281_029_Activate_bearer__ERAB_setup_response_s1_inta_system_handover_triggered_resend_2_times.L14b
p2428
aVtc_295_130_Intra_S1_HO__Sgw_reloc__Downlink_A21_AIS_while_waiting_for_Delete_Session_Response.L14b
p2429
aVtc_194_991_downlink_A21_AIS_during_waiting_location_report__idr_flags_ef.L14b
p2430
aVtc_274_380_Intra_and_pTAU__Downlink_A21_AIS_while_waiting_for_Create_Session_Response.L14b
p2431
aVtc_44_044_config_ep_SLg.L14b
p2432
aVtc_44_045_config_ep_SBc.L14b
p2433
aVtc_44_071_attach_long_imsi.L14b
p2434
aVtc_44_841_mme_assoc_reestablish__device_restart_sbc.L14b
p2435
aVtc_44_890_mme_assoc_reestablish__service_request_on_reestablished_sctp_association.L14b
p2436
aVtc_256_138_mme_eps_srvcc_ho_source_cs_only_initial_ue_tau_request_wf_srvcc_ps_to_cs_response.L14b
p2437
aVtc_303_004_X2_Based_HO__Downlink_A21_AIS_while_wf_TAU_Request_and_Emm_Information_in_nas_nondeliver.L14b
p2438
aVtc_318_107_sgw_restart_mf_one_of_pdns_create_after_sgw_restart.L14b
p2439
aVtc_310_001_mf__S3_same_SGW_1_voice_bearer_1_PDN_no_emergency_PDN.L14b
p2440
aVtc_47_003_unstable_ue_ap_loss.L14b
p2441
aVtc_304_124_uplink_nas_intra_tau_control_mode_threshold_exceeded_usc_reject_lead_to_implicit_detach_wf_icsr.L14b
p2442
aVtc_268_014_UE_Release_Flow__Downlink_A21_AIS_while_waiting_for_Relase_Access_Bearer_Response.L14b
p2443
aVtc_326_406_Inter_TAU_Recovery_Unkonwn_GUTI__1xrtt_CS_Registration_Then_CSFB_To_1xRTT.L14b
p2444
aVtc_202_421_af_seamless_move_target_initialCtxSetupResponse_noSuccDefaultBearer_implicit_detach.L14b
p2445
aVtc_43_040_eNB_configuration_update_mf.L14b
p2446
aVtc_267_500_Service_Request_SGW_unavailable__Attach_Request_while_wf_Create_Session_Response.L14b
p2447
aVtc_578_23_check_usc_report.L14b
p2448
aVtc_578_32_check_ebm_para_statistics_ue_return_duration.L14b
p2449
aVtc_103_831_DPR_cause_BUSY.L14b
p2450
aVtc_103_840_error_code_UNRECOGNIZED_CLASS_in_answer_Result_Code.L14b
p2451
aVtc_103_1000_modify_diameter_peer_prio.L14b
p2452
aVtc_103_1101_resending_AIR_interfering_CLR.L14b
p2453
aVtc_247_201_inter_w_to_l_old_two_pdns_with_dedicated_bearer_one_pdn_failed_with_sgw_change.W14b
p2454
aVtc_236_039_s4_3gdt_detach_during_waiting_for_modify_bearer_rsp_in_active_procedure.W14b
p2455
aVtc_38_80_intra_rau_new_rnc_with_authentication_wrong_ptmsi_signature.W14b
p2456
aVtc_31_034_service_request_ul_fails_network_failure_other.W14b
p2457
aVtc_22_024_wcdma_rau_during_context_activation_same_rnc.W14b
p2458
aVtc_313_001_inter_new_srns_reloc_s16_without_sgw_change.W14b
p2459
aVtc_311_204_intra_srns_reloc_s4_sgw_change_wf_reloc_req_ack_interrupted_by_cancel_loc_subscrip_withdrawn.W14b
p2460
aVtc_298_103_EF_NRSPCA_S4_another_NRSPCA.W14b
p2461
aVtc_241_500_israu_new_gn_to_s4_pdp_to_bearer_one_pdp_conversational_mbr_0.W14b
p2462
aVtc_313_001_inter_new_srns_reloc_s16_without_sgw_change.WG14a
p2463
aVtc_340_130_intra_rau_during_validation_move_job_with_trigger_move_configured.WG14a
p2464
aVtc_166_006_establish_two_tunnel_since_vplmn_subscriber.WG14a
p2465
aVtc_322_161_smooth_move_ef_nas_after_paging_response_ignore.WG14a
p2466
aVtc_250_74_s6d_EF_hss_reset_waiting_delete_session_response.LW
p2467
aVtc_214_806_mo_sms_active_donwlink_nas_transport_meanwhile_handover_required_HO_success.LW
p2468
aVtc_304_411_Service_Request_UE_Initiated__control_mode_threshold_exceeded_request_reject_connected_mode.LW
p2469
aVtc_274_381_Intra_and_pTAU__Downlink_A21_AIS_while_waiting_for_Authentication_Response.LW
p2470
aVtc_274_380_Intra_and_pTAU__Downlink_A21_AIS_while_waiting_for_Create_Session_Response.LW
p2471
aVtc_194_991_downlink_A21_AIS_during_waiting_location_report__idr_flags_ef.LW
p2472
aVtc_241_045_intra_with_multi_bearer_sgw_change_try_next.LW
p2473
aVtc_218_311_tau_from_sgsn_preserved_gbr_bearer_buffer_1_ubr_1_cbr.LW
p2474
aVtc_298_690_S4_3GDT_Service_request_wait_MBR_ef_delete_bearer_request_lbi.LW
p2475
aVtc_26_149_inter_sgsn_back_before_20s_with_qos_upgradeAllowed.LW
p2476
aVtc_231_173_ms_init_detach_interfered_by_cancel_location_withdraw.LW
p2477
aVtc_39_417_mas_one_pdp_downlink_data_upd_loc_ack_b4_srv_req_target.LW
p2478
aVtc_39_921_ef_seamless_move_interrupted_by_normal_attach.LW
p2479
aVtc_203_324_mme_eps_ho_source_type_d__TAU_Request_while_wf_Forw_Reloc_Comp_Notification.LW
p2480
aVtc_326_247_Intra_TAU_Recovery_fail_Modify_Bearer_timeout_active_flag.LW
p2481
aVtc_295_124_tau_after_ho_tz_change_emm_information_meanwhile_handover_required_HO_success.LW
p2482
aVtc_11_233_sgsn_modify_interfer_ser_req.LW
p2483
aVtc_578_23_check_usc_report.LW
p2484
aVtc_327_022_recovery_intra_TAU__initial_Detach_Request_while_waiting_for_Ue_Backup_Response.LW
p2485
aVtc_208_43_interception_after_small_restart.G14b
p2486
aVtc_297_227_inter_rau_new_s4_fetch_imsi_update_location_fail_cc14.G14b
p2487
aVtc_73_03_send_payload_for_nonexisting_teid.LWG
p2488
aVtc_73_41_gtpu_sgsn_dont_send_gpu_echo_request_w.LWG
p2489
aVtc_159_200_check_ctum_log.LWG
p2490
aVtc_666_06_block_rt_board.LWG
p2491
aVtc_335_31_wifi_to_mobility_in_ecm_idle_af__cells_from_eNB_more_than_from_WIC.LWG
p2492
aVtc_241_405_israu_new_with_16m_flag_allowed_in_context_response_and_epc_cap_in_rau_req_transfer_to_new_tcw.LWG
p2493
aVtc_241_500_israu_new_gn_to_s4_pdp_to_bearer_one_pdp_conversational_mbr_0.LWG
p2494
aVtc_241_752_W2W_GnSGSN_to_S4SGSN_one_pdp_arp_higher_than_policymap_sysprop_deactivate_pdp_after_tau_on.LWG
p2495
aVtc_241_801_israu_interfering_context_request_no_cancel_location_s4.LWG
p2496
aVtc_17_85_intra_rau_g_to_hz_ggsninfo_scdrinfo_nodeprop_reporthzchange_false.LWG
p2497
aVtc_23_09_transfer_to_primary_and_change_vip_addr.LWG
p2498
aVtc_259_77_ef_isd_paging_s4_w.LWG
p2499
aVtc_43_100__removal_of_disconnected_eNodeBs__alarm_and_gauge.LWG
p2500
aVtc_39_771_mas_rnc_reset_when_wf_ptmsi_realloc_cmpl_source.LWG
p2501
aVtc_203_324_mme_eps_ho_source_type_d__TAU_Request_while_wf_Forw_Reloc_Comp_Notification.LWG
p2502
aVtc_304_109_initial_ue_intra_tau_control_mode_threshold_exceeded_usc_detach_then_reattach.LWG
p2503
aVtc_304_502_Service_Request_UE_Initiated__control_mode_threshold_exceeded_dgn.LWG
p2504
aVtc_56_2_restart.LWG
p2505
aVtc_306_314_ef_seamless_move_source_receive_connection_oriented_information_lppa_wf_frcn.LWG
p2506
aVtc_306_1130_ef_seamless_move_target_receive_detach_request_with_switchoff_wf_service_request.LWG
p2507
aVtc_324_420_ef_payload_buffered.LWG
p2508
aVtc_313_001_inter_new_srns_reloc_s16_without_sgw_change.LWG
p2509
aVtc_30_112_payload_ul_fails_access_restricted_diff_plmn.LWG
p2510
aVtc_578_23_check_usc_report.LWG
p2511
aVtc_256_139_mme_eps_srvcc_ho_source_cs_only_initial_ue_tau_request_wf_srvcc_ps_to_cs_complete_notification.LWG
p2512
aVtc_177_200_test_list_cmd.LWG
p2513
aVtc_28_050_mo_sms_homer_no_block_redirection.LWG
p2514
aVtc_326_275_Periodic_Intra_TAU_with_unknown_GUTI_with_normal_and_emergency_PDN.LWG
p2515
aVtc_236_107_s4_3gdt_based_on_sr_change_DtThresholdNumber.LWG
p2516
aVtc_236_307_Activation_DtSelMode_5_APN_requested_wrong_SGSN_default_APN_in_APN_list_TAC_in_TAC_list.LWG
p2517
aVtc_298_006_S4_Network_Request_Secondary_PDP_Activation_UE_no_Response_timeout.LWG
p2518
aVtc_298_317_EF_SIBD_S4_Create_Bearer_Request.LWG
p2519
aVtc_318_116_sgw_restart_mf_one_pdn_with_relocate_by_ReleaseAccessBearersResponse.LWG
p2520
aVtc_289_100_last_pdn_pgw_init_bearer_mod_wf_service_interrupted_by_dbr_with_lbi.LWG
p2521
aVtc_205_71_03_ss7_M3UA_ASP_counters.LWG
p2522
aVtc_132_002_create_ip_interface_eth.LWG
p2523
aVtc_208_43_interception_after_small_restart.LWG
p2524
aVtc_11_019_activate_primary_context_same_ti.LWG
p2525
aVtc_11_645_downlink_gtpu_wf_paging_resp_ef_transfer_service_req_data.LWG
p2526
aVtc_44_871_mme_assoc_reestablish__board_block_sbc.LWG
p2527
a.