(lp0
Vtc_11_005_activate_primary_ext_ti_8.LWG
p1
aVtc_11_018_activate_primary_context_same_nsapi.LWG
p2
aVtc_11_594_activate_pdp_request_type_ipv4v6_subscribed_ipv6_daf_off_gst_nevertrypgw.LWG
p3
aVtc_310_001_mf__S3_same_SGW_1_voice_bearer_1_PDN_no_emergency_PDN.LWG
p4
aVtc_39_601_mas_unsucc_fwd_reloc_resp_mandatory_ie_missing_stop_source.LWG
p5
aVtc_257_30_pws_sctp_device_failure.LWG
p6
aVtc_208_43_interception_after_small_restart.LWG
p7
aVtc_23_09_transfer_to_primary_and_change_vip_addr.LWG
p8
aVtc_177_200_test_list_cmd.LWG
p9
aVtc_205_71_03_ss7_M3UA_ASP_counters.LWG
p10
aVtc_313_001_inter_new_srns_reloc_s16_without_sgw_change.LWG
p11
aVtc_146_006_filter_denyAllPkts_overEth.LWG
p12
aVtc_51_042_reloc_wf_reloc_comp_interrupted_by_target_rnc_reset.LWG
p13
aVtc_159_200_check_ctum_log.LWG
p14
aVtc_578_23_check_usc_report.LWG
p15
aVtc_666_06_block_rt_board.LWG
p16
aVtc_326_406_Inter_TAU_Recovery_Unkonwn_GUTI__1xrtt_CS_Registration_Then_CSFB_To_1xRTT.LWG
p17
aVtc_44_253_sctp_assoc_config__modify_rt_SGsAP.LWG
p18
aVtc_244_050_mt_lr_imei_check_answer_received_wf_location_report.LWG
p19
aVtc_340_130_intra_rau_during_validation_move_job_with_trigger_move_configured.LWG
p20
aVtc_246_050_israu_new_l_to_g_sgw_unchange_downgrade_qos.LWG
p21
aVtc_107_101_eth_vlan_cli.LWG
p22
aVtc_218_311_tau_from_sgsn_preserved_gbr_bearer_buffer_1_ubr_1_cbr.LWG
p23
aVtc_204_121_inter_s1ho_target_macro_eNB_format_targetid_HeNB_GW_table_empty.LWG
p24
aVtc_31_152_standalone_isd_odb_bit_15_syntax_error.LWG
p25
aVtc_214_302_mt_sms_paging_failure2.LWG
p26
aVtc_110_005_inbound_outbound_pf_rule_cli_ip.LWG
p27
aVtc_110_003_inbound_outbound_pf_rule_cli_icmp.LWG
p28
aVtc_202_454_af_seamless_move_source_unsuccessful_forward_relocation_response_other_cause.LWG
p29
aVtc_73_41_gtpu_sgsn_dont_send_gpu_echo_request_w.LWG
p30
aVtc_313_001_inter_new_srns_reloc_s16_without_sgw_change.WG14a
p31
aVtc_34_32_attach_and_periodic_move_initiated_in_gsm_only.WG14a
p32
aVtc_340_130_intra_rau_during_validation_move_job_with_trigger_move_configured.WG14a
p33
aVtc_236_045_s4_3gdt_iu_release_during_waiting_for_modify_bearer_rsp_in_service_request_procedure.W14b
p34
aVtc_236_302_HO_over_S3_3GDT_switchback_ef_iu_release_wf_modify_bearer_response.W14b
p35
aVtc_231_116_rnc_resetresource_when_ms_act_si_ms_deact_rab_est.W14b
p36
aVtc_231_113_rnc_reset_during_ms_act_si_ms_deact_rnc_contact.W14b
p37
aVtc_39_433_mas_one_pdp_downlink_data_3gdt_upd_loc_ack_b4_upd_pdp_ctx_resp_target.W14b
p38
aVtc_28_013_mt_sms_no_response.W14b
p39
aVtc_202_40_emergency_pdn_ecm_connected.LW
p40
aVtc_262_906_attach_dns_fail_apn_redirection_license_on_wild_card.LW
p41
aVtc_11_344_apn_redirect_to_DefaultAPN_MultiTypeMatch_MultiSubscribed_ApnRedirectForMultipleApn_Default.LW
p42
aVtc_327_022_recovery_intra_TAU__initial_Detach_Request_while_waiting_for_Ue_Backup_Response.LW
p43
aVtc_304_502_Service_Request_UE_Initiated__control_mode_threshold_exceeded_dgn.LW
p44
aVtc_103_1101_resending_AIR_interfering_CLR.LW
p45
aVtc_294_372_s1_intra_handover_emc_type_c_hss_reset.LW
p46
aVtc_194_078_cl_update_procedure_during_ul.LW
p47
aVtc_194_907_ecm_idle__userstate_locationinfo__subscriptiondata_to_detach__idr_flags.LW
p48
aVtc_44_861_mme_assoc_reestablish__sctp_fe_restart_sbc.LW
p49
aVtc_313_001_inter_new_srns_reloc_s16_without_sgw_change.LW
p50
aVtc_273_220_cell_trace_start_stop_when_tau_intra_periodic_idle_not_active.LW
p51
aVtc_578_23_check_usc_report.LW
p52
aVtc_314_018_hss_init_qos_modification_apn_ambr_3gdt.LW
p53
aVtc_26_029_israu_old_new_is_gtpv0_mixed_contexts_II.LW
p54
aVtc_26_053_activate_primary_validate_guaranteed_bit_rate.LW
p55
aVtc_218_311_tau_from_sgsn_preserved_gbr_bearer_buffer_1_ubr_1_cbr.LW
p56
aVtc_306_082_ef_seamless_move_source_receive_uplink_nas_transport_wf_frcn.LW
p57
aVtc_306_1130_ef_seamless_move_target_receive_detach_request_with_switchoff_wf_service_request.LW
p58
aVtc_52_01_inter_old_srns_reloc_main_flow.LW
p59
aVtc_52_50_inter_old_srns_reloc_main_flow_interfered_by_downlink_packet.LW
p60
aVtc_44_042_config_ep_S6a.L14b
p61
aVtc_44_043_config_ep_SGs.L14b
p62
aVtc_44_044_config_ep_SLg.L14b
p63
aVtc_44_201_sctp_endpoint_config__modify_rt_Diameter.L14b
p64
aVtc_273_565_tau_intra_tac_based_roaming_restriction_blacklist_tac_matched_but_ta.L14b
p65
aVtc_293_004_X2_Based_HO__Initial_UE_TAU_Request_from_source_eNodeB_while_wf_TAU_request.L14b
p66
aVtc_293_241_X2_Based_HO__location_report_while_wf_update_location_wf_location_update.L14b
p67
aVtc_346_495_Small_Local_Restart__No_Terminate_when_UE1_Attach_waiting_for_CCA_Initial_UE2_Attach_waiting_for_MBR.L14b
p68
aVtc_220_587_csfb_to_1xrtt_in_extended_service_request_during_attach_waiting_for_modify_bearer_response.L14b
p69
aVtc_276_045_Inter_TAU_New_MME__S1_Reset_while_waiting_for_Identity_Response__enhanced_imei_check.L14b
p70
aVtc_274_141_Intra_and_pTAU__Imei_Check_Answer_Blacklisted_after_Emergency_Attach_Type_d_during_Intra_TAU_au_true_ire_false.L14b
p71
aVtc_103_603_georedundant_modify_diameter_peer.L14b
p72
aVtc_103_831_DPR_cause_BUSY.L14b
p73
aVtc_578_23_check_usc_report.L14b
p74
aVtc_194_991_downlink_A21_AIS_during_waiting_location_report__idr_flags_ef.L14b
p75
aVtc_202_421_af_seamless_move_target_initialCtxSetupResponse_noSuccDefaultBearer_implicit_detach.L14b
p76
aVtc_310_001_mf__S3_same_SGW_1_voice_bearer_1_PDN_no_emergency_PDN.L14b
p77
aVtc_318_187_sgw_restart_ef_relocate_interrupt_by_CreateBearerReq.L14b
p78
aVtc_263_084_Attach_Flow__Delete_Subscription_Data_while_waiting_for_Create_Session_Response.L14b
p79
aVtc_327_312_recovery_service_request__initial_Attach_Request_while_waiting_for_Ue_Backup_Response.L14b
p80
aVtc_327_322_recovery_service_request__initial_Imsi_Attach_Request_while_waiting_for_Ue_Backup_Response.L14b
p81
aVtc_346_600_Location_Based_Policies__User_Location_Changes_Sx_Only_2_CCR_for_same_PDN.LW
p82
aVtc_194_991_downlink_A21_AIS_during_waiting_location_report__idr_flags_ef.LW
p83
aVtc_304_121_initial_ue_intra_tau_control_mode_threshold_exceeded_usc_detach_wf_release_request_response.LW
p84
aVtc_304_266_tau_from_gnsgsn_2g_control_mode_wf_delete_all_bearers_response_exception_case_reject_congestion_subscriber_cancelled.LW
p85
aVtc_304_261_tau_from_gnsgsn_2g_control_mode_wf_update_location_response_reject_congestion.LW
p86
aVtc_318_201_idle_deactivate_dedicated_bearers_one_by_one_reactivate_req.LW
p87
aVtc_50_026_activate_background_2Mbit_downgraded_by_rnc.LW
p88
aVtc_38_17_israu_new_sgsn_unsuccessful_authentication.LW
p89
aVtc_306_1130_ef_seamless_move_target_receive_detach_request_with_switchoff_wf_service_request.LW
p90
aVtc_274_381_Intra_and_pTAU__Downlink_A21_AIS_while_waiting_for_Authentication_Response.LW
p91
aVtc_275_611_emergency_tau_inter_new_attach_license_lte_sau_limit_reached.LW
p92
aVtc_11_352_apn_redirect_to_SubscribedApn_PDPaddrSingleMatch_ApnRedirectForMultipleApn_lowestpdpcontextid.LW
p93
aVtc_11_612_ggsn_update_with_lower_qos_during_secondary_pdp_activation_buffer_upd_req.LW
p94
aVtc_261_10_isd_tads_intra_tau_vistor_voip_restricted_by_ga_cc90_imsins_cc91.LW
p95
aVtc_32_103_israu_old_20_timer_expire_no_purge_response_iu_release.LW
p96
aVtc_276_045_Inter_TAU_New_MME__S1_Reset_while_waiting_for_Identity_Response__enhanced_imei_check.LW
p97
aVtc_298_317_EF_SIBD_S4_Create_Bearer_Request.LW
p98
aVtc_256_008_mme_eps_srvcc_ho_source_cs_only_mf_after_tau_after_intra_mme_ho_with_srvcc_parameters_changed.LW
p99
aVtc_256_106_mme_eps_srvcc_ho_source_cs_only_sgsn_context_request_wf_srvcc_ps_to_cs_complete_notification_timeout.LW
p100
aVtc_256_135_mme_eps_srvcc_ho_source_cs_only_initial_ue_detach_request_wf_srvcc_ps_to_cs_complete_notification.LW
p101
aVtc_197_105_failure_at_dns_query_pgw_host_not_found.LW
p102
aVtc_217_093_rau_to_sgsn_s1_reset_when_wf_sgsn_context_ack.LW
p103
aVtc_39_921_ef_seamless_move_interrupted_by_normal_attach.LW
p104
aVtc_245_338_israu_new_l_to_w_buffer_ubr_interferred_with_modify_pdp_request.W14b
p105
aVtc_245_340_israu_new_l_to_w_with_GBR_dedicated_bearer_ipv6_3gdt.W14b
p106
aVtc_26_131_inter_w_to_g_old_ARP.W14b
p107
aVtc_313_001_inter_new_srns_reloc_s16_without_sgw_change.W14b
p108
aVtc_359_033_handover_from_non3gpp_af_fallback_to_normal_activation_due_to_no_pgw_id.W14b
p109
aVtc_359_102_handover_from_3gpp_mf_connected_Notify_UE_false.W14b
p110
aVtc_242_122_rau_to_sgsn_s3_new_sgw_dedicated_bearer_unstable_no_cancel_location.LWG
p111
aVtc_79_031_rab_reestablish_on_downlink_data_packets_rab_fail_cause_46.LWG
p112
aVtc_79_028_ms_initiated_modification_rnc_does_not_respond_I.LWG
p113
aVtc_79_026_sgsn_init_modification_rnc_not_supporting_modify_II.LWG
p114
aVtc_306_1130_ef_seamless_move_target_receive_detach_request_with_switchoff_wf_service_request.LWG
p115
aVtc_306_1373_ef_seamless_move_target_ignore_erab_release_indication_wf_lua_mbr.LWG
p116
aVtc_12_183_wcdma_repeat_paging_with_old_ptmsi_N3313_oldptmsi_0.LWG
p117
aVtc_289_047_Modify_bearer__ERAB_modify_response_s1_intra_system_handover_triggered_activate_dedicated_bearer_one_pdn_multiple_bearer.LWG
p118
aVtc_297_407_move_at_periodic_rau.LWG
p119
aVtc_11_101_activate_secondary_same_nsapi_rab_released.LWG
p120
aVtc_203_324_mme_eps_ho_source_type_d__TAU_Request_while_wf_Forw_Reloc_Comp_Notification.LWG
p121
aVtc_06_512_apn_resolution_main_flow_resolute_based_on_apn_and_imsi.LWG
p122
aVtc_241_045_intra_with_multi_bearer_sgw_change_try_next.LWG
p123
aVtc_208_43_interception_after_small_restart.LWG
p124
aVtc_293_025_X2_Based_HO__SGSN_Context_Request_while_waiting_for_TAU_Request.LWG
p125
aVtc_23_09_transfer_to_primary_and_change_vip_addr.LWG
p126
aVtc_160_003_reset_sgsn_initiated.LWG
p127
aVtc_304_266_tau_from_gnsgsn_2g_control_mode_wf_delete_all_bearers_response_exception_case_reject_congestion_subscriber_cancelled.LWG
p128
aVtc_304_029_guti_attach_reject__control_mode_threshold_exceeded_then_action_stop.LWG
p129
aVtc_159_200_check_ctum_log.LWG
p130
aVtc_232_401_bfd__ipv4_alarm.LWG
p131
aVtc_110_004_inbound_outbound_pf_rule_cli_udp_sctp_tcp.LWG
p132
aVtc_38_80_intra_rau_new_rnc_with_authentication_wrong_ptmsi_signature.LWG
p133
aVtc_183_005_itc_folder_file_names.LWG
p134
aVtc_76_002_deactivate_ggsn_initiated_teardown_II.LWG
p135
aVtc_205_71_03_ss7_M3UA_ASP_counters.LWG
p136
aVtc_214_710_combined_tau_intra_eps_attach_interfering_mt_sms_paging_wf_tau_complete_then_ddn.LWG
p137
aVtc_166_165_inter_new_srns_update_ggsn_fails.LWG
p138
aVtc_219_131_s3_handover_w_to_l_with_cl_two_pdns_one_failed_sgw_relocation.LWG
p139
aVtc_322_170_smooth_move_ef_gr_cli_delete_subscriber_data_wf_frr.LWG
p140
aVtc_44_871_mme_assoc_reestablish__board_block_sbc.LWG
p141
aVtc_198_001_UDPPort.LWG
p142
aVtc_198_002_TEID.LWG
p143
aVtc_198_003_FlowLabel.LWG
p144
aVtc_198_004_TLLI.LWG
p145
aVtc_198_006_TCPPort.LWG
p146
aVtc_198_007_GTPUError.LWG
p147
aVtc_198_008_GTPUEchoReq.LWG
p148
aVtc_198_009_S102FixedPort.LWG
p149
aVtc_198_011_UDPFragments.LWG
p150
aVtc_198_012_TCPFragments.LWG
p151
aVtc_198_010_TCPUDPPortToNCB.LWG
p152
aVtc_198_013_SCTPv4ToAllValidIndex.LWG
p153
aVtc_198_014_SCTPv4ToInvalidIndex.LWG
p154
aVtc_198_016_SCTPv4IndexEntry00.LWG
p155
aVtc_198_017_SCTPv4EmptyIndexMap.LWG
p156
aVtc_198_015_SCTPv4VerTag0.LWG
p157
aVtc_198_018_ICMPv4DstUnreachSCTP.LWG
p158
aVtc_198_020_SCTPFragments.LWG
p159
aVtc_198_021_SCTPv4VerTag0MultipleNetworks.LWG
p160
aVtc_198_019_ICMPv4EchoReq.LWG
p161
aVtc_198_031_TCPv6_DNS.LWG
p162
aVtc_198_030_UDPv6_TEID.LWG
p163
aVtc_198_038_SCTPv6IndexEntry00.LWG
p164
aVtc_198_037_SCTPv6VerTag0.LWG
p165
aVtc_198_035_SCTPv6ToAllValidIndex.LWG
p166
aVtc_198_039_SCTPv6EmptyIndexMap.LWG
p167
aVtc_198_040_ICMPv6DstUnreachGTPv2.LWG
p168
aVtc_198_036_SCTPv6ToInvalidIndex.LWG
p169
aVtc_198_042_ICMPv6EchoResp.LWG
p170
aVtc_198_045_ICMPv6DstUnreachTCPv6Port.LWG
p171
aVtc_198_041_ICMPv6EchoReq.LWG
p172
aVtc_198_044_ICMPv6DstUnreachGTPv2NoPort.LWG
p173
aVtc_198_043_ICMPv6DstUnreachSCTP.LWG
p174
aVtc_198_051_IPv6_traffic_flow.LWG
p175
aVtc_198_053_IPv6_traffic_flow_multiple_vpn.LWG
p176
aVtc_198_052_IPv4_traffic_flow_multiple_vpn.LWG
p177
aVtc_198_050_IPv4_traffic_flow.LWG
p178
aVtc_198_055_IPv6_load_sharing.LWG
p179
aVtc_198_056_IPv4_route_selection.LWG
p180
aVtc_198_054_IPv4_load_sharing.LWG
p181
aVtc_198_057_IPv6_route_selection.LWG
p182
aVtc_198_058_IPv4_no_route.LWG
p183
aVtc_198_061_TCPUDPPortToNCB_IPv6.LWG
p184
aVtc_198_059_IPv6_no_route.LWG
p185
aVtc_198_060_TCPv6Port.LWG
p186
aVtc_257_05_cli_commands.LWG
p187
aVtc_26_075_ms_initiated_pdp_context_modification_streaming_tft.LWG
p188
aVtc_666_02_reboot_ss7_board.LWG
p189
aVtc_313_001_inter_new_srns_reloc_s16_without_sgw_change.LWG
p190
aVtc_314_051_sgsn_init_qos_mod_inter_rau_l_to_w_sgw_change_ambr_downgrade.LWG
p191
aVtc_313_001_inter_new_srns_reloc_s16_without_sgw_change.WG14a
p192
aVtc_340_130_intra_rau_during_validation_move_job_with_trigger_move_configured.WG14a
p193
aVtc_73_31_isc_rau_g_to_w.WG14a
p194
aVtc_69_006_bssgp_pm_counters_bss_pfc.WG14a
p195
aVtc_303_004_X2_Based_HO__Downlink_A21_AIS_while_wf_TAU_Request_and_Emm_Information_in_nas_nondeliver.L14b
p196
aVtc_293_241_X2_Based_HO__location_report_while_wf_update_location_wf_location_update.L14b
p197
aVtc_44_042_config_ep_S6a.L14b
p198
aVtc_44_044_config_ep_SLg.L14b
p199
aVtc_44_045_config_ep_SBc.L14b
p200
aVtc_44_810_mme_assoc_reestablish__abort_s1_mme.L14b
p201
aVtc_44_830_mme_assoc_reestablish__local_ep_restart_s1_mme.L14b
p202
aVtc_44_833_mme_assoc_reestablish__local_ep_restart_blocked_s1_setup_from_enodeb_s1_mme.L14b
p203
aVtc_44_850_mme_assoc_reestablish__board_restart_s1_mme.L14b
p204
aVtc_44_831_mme_assoc_reestablish__local_ep_restart_sbc.L14b
p205
aVtc_44_890_mme_assoc_reestablish__service_request_on_reestablished_sctp_association.L14b
p206
aVtc_44_895_mme_assoc_reestablish__s1_setup_when_iterator_started_finished.L14b
p207
aVtc_44_897_mme_assoc_reestablish__emergency_attach.L14b
p208
aVtc_44_871_mme_assoc_reestablish__board_block_sbc.L14b
p209
aVtc_43_040_eNB_configuration_update_mf.L14b
p210
aVtc_43_100__removal_of_disconnected_eNodeBs__alarm_and_gauge.L14b
p211
aVtc_347_001_Inter_TAU_New_MME__Attach_Req_while_waiting_for_CCA_initial.L14b
p212
aVtc_274_380_Intra_and_pTAU__Downlink_A21_AIS_while_waiting_for_Create_Session_Response.L14b
p213
aVtc_276_381_Inter_TAU_New_MME__active_flag_false_Update_Bearer_Request_and_new_TAU_wf_TAU_Complete.L14b
p214
aVtc_276_160_Inter_TAU_New_MME__Handover_Required_while_waiting_for_Initial_Context_Setup_Response.L14b
p215
aVtc_203_440_mme_eps_ho_source__subscription_deleted_during_wf_ho_notify.L14b
p216
aVtc_203_004_mme_eps_handover_source_inter__no_cancel_location.L14b
p217
aVtc_268_014_UE_Release_Flow__Downlink_A21_AIS_while_waiting_for_Relase_Access_Bearer_Response.L14b
p218
aVtc_327_317_recovery_service_request__initial_Attach_Request_while_waiting_for_Sub_Procedure__Initial_Context_Setup_Response.L14b
p219
aVtc_327_316_recovery_service_request__initial_Attach_Request_while_waiting_for_Sub_Procedure__Create_Session_Response_Old_Sgw_Unavailable.L14b
p220
aVtc_327_601_Inter_TAU_Recovery__Attach_Request_while_waiting_for_Ue_Backup_Retrieval_Response.L14b
p221
aVtc_194_991_downlink_A21_AIS_during_waiting_location_report__idr_flags_ef.L14b
p222
aVtc_265_160_Detach_Flow_NW_init__Ue_moved_to_non_3gpp_while_imsi_detach.L14b
p223
aVtc_263_242_Attach_Flow__Attach_Request_with_diff_IE_while_waiting_for_gts_identification_response.L14b
p224
aVtc_214_1099_la_selection_mf_reselection_combined_tau_with_imsi_attach_after_mme_triggered_imsi_detach_when_handling_sgs_paging.L14b
p225
aVtc_310_001_mf__S3_same_SGW_1_voice_bearer_1_PDN_no_emergency_PDN.L14b
p226
aVtc_273_566_tau_intra_tac_based_roaming_restriction_table_matched_whitelist_reject_by_imsi.L14b
p227
aVtc_322_161_smooth_move_ef_nas_after_paging_response_ignore.WG14a
p228
aVtc_340_130_intra_rau_during_validation_move_job_with_trigger_move_configured.WG14a
p229
aVtc_293_040_X2_Based_HO__Downlink_A21_AIS_while_wf_Modify_Bearer_Response.LW
p230
aVtc_39_626_mas_no_paging_resp_resend_once_target.LW
p231
aVtc_304_102_emergency_intra_tau_success__control_mode_threshold_exceeded.LW
p232
aVtc_326_406_Inter_TAU_Recovery_Unkonwn_GUTI__1xrtt_CS_Registration_Then_CSFB_To_1xRTT.LW
p233
aVtc_284_131_pdn_connectivity_attached_ue_with_emergency.LW
p234
aVtc_327_503_recovery_service_request__s1_reset_while_waiting_for_Update_Location_Answer.LW
p235
aVtc_12_134_attach_with_extended_mmumoc_iu_inactivity_timer.LW
p236
aVtc_23_523_volume_per_rai_one_ra_update.LW
p237
aVtc_79_035_israu_new_streaming_context_MBR_not_zero.LW
p238
aVtc_194_064_activate_loc_not_confirmed_ul_fails_network_failure.LW
p239
aVtc_195_224_mme_logging_maximum_trace_start_deactivate.LW
p240
aVtc_11_411_apn_redirect_to_DefaultAPN_MultiTypeMatch_MultiSubscribed_ApnRedirectForMultipleApn_DefaultOrLowest.LW
p241
aVtc_303_002_Service_Request__Downlink_A21_AIS_while_wf_Initial_Context_Setup_Response__Extended_Service_Request_while_wf_Initial_Context_Setup_Response.LW
p242
aVtc_31_060_standalone_isd_no_relevant_data.LWG
p243
aVtc_202_10_downlink_data_during_paging.LWG
p244
aVtc_39_601_mas_unsucc_fwd_reloc_resp_mandatory_ie_missing_stop_source.LWG
p245
aVtc_289_031_Modify_bearer__Downlink_nas_transport_meanwhile_path_switch_request_HO_success.LWG
p246
aVtc_183_005_itc_folder_file_names.LWG
p247
aVtc_218_311_tau_from_sgsn_preserved_gbr_bearer_buffer_1_ubr_1_cbr.LWG
p248
aVtc_205_71_03_ss7_M3UA_ASP_counters.LWG
p249
aVtc_205_40_ss7_M3ua.LWG
p250
aVtc_237_100_mme_eps_irat_ho_source_type_a_emc_preparation_failure.LWG
p251
aVtc_193_401_auth_vectors_mf_6_vectors.LWG
p252
aVtc_159_200_check_ctum_log.LWG
p253
aVtc_284_575_emergency_pdn_connectivity_pb_activate_dedicated_bearer_after_configured_max_bearers_setup.LWG
p254
aVtc_216_013_icmpv6_inNeighborSol.LWG
p255
aVtc_666_06_block_rt_board.LWG
p256
aVtc_107_101_eth_vlan_cli.LWG
p257
aVtc_326_406_Inter_TAU_Recovery_Unkonwn_GUTI__1xrtt_CS_Registration_Then_CSFB_To_1xRTT.LWG
p258
aVtc_250_67_s6d_activation_with_EPS_data_s4_license_off.LWG
p259
aVtc_06_175_apnresolving_apnopid_hplmn_present_apn_redirect_log_cc33.LWG
p260
aVtc_231_281_activate_pdp_request_ignore_during_s4_pdp_deactivating.LWG
p261
aVtc_279_032_tai_list_max_age_handover_notify.LWG
p262
aVtc_177_200_test_list_cmd.LWG
p263
aVtc_73_06_insert_multiple_pdp_contexts_and_remove_some_of_them.LWG
p264
aVtc_73_33_gn_gsm_payload_97.LWG
p265
aVtc_73_41_gtpu_sgsn_dont_send_gpu_echo_request_w.LWG
p266
aVtc_43_101__removal_of_disconnected_eNodeBs__CLI_removal.LWG
p267
aVtc_11_585_dual_stack_support_with_nevertrypgw.LWG
p268
aVtc_241_640_intra_rau_with_bearer_sgw_change_with_3gdt_wait_release_access_resp_interfer_by_update_bearer_req.LWG
p269
aVtc_248_128_inter_l_to_w_new_rau_request_intial_ue_received_wf_update_location_resp.W14b
p270
aVtc_311_204_intra_srns_reloc_s4_sgw_change_wf_reloc_req_ack_interrupted_by_cancel_loc_subscrip_withdrawn.W14b
p271
aVtc_241_734_service_request_wf_modify_bearer_response_interfered_by_deactivate_pdp_context.W14b
p272
aVtc_322_161_smooth_move_ef_nas_after_paging_response_ignore.W14b
p273
aVtc_26_149_inter_sgsn_back_before_20s_with_qos_upgradeAllowed.W14b
p274
aVtc_214_1028_la_selection_af_oldlapreferred_combined_intra_tau_without_old_la.L14b
p275
aVtc_194_075_cli_delete_subscriber_imsi_after_large_restart.L14b
p276
aVtc_303_002_Service_Request__Downlink_A21_AIS_while_wf_Initial_Context_Setup_Response__Extended_Service_Request_while_wf_Initial_Context_Setup_Response.L14b
p277
aVtc_262_203_guti_attach_when_unauthenticated_attached.L14b
p278
aVtc_244_535_SLg_Location_Request__Downlink_A21_AIS_wwf_Location_Response_from_ESMLC.L14b
p279
aVtc_44_201_sctp_endpoint_config__modify_rt_Diameter.L14b
p280
aVtc_44_841_mme_assoc_reestablish__device_restart_sbc.L14b
p281
aVtc_293_004_X2_Based_HO__Initial_UE_TAU_Request_from_source_eNodeB_while_wf_TAU_request.L14b
p282
aVtc_220_587_csfb_to_1xrtt_in_extended_service_request_during_attach_waiting_for_modify_bearer_response.L14b
p283
aVtc_278_2000_10_Inter_TAU_Old_MME_Fwd_Reloc_Req_wf_timeout_20s_Fwd_Reloc_Req_Resubmit.L14b
p284
aVtc_202_41_type_a_emergency_pdn_ecm_idle.L14b
p285
aVtc_202_420_af_seamless_move_target_initialCtxSetupResponse_noSuccDefaultBearer.L14b
p286
aVtc_326_406_Inter_TAU_Recovery_Unkonwn_GUTI__1xrtt_CS_Registration_Then_CSFB_To_1xRTT.L14b
p287
aVtc_276_045_Inter_TAU_New_MME__S1_Reset_while_waiting_for_Identity_Response__enhanced_imei_check.L14b
p288
aVtc_273_033_tau_intra_normal_idle_authentication_timeout.L14b
p289
aVtc_273_167_tau_intra_periodic_connected.L14b
p290
aVtc_06_515_apn_resolution_main_flow_resolute_based_on_imsins_when_ms_request_empty_apn.LWG
p291
aVtc_06_517_apn_resolution_main_flow_resolute_based_on_imsins_when_ms_request_apn_not_match.LWG
p292
aVtc_327_111_recovery_intra_TAU__HSS_Reset_while_waiting_for_Ue_Backup_Response.LWG
p293
aVtc_327_605_Inter_TAU_Recovery__EnodeB_reset_while_waiting_for_Ue_Backup_Retrieval_Response.LWG
p294
aVtc_289_103_multi_pdns_pgw_init_bearer_mod_ecm_idle_interrupted_by_dbr_with_lbi.LWG
p295
aVtc_304_301_PDN_connectivity__control_mode_threshold_not_reached.LWG
p296
aVtc_304_480_uplink_nas_csfb_to_wg_control_mode_threshold_exceeded_usc_detach_eps_service_not_allowed_in_ecm_connected_wf_ue_release_request.LWG
p297
aVtc_257_51_normal_paging_pws_ongoing_DPDP_false.LWG
p298
aVtc_23_09_transfer_to_primary_and_change_vip_addr.LWG
p299
aVtc_346_522_AF__TAU_Inter_New_from_gn_2PDN_both_fail_in_enodeb.LWG
p300
aVtc_259_102_ef_tads_s4_interfere_inter_rau_old_g.LWG
p301
aVtc_259_52_isd_tads_s4_w_pmmidle_inter_rau_l_to_w.LWG
p302
aVtc_16_045_modify_context_tz_changed_during_prau.LWG
p303
aVtc_231_173_ms_init_detach_interfered_by_cancel_location_withdraw.LWG
p304
aVtc_241_500_israu_new_gn_to_s4_pdp_to_bearer_one_pdp_conversational_mbr_0.LWG
p305
aVtc_241_801_israu_interfering_context_request_no_cancel_location_s4.LWG
p306
aVtc_275_240_tau_inter_new_emergency_pdn_with_dedicated_bearers.LWG
p307
aVtc_183_005_itc_folder_file_names.LWG
p308
aVtc_107_101_eth_vlan_cli.LWG
p309
aVtc_347_260_PDN_Connectivity__UE_Context_Release_Request_while_waiting_CCA_initial.LWG
p310
aVtc_285_008_PDN_Connectivity__Update_bearer_request_while_wf_modify_bearer_response.LWG
p311
aVtc_262_519_attach_pb_activate_dedicated_bearers_unsuccessful_invalid_bearer_identity.LWG
p312
aVtc_262_1055_imsi_attach_with_csg_id_is_rejected.LWG
p313
aVtc_203_440_mme_eps_ho_source__subscription_deleted_during_wf_ho_notify.LWG
p314
aVtc_203_435_mme_eps_ho_home_enodeb_id_emergency_type_a.LWG
p315
aVtc_205_71_03_ss7_M3UA_ASP_counters.LWG
p316
aVtc_218_311_tau_from_sgsn_preserved_gbr_bearer_buffer_1_ubr_1_cbr.LWG
p317
aVtc_279_014_tai_list_combined_attach_intra_tau_diff_la.LWG
p318
aVtc_316_273_Inter_MME_HO_SUT_As_Source_No_MME_Available_in_Backup_Option_Range__Delete_UE_Backup.LWG
p319
aVtc_326_403_Inter_TAU_Recovery_Old_SGW_Unavailable_SGW_Relocation__Multiple_Bearer.LWG
p320
aVtc_666_06_block_rt_board.LWG
p321
aVtc_30_085_hlr_reset_after_subdata_read_from_cache.LWG
p322
aVtc_11_433_ggsn_initiated_deactivation_interfered_by_rab_release_request.LWG
p323
aVtc_281_020_Activate_bearer__ERAB_setup_request_meanwhile_handover_required_inter_MME.LWG
p324
aVtc_110_005_inbound_outbound_pf_rule_cli_ip.LWG
p325
aVtc_110_004_inbound_outbound_pf_rule_cli_udp_sctp_tcp.LWG
p326
aVtc_132_002_create_ip_interface_eth.LWG
p327
aVtc_282_131_deactivate_default_bearer.LWG
p328
aVtc_345_323_ef__mo_csfb_with_psho__context_request_while_wf_forward_relocation_response.LWG
p329
aVtc_578_12_check_show_tables_e.LWG
p330
aVtc_46_034_MME_Ccheck_diameter_peer_not_loopback.LWG
p331
aVtc_307_001_HSS_Init_QoS_Modification__APNAMBR_RFSP_and_ARP_Changed_2PDN_CONNECTED.LWG
p332
aVtc_194_1554_HSS_initiated_ISD_in_Connected_mode_when_current_CSG_Id_removed__TAU_Request.LWG
p333
aVtc_238_233_mme_eps_irat_Gn_ho_target_macro_eNB_skt_specific_format_targetid_HeNB_GW_table_matched.LWG
p334
aVtc_305_057_oms_mmi_hwm.LWG
p335
aVtc_159_200_check_ctum_log.LWG
p336
aVtc_33_17_isc_rau_authenticating_interrupted_by_subscription_withdrawn.WG14a
p337
aVtc_340_34_validation_move_g_s4_filter_all_apn.WG14a
p338
aVtc_304_004_attach_success__only_measurement_mode_threshold_reached.LW
p339
aVtc_326_406_Inter_TAU_Recovery_Unkonwn_GUTI__1xrtt_CS_Registration_Then_CSFB_To_1xRTT.LW
p340
aVtc_23_17_volume_based_cdr.LW
p341
aVtc_194_064_activate_loc_not_confirmed_ul_fails_network_failure.LW
p342
aVtc_194_008_cl_update_procedure_detached_unknown_mme.LW
p343
aVtc_262_042_imsi_attach_emm_registered_ecm_connected.LW
p344
aVtc_78_002_imsi_attach_accept_foreign_ms.LW
p345
aVtc_53_138_inter_new_ggsn_decrease_qos_rab_setup_fault.LW
p346
aVtc_103_831_DPR_cause_BUSY.LW
p347
aVtc_44_004_small_restart__sctp_fe_restart.LW
p348
aVtc_225_321_mt_call_active_mode_nas_non_delivery__cs_service_notification__handover_required_meanwhile_CBR_received.LW
p349
aVtc_284_135_emergency_pdn_connectivity_no_notify_request.LW
p350
aVtc_214_1126_la_selection_mf_oldlapreferred_combined_intra_tau_after_imsi_detach_triggered_by_sgs_paging.LW
p351
aVtc_276_283_Inter_TAU_New_MME__Delete_Bearer_Request_change_to_non_3gpp_while_waiting_for_TAU_Complete.LW
p352
aVtc_268_014_UE_Release_Flow__Downlink_A21_AIS_while_waiting_for_Relase_Access_Bearer_Response.LW
p353
aVtc_11_222_activate_primary_APN_test_IV.LW
p354
aVtc_11_405_iu_satellite_hpa_downlink_payload.LW
p355
aVtc_11_427_ggsn_update_with_lower_qos_during_secondary_pdp_activation.LW
p356
aVtc_11_428_ggsn_update_during_secondary_pdp_activation_and_update_ggsn_timeout.LW
p357
aVtc_263_240_Attach_Flow__Attach_Request_with_same_IE_while_waiting_for_identification_response.L14b
p358
aVtc_326_203_Intra_TAU_after_node_restart_with_two_retrieval_responses_with_SGW_change_with_emergency_PDN.L14b
p359
aVtc_326_406_Inter_TAU_Recovery_Unkonwn_GUTI__1xrtt_CS_Registration_Then_CSFB_To_1xRTT.L14b
p360
aVtc_276_045_Inter_TAU_New_MME__S1_Reset_while_waiting_for_Identity_Response__enhanced_imei_check.L14b
p361
aVtc_103_831_DPR_cause_BUSY.L14b
p362
aVtc_293_004_X2_Based_HO__Initial_UE_TAU_Request_from_source_eNodeB_while_wf_TAU_request.L14b
p363
aVtc_303_003_Intra_S1_HO__Downlink_A21_AIS_while_wf_Handover_Request_Ack__Reset_from_source_eNB_while_wf_Handover_Notify.L14b
p364
aVtc_304_266_tau_from_gnsgsn_2g_control_mode_wf_delete_all_bearers_response_exception_case_reject_congestion_subscriber_cancelled.L14b
p365
aVtc_327_022_recovery_intra_TAU__initial_Detach_Request_while_waiting_for_Ue_Backup_Response.L14b
p366
aVtc_327_602_Inter_TAU_Recovery__Attach_Request_while_waiting_for_Ue_Authentication_Response.L14b
p367
aVtc_44_071_attach_long_imsi.L14b
p368
aVtc_44_830_mme_assoc_reestablish__local_ep_restart_s1_mme.L14b
p369
aVtc_44_861_mme_assoc_reestablish__sctp_fe_restart_sbc.L14b
p370
aVtc_275_206_tau_inter_new_emergency_type_b_restricted_no_rrc_or_active_flag.L14b
p371
aVtc_262_203_guti_attach_when_unauthenticated_attached.L14b
p372
aVtc_43_101__removal_of_disconnected_eNodeBs__CLI_removal.L14b
p373
aVtc_43_105__alarm_after_restart.L14b
p374
aVtc_195_406_ue_trace_start_meanwhile_handover_required.L14b
p375
aVtc_281_025_Activate_bearer__ERAB_setup_response_s1_intra_system_handover_triggered.L14b
p376
aVtc_324_328_ef_service_req_data_direct_transfer_ingore_wf_update_location.W14b
p377
aVtc_39_187_detach_trigger_re_attach_new_iu.W14b
p378
aVtc_31_046_rau_ul_fails_restricted_unsupp_feature_when_data_not_confirmed.W14b
p379
aVtc_250_154_attach_eps_sub_no_odb_activation_insert_gprs_sub_with_odb_deact.W14b
p380
aVtc_231_645_ubr_interference_when_wf_delete_session_response_during_pdp_deactivating.W14b
p381
aVtc_297_407_move_at_periodic_rau.G14b
p382
aVtc_246_061_israu_new_l_to_g_sgw_change_one_pdn_ubr_before_rau_complete_interfered_by_inter_rau_request.G14b
p383
aVtc_208_43_interception_after_small_restart.G14b
p384
aVtc_19_105_move_intra_rau_rai_filter.G14b
p385
aVtc_297_407_move_at_periodic_rau.G14b
p386
aVtc_44_004_small_restart__sctp_fe_restart.LWG
p387
aVtc_259_116_ef_s6d_tads_interfere_inter_rau_old_w.LWG
p388
aVtc_214_1140_la_selection_mf_oldlapreferred_prau_during_ue_restoration.LWG
p389
aVtc_159_200_check_ctum_log.LWG
p390
aVtc_12_504_attach_ptmsi_with_pdp_interfered_by_rnc_reset.LWG
p391
aVtc_297_407_move_at_periodic_rau.LWG
p392
aVtc_73_39_gtpu_sgsn_send_gnu_echo_request_w.LWG
p393
aVtc_304_102_emergency_intra_tau_success__control_mode_threshold_exceeded.LWG
p394
aVtc_194_506_Notification_during_Intra_MME_TAU_without_SGW_Relocation_Procedure.LWG
p395
aVtc_194_1554_HSS_initiated_ISD_in_Connected_mode_when_current_CSG_Id_removed__TAU_Request.LWG
p396
aVtc_79_001_rab_resp_with_setup_instead_of_release.LWG
p397
aVtc_241_752_W2W_GnSGSN_to_S4SGSN_one_pdp_arp_higher_than_policymap_sysprop_deactivate_pdp_after_tau_on.LWG
p398
aVtc_289_017_Modify_bearer__ERAB_modify_request_meanwhile_path_switch_request_HO_success.LWG
p399
aVtc_220_400_csfb_to_1xrtt_in_ecm_connected_ue_context_modification_failure_x2_ho_triggered.LWG
p400
aVtc_166_404_activate_primary_dt_ggsn_list_ggsn_address_not_in_list.LWG
p401
aVtc_23_13_israu_out.LWG
p402
aVtc_23_09_transfer_to_primary_and_change_vip_addr.LWG
p403
aVtc_326_275_Periodic_Intra_TAU_with_unknown_GUTI_with_normal_and_emergency_PDN.LWG
p404
aVtc_203_324_mme_eps_ho_source_type_d__TAU_Request_while_wf_Forw_Reloc_Comp_Notification.LWG
p405
aVtc_250_67_s6d_activation_with_EPS_data_s4_license_off.LWG
p406
aVtc_119_101_ospf_area_cli.LWG
p407
aVtc_205_71_03_ss7_M3UA_ASP_counters.LWG
p408
aVtc_666_02_reboot_ss7_board.LWG
p409
aVtc_666_06_block_rt_board.LWG
p410
aVtc_110_003_inbound_outbound_pf_rule_cli_icmp.LWG
p411
aVtc_311_153_intra_srns_reloc_s4_with_sgw_change_wf_modify_bearer_rsp_interrupted_by_initial_attach_request.LWG
p412
aVtc_33_17_isc_rau_authenticating_interrupted_by_subscription_withdrawn.LWG
p413
aVtc_309_106_internal_class_sends_no_notification.LWG
p414
aVtc_203_103_mme_eps_handover_source_inter__s1_reset_wf_relocation_response.L14b
p415
aVtc_266_011_DownlinkDataNotification_interfering_ISD_sgsn00026976.L14b
p416
aVtc_288_120_pgw_init_bearer_mod_insert_subscriber_data_request_wf_ue_accept.L14b
p417
aVtc_195_416_ue_trace_deactivate_trace_s1_intra_system_handover_triggered.L14b
p418
aVtc_103_208_hostname_in_conf_unavail.L14b
p419
aVtc_103_903_primary_or_secondary_realm_routing_own_realm.L14b
p420
aVtc_103_1101_resending_AIR_interfering_CLR.L14b
p421
aVtc_44_871_mme_assoc_reestablish__board_block_sbc.L14b
p422
aVtc_43_040_eNB_configuration_update_mf.L14b
p423
aVtc_43_101__removal_of_disconnected_eNodeBs__CLI_removal.L14b
p424
aVtc_214_1059_la_selection_mf_oldlapreferred_combined_tau_dyn_tailist_without_old_la.L14b
p425
aVtc_327_012_recovery_intra_TAU__initial_Attach_Request_while_waiting_for_Ue_Backup_Response.L14b
p426
aVtc_327_317_recovery_service_request__initial_Attach_Request_while_waiting_for_Sub_Procedure__Initial_Context_Setup_Response.L14b
p427
aVtc_327_600_Inter_TAU_Recovery__Attach_Request_IMSI_while_waiting_for_ue_backup_retrieval_Response.L14b
p428
aVtc_262_1055_imsi_attach_with_csg_id_is_rejected.L14b
p429
aVtc_327_026_recovery_intra_TAU__initial_Detach_Request_while_waiting_for_TAU_Complete.LW
p430
aVtc_327_610_Inter_TAU_SGW_Changed_then_Intra_TAU_while_waiting_for_20s_timeout.LW
p431
aVtc_316_276_Inter_MME_HO_SUT_As_Source_Without_Cancel_Location__Delete_UE_Backup.LW
p432
aVtc_304_107_initial_ue_intra_tau_control_mode_threshold_exceeded_usc_reject.LW
p433
aVtc_304_502_Service_Request_UE_Initiated__control_mode_threshold_exceeded_dgn.LW
p434
aVtc_281_063_Activate_bearer__Cancel_location_from_HSS_while_wf_erab_setup_response.LW
p435
aVtc_314_004_hss_init_qos_modification_insert_customized_qci.LW
p436
aVtc_318_155_sgw_restart_af_multi_pdns_relocation_all_fail.LW
p437
aVtc_262_063_attach_tai_not_supported.LW
p438
aVtc_262_561_ulr_during_guti_attach_with_unknown_guti__userstate_locationinfo.LW
p439
aVtc_79_039_ms_init_modification_rnc_not_supporting_modify_II.LW
p440
aVtc_238_233_mme_eps_irat_Gn_ho_target_macro_eNB_skt_specific_format_targetid_HeNB_GW_table_matched.LW
p441
aVtc_348_021_deactivation__ms_init_modification_rnc_release.LW
p442
aVtc_326_213_Intra_TAU_Recovery_multiple_retrieval_responses_with_different_revision_number.LW
p443
aVtc_326_314_Service_Request_with_unknown_STMSI_location_update_timeout.LW
p444
aVtc_326_382_Service_Request_with_unknown_STMSI_then_smooth_move.LW
p445
aVtc_326_462_Inter_TAU_Recovery_Unknown_GUTI__Emergency_Type_a_Roaming_Restricted.LW
p446
aVtc_347_024_Inter_TAU_New_MME_from_gn__RAR_while_waiting_for_TAU_Complete.LW
p447
aVtc_347_269_PDN_Connectivity__RAR_while_waiting_CCA_Initial.LW
p448
aVtc_282_106_mme_initiated_deactivate_bearer_no_response_from_sgw.LW
p449
aVtc_345_332_ef__mo_csfb_with_psho__context_request_while_wf_forward_relocation_complete.LW
p450
aVtc_335_35_wifi_to_mobility_in_ecm_idle_af__no_estimation_response_from_eNB_timeout_max_3000.LW
p451
aVtc_335_125_Attach_when_registered_with_foreign_GUTI.LW
p452
aVtc_310_116_1_af__HO_Cancel_before_Response_from_MSC_after_error_Response_from_SGSN.LW
p453
aVtc_52_14_inter_old_treloccomplete_timeout.LW
p454
aVtc_302_003_cdma_tunneling_uplink_message_invalid_sector_id.LW
p455
aVtc_302_201_1xrtt_srvcc_2_gbr_bearers.LW
p456
aVtc_39_601_mas_unsucc_fwd_reloc_resp_mandatory_ie_missing_stop_source.LW
p457
aVtc_39_739_iu_release_request_user_inactivity_ignore_target.LW
p458
aVtc_218_311_tau_from_sgsn_preserved_gbr_bearer_buffer_1_ubr_1_cbr.LW
p459
aVtc_263_024_Attach_Flow__Attach_Request_Different_IEs_IP_OK_while_waiting_for_Authentication_Vector_Response.LW
p460
aVtc_284_158_pdn_conn_successful_csr_piggybacked_with_cbr_pvi_pci_downgraded.LW
p461
aVtc_202_01_ecm_connected_s1_release.LW
p462
aVtc_103_701_MME_restarts.LW
p463
aVtc_329_803_geored_intra_tau_rs_restricted_after_update_location.LW
p464
aVtc_268_075_Timer_Based_GBR_Deact__receive_DDN_before_delete_bearer_request.LW
p465
aVtc_359_132_handover_from_3gpp_PGW_init_deletion_EF_detach.LW
p466
aVtc_267_216_Service_Request__PDN_Connectivity_Request_while_waiting_for_Modify_Bearer_Response.LW
p467
aVtc_267_341_DDN_wf_service_req_interfer_by_pdn_connectivity_req.LW
p468
aVtc_306_094_ef_seamless_move_source_receive_context_request_wf_modify_bearer_response.LW
p469
aVtc_306_238_ef_seamless_move_source_receive_update_bearer_request_wf_modify_bearer_response.LW
p470
aVtc_346_515_AF__TAU_Inter_New_from_gn_CSR_failure_terminate_sx.LW
p471
aVtc_346_577_AF__HO_X2_2PDN_CSR_failure_for_both_PDN_terminate_sx.LW
p472
aVtc_290_039_Timer_Based_GBR_Deact__s1_reset_wf_ue_context_release_complete_before_timer_expires.LW
p473
aVtc_578_02_check_parse_ebm_and_ci_eci_w.LW
p474
aVtc_166_132_israu_new_3gdt_apn_not_in_dns.WG14a
p475
aVtc_33_17_isc_rau_authenticating_interrupted_by_subscription_withdrawn.WG14a
p476
aVtc_39_075_intra_rau_move_resend_rau_request_move_stopped.W14b
p477
aVtc_11_216_activate_one_primary_one_secondary_pdp_context_with_limitation_reject.W14b
p478
aVtc_334_208_path_failure_inter_rau_sgw_change_mf.W14b
p479
aVtc_231_282_activate_pdp_request_ignore_during_gn_pdp_deactivating.W14b
p480
aVtc_334_250_path_failure_service_req_rab_released_mf.W14b
p481
aVtc_340_130_intra_rau_during_validation_move_job_with_trigger_move_configured.W14b
p482
aVtc_44_841_mme_assoc_reestablish__device_restart_sbc.L14b
p483
aVtc_273_201_tau_intra_roaming_restricted_plmn.L14b
p484
aVtc_204_901_mme_eps_ho_target_insert_subscriber_data_with_odb_bit0_during_wf_tau_complete.L14b
p485
aVtc_276_045_Inter_TAU_New_MME__S1_Reset_while_waiting_for_Identity_Response__enhanced_imei_check.L14b
p486
aVtc_266_026_DownlinkDataFailureInd_repeat_paging_timer_small_local_restart.L14b
p487
aVtc_284_350_pdn_connectivity_interrupted_by_path_switch_request.L14b
p488
aVtc_304_116_initial_ue_intra_tau_control_mode_threshold_exceeded_usc_reject_intruder_wf_icsr.L14b
p489
aVtc_103_832_DPR_cause_REBOOTING.L14b
p490
aVtc_103_831_DPR_cause_BUSY.L14b
p491
aVtc_103_406_diameterConnectionDown_no_alarm_raised_due_to_bad_ip_addrs_in_CEA.L14b
p492
aVtc_103_1000_modify_diameter_peer_prio.L14b
p493
aVtc_346_449_AF__Intra_TAU_CCA_Update_unknown_session_id_5002.L14b
p494
aVtc_43_040_eNB_configuration_update_mf.L14b
p495
aVtc_293_004_X2_Based_HO__Initial_UE_TAU_Request_from_source_eNodeB_while_wf_TAU_request.L14b
p496
aVtc_262_1055_imsi_attach_with_csg_id_is_rejected.L14b
p497
aVtc_203_004_mme_eps_handover_source_inter__no_cancel_location.L14b
p498
aVtc_324_368_ef_cancel_location_with_updateProcedure_wf_modify_bearer_response_after_ula_hss.WG14a
p499
aVtc_11_215_activate_one_primary_one_secondary_pdp_context_with_limitation.LWG
p500
aVtc_267_106_Service_Request__Attach_Request_On_New_S1_while_waiting_for_Initial_Context_Setup_Response.LWG
p501
aVtc_267_302_Downlink_Data_Notification__Delete_Bearer_Request_while_wf_service_request_from_ue.LWG
p502
aVtc_177_200_test_list_cmd.LWG
p503
aVtc_262_060_imsi_attach_imei_check_feature_turned_off.LWG
p504
aVtc_326_332_Service_Request_with_unknown_STMSI_Security_Mode_Complete_timeout.LWG
p505
aVtc_326_406_Inter_TAU_Recovery_Unkonwn_GUTI__1xrtt_CS_Registration_Then_CSFB_To_1xRTT.LWG
p506
aVtc_326_527_Recovery_for_DDN__Retrieval_and_Paging_also_as_Backup_MME_unexpected_revision_number.LWG
p507
aVtc_275_037_tau_inter_new_bearer_status_mismatch.LWG
p508
aVtc_51_079_intra_srns_reloc_wf_reloc_req_ack_interrupted_by_delete_req.LWG
p509
aVtc_51_120_eul11m_intra_srns_reloc_main_flow.LWG
p510
aVtc_280_020_activate_1_dedicated_bearer_sgw_ip_address_changed.LWG
p511
aVtc_259_93_ef_provide_subscriber_information_service_request_w.LWG
p512
aVtc_205_71_03_ss7_M3UA_ASP_counters.LWG
p513
aVtc_284_106_pdn_connectivity_modify_bearer_failure_no_context_from_sgw.LWG
p514
aVtc_284_421_pdn_connection_apnredirectformultipleapn_sgsndefault_apn_misspelled_same_apn.LWG
p515
aVtc_263_036_Attach_Flow__Detach_Request_with_Switch_Off_while_waiting_for_Initial_Context_Setup_Response.LWG
p516
aVtc_290_018_Timer_Based_GBR_Deact__ue_context_release_request_wf_release_access_bearer_response_before_timer_expires.LWG
p517
aVtc_302_043_2_mo_csfb_to_1xrtt_Downlink_A21_AIS_after_suspend_and_after_resume.LWG
p518
aVtc_132_002_create_ip_interface_eth.LWG
p519
aVtc_304_107_initial_ue_intra_tau_control_mode_threshold_exceeded_usc_reject.LWG
p520
aVtc_304_418_Service_Request_UE_Initiated__control_mode_threshold_exceeded_SR_failed.LWG
p521
aVtc_268_024_UE_Release_Flow__Downlink_Data_Notification_while_waiting_for_Release_Access_Bearers_Response.LWG
p522
aVtc_218_407_tau_from_sgsn_two_pdn_connections_one_ok_one_failed_due_to_sgw_selection.LWG
p523
aVtc_283_010_GW_Deactivate_bearer__Insert_subscription_data_while_wf_deactivate_bearer_context_accept.LWG
p524
aVtc_73_21_itc_gtpu_s4_sgsn_send_echo_request_w.LWG
p525
aVtc_666_02_reboot_ss7_board.LWG
p526
aVtc_666_06_block_rt_board.LWG
p527
aVtc_310_125_af__Forward_Relocation_Response_from_SGSN_arrives_after_PS_to_CS_response_from_MSC.LWG
p528
aVtc_44_071_attach_long_imsi.LWG
p529
aVtc_44_871_mme_assoc_reestablish__board_block_sbc.LWG
p530
aVtc_194_508_Notification_during_Intra_TAU_without_SGW_Relocation_HSS_Reset_after_SMC.LWG
p531
aVtc_238_241_mme_eps_irat_Gn_ho_target_HeNB_skt_specific_format_targetid_direct_connected_target_HeNB.LWG
p532
aVtc_159_200_check_ctum_log.LWG
p533
aVtc_23_09_transfer_to_primary_and_change_vip_addr.LWG
p534
aVtc_12_502_pmm_idle_rab_assignment_list_streaming_class_last.LWG
p535
aVtc_12_512_pmm_undefined_attach_when_updating_location_interfered_by_rnc_reset.LWG
p536
aVtc_340_03_validation_move_g_filter_imsi_all_detach_trigger.LWG
p537
aVtc_335_153_Locator_Restart__iterator_mechanism_multiple_UEs.LWG
p538
aVtc_327_208_recovery_service_request__Cancel_Location_subscription_withdrawal_while_waiting_for_Guti_Reallocation_Complete.LWG
p539
aVtc_327_471_recovery_service_request__ERAB_release_indication_default_bearer_while_waiting_for_ULA_from_msc.LWG
p540
aVtc_219_131_s3_handover_w_to_l_with_cl_two_pdns_one_failed_sgw_relocation.LWG
p541
aVtc_103_1101_resending_AIR_interfering_CLR.LWG
p542
aVtc_276_045_Inter_TAU_New_MME__S1_Reset_while_waiting_for_Identity_Response__enhanced_imei_check.LW
p543
aVtc_103_1101_resending_AIR_interfering_CLR.LW
p544
aVtc_193_042_attach_faulty_ksi.LW
p545
aVtc_303_004_X2_Based_HO__Downlink_A21_AIS_while_wf_TAU_Request_and_Emm_Information_in_nas_nondeliver.LW
p546
aVtc_194_084_hss_reset_after_large_restart.LW
p547
aVtc_297_407_move_at_periodic_rau.G14b
p548
aVtc_44_071_attach_long_imsi.LW
p549
aVtc_44_004_small_restart__sctp_fe_restart.LW
p550
aVtc_347_341_SGW_Restart__RAR_while_waiting_Create_Session_Response.LW
p551
aVtc_26_202_service_request_after_hlr_modify_EARP_ggsn_upgrade_qos.LW
p552
aVtc_241_801_israu_interfering_context_request_no_cancel_location_s4.LW
p553
aVtc_266_203_service_request_2_dedicated_bearers_one_bearer_rejected.LW
p554
aVtc_304_266_tau_from_gnsgsn_2g_control_mode_wf_delete_all_bearers_response_exception_case_reject_congestion_subscriber_cancelled.LW
p555
aVtc_260_070_mbms_session_start_af_gw_resend_request_msg_diff_absolute_time.LW
p556
aVtc_326_281_Intra_TAU_combined_type_with_unknown_GUTI_SGW_unavailable.LW
p557
aVtc_326_406_Inter_TAU_Recovery_Unkonwn_GUTI__1xrtt_CS_Registration_Then_CSFB_To_1xRTT.LW
p558
aVtc_53_146_inter_new_srns_reloc_target_rai_unknown.LW
p559
aVtc_276_045_Inter_TAU_New_MME__S1_Reset_while_waiting_for_Identity_Response__enhanced_imei_check.LW
p560
aVtc_276_301_Inter_TAU_New_MME__Downlink_Data_Notification_while_waiting_for_Update_Location_Answer.LW
p561
aVtc_32_69_detach_interrupted_by_rnc_reset_while_deleting_contexts.LW
p562
aVtc_11_075_deactivate_sgsn_initiated_delete_subscriber_data_pmm_idle.LW
p563
aVtc_11_085_activate_detach_pdp_context.LW
p564
aVtc_11_259_apnresolving_vplmn_allowed_subscribed_apn_hplmn_apn_criteria_si.LW
p565
aVtc_194_008_cl_update_procedure_detached_unknown_mme.LW
p566
aVtc_194_082_consecutive_hss_resets.LW
p567
aVtc_194_505_Notification_during_Intra_TAU_without_SGW_Relocation_HSS_Reset_Before_TAU.LW
p568
aVtc_202_40_emergency_pdn_ecm_connected.LW
p569
aVtc_12_130_service_request_transfer_to_attached_ms_fraud.LW
p570
aVtc_220_212_csfb_to_1xrtt_in_ecm_connected_tau_request_wf_delete_gbr_bearer_response.LW
p571
aVtc_327_602_Inter_TAU_Recovery__Attach_Request_while_waiting_for_Ue_Authentication_Response.L14b
p572
aVtc_195_406_ue_trace_start_meanwhile_handover_required.L14b
p573
aVtc_202_40_emergency_pdn_ecm_connected.L14b
p574
aVtc_276_045_Inter_TAU_New_MME__S1_Reset_while_waiting_for_Identity_Response__enhanced_imei_check.L14b
p575
aVtc_326_485_Inter_TAU_Recovery_Unknown_GUTI__Then_SRVCC_One_Voice_Bearer.L14b
p576
aVtc_244_806_mt_lr_donwlink_generic_nas_transport_meanwhile_handover_required_HO_success.L14b
p577
aVtc_244_919_mt_lr_uplink_ue_associated_lppa_transport_wf_esmlc_response_and_ecm_connected_for_LPPa.L14b
p578
aVtc_346_448_AF__Intra_TAU_CCA_Update_authentication_rejected_4001.L14b
p579
aVtc_214_1092_la_selection_mf_oldmscpreferred_combined_intra_tau_with_imsi_attach_after_ue_initiated_imsi_detach.L14b
p580
aVtc_257_22_pws_etws_stop_warning_request_with_unknown_tai.L14b
p581
aVtc_335_44_wifi_to_mobility_in_ecm_idle_unknown_user_af__feature_off_in_enodeb.L14b
p582
aVtc_44_071_attach_long_imsi.L14b
p583
aVtc_225_321_mt_call_active_mode_nas_non_delivery__cs_service_notification__handover_required_meanwhile_CBR_received.L14b
p584
aVtc_211_025_streamed_cell_trace_mapping_alarm_cease_ipv6.L14b
p585
aVtc_293_004_X2_Based_HO__Initial_UE_TAU_Request_from_source_eNodeB_while_wf_TAU_request.L14b
p586
aVtc_266_026_DownlinkDataFailureInd_repeat_paging_timer_small_local_restart.L14b
p587
aVtc_304_236_isc_active_flag_on_control_mode_threshold_exceeded_ignore_replace_s1_wf_initial_context_setup_response.L14b
p588
aVtc_204_100_inter_s1ho_target_HeNB_format_targetid_HeNB_GW_table_matched.L14b
p589
aVtc_208_43_interception_after_small_restart.G14b
p590
aVtc_298_301_EF_SIBD_S4_Activate_From_MS_TI_Flag.W14b
p591
aVtc_31_040_attach_ul_fails_restricted_unsupp_feature_when_data_not_confirmed.W14b
p592
aVtc_261_11_isd_tads_intra_tau_home_voip_restricted_by_ga_cc91_imsins_cc90.LWG
p593
aVtc_205_71_03_ss7_M3UA_ASP_counters.LWG
p594
aVtc_205_71_08_SCTP_OctetsChunksSent.LWG
p595
aVtc_06_014_activate_deactivate_secondary_ms_99_gtp_99_tdi_1.LWG
p596
aVtc_248_308_inter_l_to_w_new_ms_idle_handover_from_mme_interfering_rau_request.LWG
p597
aVtc_119_202_ospf_interface_opt_vals.LWG
p598
aVtc_335_44_wifi_to_mobility_in_ecm_idle_unknown_user_af__feature_off_in_enodeb.LWG
p599
aVtc_335_75_From_Wifi_ECM_Connected_MF__Cells_From_WIC_Belong_to_Diff_eNBs.LWG
p600
aVtc_284_350_pdn_connectivity_interrupted_by_path_switch_request.LWG
p601
aVtc_183_005_itc_folder_file_names.LWG
p602
aVtc_179_318_Ccheck_TraceCollectionIpv6server.LWG
p603
aVtc_294_357_intra_handover_sgw_relocation_sgw_not_respond_create_session_request.LWG
p604
aVtc_327_014_recovery_intra_TAU__initial_Attach_Request_while_waiting_for_Modify_Bearer_Response.LWG
p605
aVtc_11_093_activate_secondary_reject_210.LWG
p606
aVtc_11_178_sgsn_init_deactivation_ms_deactivate.LWG
p607
aVtc_11_176_sgsn_init_deactivation_vplmn_not_allowed.LWG
p608
aVtc_11_331_apnresolving_apnopid_hplmn_present_apn_criteria_si_cc_ga.LWG
p609
aVtc_44_860_mme_assoc_reestablish__sctp_fe_restart_s1_mme.LWG
p610
aVtc_165_10_check_resource_alarms_ap.LWG
p611
aVtc_666_06_block_rt_board.LWG
p612
aVtc_329_403_x2_ho_rs_restrict_emergency_plmn_change.LWG
p613
aVtc_220_504_csfb_to_1xrtt_in_ecm_idle_tau_request_wf_ue_context_release_request.LWG
p614
aVtc_202_102_small_restart.LWG
p615
aVtc_244_535_SLg_Location_Request__Downlink_A21_AIS_wwf_Location_Response_from_ESMLC.LWG
p616
aVtc_159_200_check_ctum_log.LWG
p617
aVtc_256_382_Sv_Path_Mgt__available_MSC_disable_Sv.LWG
p618
aVtc_326_705_Service_Request_Recovery_subscription_check_ODB_apn_in_odb_free_apn_list.LWG
p619
aVtc_326_406_Inter_TAU_Recovery_Unkonwn_GUTI__1xrtt_CS_Registration_Then_CSFB_To_1xRTT.LWG
p620
aVtc_326_201_Intra_TAU_with_unknown_GUTI_with_active_flag.LWG
p621
aVtc_203_324_mme_eps_ho_source_type_d__TAU_Request_while_wf_Forw_Reloc_Comp_Notification.LWG
p622
aVtc_264_080_MME_Initiated_Detach__UE_ECM_Idle__Paging_Failed_due_to_OLP.LWG
p623
aVtc_578_51_check_parse_compressed_ebm.G14b
p624
aVtc_322_161_smooth_move_ef_nas_after_paging_response_ignore.WG14a
p625
aVtc_99_051_inter_g_to_w_new_main_flow_with_payload.WG14a
p626
aVtc_340_130_intra_rau_during_validation_move_job_with_trigger_move_configured.WG14a
p627
aVtc_306_035_ef_seamless_move_source_receive_tau_request_wf_frcn.L14b
p628
aVtc_306_087_ef_seamless_move_source_receive_downlink_data_notification_wf_target_guti_reallocation_complete.L14b
p629
aVtc_306_170_02_ef_seamless_move_source_receive_hss_reset_wf_frcn.L14b
p630
aVtc_306_230_ef_seamless_move_source_receive_create_bearer_request.L14b
p631
aVtc_306_999_ef_seamless_move_source_ignore_messgae.L14b
p632
aVtc_318_121_sgw_restart_mf_tau_multi_ues.L14b
p633
aVtc_44_071_attach_long_imsi.L14b
p634
aVtc_44_841_mme_assoc_reestablish__device_restart_sbc.L14b
p635
aVtc_346_445_AF__Intra_TAU_CCA_Update_timeout.L14b
p636
aVtc_346_515_AF__TAU_Inter_New_from_gn_CSR_failure_terminate_sx.L14b
p637
aVtc_346_594_sx_feature_off_during_credit_control_update.L14b
p638
aVtc_276_045_Inter_TAU_New_MME__S1_Reset_while_waiting_for_Identity_Response__enhanced_imei_check.L14b
p639
aVtc_103_831_DPR_cause_BUSY.L14b
p640
aVtc_303_004_X2_Based_HO__Downlink_A21_AIS_while_wf_TAU_Request_and_Emm_Information_in_nas_nondeliver.L14b
p641
aVtc_238_162_mme_eps_irat_Gn_ho_target__Relocation_cancel_when_wf_handover_notify.L14b
p642
aVtc_335_142_Geo_Recovery_upon_Inter_TAU.L14b
p643
aVtc_256_071_mme_eps_srvcc_ho_source_to_geran_cs_only_emergency_mf_without_DTM_with_GBR_bearers_in_emergency_pdn.L14b
p644
aVtc_293_241_X2_Based_HO__location_report_while_wf_update_location_wf_location_update.L14b
p645
aVtc_293_041_X2_Based_HO__Sgw_reloc__Downlink_A21_AIS_while_wf_Delete_Session_Response.L14b
p646
aVtc_329_310_s1_inter_ho_target_rs_restricted.L14b
p647
aVtc_195_406_ue_trace_start_meanwhile_handover_required.L14b
p648
aVtc_195_417_ue_trace_deactivate_trace_s1_intra_system_handover_triggered_HO_ongoing_timeout.L14b
p649
aVtc_327_354_recovery_service_request__initial_inter_TAU_while_waiting_for_Sub_Procedure__Auth_Response.L14b
p650
aVtc_296_020_son_intra_HeNB_format_targetid_direct_connected_target_HeNB.L14b
p651
aVtc_43_005_s1ap_setup.L14b
p652
aVtc_284_362_pdn_connectivity_handover_indication_no_override_other_apn.L14b
p653
aVtc_244_535_SLg_Location_Request__Downlink_A21_AIS_wwf_Location_Response_from_ESMLC.L14b
p654
aVtc_333_002_mf__OLP_Priority_at_emergency_attach.L14b
p655
aVtc_326_203_Intra_TAU_after_node_restart_with_two_retrieval_responses_with_SGW_change_with_emergency_PDN.L14b
p656
aVtc_326_406_Inter_TAU_Recovery_Unkonwn_GUTI__1xrtt_CS_Registration_Then_CSFB_To_1xRTT.L14b
p657
aVtc_326_455_Inter_TAU_Recovery_Fail__Update_Location_Skip_SubData.L14b
p658
aVtc_308_030_IRAT_Mobility__HSS_Init_QoS_Modification_TAU_from_W_GnSGSN_MT_call_while_wf_SR.L14b
p659
aVtc_268_014_UE_Release_Flow__Downlink_A21_AIS_while_waiting_for_Relase_Access_Bearer_Response.L14b
p660
aVtc_202_10_downlink_data_during_paging.L14b
p661
aVtc_304_121_initial_ue_intra_tau_control_mode_threshold_exceeded_usc_detach_wf_release_request_response.L14b
p662
aVtc_304_266_tau_from_gnsgsn_2g_control_mode_wf_delete_all_bearers_response_exception_case_reject_congestion_subscriber_cancelled.L14b
p663
aVtc_303_001_MT_CSFB_to_1xRTT_idle__S1_Reset_while_wf_Initial_Context_Setup_Response.LW
p664
aVtc_303_004_X2_Based_HO__Downlink_A21_AIS_while_wf_TAU_Request_and_Emm_Information_in_nas_nondeliver.LW
p665
aVtc_289_047_Modify_bearer__ERAB_modify_response_s1_intra_system_handover_triggered_activate_dedicated_bearer_one_pdn_multiple_bearer.LW
p666
aVtc_289_070_GW_Init_Bearer_Modification_Flow_two_CBR_one_UBR_while_wf_modify_eps_bearer_context_accept.LW
p667
aVtc_262_063_attach_tai_not_supported.LW
p668
aVtc_276_045_Inter_TAU_New_MME__S1_Reset_while_waiting_for_Identity_Response__enhanced_imei_check.LW
p669
aVtc_256_382_Sv_Path_Mgt__available_MSC_disable_Sv.LW
p670
aVtc_44_071_attach_long_imsi.LW
p671
aVtc_11_221_activate_primary_APN_test_III.LW
p672
aVtc_11_217_activate_2_primary_same_ti_one_secondary_pdp_context_with_limitation_reject.LW
p673
aVtc_298_074_s4_nrspca_activate_same_nsapi_of_dedicated_bearer_apn_failed.LW
p674
aVtc_275_037_tau_inter_new_bearer_status_mismatch.LW
p675
aVtc_241_016_intra_rau_with_bearer_sgw_unchange_mf_s4_with_all_fTeid_undefined_service_request_data.LW
p676
aVtc_194_064_activate_loc_not_confirmed_ul_fails_network_failure.LW
p677
aVtc_267_511_Service_Request_SGW_unavailable__IDR_with_QoS_modification_while_wf_Create_Session_Response.LW
p678
aVtc_295_130_Intra_S1_HO__Sgw_reloc__Downlink_A21_AIS_while_waiting_for_Delete_Session_Response.LW
p679
aVtc_293_040_X2_Based_HO__Downlink_A21_AIS_while_wf_Modify_Bearer_Response.LW
p680
aVtc_293_019_X2_Based_HO__Path_Switch_Request_while_waiting_for_TAU_Complete.LW
p681
aVtc_324_386_ef_mt_sms_wf_frcn_wf_frca_wf_ula.LW
p682
aVtc_23_09_transfer_to_primary_and_change_vip_addr.LWG
p683
aVtc_340_34_validation_move_g_s4_filter_all_apn.LWG
p684
aVtc_79_036_israu_new_streaming_context_MBR_not_zero_service_request.LWG
p685
aVtc_203_324_mme_eps_ho_source_type_d__TAU_Request_while_wf_Forw_Reloc_Comp_Notification.LWG
p686
aVtc_236_181_hard_ho_intra_rau_with_3gdt_wf_release_access_bearer_resp_si_cancel_location_update.LWG
p687
aVtc_666_06_block_rt_board.LWG
p688
aVtc_132_002_create_ip_interface_eth.LWG
p689
aVtc_332_052_4_mf__paging_due_to_UBR_during_paging_due_to_DBR_latest_with_higher_prio.LWG
p690
aVtc_259_116_ef_s6d_tads_interfere_inter_rau_old_w.LWG
p691
aVtc_267_200_Service_Request__Attach_Request_while_waiting_for_Initial_Context_Setup_Response.LWG
p692
aVtc_11_019_activate_primary_context_same_ti.LWG
p693
aVtc_11_334_apnresolving_apnopid_hplmn_present_apn_criteria_si_ga.LWG
p694
aVtc_205_71_03_ss7_M3UA_ASP_counters.LWG
p695
aVtc_298_145_EF_NRSPCA_interfere_Activation.LWG
p696
aVtc_326_406_Inter_TAU_Recovery_Unkonwn_GUTI__1xrtt_CS_Registration_Then_CSFB_To_1xRTT.LWG
p697
aVtc_119_101_ospf_area_cli.LWG
p698
aVtc_119_202_ospf_interface_opt_vals.LWG
p699
aVtc_256_176_mme_eps_srvcc_ho_source_cs_only_ue_release_request_wf_srvcc_ps_to_cs_complete_notification.LWG
p700
aVtc_283_037_GW_Deactivate_Bearer__Default_bearer_Delete_Interrupt_Dedicated_Bearer_Delete_no_response_from_ue.LWG
p701
aVtc_44_004_small_restart__sctp_fe_restart.LWG
p702
aVtc_293_015_X2_Based_HO__Path_Switch_Request_from_Source_while_waiting_for_TAU_request.LWG
p703
aVtc_159_200_check_ctum_log.LWG
p704
aVtc_73_39_gtpu_sgsn_send_gnu_echo_request_w.LWG
p705
aVtc_73_41_gtpu_sgsn_dont_send_gpu_echo_request_w.LWG
p706
aVtc_110_005_inbound_outbound_pf_rule_cli_ip.LWG
p707
aVtc_110_004_inbound_outbound_pf_rule_cli_udp_sctp_tcp.LWG
p708
aVtc_26_016_ms_initiated_pdp_context_modification.LWG
p709
aVtc_100_63_intra_w_to_g_mf_with_payload.LWG
p710
aVtc_248_61_inter_l_to_w_new_two_pdns_timeout_waiting_for_reloc_req_ack_without_sgw_change.W14b
p711
aVtc_298_434_ms_init_deact_ef_default_bearer_deact_interfered_by_detach_request.W14b
p712
aVtc_31_048_service_request_ul_fails_semantic_error.W14b
p713
aVtc_205_71_03_ss7_M3UA_ASP_counters.LWG
p714
aVtc_205_31_pm_ReadingsPerOccasion_delta.LWG
p715
aVtc_205_40_ss7_M3ua.LWG
p716
aVtc_231_173_ms_init_detach_interfered_by_cancel_location_withdraw.LWG
p717
aVtc_92_0730_update_pm_job_when_index_removed.LWG
p718
aVtc_107_101_eth_vlan_cli.LWG
p719
aVtc_51_120_eul11m_intra_srns_reloc_main_flow.LWG
p720
aVtc_11_165_active_cancel_location_subscription_withdrawn.LWG
p721
aVtc_11_262_apnresolving_apnopid_hplmn_present_apn_criteria_cc.LWG
p722
aVtc_11_177_sgsn_init_deactivation_ms_not_responding.LWG
p723
aVtc_11_645_downlink_gtpu_wf_paging_resp_ef_transfer_service_req_data.LWG
p724
aVtc_49_013_activate_stream_crazy_bss_ul.LWG
p725
aVtc_197_002_convert_apnoi_for_dns_query.LWG
p726
aVtc_197_112_failure_at_dns_srv_timeout.LWG
p727
aVtc_197_448_pdn_connectivity_combined_pmip.LWG
p728
aVtc_326_303_Service_Request_with_unknown_STMSI_found_backup_in_itself_emergency_PDN.LWG
p729
aVtc_326_406_Inter_TAU_Recovery_Unkonwn_GUTI__1xrtt_CS_Registration_Then_CSFB_To_1xRTT.LWG
p730
aVtc_44_071_attach_long_imsi.LWG
p731
aVtc_44_871_mme_assoc_reestablish__board_block_sbc.LWG
p732
aVtc_324_327_ef_service_req_data_direct_transfer_ingore.LWG
p733
aVtc_159_200_check_ctum_log.LWG
p734
aVtc_232_403_bfd__ipv4ipv6_alarm.LWG
p735
aVtc_238_033_mme_eps_irat_ho_target__tau_after_ho_no_tau_complete.LWG
p736
aVtc_304_477_uplink_nas_csfb_to_1xrtt_control_mode_threshold_exceeded_usc_detach_illegal_ue_in_ecm_connected.LWG
p737
aVtc_203_324_mme_eps_ho_source_type_d__TAU_Request_while_wf_Forw_Reloc_Comp_Notification.LWG
p738
aVtc_110_005_inbound_outbound_pf_rule_cli_ip.LWG
p739
aVtc_211_014_streamed_cell_trace_mapping_alarm.LWG
p740
aVtc_39_417_mas_one_pdp_downlink_data_upd_loc_ack_b4_srv_req_target.LWG
p741
aVtc_214_092_cc_Msc_Check_Plmn.LWG
p742
aVtc_268_014_UE_Release_Flow__Downlink_A21_AIS_while_waiting_for_Relase_Access_Bearer_Response.LWG
p743
aVtc_119_202_ospf_interface_opt_vals.LWG
p744
aVtc_183_005_itc_folder_file_names.LWG
p745
aVtc_202_421_af_seamless_move_target_initialCtxSetupResponse_noSuccDefaultBearer_implicit_detach.LWG
p746
aVtc_272_017_smart_paging_with_adaptive_paging_not_activated.LWG
p747
aVtc_666_02_reboot_ss7_board.LWG
p748
aVtc_276_045_Inter_TAU_New_MME__S1_Reset_while_waiting_for_Identity_Response__enhanced_imei_check.L14b
p749
aVtc_281_011_Activate_bearer__Handover_required_while_wf_erab_setup_response.L14b
p750
aVtc_293_040_X2_Based_HO__Downlink_A21_AIS_while_wf_Modify_Bearer_Response.L14b
p751
aVtc_266_011_DownlinkDataNotification_interfering_ISD_sgsn00026976.L14b
p752
aVtc_266_026_DownlinkDataFailureInd_repeat_paging_timer_small_local_restart.L14b
p753
aVtc_256_176_mme_eps_srvcc_ho_source_cs_only_ue_release_request_wf_srvcc_ps_to_cs_complete_notification.L14b
p754
aVtc_268_014_UE_Release_Flow__Downlink_A21_AIS_while_waiting_for_Relase_Access_Bearer_Response.L14b
p755
aVtc_304_236_isc_active_flag_on_control_mode_threshold_exceeded_ignore_replace_s1_wf_initial_context_setup_response.L14b
p756
aVtc_103_1101_resending_AIR_interfering_CLR.L14b
p757
aVtc_103_1142_sx_resend__resend_during_inter_mme_tau_2_pdns.L14b
p758
aVtc_44_071_attach_long_imsi.L14b
p759
aVtc_346_388_handover_intra_2PDN_BCM_sx_only_and_sxgx_location_report.L14b
p760
aVtc_47_001_imsi_attach_ap_loss.L14b
p761
aVtc_238_052_mme_eps_irat_ho_target__tau_request_during_wf_handover_notify.L14b
p762
aVtc_322_161_smooth_move_ef_nas_after_paging_response_ignore.WG14a
p763
aVtc_33_17_isc_rau_authenticating_interrupted_by_subscription_withdrawn.WG14a
p764
aVtc_298_073_s4_nrspca_activate_same_nsapi_of_dedicated_bearer_rab_released.W14b
p765
aVtc_248_128_inter_l_to_w_new_rau_request_intial_ue_received_wf_update_location_resp.W14b
p766
aVtc_26_120_inter_srns_reloc_old_ARP_ggsn_not_support.W14b
p767
aVtc_578_02_check_parse_ebm_and_ci_eci_w.W14b
p768
aVtc_53_139_inter_new_ggsn_decrease_qos_rab_setup_qos_related_reject.W14b
p769
aVtc_103_831_DPR_cause_BUSY.LW
p770
aVtc_103_603_georedundant_modify_diameter_peer.LW
p771
aVtc_250_182_s6d_inter_new_rau_ul_rejected_roaming_not_allowed_remap_on_with_err_diag.LW
p772
aVtc_78_086_intra_rau_intra_plmn_accept_foreign_ms_no_redirect_attempt_flag.LW
p773
aVtc_289_101_multi_pdn_pgw_init_bearer_mod_wf_service_interrupted_by_dbr_with_lbi.LW
p774
aVtc_79_070_activate_reject_rab_fail_qos_cause_36_fallback_streaming.LW
p775
aVtc_11_304_rab_release_mod_with_aace_mtz_with_gmm_info.LW
p776
aVtc_11_548_report_full_rai_feature_turn_on_between_primary_and_secondary_pdp_activation.LW
p777
aVtc_11_585_dual_stack_support_with_nevertrypgw.LW
p778
aVtc_39_601_mas_unsucc_fwd_reloc_resp_mandatory_ie_missing_stop_source.LW
p779
aVtc_256_382_Sv_Path_Mgt__available_MSC_disable_Sv.LW
p780
aVtc_22_041_ac_release.LW
p781
aVtc_303_004_X2_Based_HO__Downlink_A21_AIS_while_wf_TAU_Request_and_Emm_Information_in_nas_nondeliver.LW
p782
aVtc_194_991_downlink_A21_AIS_during_waiting_location_report__idr_flags_ef.LW
p783
aVtc_304_123_uplink_nas_intra_tau_control_mode_threshold_exceeded_usc_detach_wf_icsr.LW
p784
aVtc_324_121_af_service_request_with_data_only_ulr_timeout_3gdt.LW
p785
aVtc_324_239_ef_nas_ignore_update_loc_received_wf_modify_bearer_response.LW
p786
aVtc_318_157_sgw_restart_af_relocation_triggered_by_service_request_fail.LW
p787
aVtc_238_162_mme_eps_irat_Gn_ho_target__Relocation_cancel_when_wf_handover_notify.LW
p788
aVtc_44_871_mme_assoc_reestablish__board_block_sbc.LW
p789
aVtc_326_406_Inter_TAU_Recovery_Unkonwn_GUTI__1xrtt_CS_Registration_Then_CSFB_To_1xRTT.LW
p790
aVtc_241_431_intra_rau_with_bearer_sgw_unchange_2_pdns_with_one_modify_no_response.LW
p791
aVtc_284_351_pdn_connectivity_pb_activate_1_dedicated_bearer_interrupted_by_path_switch_request.LW
p792
aVtc_23_21_rat_type_utran.LW
p793
aVtc_96_024_intra_sgsn_intra_ra_psho_llc_pdu_arrives_no_psho_complete_t14_expiry.G14b
p794
aVtc_11_232_activate_primary_after_LR_III.W14b
p795
aVtc_241_1636_israu_new_modify_bearer_response_timeout_followed_by_ms_init_deac.W14b
p796
aVtc_31_117_cli_get_subscriber_timeout.W14b
p797
aVtc_329_003_attach_rs_allowed_emergency_plmn_change_ula_fails.L14b
p798
aVtc_225_301_mt_call_active_mode_while_la_updating2.L14b
p799
aVtc_225_350_mt_call_active_mode_ongoing_ims_call.L14b
p800
aVtc_225_609_exp_flow_context_request_while_wf_extended_service_request_idle_mode.L14b
p801
aVtc_225_638_exp_flow_handover_required_inter_while_wf_release_access_bearer_response.L14b
p802
aVtc_225_701_csfb_to_g_without_dtm_in_ecm_idle.L14b
p803
aVtc_346_493_Small_Local_Restart__Terminate_when_UE_S1_release.L14b
p804
aVtc_214_513_combined_attach_after_paging_sms_indicate_no_lu.L14b
p805
aVtc_214_808_mo_sms_active_nas_non_delivery_x2_handover_triggered_HO_all_bearers_fail.L14b
p806
aVtc_214_1004_la_selection_mf_with_la_profile_and_ue_profile.L14b
p807
aVtc_214_1080_la_selection_af_oldmscpreferred_combined_intra_tau_la_with_old_msc_not_available.L14b
p808
aVtc_220_413_csfb_to_1xrtt_in_ecm_connected_handover_required_meanwhile_CBR_received.L14b
p809
aVtc_220_587_csfb_to_1xrtt_in_extended_service_request_during_attach_waiting_for_modify_bearer_response.L14b
p810
aVtc_202_02_ecm_idle_s1_release.L14b
p811
aVtc_276_045_Inter_TAU_New_MME__S1_Reset_while_waiting_for_Identity_Response__enhanced_imei_check.L14b
p812
aVtc_304_121_initial_ue_intra_tau_control_mode_threshold_exceeded_usc_detach_wf_release_request_response.L14b
p813
aVtc_304_103_emergency_intra_tau_success__control_mode_threshold_not_reached.L14b
p814
aVtc_345_221_af__mt_csfb_with_psho__ecm_idle_sgw_relocation_no_cancel_location_from_hss.L14b
p815
aVtc_327_022_recovery_intra_TAU__initial_Detach_Request_while_waiting_for_Ue_Backup_Response.L14b
p816
aVtc_306_1420_ue_trace_function_validation.L14b
p817
aVtc_281_029_Activate_bearer__ERAB_setup_response_s1_inta_system_handover_triggered_resend_2_times.L14b
p818
aVtc_281_060_Activate_bearer__Attach_Request_while_wf_activate_dedicated_eps_bearer_context_accept.L14b
p819
aVtc_274_381_Intra_and_pTAU__Downlink_A21_AIS_while_waiting_for_Authentication_Response.L14b
p820
aVtc_43_040_eNB_configuration_update_mf.L14b
p821
aVtc_238_178_mme_eps_irat_Gn_ho_target__type_c_emc_cancel.L14b
p822
aVtc_293_004_X2_Based_HO__Initial_UE_TAU_Request_from_source_eNodeB_while_wf_TAU_request.L14b
p823
aVtc_295_133_mt_call_during_Intra_S1_HO_Delete_Bearer_Request_while_wf_the_tau.L14b
p824
aVtc_295_130_Intra_S1_HO__Sgw_reloc__Downlink_A21_AIS_while_waiting_for_Delete_Session_Response.L14b
p825
aVtc_257_30_pws_sctp_device_failure.LWG
p826
aVtc_297_313_isc_gn_l_to_g_home_user_rr_cc13.LWG
p827
aVtc_107_101_eth_vlan_cli.LWG
p828
aVtc_159_200_check_ctum_log.LWG
p829
aVtc_256_138_mme_eps_srvcc_ho_source_cs_only_initial_ue_tau_request_wf_srvcc_ps_to_cs_response.LWG
p830
aVtc_79_081_ms_initiated_modification_rnc_does_not_respond_II.LWG
p831
aVtc_334_107_sgw_restart_mf_restoration_trigger_by_ReleaseAccessBearerResponse.LWG
p832
aVtc_47_001_imsi_attach_ap_loss.LWG
p833
aVtc_208_43_interception_after_small_restart.LWG
p834
aVtc_44_871_mme_assoc_reestablish__board_block_sbc.LWG
p835
aVtc_259_83_isd_tads_s4_gsm_act_deact_pdp_context.LWG
p836
aVtc_246_061_israu_new_l_to_g_sgw_change_one_pdn_ubr_before_rau_complete_interfered_by_inter_rau_request.LWG
p837
aVtc_119_202_ospf_interface_opt_vals.LWG
p838
aVtc_329_251_s1_inter_ho_source_rs_restricted.LWG
p839
aVtc_324_069_af_modify_bearer_dedicated_bearer_fail.LWG
p840
aVtc_324_006_mf_ser_req_signaling_after_ack_3gdt.LWG
p841
aVtc_73_06_insert_multiple_pdp_contexts_and_remove_some_of_them.LWG
p842
aVtc_73_39_gtpu_sgsn_send_gnu_echo_request_w.LWG
p843
aVtc_73_41_gtpu_sgsn_dont_send_gpu_echo_request_w.LWG
p844
aVtc_289_070_GW_Init_Bearer_Modification_Flow_two_CBR_one_UBR_while_wf_modify_eps_bearer_context_accept.LWG
p845
aVtc_238_178_mme_eps_irat_Gn_ho_target__type_c_emc_cancel.LWG
p846
aVtc_295_130_Intra_S1_HO__Sgw_reloc__Downlink_A21_AIS_while_waiting_for_Delete_Session_Response.LWG
p847
aVtc_95_3_load_lkf.LWG
p848
aVtc_95_4_load_lkf2.LWG
p849
aVtc_326_207_Intra_TAU_Recovery_with_1xrtt_cs_registration_then_CSFB_to_1xrtt.LWG
p850
aVtc_177_200_test_list_cmd.LWG
p851
aVtc_11_003_activate_primary_sm_status_ignored_test.LWG
p852
aVtc_11_012_activate_same_context_secondary_exists.LWG
p853
aVtc_11_054_activate_reject_secondary_primary_gtpv0.LWG
p854
aVtc_250_67_s6d_activation_with_EPS_data_s4_license_off.LWG
p855
aVtc_327_013_recovery_intra_TAU__initial_Attach_Request_while_waiting_for_Create_Session_Response.LWG
p856
aVtc_666_06_block_rt_board.LWG
p857
aVtc_183_005_itc_folder_file_names.LWG
p858
aVtc_23_36_record_four_cause_codes.LWG
p859
aVtc_23_09_transfer_to_primary_and_change_vip_addr.LWG
p860
aVtc_23_531_eul11m_cdr_format_2011b_no_octet17_18.LWG
p861
aVtc_236_210_W_to_W_Inter_RAU_S4_over_Gn_target_DtSelMode_2_APN_not_in_APN_list_TAC_in_TAC_list.LWG
p862
aVtc_221_035__Selection_Table_Matches_On_TimeSinceUeLocationReported.LWG
p863
aVtc_205_71_03_ss7_M3UA_ASP_counters.LWG
p864
aVtc_218_311_tau_from_sgsn_preserved_gbr_bearer_buffer_1_ubr_1_cbr.LW
p865
aVtc_304_325_PDN_connectivity__control_mode_threshold_exceeded_action_reject_while_s1_intra_handover_ongoing.LW
p866
aVtc_347_030_Inter_HO_Target__Attach_Req_while_waiting_for_CCA_initial.LW
p867
aVtc_322_028_smooth_move_af_no_security_mode_complete.LW
p868
aVtc_326_406_Inter_TAU_Recovery_Unkonwn_GUTI__1xrtt_CS_Registration_Then_CSFB_To_1xRTT.LW
p869
aVtc_329_203_inter_tau_new_rs_restricted_emergency.LW
p870
aVtc_342_079_x3_tcp_fail_during_signalling.LW
p871
aVtc_194_079_cl_subscription_withdrawn_during_ul.LW
p872
aVtc_194_064_activate_loc_not_confirmed_ul_fails_network_failure.LW
p873
aVtc_194_500_Notification_IMEI_change_during_Attach_Procedure.LW
p874
aVtc_346_359_MME_Large_Restart_Origin_State_ID_increased.LW
p875
aVtc_295_113_Intra_S1_HO__SGW_relocation_Service_Request_from_target_while_waiting_for_Handover_Notify.LW
p876
aVtc_276_045_Inter_TAU_New_MME__S1_Reset_while_waiting_for_Identity_Response__enhanced_imei_check.LW
p877
aVtc_276_305_Inter_TAU_New_MME__Downlink_Data_Notification_while_waiting_for_failing_Modify_Bearer_Response.LW
p878
aVtc_294_020_intra_mme_handover_macro_eNB_format_targetId_HeNB_GW_table_matched.LW
p879
aVtc_327_118_recovery_intra_TAU__Delete_Subscriber_Data_while_waiting_for_Update_Location_Answer.LW
p880
aVtc_214_143_combined_attach_emergency_attach.LW
p881
aVtc_11_252_apnresolving_default_apn_hplmn_apn_criteria_si.LW
p882
aVtc_306_1065_ef_seamless_move_target_handle_second_service_request_when_first_service_request_stopped.LW
p883
aVtc_306_1143_ef_seamless_move_target_receive_path_switch_request_wf_location_update_accept.LW
p884
aVtc_306_1358_ef_seamless_move_target_buffer_provide_location_request_frca_timeout_with_lppa.LW
p885
aVtc_340_130_intra_rau_during_validation_move_job_with_trigger_move_configured.WG14a
p886
aVtc_295_124_tau_after_ho_tz_change_emm_information_meanwhile_handover_required_HO_success.L14b
p887
aVtc_346_494_Small_Local_Restart__Terminate_when_UE1_PDN_Connectivity_waiting_for_CCAI_UE2_Location_Report_waiting_for_CCAU.L14b
p888
aVtc_276_045_Inter_TAU_New_MME__S1_Reset_while_waiting_for_Identity_Response__enhanced_imei_check.L14b
p889
aVtc_202_42_type_c_emergency_pdn_ecm_idle.L14b
p890
aVtc_307_022_HSS_Init_QoS_Modification__MBC_partially_failure_no_response_IDLE.L14b
p891
aVtc_288_008_pgw_initiated_bearer_modification_ecm_idle_tau_as_paging_answer.L14b
p892
aVtc_274_381_Intra_and_pTAU__Downlink_A21_AIS_while_waiting_for_Authentication_Response.L14b
p893
aVtc_44_071_attach_long_imsi.L14b
p894
aVtc_44_820_mme_assoc_reestablish__shutdown_s1_mme.L14b
p895
aVtc_44_850_mme_assoc_reestablish__board_restart_s1_mme.L14b
p896
aVtc_44_860_mme_assoc_reestablish__sctp_fe_restart_s1_mme.L14b
p897
aVtc_44_890_mme_assoc_reestablish__service_request_on_reestablished_sctp_association.L14b
p898
aVtc_44_897_mme_assoc_reestablish__emergency_attach.L14b
p899
aVtc_256_175_mme_eps_srvcc_ho_source_cs_only_ue_release_request_wf_srvcc_ps_to_cs_response.L14b
p900
aVtc_326_406_Inter_TAU_Recovery_Unkonwn_GUTI__1xrtt_CS_Registration_Then_CSFB_To_1xRTT.L14b
p901
aVtc_103_832_DPR_cause_REBOOTING.L14b
p902
aVtc_103_903_primary_or_secondary_realm_routing_own_realm.L14b
p903
aVtc_103_1101_resending_AIR_interfering_CLR.L14b
p904
aVtc_304_114_initial_ue_intra_tau_control_mode_threshold_exceeded_usc_ignore_replace_s1.L14b
p905
aVtc_214_806_mo_sms_active_donwlink_nas_transport_meanwhile_handover_required_HO_success.L14b
p906
aVtc_347_134_Seamless_Move_Target__DDN_with_imsi_while_waiting_for_CCA_initial.L14b
p907
aVtc_43_040_eNB_configuration_update_mf.L14b
p908
aVtc_43_101__removal_of_disconnected_eNodeBs__CLI_removal.L14b
p909
aVtc_43_105__alarm_after_restart.L14b
p910
aVtc_208_43_interception_after_small_restart.G14b
p911
aVtc_340_130_intra_rau_during_validation_move_job_with_trigger_move_configured.WG14a
p912
aVtc_291_40_action_ue_trace.LWG
p913
aVtc_06_171_apnresolving_apnopid_hplmn_present_apn_criteria_si.LWG
p914
aVtc_326_380_Service_Request_with_unknown_STMSI_multiple_retrieve_responses.LWG
p915
aVtc_326_302_Service_Request_with_unknown_STMSI_max_bearers_PDN_Type_IPv6.LWG
p916
aVtc_11_322_serv_req_data_uplink_data_status_two_serv_req.LWG
p917
aVtc_11_542_report_full_rai_in_update_pdp_ctx_req_ms_init_qos_change.LWG
p918
aVtc_208_43_interception_after_small_restart.LWG
p919
aVtc_195_208_mme_logging_maximum_modify_eps_bearer_context.LWG
p920
aVtc_303_001_MT_CSFB_to_1xRTT_idle__S1_Reset_while_wf_Initial_Context_Setup_Response.LWG
p921
aVtc_183_005_itc_folder_file_names.LWG
p922
aVtc_52_10_inter_old_relocation_cancel_later.LWG
p923
aVtc_329_901_idr_rs_restrict_emergency_type_a.LWG
p924
aVtc_159_200_check_ctum_log.LWG
p925
aVtc_23_09_transfer_to_primary_and_change_vip_addr.LWG
p926
aVtc_324_121_af_service_request_with_data_only_ulr_timeout_3gdt.LWG
p927
aVtc_73_33_gn_gsm_payload_97.LWG
p928
aVtc_44_871_mme_assoc_reestablish__board_block_sbc.LWG
p929
aVtc_07_03_activate_deactivate_two_multiple_two_secondary_subsc_static_ip.LWG
p930
aVtc_84_71_provide_subscriber_location_ef_paging_interrupted_by_rau_req.LWG
p931
aVtc_666_06_block_rt_board.LWG
p932
aVtc_205_71_03_ss7_M3UA_ASP_counters.LWG
p933
aVtc_293_016_X2_Based_HO__UE_Contex_Release_Request_from_Source_while_waiting_for_Modify_Bearer_Response.LWG
p934
aVtc_325_217_inter_old_srns_reloc_s4_to_gn_wf_fwd_reloc_resp_interrupted_by_relocation_cancel_with_ue_lost.LWG
p935
aVtc_337_006_target_not_support_in_w_stop_job_for_lw.LWG
p936
aVtc_298_145_EF_NRSPCA_interfere_Activation.LW
p937
aVtc_23_09_transfer_to_primary_and_change_vip_addr.LW
p938
aVtc_23_24_qos.LW
p939
aVtc_23_30_qos_change_eight_containers.LW
p940
aVtc_23_36_record_four_cause_codes.LW
p941
aVtc_23_41_filter_cause_code_succ_relocation.LW
p942
aVtc_23_525_volume_per_rai_one_qos_change.LW
p943
aVtc_103_701_MME_restarts.LW
p944
aVtc_241_801_israu_interfering_context_request_no_cancel_location_s4.LW
p945
aVtc_327_166_recovery_intra_TAU_SGSN_Context_Request_while_waiting_for_Update_Location_Answer_sgw_change.LW
p946
aVtc_302_040_mo_csfb_to_1xrtt_main_flow_connected.LW
p947
aVtc_306_1308_ef_seamless_move_target_buffer_update_bearer_request.LW
p948
aVtc_268_014_UE_Release_Flow__Downlink_A21_AIS_while_waiting_for_Relase_Access_Bearer_Response.LW
p949
aVtc_326_252_Intra_TAU_Recovery_after_node_restart_then_pool_move.LW
p950
aVtc_326_406_Inter_TAU_Recovery_Unkonwn_GUTI__1xrtt_CS_Registration_Then_CSFB_To_1xRTT.LW
p951
aVtc_203_108_S1_Based_HO_Source_MME_TAU_Request_while_waiting_for_Forward_Relocation_Complete_Notification.LW
p952
aVtc_304_105_intra_tau_success__control_mode_threshold_not_reached.LW
p953
aVtc_265_160_Detach_Flow_NW_init__Ue_moved_to_non_3gpp_while_imsi_detach.LW
p954
aVtc_12_512_pmm_undefined_attach_when_updating_location_interfered_by_rnc_reset.LW
p955
aVtc_231_173_ms_init_detach_interfered_by_cancel_location_withdraw.LW
p956
aVtc_31_064_activate_loc_not_confirmed_ul_fails_network_failure.LW
p957
aVtc_324_386_ef_mt_sms_wf_frcn_wf_frca_wf_ula.LW
p958
aVtc_26_020_activate_primary_Qos_trfclass_background.LW
p959
aVtc_26_076_ms_initiated_pdp_context_no_modification.LW
p960
aVtc_214_1141_la_selection_mf_oldmscpreferred_prau_during_ue_restoration.LW
p961
aVtc_244_535_SLg_Location_Request__Downlink_A21_AIS_wwf_Location_Response_from_ESMLC.LW
p962
aVtc_266_106_service_request_wrong_ta.LW
p963
aVtc_231_173_ms_init_detach_interfered_by_cancel_location_withdraw.W14b
p964
aVtc_12_512_pmm_undefined_attach_when_updating_location_interfered_by_rnc_reset.W14b
p965
a.