(lp0
Vtc_295_130_Intra_S1_HO__Sgw_reloc__Downlink_A21_AIS_while_waiting_for_Delete_Session_Response.LWG
p1
aVtc_194_100_check_gauge_unstable_not_parked.LWG
p2
aVtc_183_005_itc_folder_file_names.LWG
p3
aVtc_218_311_tau_from_sgsn_preserved_gbr_bearer_buffer_1_ubr_1_cbr.LWG
p4
aVtc_159_200_check_ctum_log.LWG
p5
aVtc_33_17_isc_rau_authenticating_interrupted_by_subscription_withdrawn.LWG
p6
aVtc_324_386_ef_mt_sms_wf_frcn_wf_frca_wf_ula.LWG
p7
aVtc_326_244_Intra_TAU_Recovery_fail_default_bearer_fail_to_setup.LWG
p8
aVtc_241_646_intra_rau_with_bearer_sgw_change_with_3gdt_interfer_by_iu_release_req.LWG
p9
aVtc_241_801_israu_interfering_context_request_no_cancel_location_s4.LWG
p10
aVtc_96_tr28287_gsm_handover_rej_when_s4.LWG
p11
aVtc_205_71_03_ss7_M3UA_ASP_counters.LWG
p12
aVtc_11_330_apnresolving_apnopid_hplmn_present_apn_criteria_ga.LWG
p13
aVtc_208_44_attach_detach_imsi_ap_takeover.LWG
p14
aVtc_316_271_RAU_To_S4_SGSN_With_Two_PDN_Connections_Subpool_Id_Change__Delete_UE_Backup.LWG
p15
aVtc_256_138_mme_eps_srvcc_ho_source_cs_only_initial_ue_tau_request_wf_srvcc_ps_to_cs_response.LWG
p16
aVtc_256_140_mme_eps_srvcc_ho_source_cs_only_initial_ue_tau_request_wf_delete_bearer_request.LWG
p17
aVtc_666_06_block_rt_board.LWG
p18
aVtc_220_585_csfb_to_1xrtt_in_ecm_idle_extended_service_request_as_paging_response_downlink_data_notification.LWG
p19
aVtc_31_057_standalone_isd_when_active.LWG
p20
aVtc_23_30_qos_change_eight_containers.LWG
p21
aVtc_23_09_transfer_to_primary_and_change_vip_addr.LWG
p22
aVtc_57_17_summing_counters_with_jobid.LWG
p23
aVtc_329_203_inter_tau_new_rs_restricted_emergency.LWG
p24
aVtc_313_003_inter_new_srns_reloc_s16_without_sgw_change_two_pdns_with_dedicate_bearer_without_sgw_node_name.LWG
p25
aVtc_268_014_UE_Release_Flow__Downlink_A21_AIS_while_waiting_for_Relase_Access_Bearer_Response.LWG
p26
aVtc_324_069_af_modify_bearer_dedicated_bearer_fail.WG14a
p27
aVtc_166_269_israu_new_dt_apn_list_empty_mode_3.WG14a
p28
aVtc_322_161_smooth_move_ef_nas_after_paging_response_ignore.WG14a
p29
aVtc_241_405_israu_new_with_16m_flag_allowed_in_context_response_and_epc_cap_in_rau_req_transfer_to_new_tcw.W14b
p30
aVtc_31_024_rau_ul_fails_operator_determined_barring.W14b
p31
aVtc_53_410_inter_new_srns_reloc_subscription_restriction_odb_bit_15.W14b
p32
aVtc_293_004_X2_Based_HO__Initial_UE_TAU_Request_from_source_eNodeB_while_wf_TAU_request.L14b
p33
aVtc_302_052_mt_csfb_to_1xrtt_main_flow_idle_first_page_fails.L14b
p34
aVtc_327_020_recovery_intra_TAU__uplink_Detach_Request_while_waiting_for_Modify_Bearer_Response.L14b
p35
aVtc_266_011_DownlinkDataNotification_interfering_ISD_sgsn00026976.L14b
p36
aVtc_266_026_DownlinkDataFailureInd_repeat_paging_timer_small_local_restart.L14b
p37
aVtc_276_045_Inter_TAU_New_MME__S1_Reset_while_waiting_for_Identity_Response__enhanced_imei_check.L14b
p38
aVtc_225_321_mt_call_active_mode_nas_non_delivery__cs_service_notification__handover_required_meanwhile_CBR_received.L14b
p39
aVtc_214_1099_la_selection_mf_reselection_combined_tau_with_imsi_attach_after_mme_triggered_imsi_detach_when_handling_sgs_paging.L14b
p40
aVtc_304_114_initial_ue_intra_tau_control_mode_threshold_exceeded_usc_ignore_replace_s1.L14b
p41
aVtc_326_219_Intra_TAU_Recovery_then_rim_source_mme_gn_sgsn_selection_table_not_matched_dns_query_success.L14b
p42
aVtc_326_406_Inter_TAU_Recovery_Unkonwn_GUTI__1xrtt_CS_Registration_Then_CSFB_To_1xRTT.L14b
p43
aVtc_211_024_streamed_cell_trace_mapping_alarm_ipv6.L14b
p44
aVtc_244_535_SLg_Location_Request__Downlink_A21_AIS_wwf_Location_Response_from_ESMLC.L14b
p45
aVtc_306_1065_ef_seamless_move_target_handle_second_service_request_when_first_service_request_stopped.L14b
p46
aVtc_268_014_UE_Release_Flow__Downlink_A21_AIS_while_waiting_for_Relase_Access_Bearer_Response.L14b
p47
aVtc_303_002_Service_Request__Downlink_A21_AIS_while_wf_Initial_Context_Setup_Response__Extended_Service_Request_while_wf_Initial_Context_Setup_Response.L14b
p48
aVtc_44_201_sctp_endpoint_config__modify_rt_Diameter.L14b
p49
aVtc_44_831_mme_assoc_reestablish__local_ep_restart_sbc.L14b
p50
aVtc_43_040_eNB_configuration_update_mf.L14b
p51
aVtc_208_43_interception_after_small_restart.G14b
p52
aVtc_12_134_attach_with_extended_mmumoc_iu_inactivity_timer.LW
p53
aVtc_276_045_Inter_TAU_New_MME__S1_Reset_while_waiting_for_Identity_Response__enhanced_imei_check.LW
p54
aVtc_241_405_israu_new_with_16m_flag_allowed_in_context_response_and_epc_cap_in_rau_req_transfer_to_new_tcw.LW
p55
aVtc_257_01_pws_etws_main_flow_write_replace_warning_request_with_ta_list.LW
p56
aVtc_306_1045_ef_seamless_move_target_receive_cancel_location_withdraw_wf_lur_and_service_request_without_emergency_pdn.LW
p57
aVtc_306_1231_ef_seamless_move_target_receive_attach_request_wf_frcn.LW
p58
aVtc_11_189_ms_initiated_modification_iu_release_during_rnc_modify.LW
p59
aVtc_304_215_inter_tau_same_ie_control_mode_threshold_exceeded_reject_wf_icsr.LW
p60
aVtc_326_247_Intra_TAU_Recovery_fail_Modify_Bearer_timeout_active_flag.LW
p61
aVtc_326_406_Inter_TAU_Recovery_Unkonwn_GUTI__1xrtt_CS_Registration_Then_CSFB_To_1xRTT.LW
p62
aVtc_346_1014_AF__seamless_move_target_ula_time_out.LW
p63
aVtc_44_871_mme_assoc_reestablish__board_block_sbc.LW
p64
aVtc_294_023_intra_mme_handover_HeNB_format_targetId_HeNB_GW_table_matched.LW
p65
aVtc_294_431_s1_intra_ho_tac_based_roaming_restriction_table_matched_blacklist_exemptedlist.LW
p66
aVtc_44_071_attach_long_imsi.LW
p67
aVtc_12_181_wcdma_repeat_paging_step_60_worker_parks.LW
p68
aVtc_194_079_cl_subscription_withdrawn_during_ul.LW
p69
aVtc_194_080_cl_update_procedure_during_auth.LW
p70
aVtc_194_065_activate_loc_not_confirmed_ul_fails_other_failure.LW
p71
aVtc_194_171_hss_reset_ue_activity_tau_request.LW
p72
aVtc_282_131_deactivate_default_bearer.LW
p73
aVtc_324_327_ef_service_req_data_direct_transfer_ingore.LW
p74
aVtc_23_41_filter_cause_code_succ_relocation.LW
p75
aVtc_311_204_intra_srns_reloc_s4_sgw_change_wf_reloc_req_ack_interrupted_by_cancel_loc_subscrip_withdrawn.LW
p76
aVtc_103_831_DPR_cause_BUSY.LW
p77
aVtc_219_131_s3_handover_w_to_l_with_cl_two_pdns_one_failed_sgw_relocation.LW
p78
aVtc_79_059_service_req_rnc_change.LW
p79
aVtc_79_064_activate_reject_rab_fail_qos_cause_22_fallback_streaming.LW
p80
aVtc_85_27_downlink_data_arrival_during_lcs_paging.LW
p81
aVtc_303_001_MT_CSFB_to_1xRTT_idle__S1_Reset_while_wf_Initial_Context_Setup_Response.LW
p82
aVtc_303_004_X2_Based_HO__Downlink_A21_AIS_while_wf_TAU_Request_and_Emm_Information_in_nas_nondeliver.LW
p83
aVtc_11_241_rab_release_request_interrupted_by_iu_release.LW
p84
aVtc_11_542_report_full_rai_in_update_pdp_ctx_req_ms_init_qos_change.LW
p85
aVtc_276_045_Inter_TAU_New_MME__S1_Reset_while_waiting_for_Identity_Response__enhanced_imei_check.LW
p86
aVtc_26_011_activate_primary_requested_qos_zero_subscribed_background.LW
p87
aVtc_26_013_activate_primary_requested_qos_set_to_zero_subscribed_streaming.LW
p88
aVtc_26_025_activate_release_rab_streaming_context.LW
p89
aVtc_202_42_type_c_emergency_pdn_ecm_idle.LW
p90
aVtc_202_102_small_restart.LW
p91
aVtc_304_266_tau_from_gnsgsn_2g_control_mode_wf_delete_all_bearers_response_exception_case_reject_congestion_subscriber_cancelled.LW
p92
aVtc_297_407_move_at_periodic_rau.G14b
p93
aVtc_208_43_interception_after_small_restart.G14b
p94
aVtc_246_061_israu_new_l_to_g_sgw_change_one_pdn_ubr_before_rau_complete_interfered_by_inter_rau_request.G14b
p95
aVtc_225_312_mt_call_active_mode_nas_non_delivery__s1_intra_system_handover_triggered_resend_2_times.L14b
p96
aVtc_293_004_X2_Based_HO__Initial_UE_TAU_Request_from_source_eNodeB_while_wf_TAU_request.L14b
p97
aVtc_293_041_X2_Based_HO__Sgw_reloc__Downlink_A21_AIS_while_wf_Delete_Session_Response.L14b
p98
aVtc_262_203_guti_attach_when_unauthenticated_attached.L14b
p99
aVtc_327_600_Inter_TAU_Recovery__Attach_Request_IMSI_while_waiting_for_ue_backup_retrieval_Response.L14b
p100
aVtc_304_116_initial_ue_intra_tau_control_mode_threshold_exceeded_usc_reject_intruder_wf_icsr.L14b
p101
aVtc_304_109_initial_ue_intra_tau_control_mode_threshold_exceeded_usc_detach_then_reattach.L14b
p102
aVtc_103_1101_resending_AIR_interfering_CLR.L14b
p103
aVtc_194_991_downlink_A21_AIS_during_waiting_location_report__idr_flags_ef.L14b
p104
aVtc_220_593_csfb_to_1xrtt_context_request_during_extended_service_request.L14b
p105
aVtc_326_406_Inter_TAU_Recovery_Unkonwn_GUTI__1xrtt_CS_Registration_Then_CSFB_To_1xRTT.L14b
p106
aVtc_244_806_mt_lr_donwlink_generic_nas_transport_meanwhile_handover_required_HO_success.L14b
p107
aVtc_43_101__removal_of_disconnected_eNodeBs__CLI_removal.L14b
p108
aVtc_310_220_ef__Ue_Release_Request_wf_PS_to_CS_Response_and_FR_Response.L14b
p109
aVtc_310_301_ef__Cancel_Location_wf_PS_to_CS_Complete_and_FR_Complete.L14b
p110
aVtc_289_066_Modify_bearer__UE_context_modification_failure_s1_intra_system_ho_triggered_two_pdn_SGW_send_new_UBR_before_ho_end.L14b
p111
aVtc_256_104_mme_eps_srvcc_ho_source_cs_only_sgsn_context_request_wf_srvcc_ps_to_cs_response.L14b
p112
aVtc_281_009_Activate_bearer__Handover_Required_while_wf_eps_bearer_context_accept.L14b
p113
aVtc_281_029_Activate_bearer__ERAB_setup_response_s1_inta_system_handover_triggered_resend_2_times.L14b
p114
aVtc_203_004_mme_eps_handover_source_inter__no_cancel_location.L14b
p115
aVtc_295_130_Intra_S1_HO__Sgw_reloc__Downlink_A21_AIS_while_waiting_for_Delete_Session_Response.L14b
p116
aVtc_340_130_intra_rau_during_validation_move_job_with_trigger_move_configured.WG14a
p117
aVtc_29_005_activate_g_rau_w_when_data_not_confirmed.WG14a
p118
aVtc_322_161_smooth_move_ef_nas_after_paging_response_ignore.W14b
p119
aVtc_236_105_s4_3gdt_based_on_sr_DtServiceFrequency_change_from_true_to_false.W14b
p120
aVtc_26_170_activate_primary_pdp_with_higher_pec_pev_than_policymap_s4.W14b
p121
aVtc_334_101_sgw_restart_mf_one_pdn_locally_delete_not_in_APNList.LWG
p122
aVtc_73_02_send_payload_during_dp_reload.LWG
p123
aVtc_306_1102_ef_seamless_move_target_ecm_idle_receive_sgs_paging_with_cs_call_indicator.LWG
p124
aVtc_97_018_inter_sgsn_psho_mf_two_pdps_one_pfc.LWG
p125
aVtc_347_055_Intra_HO_S1__Location_Report_from_source_BCM_Sx_only_while_waiting_for_Handover_Request_Ack.LWG
p126
aVtc_256_176_mme_eps_srvcc_ho_source_cs_only_ue_release_request_wf_srvcc_ps_to_cs_complete_notification.LWG
p127
aVtc_666_06_block_rt_board.LWG
p128
aVtc_119_202_ospf_interface_opt_vals.LWG
p129
aVtc_236_039_s4_3gdt_detach_during_waiting_for_modify_bearer_rsp_in_active_procedure.LWG
p130
aVtc_26_055_activate_primary_remove_referenced_policy_map.LWG
p131
aVtc_220_403_csfb_to_1xrtt_in_ecm_connected_path_switch_request_HO_success.LWG
p132
aVtc_326_406_Inter_TAU_Recovery_Unkonwn_GUTI__1xrtt_CS_Registration_Then_CSFB_To_1xRTT.LWG
p133
aVtc_326_504_Recovery_for_DDN__Retrieval_multiple_responses_and_Paging.LWG
p134
aVtc_194_1554_HSS_initiated_ISD_in_Connected_mode_when_current_CSG_Id_removed__TAU_Request.LWG
p135
aVtc_44_871_mme_assoc_reestablish__board_block_sbc.LWG
p136
aVtc_177_200_test_list_cmd.LWG
p137
aVtc_159_200_check_ctum_log.LWG
p138
aVtc_272_004_adaptive_paging_dl_selectbyimei.LWG
p139
aVtc_327_552_Recovery_for_DDN__Service_Request_while_waiting_for_Ue_Backup_Response.LWG
p140
aVtc_327_173_recovery_intra_TAU_SGSN_Context_Request_while_waiting_for_Initial_Context_Setup_Response.LWG
p141
aVtc_183_005_itc_folder_file_names.LWG
p142
aVtc_28_002_mo_sms_service_request.LWG
p143
aVtc_263_023_Attach_Flow__Attach_Request_Different_IEs_IP_OK_while_waiting_for_Modify_Bearer_Response.LWG
p144
aVtc_219_131_s3_handover_w_to_l_with_cl_two_pdns_one_failed_sgw_relocation.LWG
p145
aVtc_294_023_intra_mme_handover_HeNB_format_targetId_HeNB_GW_table_matched.LWG
p146
aVtc_218_311_tau_from_sgsn_preserved_gbr_bearer_buffer_1_ubr_1_cbr.LWG
p147
aVtc_297_407_move_at_periodic_rau.LWG
p148
aVtc_205_71_03_ss7_M3UA_ASP_counters.LWG
p149
aVtc_11_003_activate_primary_sm_status_ignored_test.LWG
p150
aVtc_11_014_activate_same_context_identical.LWG
p151
aVtc_11_023_activate_2_primary_pdp_context_static_address_ipv6.LWG
p152
aVtc_11_055_activate_context_without_apn_using_defaultApn.LWG
p153
aVtc_298_145_EF_NRSPCA_interfere_Activation.LWG
p154
aVtc_183_005_itc_folder_file_names.LWG
p155
aVtc_166_134_israu_new_3gdt_incompatible_ggsn.LWG
p156
aVtc_166_224_error_indication_from_rnc_streaming_dl_payload.LWG
p157
aVtc_327_106_recovery_intra_TAU__Cancel_Location_subscription_withdrawal_while_waiting_for_Modify_Bearer_Response.LWG
p158
aVtc_319_021_pdn_connectivity_mf_static_selection_on_table_not_matched.LWG
p159
aVtc_203_108_S1_Based_HO_Source_MME_TAU_Request_while_waiting_for_Forward_Relocation_Complete_Notification.LWG
p160
aVtc_203_324_mme_eps_ho_source_type_d__TAU_Request_while_wf_Forw_Reloc_Comp_Notification.LWG
p161
aVtc_263_110_Attach_Flow__UE_Context_Release_Request_User_Inactivity_while_waiting_for_Modify_Bearer_Response.LWG
p162
aVtc_263_242_Attach_Flow__Attach_Request_with_diff_IE_while_waiting_for_gts_identification_response.LWG
p163
aVtc_280_131_activate_dedicated_bearer_timeout_s1ap.LWG
p164
aVtc_23_09_transfer_to_primary_and_change_vip_addr.LWG
p165
aVtc_262_020_imsi_attach_fails_check_mobility_log.LWG
p166
aVtc_262_068_attach_complete_before_initial_context_setup_response.LWG
p167
aVtc_262_114_emergency_type_d_attach_ni_lr_fail.LWG
p168
aVtc_262_301_attach__downgrade_ApnAMBR_due_to_apn_based_qos_policy_profile_for_imsins.LWG
p169
aVtc_310_106_af__CC_Permanent_session_leg_establishment_error_in_response_from_MSC.LWG
p170
aVtc_238_231_mme_eps_irat_Gn_ho_target_macro_eNB_format_targetid_HeNB_GW_table_matched.LWG
p171
aVtc_205_71_03_ss7_M3UA_ASP_counters.LWG
p172
aVtc_33_17_isc_rau_authenticating_interrupted_by_subscription_withdrawn.LWG
p173
aVtc_298_145_EF_NRSPCA_interfere_Activation.LWG
p174
aVtc_231_173_ms_init_detach_interfered_by_cancel_location_withdraw.LWG
p175
aVtc_267_003_Service_Request__Attach_Request_while_waiting_for_Service_Request.LWG
p176
aVtc_267_216_Service_Request__PDN_Connectivity_Request_while_waiting_for_Modify_Bearer_Response.LWG
p177
aVtc_267_507_Service_Request_SGW_unavailable__2_PDNs_Extended_Service_Request_while_wf_Create_Session_Response.LWG
p178
aVtc_290_035_Timer_Based_GBR_Deact__extended_service_request_wf_ue_context_release_complete_before_timer_expires.LWG
p179
aVtc_132_002_create_ip_interface_eth.LWG
p180
aVtc_265_020_Detach_Flow_UE_init__Insert_Subscriber_Data_with_ODB_bit0_while_waiting_for_Delete_Session_Response.LWG
p181
aVtc_257_21_pws_etws_write_replace_warning_request_with_unknown_tai.LWG
p182
aVtc_211_024_streamed_cell_trace_mapping_alarm_ipv6.LWG
p183
aVtc_159_200_check_ctum_log.LWG
p184
aVtc_318_108_sgw_restart_mf_one_pdn_with_relocate.LWG
p185
aVtc_335_31_wifi_to_mobility_in_ecm_idle_af__cells_from_eNB_more_than_from_WIC.LWG
p186
aVtc_335_124_IMSI_Attach_AF.LWG
p187
aVtc_241_801_israu_interfering_context_request_no_cancel_location_s4.LWG
p188
aVtc_304_103_emergency_intra_tau_success__control_mode_threshold_not_reached.LWG
p189
aVtc_220_040_csfb_to_1xrtt_in_ecm_connected_s1_reset_wf_ue_context_modification_response.LWG
p190
aVtc_314_086_hss_init_qos_mod_wf_ubr_ef_ms_initiated_detach_request.LWG
p191
aVtc_266_300_Service_Request_SGW_unavailable__two_pdn.LWG
p192
aVtc_326_312_Service_Request_with_unknown_STMSI_1xrtt_cs_registration_timeout.LWG
p193
aVtc_326_303_Service_Request_with_unknown_STMSI_found_backup_in_itself_emergency_PDN.LWG
p194
aVtc_326_351_Service_Request_with_unknown_STMSI_ownSubPool_found_backup_in_itself.LWG
p195
aVtc_326_406_Inter_TAU_Recovery_Unkonwn_GUTI__1xrtt_CS_Registration_Then_CSFB_To_1xRTT.LWG
p196
aVtc_326_505_Recovery_for_DDN__after_node_restart_Retrieval_and_Paging_no_response.LWG
p197
aVtc_666_02_reboot_ss7_board.LWG
p198
aVtc_11_011_activate_same_context_diff_pdp_type.LWG
p199
aVtc_11_012_activate_same_context_secondary_exists.LWG
p200
aVtc_11_004_activate_primary_pdp_context_gtpv0.LWG
p201
aVtc_11_122_sgsn_initiated_pdp_context_modification_no_ggsn_response.LWG
p202
aVtc_44_071_attach_long_imsi.LWG
p203
aVtc_44_004_small_restart__sctp_fe_restart.LWG
p204
aVtc_264_025_imsi_detach_power_off.LWG
p205
aVtc_202_17_service_request_during_release_access_bearers.LWG
p206
aVtc_293_004_X2_Based_HO__Initial_UE_TAU_Request_from_source_eNodeB_while_wf_TAU_request.L14b
p207
aVtc_293_241_X2_Based_HO__location_report_while_wf_update_location_wf_location_update.L14b
p208
aVtc_346_448_AF__Intra_TAU_CCA_Update_authentication_rejected_4001.L14b
p209
aVtc_327_022_recovery_intra_TAU__initial_Detach_Request_while_waiting_for_Ue_Backup_Response.L14b
p210
aVtc_276_045_Inter_TAU_New_MME__S1_Reset_while_waiting_for_Identity_Response__enhanced_imei_check.L14b
p211
aVtc_195_406_ue_trace_start_meanwhile_handover_required.L14b
p212
aVtc_202_41_type_a_emergency_pdn_ecm_idle.L14b
p213
aVtc_44_840_mme_assoc_reestablish__device_restart_s1_mme.L14b
p214
aVtc_263_241_Attach_Flow__Attach_Request_with_diff_IE_while_waiting_for_identification_response.L14b
p215
aVtc_103_840_error_code_UNRECOGNIZED_CLASS_in_answer_Result_Code.L14b
p216
aVtc_322_170_smooth_move_ef_gr_cli_delete_subscriber_data_wf_frr.WG14a
p217
aVtc_73_14_itc_paging_and_store_of_dl_packets_gtp99.WG14a
p218
aVtc_340_130_intra_rau_during_validation_move_job_with_trigger_move_configured.WG14a
p219
aVtc_236_045_s4_3gdt_iu_release_during_waiting_for_modify_bearer_rsp_in_service_request_procedure.W14b
p220
aVtc_11_216_activate_one_primary_one_secondary_pdp_context_with_limitation_reject.W14b
p221
aVtc_11_645_downlink_gtpu_wf_paging_resp_ef_transfer_service_req_data.W14b
p222
aVtc_85_12_mo_sms.LW
p223
aVtc_43_101__removal_of_disconnected_eNodeBs__CLI_removal.LW
p224
aVtc_103_701_MME_restarts.LW
p225
aVtc_293_006_X2_Based_HO__Insert_subscription_data_from_HSS_while_wf_create_session_response.LW
p226
aVtc_23_09_transfer_to_primary_and_change_vip_addr.LW
p227
aVtc_202_43_type_d_emergency_pdn_ecm_idle.LW
p228
aVtc_202_42_type_c_emergency_pdn_ecm_idle.LW
p229
aVtc_44_897_mme_assoc_reestablish__emergency_attach.LW
p230
aVtc_326_406_Inter_TAU_Recovery_Unkonwn_GUTI__1xrtt_CS_Registration_Then_CSFB_To_1xRTT.LW
p231
aVtc_218_311_tau_from_sgsn_preserved_gbr_bearer_buffer_1_ubr_1_cbr.LW
p232
aVtc_257_17_pws_etws_write_replace_warning_request_rejected_when_olp.LW
p233
aVtc_250_150_isd_with_odb_init_deactivation.LW
p234
aVtc_203_108_S1_Based_HO_Source_MME_TAU_Request_while_waiting_for_Forward_Relocation_Complete_Notification.LW
p235
aVtc_241_801_israu_interfering_context_request_no_cancel_location_s4.LWG
p236
aVtc_06_171_apnresolving_apnopid_hplmn_present_apn_criteria_si.LWG
p237
aVtc_43_011_s1ap_reset_resource_single_id.LWG
p238
aVtc_297_407_move_at_periodic_rau.LWG
p239
aVtc_103_1005_secondary_dpl_used_when_all_peers_in_dpl_unavailable_with_sls.LWG
p240
aVtc_19_43_attach_start_move_intra_rau_move_initiated_complete_to_target.LWG
p241
aVtc_77_5_attach_activate2_g_crash.LWG
p242
aVtc_244_051_mt_lr_delete_bearer_request_received_wf_location_report.LWG
p243
aVtc_159_200_check_ctum_log.LWG
p244
aVtc_318_150_sgw_restart_af_invalid_restart_counter.LWG
p245
aVtc_132_002_create_ip_interface_eth.LWG
p246
aVtc_205_71_03_ss7_M3UA_ASP_counters.LWG
p247
aVtc_110_002_inbound_outbound_pf_rule_cli_mand_vals.LWG
p248
aVtc_203_108_S1_Based_HO_Source_MME_TAU_Request_while_waiting_for_Forward_Relocation_Complete_Notification.LWG
p249
aVtc_12_134_attach_with_extended_mmumoc_iu_inactivity_timer.LWG
p250
aVtc_23_09_transfer_to_primary_and_change_vip_addr.LWG
p251
aVtc_220_021_csfb_to_1xrtt_ue_suspended_delete_bearer_request_not_last_pdn_connection.LWG
p252
aVtc_220_025_csfb_to_1xrtt_ue_suspended_hss_reset.LWG
p253
aVtc_208_43_interception_after_small_restart.LWG
p254
aVtc_289_066_Modify_bearer__UE_context_modification_failure_s1_intra_system_ho_triggered_two_pdn_SGW_send_new_UBR_before_ho_end.LWG
p255
aVtc_345_210_af__mo_csfb_with_psho__ecm_connected_no_cancel_location_from_hss.LWG
p256
aVtc_324_112_af_service_request_default_bearer_fail_in_rab_assignment_non_3gdt.LWG
p257
aVtc_202_43_type_d_emergency_pdn_ecm_idle.LWG
p258
aVtc_11_422_deactivate_primary_pdp_context_with_sm_cause_protocol_error.LWG
p259
aVtc_39_187_detach_trigger_re_attach_new_iu.W14b
p260
aVtc_298_434_ms_init_deact_ef_default_bearer_deact_interfered_by_detach_request.W14b
p261
aVtc_11_259_apnresolving_vplmn_allowed_subscribed_apn_hplmn_apn_criteria_si.W14b
p262
aVtc_246_061_israu_new_l_to_g_sgw_change_one_pdn_ubr_before_rau_complete_interfered_by_inter_rau_request.G14b
p263
aVtc_208_43_interception_after_small_restart.G14b
p264
aVtc_43_101__removal_of_disconnected_eNodeBs__CLI_removal.L14b
p265
aVtc_327_022_recovery_intra_TAU__initial_Detach_Request_while_waiting_for_Ue_Backup_Response.L14b
p266
aVtc_327_600_Inter_TAU_Recovery__Attach_Request_IMSI_while_waiting_for_ue_backup_retrieval_Response.L14b
p267
aVtc_103_1101_resending_AIR_interfering_CLR.L14b
p268
aVtc_103_1140_sx_resend__resend_to_another_sapc.L14b
p269
aVtc_281_029_Activate_bearer__ERAB_setup_response_s1_inta_system_handover_triggered_resend_2_times.L14b
p270
aVtc_326_203_Intra_TAU_after_node_restart_with_two_retrieval_responses_with_SGW_change_with_emergency_PDN.L14b
p271
aVtc_326_311_Service_Request_with_unknown_STMSI_large_restart_sgs_then_csfb_to_UTRAN.L14b
p272
aVtc_295_124_tau_after_ho_tz_change_emm_information_meanwhile_handover_required_HO_success.L14b
p273
aVtc_293_241_X2_Based_HO__location_report_while_wf_update_location_wf_location_update.L14b
p274
aVtc_293_041_X2_Based_HO__Sgw_reloc__Downlink_A21_AIS_while_wf_Delete_Session_Response.L14b
p275
aVtc_276_045_Inter_TAU_New_MME__S1_Reset_while_waiting_for_Identity_Response__enhanced_imei_check.L14b
p276
aVtc_214_503_mt_sms_while_wf_lu_accept.L14b
p277
aVtc_194_100_check_gauge_unstable_not_parked.L14b
p278
aVtc_217_850_rau_to_sgsn_and_tau_back_to_mme_check_detach_register_table.LW
p279
aVtc_241_1636_israu_new_modify_bearer_response_timeout_followed_by_ms_init_deac.LW
p280
aVtc_241_801_israu_interfering_context_request_no_cancel_location_s4.LW
p281
aVtc_289_111_multi_pdns_wf_ERAB_Modify_Resp_timeout.LW
p282
aVtc_11_150_rab_reestablish_on_service_request_data_multiple_contexts.LW
p283
aVtc_11_542_report_full_rai_in_update_pdp_ctx_req_ms_init_qos_change.LW
p284
aVtc_11_535_ser_req_interfer_activate_2_multiple_primary_pdp_context.LW
p285
aVtc_219_131_s3_handover_w_to_l_with_cl_two_pdns_one_failed_sgw_relocation.LW
p286
aVtc_23_21_rat_type_utran.LW
p287
aVtc_23_09_transfer_to_primary_and_change_vip_addr.LW
p288
aVtc_231_113_rnc_reset_during_ms_act_si_ms_deact_rnc_contact.LW
p289
aVtc_246_061_israu_new_l_to_g_sgw_change_one_pdn_ubr_before_rau_complete_interfered_by_inter_rau_request.G14b
p290
aVtc_238_162_mme_eps_irat_Gn_ho_target__Relocation_cancel_when_wf_handover_notify.L14b
p291
aVtc_243_331_tau_from_sgsn_s3_emergency_type_d_no_restriction.L14b
p292
aVtc_220_413_csfb_to_1xrtt_in_ecm_connected_handover_required_meanwhile_CBR_received.L14b
p293
aVtc_304_266_tau_from_gnsgsn_2g_control_mode_wf_delete_all_bearers_response_exception_case_reject_congestion_subscriber_cancelled.L14b
p294
aVtc_293_040_X2_Based_HO__Downlink_A21_AIS_while_wf_Modify_Bearer_Response.L14b
p295
aVtc_271_006_sctp_paging_olp_stop_discarding_all_paging_under_pagingOlpDiscardAllCpuThreshold.L14b
p296
aVtc_274_381_Intra_and_pTAU__Downlink_A21_AIS_while_waiting_for_Authentication_Response.L14b
p297
aVtc_266_020_DownlinkDataFailureInd_repeat_paging_timer_on.L14b
p298
aVtc_273_016_tau_intra_normal_idle_authentication_no_security_mode_complete.L14b
p299
aVtc_214_1099_la_selection_mf_reselection_combined_tau_with_imsi_attach_after_mme_triggered_imsi_detach_when_handling_sgs_paging.L14b
p300
aVtc_327_019_recovery_intra_TAU__uplink_Detach_Request_while_waiting_for_Create_Session_Response.L14b
p301
aVtc_276_045_Inter_TAU_New_MME__S1_Reset_while_waiting_for_Identity_Response__enhanced_imei_check.L14b
p302
aVtc_276_270_Inter_TAU_New_MME__Update_Bearer_Request_while_waiting_for_tau_timeout_s1_reset.L14b
p303
aVtc_303_002_Service_Request__Downlink_A21_AIS_while_wf_Initial_Context_Setup_Response__Extended_Service_Request_while_wf_Initial_Context_Setup_Response.L14b
p304
aVtc_340_130_intra_rau_during_validation_move_job_with_trigger_move_configured.WG14a
p305
aVtc_324_131_af_service_request_data_isd_timeout_3gdt.WG14a
p306
aVtc_159_200_check_ctum_log.LWG
p307
aVtc_16_032_intra_rau_tz_changed_after_rau_accept.LWG
p308
aVtc_12_134_attach_with_extended_mmumoc_iu_inactivity_timer.LWG
p309
aVtc_322_001_smooth_move_mf_idle.LWG
p310
aVtc_666_06_block_rt_board.LWG
p311
aVtc_326_482_Inter_TAU_Recovery_Unknown_GUTI__Then_Disconnect_One_PDN.LWG
p312
aVtc_73_40_gtpu_sgsn_send_gpu_echo_request_w.LWG
p313
aVtc_96_012_intra_sgsn_intra_ra_psho_llc_pdu_arrives_before_psho_complete.LWG
p314
aVtc_327_373_recovery_service_request__initial_extended_service_request_while_waiting_for_Location_Update_Response.LWG
p315
aVtc_275_037_tau_inter_new_bearer_status_mismatch.LWG
p316
aVtc_259_78_ef_isd_ms_init_detach_s4_w.LWG
p317
aVtc_23_39_get_cause_codes_from_rab_assignment_response.LWG
p318
aVtc_241_067_israu_new_s4_to_s4_illegal_me_in_imei_check_after_israu.LWG
p319
aVtc_250_105_ignore_IDR_when_EPS_sub_downgrade_GPRS_sub.LWG
p320
aVtc_324_225_ef_detach_request_abort_wf_rab_assignment_response_wf_update_location_hss_service_req_data.LWG
p321
aVtc_298_073_s4_nrspca_activate_same_nsapi_of_dedicated_bearer_rab_released.LWG
p322
aVtc_298_783_S4_3GDT_downlink_data_notification_wait_MBR_ef_detach.LWG
p323
aVtc_205_71_03_ss7_M3UA_ASP_counters.LWG
p324
aVtc_103_701_MME_restarts.LWG
p325
aVtc_11_067_deactivate_ms_initiated_gtpu_error_indication.LWG
p326
aVtc_11_643_activation_wf_rab_create_resp_ef_iu_reset_then_iu_release_downlink_gtpu.LWG
p327
aVtc_289_103_multi_pdns_pgw_init_bearer_mod_ecm_idle_interrupted_by_dbr_with_lbi.LWG
p328
aVtc_298_317_EF_SIBD_S4_Create_Bearer_Request.LW
p329
aVtc_238_178_mme_eps_irat_Gn_ho_target__type_c_emc_cancel.LW
p330
aVtc_241_1563_intra_rau_with_bearer_sgw_change_wf_DSR_interfere_by_cancel_location.LW
p331
aVtc_241_754_intra_rau_with_multi_bearer_sgw_change_one_context_failed_node_function_deactivate_pdp_after_rau_on.LW
p332
aVtc_241_801_israu_interfering_context_request_no_cancel_location_s4.LW
p333
aVtc_23_23_ms_negative_time_zone.LW
p334
aVtc_103_831_DPR_cause_BUSY.LW
p335
aVtc_103_855_error_code_DIAMETER_CONTRADICTING_AVPS.LW
p336
aVtc_11_259_apnresolving_vplmn_allowed_subscribed_apn_hplmn_apn_criteria_si.LW
p337
aVtc_334_055_pgw_restart_af_multiple_pdns_to_be_deactivated_no_response.LW
p338
aVtc_193_014_service_req_auth_failure_separation_bit.LW
p339
aVtc_193_103_service_req_no_answer_from_hss_emm_cause_17.LW
p340
aVtc_193_192_security_mode_reject_during_attach_with_eia3.LW
p341
aVtc_324_152_af_rab_assignment_resp_downgrade_qos_dedicated_bearer_3gdt_rab_partially_setup.LW
p342
aVtc_218_311_tau_from_sgsn_preserved_gbr_bearer_buffer_1_ubr_1_cbr.LW
p343
aVtc_44_002_small_restart.LW
p344
aVtc_194_188_hss_reset_ef_wait_for_notify_response_with_full_imsi.LW
p345
aVtc_194_991_downlink_A21_AIS_during_waiting_location_report__idr_flags_ef.LW
p346
aVtc_236_043_s4_3gdt_detach_during_waiting_for_release_bearer_rsp_in_rab_release_procedure.LW
p347
aVtc_298_073_s4_nrspca_activate_same_nsapi_of_dedicated_bearer_rab_released.W14b
p348
aVtc_298_074_s4_nrspca_activate_same_nsapi_of_dedicated_bearer_apn_failed.W14b
p349
aVtc_322_161_smooth_move_ef_nas_after_paging_response_ignore.W14b
p350
aVtc_241_710_intra_rau_dedicate_bearer_update_failed_and_pgw_delete_bearer_after_rau.W14b
p351
aVtc_248_128_inter_l_to_w_new_rau_request_intial_ue_received_wf_update_location_resp.W14b
p352
aVtc_231_113_rnc_reset_during_ms_act_si_ms_deact_rnc_contact.W14b
p353
aVtc_311_204_intra_srns_reloc_s4_sgw_change_wf_reloc_req_ack_interrupted_by_cancel_loc_subscrip_withdrawn.W14b
p354
aVtc_194_071_cli_delete_subscriber_imsi.L14b
p355
aVtc_43_040_eNB_configuration_update_mf.L14b
p356
aVtc_225_321_mt_call_active_mode_nas_non_delivery__cs_service_notification__handover_required_meanwhile_CBR_received.L14b
p357
aVtc_327_012_recovery_intra_TAU__initial_Attach_Request_while_waiting_for_Ue_Backup_Response.L14b
p358
aVtc_293_004_X2_Based_HO__Initial_UE_TAU_Request_from_source_eNodeB_while_wf_TAU_request.L14b
p359
aVtc_244_535_SLg_Location_Request__Downlink_A21_AIS_wwf_Location_Response_from_ESMLC.L14b
p360
aVtc_268_014_UE_Release_Flow__Downlink_A21_AIS_while_waiting_for_Relase_Access_Bearer_Response.L14b
p361
aVtc_276_045_Inter_TAU_New_MME__S1_Reset_while_waiting_for_Identity_Response__enhanced_imei_check.L14b
p362
aVtc_257_10_pws_etws_write_replace_warning_request_feature_off.L14b
p363
aVtc_281_029_Activate_bearer__ERAB_setup_response_s1_inta_system_handover_triggered_resend_2_times.L14b
p364
aVtc_103_1101_resending_AIR_interfering_CLR.L14b
p365
aVtc_44_071_attach_long_imsi.L14b
p366
aVtc_303_004_X2_Based_HO__Downlink_A21_AIS_while_wf_TAU_Request_and_Emm_Information_in_nas_nondeliver.L14b
p367
aVtc_304_114_initial_ue_intra_tau_control_mode_threshold_exceeded_usc_ignore_replace_s1.L14b
p368
aVtc_304_266_tau_from_gnsgsn_2g_control_mode_wf_delete_all_bearers_response_exception_case_reject_congestion_subscriber_cancelled.L14b
p369
aVtc_274_380_Intra_and_pTAU__Downlink_A21_AIS_while_waiting_for_Create_Session_Response.L14b
p370
aVtc_294_013_intra_s1_ho_without_time_zone_change.LW
p371
aVtc_294_090_eps_handover_6_bearers_modified_5_removed.LW
p372
aVtc_267_509_Service_Request_SGW_unavailable__Context_Request_while_wf_Create_Session_Response.LW
p373
aVtc_276_045_Inter_TAU_New_MME__S1_Reset_while_waiting_for_Identity_Response__enhanced_imei_check.LW
p374
aVtc_306_1113_ef_seamless_move_target_receive_detach_request_without_switchoff_wf_frca.LW
p375
aVtc_306_1379_ef_seamless_move_target_receive_downlink_unitdata_af_lua_wf_service_request_ignore.LW
p376
aVtc_204_121_inter_s1ho_target_macro_eNB_format_targetid_HeNB_GW_table_empty.LW
p377
aVtc_295_113_Intra_S1_HO__SGW_relocation_Service_Request_from_target_while_waiting_for_Handover_Notify.LW
p378
aVtc_288_234_pgw_init_bearer_mod_QoS_eNodeB_says_unknown_default_bearer_one_conn.LW
p379
aVtc_257_11_pws_etws_stop_warning_request_feature_off.LW
p380
aVtc_238_124_mme_eps_irat_ho_target_type_a_update_location_fails.LW
p381
aVtc_23_22_ms_time_zone.LW
p382
aVtc_244_805_mt_lr_donwlink_generic_nas_transport_meanwhile_handover_required_HO_failure.LW
p383
aVtc_39_780_smooth_move_service_request_wf_move_ms_finished.LW
p384
aVtc_327_015_recovery_intra_TAU__initial_Attach_Request_while_waiting_for_Update_Location_Response.LW
p385
aVtc_292_138_x2_ho_with_sgw_relocation_alt_flow_interefering_s1_reset.LW
p386
aVtc_103_1101_resending_AIR_interfering_CLR.LW
p387
aVtc_304_266_tau_from_gnsgsn_2g_control_mode_wf_delete_all_bearers_response_exception_case_reject_congestion_subscriber_cancelled.LW
p388
aVtc_194_960_ue_pdn_disconnect_request_during_waiting_for_location_report__idr_flags_ef.LW
p389
aVtc_194_991_downlink_A21_AIS_during_waiting_location_report__idr_flags_ef.LW
p390
aVtc_282_131_deactivate_default_bearer.LW
p391
aVtc_340_130_intra_rau_during_validation_move_job_with_trigger_move_configured.WG14a
p392
aVtc_28_042_mo_sms_ok_for_home_when_blocked_for_visiting.W14b
p393
aVtc_248_31_inter_l_to_w_new_s4_license_off_in_target_sgsn.W14b
p394
aVtc_289_050_Modify_bearer__UE_context_modification_failure_x2_handover_triggered.LWG
p395
aVtc_289_110_multi_pdns_S1_Reset_while_wf_ERAB_Modify_Resp.LWG
p396
aVtc_347_122_Seamless_Move_Target__Detach_Request_without_switchoff_while_waiting_for_CCA_initial.LWG
p397
aVtc_216_013_icmpv6_inNeighborSol.LWG
p398
aVtc_578_33_check_ebm_para_statistics_enb_sn.LWG
p399
aVtc_298_145_EF_NRSPCA_interfere_Activation.LWG
p400
aVtc_295_095_Intra_S1_HO__TAU_Request_in_new_S1AP_IP_OK_from_Source_while_waiting_for_Handover_Request_Acknowledge.LWG
p401
aVtc_346_025_PGW_Selection__PDN_Connectivity__static_GW_selection_enabled_sapc_fail.LWG
p402
aVtc_346_543_AF__HO_Inter_Target__2PDN_one_receive_diameter_cause_5003.LWG
p403
aVtc_273_304_tau_intra_emergency_ongoing_roaming_restricted_same_configuration.LWG
p404
aVtc_666_02_reboot_ss7_board.LWG
p405
aVtc_159_200_check_ctum_log.LWG
p406
aVtc_238_221_mme_eps_irat_ho_target__handover_from_s4_sgsn_HeNB_format_targetid_HeNB_GW_table_not_matched.LWG
p407
aVtc_23_13_israu_out.LWG
p408
aVtc_23_09_transfer_to_primary_and_change_vip_addr.LWG
p409
aVtc_214_603_Combined_Attach__Reselect_MSC_Since_Location_Update_Reject_With_Cause_Code_Congestion.LWG
p410
aVtc_247_205_inter_w_to_l_old_one_pdn_with_dedicated_bearer_SCDR_generated_for_UE_without_sgw_change.LWG
p411
aVtc_220_420_csfb_to_1xrtt_ue_return_with_service_request_SGW_unavailable.LWG
p412
aVtc_11_013_activate_same_context_secondary_exists_rab_released.LWG
p413
aVtc_11_028_activate_2_primary_pdp_context_static_address_ipv6_same_apn_and_pdpaddress.LWG
p414
aVtc_237_312_mme_eps_irat_Gn_ho_source__type_c_emc_feu_on.LWG
p415
aVtc_205_71_03_ss7_M3UA_ASP_counters.LWG
p416
aVtc_202_42_type_c_emergency_pdn_ecm_idle.LWG
p417
aVtc_17_29_inter_rau_new_one_context_israu_aborted.LWG
p418
aVtc_361_123_s3_handover_l_to_w_handover_cancel_wf_relocation_request_ack.LWG
p419
aVtc_208_43_interception_after_small_restart.LWG
p420
aVtc_306_1008_ef_seamless_move_target_handle_ddn_when_frca_timeout_already_paging.LWG
p421
aVtc_306_1401_ef_seamless_move_target_sgs_reset_indication.LWG
p422
aVtc_219_131_s3_handover_w_to_l_with_cl_two_pdns_one_failed_sgw_relocation.LWG
p423
aVtc_77_5_attach_activate2_g_crash.LWG
p424
aVtc_196_164_nrspca_ongoing_rnc_send_reset.LWG
p425
aVtc_196_005_inter_sgsn_routing_area_update_nrspca_off.LWG
p426
aVtc_297_407_move_at_periodic_rau.LWG
p427
aVtc_314_052_sgsn_init_qos_mod_handover_l_to_w_sgw_change_ambr_downgrade.LWG
p428
aVtc_348_101_israu_new_sgsn_multiple_pdp_with_sx.LWG
p429
aVtc_43_101__removal_of_disconnected_eNodeBs__CLI_removal.LWG
p430
aVtc_30_121_hlr_reset_rau_to_coop_fails.LWG
p431
aVtc_39_601_mas_unsucc_fwd_reloc_resp_mandatory_ie_missing_stop_source.LWG
p432
aVtc_95_4_load_lkf2.LWG
p433
aVtc_259_52_isd_tads_s4_w_pmmidle_inter_rau_l_to_w.LWG
p434
aVtc_31_010_cl_subscription_withdrawn_detached.W14b
p435
aVtc_324_456_ef_detach_request_poweroff_abort_wf_modify_bearer_response_wf_update_location_hlr_ack_timeout.W14b
p436
aVtc_12_183_wcdma_repeat_paging_with_old_ptmsi_N3313_oldptmsi_0.W14b
p437
aVtc_38_80_intra_rau_new_rnc_with_authentication_wrong_ptmsi_signature.W14b
p438
aVtc_208_43_interception_after_small_restart.G14b
p439
aVtc_297_407_move_at_periodic_rau.G14b
p440
aVtc_195_416_ue_trace_deactivate_trace_s1_intra_system_handover_triggered.L14b
p441
aVtc_44_840_mme_assoc_reestablish__device_restart_s1_mme.L14b
p442
aVtc_266_026_DownlinkDataFailureInd_repeat_paging_timer_small_local_restart.L14b
p443
aVtc_220_587_csfb_to_1xrtt_in_extended_service_request_during_attach_waiting_for_modify_bearer_response.L14b
p444
aVtc_327_022_recovery_intra_TAU__initial_Detach_Request_while_waiting_for_Ue_Backup_Response.L14b
p445
aVtc_327_317_recovery_service_request__initial_Attach_Request_while_waiting_for_Sub_Procedure__Initial_Context_Setup_Response.L14b
p446
aVtc_292_134_x2_ho_with_sgw_relocation_dedicated_bearers_failed_in_eNb.L14b
p447
aVtc_79_026_sgsn_init_modification_rnc_not_supporting_modify_II.LW
p448
aVtc_326_252_Intra_TAU_Recovery_after_node_restart_then_pool_move.LW
p449
aVtc_288_101_pgw_init_bearer_mod_one_bad_one_good_one_unknown_one_not_responding_bearer.LW
p450
aVtc_11_090_activate_primary_and_secondary_pdp_context.LW
p451
aVtc_11_144_rab_reestablish_on_downlink_payload_first_paging_fails.LW
p452
aVtc_11_210_miscellaneous_messages_in_wrong_protocol_state_ignored.LW
p453
aVtc_11_225_activate_primary_APN_test_VII.LW
p454
aVtc_11_213_israu_old_is_v97_one_extended_one_short_ti.LW
p455
aVtc_11_614_ggsn_update_during_primary_pdp_activation_sgsn_initiated_modification_buffer_upd_req.LW
p456
aVtc_32_75_test_transfer_2.LW
p457
aVtc_244_535_SLg_Location_Request__Downlink_A21_AIS_wwf_Location_Response_from_ESMLC.LW
p458
aVtc_39_700_interfering_detach_request_3gdt_switchback_target.LW
p459
aVtc_12_134_attach_with_extended_mmumoc_iu_inactivity_timer.LW
p460
aVtc_23_22_ms_time_zone.LW
p461
aVtc_103_831_DPR_cause_BUSY.LW
p462
aVtc_324_386_ef_mt_sms_wf_frcn_wf_frca_wf_ula.LW
p463
aVtc_194_007_cl_update_procedure_unknown_mme.LW
p464
aVtc_194_608_DSD__PDN_subscription_contexts_Withdrawal_Context_Identifier_Missing.LW
p465
aVtc_318_201_idle_deactivate_dedicated_bearers_one_by_one_reactivate_req.LW
p466
aVtc_318_150_sgw_restart_af_invalid_restart_counter.LW
p467
aVtc_26_014_activate_primary_requested_qos_set_to_zero_subscribed_conversational.LW
p468
aVtc_26_023_modification_interrupted_by_insert_subscriber_data_I.LW
p469
aVtc_329_203_inter_tau_new_rs_restricted_emergency.LW
p470
aVtc_236_170_s4_3gdt_activate_primary_pdp_context_odb_bit_15.LW
p471
aVtc_202_421_af_seamless_move_target_initialCtxSetupResponse_noSuccDefaultBearer_implicit_detach.LW
p472
aVtc_218_311_tau_from_sgsn_preserved_gbr_bearer_buffer_1_ubr_1_cbr.LW
p473
aVtc_347_237_GW_Dedicated_Bearer_Deactivate__Location_Report_while_waiting_for_Deactiavte_EPS_Bearer_Context_Accept.LW
p474
aVtc_217_850_rau_to_sgsn_and_tau_back_to_mme_check_detach_register_table.LW
p475
aVtc_73_23_gtp_97_to_gtp_99.WG14a
p476
aVtc_578_02_check_parse_ebm_and_ci_eci_w.WG14a
p477
aVtc_226_028_IMSI_Attach_reject_G_measurement_control_feature_off_on.WG14a
p478
aVtc_256_175_mme_eps_srvcc_ho_source_cs_only_ue_release_request_wf_srvcc_ps_to_cs_response.LWG
p479
aVtc_23_523_volume_per_rai_one_ra_update.LWG
p480
aVtc_24_110_msc_pool_off_comb_proc_on_create_new_msc_to_la_with_no_default_msc.LWG
p481
aVtc_241_801_israu_interfering_context_request_no_cancel_location_s4.LWG
p482
aVtc_342_864_online_change_LI_U.LWG
p483
aVtc_110_001_inbound_outbound_pf_policy_cli.LWG
p484
aVtc_19_43_attach_start_move_intra_rau_move_initiated_complete_to_target.LWG
p485
aVtc_159_200_check_ctum_log.LWG
p486
aVtc_208_43_interception_after_small_restart.LWG
p487
aVtc_11_022_activate_2_multiple_primary_pdp_context_static_address.LWG
p488
aVtc_267_234_Service_Request__Provider_Location_Request_while_wf_security_mode_complete_timeout.LWG
p489
aVtc_205_71_03_ss7_M3UA_ASP_counters.LWG
p490
aVtc_81_002_activate_secondary_conversational.LWG
p491
aVtc_666_02_reboot_ss7_board.LWG
p492
aVtc_666_06_block_rt_board.LWG
p493
aVtc_183_005_itc_folder_file_names.LWG
p494
aVtc_44_071_attach_long_imsi.LWG
p495
aVtc_297_080_intra_rau_ef_authentication_interrupt_by_new_rau_request.LWG
p496
aVtc_259_73_ef_isd_network_init_detach_s4_w.LWG
p497
aVtc_259_112_ef_s6d_tads_interfere_inter_rau_old_g.LWG
p498
aVtc_259_102_ef_tads_s4_interfere_inter_rau_old_g.LWG
p499
aVtc_202_362_mf_seamless_move_by_ue_5_subscribers_2_target_mmes.LWG
p500
aVtc_324_455_ef_detach_request_poweroff_abort_wf_rab_assignment_response_wf_update_location_hss_service_req_data.WG14a
p501
aVtc_27_003_mt_sms.G14b
p502
aVtc_208_43_interception_after_small_restart.G14b
p503
aVtc_297_407_move_at_periodic_rau.G14b
p504
aVtc_103_831_DPR_cause_BUSY.LW
p505
aVtc_298_006_S4_Network_Request_Secondary_PDP_Activation_UE_no_Response_timeout.LW
p506
aVtc_298_317_EF_SIBD_S4_Create_Bearer_Request.LW
p507
aVtc_275_118_tau_inter_new_emergency_erroneous_ie_authenticated_no_imsi.LW
p508
aVtc_211_014_streamed_cell_trace_mapping_alarm.LW
p509
aVtc_44_071_attach_long_imsi.LW
p510
aVtc_44_004_small_restart__sctp_fe_restart.LW
p511
aVtc_256_382_Sv_Path_Mgt__available_MSC_disable_Sv.LW
p512
aVtc_11_275_apnresolving_apnopid_hplmn_present_apn_redirect_default_apn_subscribed.LW
p513
aVtc_11_541_report_full_rai_in_create_pdp_ctx_req_ms_init_secondary_activation.LW
p514
aVtc_220_593_csfb_to_1xrtt_context_request_during_extended_service_request.LW
p515
aVtc_306_1308_ef_seamless_move_target_buffer_update_bearer_request.LW
p516
aVtc_306_1423_ef_seamless_move_target_receive_cancel_location_initial_wf_service_request.LW
p517
aVtc_85_12_mo_sms.LW
p518
aVtc_23_14_multiple_pdp_contexts.LW
p519
aVtc_23_20_max_charging_conditions.LW
p520
aVtc_82_017_rab_release_request_update_ggsn_fails_system_failure.LW
p521
aVtc_250_105_ignore_IDR_when_EPS_sub_downgrade_GPRS_sub.LW
p522
aVtc_322_061_smooth_move_ef_detach_request_wf_frr_connected.LWG
p523
aVtc_293_040_X2_Based_HO__Downlink_A21_AIS_while_wf_Modify_Bearer_Response.LWG
p524
aVtc_257_22_pws_etws_stop_warning_request_with_unknown_tai.LWG
p525
aVtc_284_350_pdn_connectivity_interrupted_by_path_switch_request.LWG
p526
aVtc_306_301_ef_seamless_move_source_connection_oriented_information_wf_source_guti_reallocation_complete.LWG
p527
aVtc_205_71_03_ss7_M3UA_ASP_counters.LWG
p528
aVtc_260_241_receive_sm_start_req_while_wf_m3_stop_resp.LWG
p529
aVtc_159_200_check_ctum_log.LWG
p530
aVtc_324_006_mf_ser_req_signaling_after_ack_3gdt.LWG
p531
aVtc_324_386_ef_mt_sms_wf_frcn_wf_frca_wf_ula.LWG
p532
aVtc_324_239_ef_nas_ignore_update_loc_received_wf_modify_bearer_response.LWG
p533
aVtc_274_042_Intra_and_pTAU__Intra_TAU_other_ta_while_waiting_for_Ue_Release_Complete.LWG
p534
aVtc_95_10_fingerprint.LWG
p535
aVtc_95_7_negative_tests.LWG
p536
aVtc_231_281_activate_pdp_request_ignore_during_s4_pdp_deactivating.LWG
p537
aVtc_236_048_s4_3gdt_deactivation_during_waiting_for_modify_bearer_rsp_in_activation_procedure_no_context.LWG
p538
aVtc_236_169_s4_3gdt_with_2_pdn_9_dedicated_bearer_service_request_all_rab_setup_successful.LWG
p539
aVtc_666_02_reboot_ss7_board.LWG
p540
aVtc_259_77_ef_isd_paging_s4_w.LWG
p541
aVtc_244_050_mt_lr_imei_check_answer_received_wf_location_report.LWG
p542
aVtc_239_112_inter_rau_new_unchanged_sgw_two_pdn_connection_report_sn_off.LWG
p543
aVtc_23_09_transfer_to_primary_and_change_vip_addr.LWG
p544
aVtc_11_012_activate_same_context_secondary_exists.LWG
p545
aVtc_219_131_s3_handover_w_to_l_with_cl_two_pdns_one_failed_sgw_relocation.LWG
p546
aVtc_335_45_wifi_to_mobility_in_ecm_idle_unknown_user_af__no_estimation_response_from_eNB_timeout.L14b
p547
aVtc_262_534_imsi_attach_private_extension_of_lzone_for_roamer.L14b
p548
aVtc_225_315_mt_call_active_mode_nas_non_delivery__cs_service_notification_meanwhile_handover_required.L14b
p549
aVtc_225_321_mt_call_active_mode_nas_non_delivery__cs_service_notification__handover_required_meanwhile_CBR_received.L14b
p550
aVtc_266_020_DownlinkDataFailureInd_repeat_paging_timer_on.L14b
p551
aVtc_44_050_sctp_s1ap_corrupt_data_length_6.L14b
p552
aVtc_346_447_AF__Intra_TAU_CCA_Update_unable_to_comply_5012.L14b
p553
aVtc_195_532_mme_logging_ue_unrechable.L14b
p554
aVtc_202_420_af_seamless_move_target_initialCtxSetupResponse_noSuccDefaultBearer.L14b
p555
aVtc_211_024_streamed_cell_trace_mapping_alarm_ipv6.L14b
p556
aVtc_194_827_normal_attach_insert_odb_data_with_service_granted_guti_attach_success.L14b
p557
aVtc_194_991_downlink_A21_AIS_during_waiting_location_report__idr_flags_ef.L14b
p558
aVtc_257_22_pws_etws_stop_warning_request_with_unknown_tai.L14b
p559
aVtc_274_300_Intra_and_pTAU__PDN_Connectivity_Request_while_wating_for_Modify_Bearer_Response.L14b
p560
aVtc_43_040_eNB_configuration_update_mf.L14b
p561
aVtc_103_850_error_code_DIAMETER_REALM_NOT_SERVED.L14b
p562
aVtc_103_903_primary_or_secondary_realm_routing_own_realm.L14b
p563
aVtc_103_1101_resending_AIR_interfering_CLR.L14b
p564
aVtc_238_052_mme_eps_irat_ho_target__tau_request_during_wf_handover_notify.L14b
p565
aVtc_26_154_activate_secondary_pdp_with_upgradeNotAllowed.W14b
p566
aVtc_322_161_smooth_move_ef_nas_after_paging_response_ignore.W14b
p567
aVtc_231_113_rnc_reset_during_ms_act_si_ms_deact_rnc_contact.W14b
p568
aVtc_31_074_cli_delete_subscriber_hlr.W14b
p569
aVtc_39_187_detach_trigger_re_attach_new_iu.W14b
p570
aVtc_298_527_pgw_init_dedicated_deletion_ef_rab_release_request_wf_deact_pdp_ctx_acc.W14b
p571
aVtc_298_704_pgw_init_modification_ef_ms_deact_req_tdi_false_ti_default_wf_rab_assignment_response.W14b
p572
aVtc_314_055_sgsn_init_qos_mod_inter_rau_w_to_w_sgw_change_ambr_downgrade.W14b
p573
aVtc_314_003_hss_init_qos_modification_qci_arp.W14b
p574
aVtc_322_055_smooth_move_ef_attach_request_wf_ptmsi_reallocation_complete.W14b
p575
aVtc_322_063_smooth_move_ef_detach_request_wf_service_request.W14b
p576
aVtc_31_044_rau_ul_fails_semantic_error_when_data_not_confirmed.W14b
p577
aVtc_241_500_israu_new_gn_to_s4_pdp_to_bearer_one_pdp_conversational_mbr_0.W14b
p578
aVtc_311_204_intra_srns_reloc_s4_sgw_change_wf_reloc_req_ack_interrupted_by_cancel_loc_subscrip_withdrawn.W14b
p579
aVtc_311_161_intra_srns_reloc_s4_with_sgw_change_wf_delete_session_rsp_from_src_sgw_interrupted_by_initiate_detach_request.W14b
p580
aVtc_311_14_intra_srns_reloc_s4_with_sgw_change_with_preserved_default_bearer.W14b
p581
aVtc_311_211_intra_srns_reloc_s4_wf_reloc_req_ack_interrupted_by_downlink_data_notification.W14b
p582
aVtc_39_433_mas_one_pdp_downlink_data_3gdt_upd_loc_ack_b4_upd_pdp_ctx_resp_target.W14b
p583
aVtc_11_223_activate_primary_APN_test_V.W14b
p584
aVtc_324_455_ef_detach_request_poweroff_abort_wf_rab_assignment_response_wf_update_location_hss_service_req_data.W14b
p585
aVtc_313_033_inter_new_srns_reloc_s16_with_pdn_type_ipv6.W14b
p586
aVtc_342_140_update_one_of_two_targets_x2_address.W14b
p587
aVtc_284_421_pdn_connection_apnredirectformultipleapn_sgsndefault_apn_misspelled_same_apn.LW
p588
aVts_336_001_access_request__access_request_while_waiting_for_eab_wifi_decision_response.LW
p589
aVtc_306_012_ef_seamless_move_source_receive_detach_request_wf_service_request.LW
p590
aVtc_306_154_ef_in_af_seamless_move_source_receive_insert_subscription_data_wf_modify_bearer_response.LW
p591
aVtc_348_104_isc_rau_l_to_w_with_sx.LW
p592
aVtc_231_167_detach_request_interfere_sgsn_init_deactivation.LW
p593
aVtc_231_628_activate_reject_with_16m_flag_allowed_ambr_from_sgw_higher_than_policy_map.LW
p594
aVtc_310_117_af__HO_Cancel_before_Response_from_SGSN_after_Response_from_MSC.LW
p595
aVtc_81_004_activate_conversational_sub_streaming.LW
p596
aVtc_81_104_rnc_modify_stream_upgrade_gbr_no_new_resources.LW
p597
aVtc_279_027_tai_list_inter_tau_3_intra_tau_conf_change_tz.LW
p598
aVtc_324_386_ef_mt_sms_wf_frcn_wf_frca_wf_ula.LW
p599
aVtc_298_317_EF_SIBD_S4_Create_Bearer_Request.LW
p600
aVtc_298_428_ms_init_deact_ef_delicated_bearer_deact_interfered_by_update_bearer_request.LW
p601
aVtc_298_688_S4_3GDT_RAB_release_wait_RAB_Assign_Resp_ef_delete_bearer_request.LW
p602
aVtc_304_477_uplink_nas_csfb_to_1xrtt_control_mode_threshold_exceeded_usc_detach_illegal_ue_in_ecm_connected.LW
p603
aVtc_304_328_PDN_connectivity__control_mode_threshold_exceeded_action_reject_during_service_req.LW
p604
aVtc_275_300_tau_inter_new_keep_old_sgw_pvi_pci_downgraded.LW
p605
aVtc_275_630_tau_inter_new_sgw_unavailable_dedicate_bearer_not_supported.LW
p606
aVtc_303_004_X2_Based_HO__Downlink_A21_AIS_while_wf_TAU_Request_and_Emm_Information_in_nas_nondeliver.LW
p607
aVtc_314_055_sgsn_init_qos_mod_inter_rau_w_to_w_sgw_change_ambr_downgrade.LW
p608
aVtc_225_312_mt_call_active_mode_nas_non_delivery__s1_intra_system_handover_triggered_resend_2_times.LW
p609
aVtc_267_303_Service_Request__faulty_message_attach_type_while_waiting_for_Initial_Context_Setup_Response.LW
p610
aVtc_327_022_recovery_intra_TAU__initial_Detach_Request_while_waiting_for_Ue_Backup_Response.LW
p611
aVtc_327_552_Recovery_for_DDN__Service_Request_while_waiting_for_Ue_Backup_Response.LW
p612
aVtc_327_544_recovery_service_request__Msc_Reset_while_waiting_for_Location_Update_Response.LW
p613
aVtc_327_571_Recovery_for_DDN__Delete_Subscriber_while_waiting_for_Paging_Response.LW
p614
aVtc_23_13_israu_out.LW
p615
aVtc_23_19_qos_change.LW
p616
aVtc_23_33_record_only_one_cause_code.LW
p617
aVtc_23_30_qos_change_eight_containers.LW
p618
aVtc_23_38_get_cause_codes_from_rab_release_request_and_iu_release_cmd_cause_diff.LW
p619
aVtc_282_106_mme_initiated_deactivate_bearer_no_response_from_sgw.LW
p620
aVtc_197_080_subscribed_dynamic_pgw.LW
p621
aVtc_318_188_sgw_restart_ef_relocate_interrupt_by_UpdateBearerReq.LW
p622
aVtc_274_100_Intra_and_pTAU__UE_Context_Release_Request_while_waiting_for_Initial_Context_Setup_Response.LW
p623
aVtc_274_381_Intra_and_pTAU__Downlink_A21_AIS_while_waiting_for_Authentication_Response.LW
p624
aVtc_315_006_inter_s1_handover_source_mme_selection_table_not_matched_dns_off.LW
p625
aVtc_322_107_smooth_move_ef_reset_resource_wf_security_mode_complete.LW
p626
aVtc_322_302_smooth_move_3GDT_with_one_PDN_TZCR_set.LW
p627
aVtc_289_017_Modify_bearer__ERAB_modify_request_meanwhile_path_switch_request_HO_success.LW
p628
aVtc_265_160_Detach_Flow_NW_init__Ue_moved_to_non_3gpp_while_imsi_detach.LW
p629
aVtc_334_006_pgw_restart_mf_multiple_pdns_locally_delete_idle.LW
p630
aVtc_241_021_israu_new_with_bearer_service_request_two2one_tunnel.LW
p631
aVtc_241_481_s4_sgsn_pool_ms_move_with_dedicated_bearer_target_sgsn.LW
p632
aVtc_241_640_intra_rau_with_bearer_sgw_change_with_3gdt_wait_release_access_resp_interfer_by_update_bearer_req.LW
p633
aVtc_241_1503_intra_rau_with_bearer_sgw_nochange_wf_modify_bearer_response_interfere_by_cancel_location.LW
p634
aVtc_273_160_tau_intra_periodic_idle_not_active.LW
p635
aVtc_273_134_tau_intra_normal_idle_active_two_pdn_connections_first_ok_second_failed.LW
p636
aVtc_295_130_Intra_S1_HO__Sgw_reloc__Downlink_A21_AIS_while_waiting_for_Delete_Session_Response.LW
p637
aVtc_294_317_handover_roaming_restricted.LW
p638
aVtc_302_052_mt_csfb_to_1xrtt_main_flow_idle_first_page_fails.LW
p639
aVtc_194_063_hss_reset.LW
p640
aVtc_346_583_sx_feature_off_location_report_RAR_feature_on_service_request.LW
p641
aVtc_247_113_inter_w_to_l_old_wf_fwd_reloc_resp_interrupted_by_rnc_reset.LW
p642
aVtc_247_147_inter_w_to_l_old_sgsn_context_request_wf_forward_relocation_complete.LW
p643
aVtc_247_128_inter_w_to_l_old_wf_fwd_reloc_complete_interrupted_by_cl_update_procedure.LW
p644
aVtc_325_107_inter_old_srns_reloc_s4_to_gn_with_gbr_bearer_3gdt_flow_waiting_for_forward_relocation_complete_timeout.LW
p645
aVtc_78_053_intra_rau_intra_plmn_accept_home_ms.LW
p646
aVtc_301_005_activate_reject_visitor_requested_ipv6_subscribed_ipv4_aifav_true_aifv_true.LW
p647
aVtc_79_029_ms_initiated_modification_rab_released.LW
p648
aVtc_79_071_activate_reject_rab_fail_qos_cause_114_fallback_streaming.LW
p649
aVtc_311_33_intra_srns_reloc_s4_with_sgw_change_preserved_pdn_modify_bearer_response_fail.LW
p650
aVtc_311_209_intra_srns_reloc_s4_sgw_change_wf_rau_complete_interrupted_by_cancel_loc_subscrip_withdrawn.LW
p651
aVtc_311_24_intra_srns_reloc_s4_with_sgw_change_with_11_pdns.LW
p652
aVtc_313_131_inter_new_srns_reloc_s16_with_sgw_change_waiting_for_modify_bearer_response_timeout.LW
p653
aVtc_248_67_inter_l_to_w_new_timeout_waiting_for_delete_session_response_mf.LW
p654
aVtc_263_101_Attach_Flow__Service_Request_while_waiting_for_Identity_Response.LW
p655
aVtc_103_201_realm_routing_s6a_only.LW
p656
aVtc_103_831_DPR_cause_BUSY.LW
p657
aVtc_103_902_load_sharing_realm_routing_own_realm.LW
p658
aVtc_244_505_SLg_Location_Request__Uplink_NAS_Transport_wwf_Location_Response_from_ESMLC.LW
p659
aVtc_244_535_SLg_Location_Request__Downlink_A21_AIS_wwf_Location_Response_from_ESMLC.LW
p660
aVtc_293_032_tau_after_ho_tz_change_nas_non_delivery_x2_ho_triggered_HO_on_going_when_hold_timeout.LW
p661
aVtc_262_202_attach_emergency_call_too_high_qos.LW
p662
aVtc_262_532_service_request_private_extension_of_wi_denied_after_attach.LW
p663
aVtc_297_407_move_at_periodic_rau.G14b
p664
aVtc_275_610_tau_inter_new_license_lte_sau_limit_reached.L14b
p665
aVtc_306_080_ef_seamless_move_source_receive_uplink_nas_transport_wf_source_guti_reallocation_complete.L14b
p666
aVtc_225_309_mt_call_interfered_by_S1HO_including_TAU.L14b
p667
aVtc_276_045_Inter_TAU_New_MME__S1_Reset_while_waiting_for_Identity_Response__enhanced_imei_check.L14b
p668
aVtc_346_493_Small_Local_Restart__Terminate_when_UE_S1_release.L14b
p669
aVtc_293_027_X2_Based_HO__Sgw_reloc__Delete_Bearer_Request_while_waiting_for_Create_Session_Response.L14b
p670
aVtc_293_241_X2_Based_HO__location_report_while_wf_update_location_wf_location_update.L14b
p671
aVtc_244_054_mt_lr_LPPa_transport_LR_and_COI_received_wf_location_report.L14b
p672
aVtc_244_504_SLg_Location_Request__Extended_Service_Request_wwf_Location_Response_from_ESMLC.L14b
p673
aVtc_327_322_recovery_service_request__initial_Imsi_Attach_Request_while_waiting_for_Ue_Backup_Response.L14b
p674
aVtc_327_601_Inter_TAU_Recovery__Attach_Request_while_waiting_for_Ue_Backup_Retrieval_Response.L14b
p675
aVtc_238_360_mme_eps_irat_Gn_ho_target__location_report.L14b
p676
aVtc_266_140_Service_Request_With_CSG_ID.L14b
p677
aVtc_288_115_pgw_init_bearer_mod_paging_one_bearer_not_existent_in_modify_bearer_response.L14b
p678
aVtc_202_42_type_c_emergency_pdn_ecm_idle.L14b
p679
aVtc_202_41_type_a_emergency_pdn_ecm_idle.L14b
p680
aVtc_202_40_emergency_pdn_ecm_connected.L14b
p681
aVtc_44_841_mme_assoc_reestablish__device_restart_sbc.L14b
p682
aVtc_274_007_Intra_and_pTAU__Attach_Request_new_S1_while_waiting_for_Initial_Context_Setup_Response.L14b
p683
aVtc_274_273_Intra_and_pTAU__Handover_Required_with_old_TA_while_waiting_for_TAU_Complete.L14b
p684
aVtc_310_207_ef__Attach_wf_FR_Complete_Notification.L14b
p685
aVtc_310_129_af__subscription_in_HSS_indicates_SRVCC_is_not_supported.L14b
p686
aVtc_237_125_mme_eps_irat_ho_source_type_d__s1_reset_before_forw_rel_complete.L14b
p687
aVtc_295_124_tau_after_ho_tz_change_emm_information_meanwhile_handover_required_HO_success.L14b
p688
aVtc_273_082_tau_intra_on_ul_nas_transport.L14b
p689
aVtc_277_007_tau_inter_old_tau_req_as_plain_nas.L14b
p690
aVtc_268_014_UE_Release_Flow__Downlink_A21_AIS_while_waiting_for_Relase_Access_Bearer_Response.L14b
p691
aVtc_260_070_mbms_session_start_af_gw_resend_request_msg_diff_absolute_time.L14b
p692
aVtc_243_331_tau_from_sgsn_s3_emergency_type_d_no_restriction.L14b
p693
aVtc_243_124_tau_from_sgsn_s3_modify_bearer_response_partially_accepted_bearer_status_mismatch.L14b
p694
aVtc_214_1105_la_selection_mf_oldmscpreferred_combined_intra_tau_with_imsi_attach_after_cs_fallback.L14b
p695
aVtc_262_167_new_mme_identification_fail_to_find_old_mme.L14b
p696
aVtc_262_800_emergency_type_d_attach_guti_attach_not_emergency_new_s1.L14b
p697
aVtc_262_1083_attach_tac_based_roaming_restriction_table_matched_whitelist_exemptedlist.L14b
p698
aVtc_267_229_Service_Request__PDN_connectivity_request_while_wf_authentication_response.L14b
p699
aVtc_292_050_x2_handover_with_sgw_relocation_visiting_ue.L14b
p700
aVtc_294_327_intra_handover_with_sgw_relocation_no_response_from_target.L14b
p701
aVtc_265_112_Detach_Flow_NW_init__Path_Switch_Request_while_waiting_for_Detach_Accept.L14b
p702
aVtc_279_012_tai_list_dyn_growth_at_attach_after_detach.L14b
p703
aVtc_341_691_x2_activity_event_guti_reallocation_during_ue_restoration.L14b
p704
aVtc_289_041_Modify_bearer__Downlink_nas_non_delivery_x2_handover_triggered_two_pdn_HO_fails_for_all_sessions_SGW_change.L14b
p705
aVtc_302_051_mt_csfb_to_1xrtt_main_flow_idle.L14b
p706
aVtc_256_201_mme_eps_srvcc_ho_source_cs_only_no_notify_after_security_restablish.L14b
p707
aVtc_281_013_Activate_bearer__Handover_required_while_wf_erab_setup_response_TAU.L14b
p708
aVtc_250_105_ignore_IDR_when_EPS_sub_downgrade_GPRS_sub.LWG
p709
aVtc_250_67_s6d_activation_with_EPS_data_s4_license_off.LWG
p710
aVtc_273_168_tau_intra_periodic_idle_check_ecgi.LWG
p711
aVtc_56_10_cm_restart_during_SR.LWG
p712
aVtc_82_024_ms_initiated_activation_MBR_DL_UL_in_RABReq_one_MBR_in_RABRes.LWG
p713
aVtc_298_145_EF_NRSPCA_interfere_Activation.LWG
p714
aVtc_316_279_DSD_PDN_subscription_contexts_Withdrawal_All_PDN_Disconnect__Delete_UE_Backup.LWG
p715
aVtc_316_220_DSD_PDN_Subscription_Contexts_Withdrawal_One_PDN_Disconnect__Backup_UE.LWG
p716
aVtc_193_144_service_req_detachnormal_during_auth_ue.LWG
p717
aVtc_210_049_tau_intra_normal_idle.LWG
p718
aVtc_345_005_mf__mt_csfb_with_psho__ecm_connected_Gn.LWG
p719
aVtc_312_222_inter_old_srns_reloc_wf_fwd_reloc_compl_interrupted_by_relocation_cancel.LWG
p720
aVtc_289_103_multi_pdns_pgw_init_bearer_mod_ecm_idle_interrupted_by_dbr_with_lbi.LWG
p721
aVtc_241_681_israu_old_wf_context_ack_interfered_by_context_req.LWG
p722
aVtc_241_754_intra_rau_with_multi_bearer_sgw_change_one_context_failed_node_function_deactivate_pdp_after_rau_on.LWG
p723
aVtc_342_926_x2_multiple_pdp_with_different_x2_connection.LWG
p724
aVtc_322_021_smooth_move_af_frr_with_service_not_supported.LWG
p725
aVtc_230_017_activate_reject_sgw_cause38_invalid_message_format.LWG
p726
aVtc_35_005_ggsn_upgrades_during_israu.LWG
p727
aVtc_348_104_isc_rau_l_to_w_with_sx.LWG
p728
aVtc_244_049_mt_lr_cancel_location_with_subscription_withdraw_received_wf_location_report.LWG
p729
aVtc_211_025_streamed_cell_trace_mapping_alarm_cease_ipv6.LWG
p730
aVtc_197_449_pdn_connectivity_legacy_static_gw_selection_flag_off.LWG
p731
aVtc_262_101_emergency_imsi_attach_access_restriction_full_emc_sup.LWG
p732
aVtc_11_526_ms_init_modify_pdp_ggsn_upgrade_qos_interfering_by_rnc_reset.LWG
p733
aVtc_11_542_report_full_rai_in_update_pdp_ctx_req_ms_init_qos_change.LWG
p734
aVtc_11_541_report_full_rai_in_create_pdp_ctx_req_ms_init_secondary_activation.LWG
p735
aVtc_11_645_downlink_gtpu_wf_paging_resp_ef_transfer_service_req_data.LWG
p736
aVtc_47_005_implict_detach_timer_ap_loss.LWG
p737
aVtc_202_102_small_restart.LWG
p738
aVtc_220_583_csfb_to_1xrtt_in_ecm_idle_extended_service_request_as_paging_response_create_bearer.LWG
p739
aVtc_220_572_csfb_to_1xrtt_in_ecm_connected_tau_request_wf_release_access_bearers_response.LWG
p740
aVtc_327_553_Recovery_for_DDN__Normal_TAU_Request_while_waiting_for_Ue_Backup_Response.LWG
p741
aVtc_231_130_context_request_during_ms_init_deatch_after_create_session_s4.LWG
p742
aVtc_231_198_s4_activate_with_SGW_returning_ipv4_and_ipv6.LWG
p743
aVtc_195_032_compare_trace_id_imeisv.LWG
p744
aVtc_103_1110_attach_negative_AIA_resend_success_s6d.LWG
p745
aVtc_103_1104_attach_resend_of_ULR_no_more_peers.LWG
p746
aVtc_261_15_tau_intra_home_voip_none_plmn_support.LWG
p747
aVtc_666_06_block_rt_board.LWG
p748
aVtc_49_014_israu_new_one_interactive_pdp_from_old_32M.LWG
p749
aVtc_214_408_combined_attach_vlr_reset_no_paging_imsi_detach_interferred_by_combined_tau.LWG
p750
aVtc_214_1099_la_selection_mf_reselection_combined_tau_with_imsi_attach_after_mme_triggered_imsi_detach_when_handling_sgs_paging.LWG
p751
aVtc_194_616_DSD__PDN_subscription_contexts_Withdrawal_EMM_DEREGISTERED.LWG
p752
aVtc_194_987_uplink_ue_associated_LPPa_transport_during_waiting_location_report__idr_flags_ef.LWG
p753
aVtc_311_15_intra_srns_reloc_s4_with_sgw_change_with_preserved_dedicated_bearer.LWG
p754
aVtc_311_125_intra_srns_reloc_s4_sgw_change_preserved_default_bearer_create_session_failure_for_dedicate_bearer.LWG
p755
aVtc_347_267_PDN_Connectivity__Location_Report_while_waiting_MBR.LWG
p756
aVtc_22_017_wcdma_change_of_position_context_rau.LWG
p757
aVtc_208_26_attach_detach_imsi_msisdn_imei.LWG
p758
aVtc_326_344_Service_Request_with_unknown_STMSI_Update_Location_Answer_timeout.LWG
p759
aVtc_326_275_Periodic_Intra_TAU_with_unknown_GUTI_with_normal_and_emergency_PDN.LWG
p760
aVtc_326_705_Service_Request_Recovery_subscription_check_ODB_apn_in_odb_free_apn_list.LWG
p761
aVtc_326_428_Inter_TAU_Recovery_Fail__Modify_Bearer_Fail.LWG
p762
aVtc_203_112_mme_eps_handover_source_inter__subscr_withdrawn_wf_cancel_loc.LWG
p763
aVtc_257_14_pws_etws_stop_warning_request_license_off.LWG
p764
aVtc_257_35_pws_etws_write_replace_warning_request_when_olp_rshl_false.LWG
p765
aVtc_205_71_03_ss7_M3UA_ASP_counters.LWG
p766
aVtc_159_200_check_ctum_log.LWG
p767
aVtc_293_041_X2_Based_HO__Sgw_reloc__Downlink_A21_AIS_while_wf_Delete_Session_Response.LWG
p768
aVtc_39_601_mas_unsucc_fwd_reloc_resp_mandatory_ie_missing_stop_source.LWG
p769
aVtc_39_746_iu_release_request_other_cause_wf_upd_loc_ack_service_req_target.LWG
p770
aVtc_272_013_adaptive_paging_dl_selectbyarp_qos97.LWG
p771
aVtc_26_083_israu_streaming_stand_alone_no_rnc_support.LWG
p772
aVtc_340_130_intra_rau_during_validation_move_job_with_trigger_move_configured.WG14a
p773
aVtc_340_130_intra_rau_during_validation_move_job_with_trigger_move_configured.WG14a
p774
aVtc_265_125_Detach_Flow_NW_init__Reattach_Not_Required_Emergency_Attach_Request_while_waiting_for_Detach_Accept.LW
p775
aVtc_324_001_mf_ue_keep_in_idle.LW
p776
aVtc_324_113_af_no_frca_service_request_data_rab_partially_setup_3gdt.LW
p777
aVtc_11_235_ser_req_interfer_deactivation.LW
p778
aVtc_263_004_Attach_Flow__Attach_Request_Same_IEs_IP_OK_while_waiting_for_Create_Session_Response.LW
p779
aVtc_195_208_mme_logging_maximum_modify_eps_bearer_context.LW
p780
aVtc_26_128_activate_legacyARP_changed_GGSN_not_support.LW
p781
aVtc_194_991_downlink_A21_AIS_during_waiting_location_report__idr_flags_ef.LW
p782
aVtc_103_1100_resending_AIR_dpl_changed.LW
p783
aVtc_28_052_mo_sms_homer_block_visiting_redirection.LW
p784
aVtc_28_64_mt_sms_allow_unknown_mtbs_false.LW
p785
aVtc_218_311_tau_from_sgsn_preserved_gbr_bearer_buffer_1_ubr_1_cbr.LW
p786
aVtc_346_493_Small_Local_Restart__Terminate_when_UE_S1_release.LW
p787
aVtc_159_200_check_ctum_log.LWG
p788
aVtc_290_026_Timer_Based_GBR_Deact__delete_subscription_data_wf_release_access_bearer_response_before_timer_expires.LWG
p789
aVtc_306_009_ef_seamless_move_source_receive_attach_request_wf_source_guti_reallocation_complete_initial_ue.LWG
p790
aVtc_306_170_02_ef_seamless_move_source_receive_hss_reset_wf_frcn.LWG
p791
aVtc_578_03_check_deasn9_w.LWG
p792
aVtc_257_36_pws_etws_stop_warning_request_when_olp_rshl_false.LWG
p793
aVtc_257_38_pws_etws_stop_warning_request_license_off_when_olp_rshl_false.LWG
p794
aVtc_194_505_Notification_during_Intra_TAU_without_SGW_Relocation_HSS_Reset_Before_TAU.LWG
p795
aVtc_166_428_rnc_initiated_rab_release_interfered_by_rnc_initiated_iu_release_request.LWG
p796
aVtc_06_514_apn_resolution_main_flow_resolute_based_on_imsins.LWG
p797
aVtc_346_357_SAPC_Restart_not_Detected_when_Origin_State_Id_decreased.LWG
p798
aVtc_346_1010_AF__seamless_move_target_receive_diameter_cause_5003.LWG
p799
aVtc_205_71_00_list_ss7_pm_types.LWG
p800
aVtc_205_71_03_ss7_M3UA_ASP_counters.LWG
p801
aVtc_298_317_EF_SIBD_S4_Create_Bearer_Request.LWG
p802
aVtc_250_105_ignore_IDR_when_EPS_sub_downgrade_GPRS_sub.LWG
p803
aVtc_208_43_interception_after_small_restart.LWG
p804
aVtc_304_129_initial_ue_intra_tau_ecm_idle_control_mode_threshold_exceeded_usc_reject_wf_intra_tau_response.LWG
p805
aVtc_248_414_inter_l_to_w_new_one_pdn_with_s4_charging_allowed_with_charging_id_in_mbr_without_sgw_change.LWG
p806
aVtc_294_412_mme_handle_eps_handover_SGW_unavailable_DNS_query_failure.LWG
p807
aVtc_348_203_smooth_move_mf__source_multiple_pdp_no_cl_with_sx.LWG
p808
aVtc_296_011_son_intra_macro_eNB_format_targetid_HeNB_GW_table_matched.LWG
p809
aVtc_237_100_mme_eps_irat_ho_source_type_a_emc_preparation_failure.LWG
p810
aVtc_183_011_itc_trace_file_wrap.LWG
p811
aVtc_334_123_sgw_restart_mf_one_pdn_deactivate_APN_in_APNList_s8.LWG
p812
aVtc_324_372_ef_cancel_location_intialAttach_wf_rab_assignment_response_hss.LWG
p813
aVtc_324_313_ef_reset_from_hss_service_request_after_ack.LWG
p814
aVtc_327_320_recovery_service_request__initial_Attach_Request_while_waiting_for_Update_Location_Answer.LWG
p815
aVtc_327_711_recovery_for_DDN__pdn_req_succ_while_wf_guti_complete.LWG
p816
aVtc_347_222_Service_Request__RAR_while_waiting_for_Initial_UE_Context_Setup_Response.LWG
p817
aVtc_23_09_transfer_to_primary_and_change_vip_addr.LWG
p818
aVtc_322_131_smooth_move_ef_context_request_wf_paging_response.LWG
p819
aVtc_326_215_Intra_TAU_Recovery_node_restart_combined_type_Location_Update_timeout.LWG
p820
aVtc_326_459_Inter_TAU_Recovery_Fail__Emergency_Type_a_SAU_Limit_Reach.LWG
p821
aVtc_361_003_rau_l_to_w_without_cl_dedicated_bearers_released.LWG
p822
aVtc_179_318_Ccheck_TraceCollectionIpv6server.LWG
p823
aVtc_236_307_Activation_DtSelMode_5_APN_requested_wrong_SGSN_default_APN_in_APN_list_TAC_in_TAC_list.LWG
p824
aVtc_321_080_gn_logging_deactivate_error_indication_from_ggsn.LWG
p825
aVtc_11_351_apn_redirect_to_SubscribedApn_ApnRedrectForMultipleApn_lowestpdpcontextid_S4.LWG
p826
aVtc_11_645_downlink_gtpu_wf_paging_resp_ef_transfer_service_req_data.LWG
p827
aVtc_263_240_Attach_Flow__Attach_Request_with_same_IE_while_waiting_for_identification_response.LWG
p828
aVtc_51_037_reloc_wf_reloc_comp_interrupted_by_power_off_detach_on_source_iu.W14b
p829
aVtc_322_023_smooth_move_af_frr_with_request_rejected.W14b
p830
aVtc_31_052_standalone_dsd.W14b
p831
aVtc_231_113_rnc_reset_during_ms_act_si_ms_deact_rnc_contact.W14b
p832
aVtc_44_841_mme_assoc_reestablish__device_restart_sbc.L14b
p833
aVtc_295_124_tau_after_ho_tz_change_emm_information_meanwhile_handover_required_HO_success.L14b
p834
aVtc_284_350_pdn_connectivity_interrupted_by_path_switch_request.L14b
p835
aVtc_103_831_DPR_cause_BUSY.L14b
p836
aVtc_103_832_DPR_cause_REBOOTING.L14b
p837
aVtc_276_045_Inter_TAU_New_MME__S1_Reset_while_waiting_for_Identity_Response__enhanced_imei_check.L14b
p838
aVtc_220_614_csfb_to_1xrtt_in_ecm_idle_with_gbr_bearers_delete_bearer_command_fails.L14b
p839
aVtc_214_1059_la_selection_mf_oldlapreferred_combined_tau_dyn_tailist_without_old_la.L14b
p840
aVtc_326_622_S6a_Throttling_Service_Request_recovery_UL_successful_and_Emergency_Attach_not_throttled.L14b
p841
aVtc_304_114_initial_ue_intra_tau_control_mode_threshold_exceeded_usc_ignore_replace_s1.L14b
p842
aVtc_239_620_inter_rau_new_with_bearer_sgw_not_change_isd_odb_bit0_wf_rau_compl_deactivation.G14b
p843
aVtc_297_407_move_at_periodic_rau.G14b
p844
aVtc_208_43_interception_after_small_restart.G14b
p845
aVtc_248_122_inter_l_to_w_new_detach_request_direct_transfer_received_wf_forward_relocation_complete_ack.W14b
p846
aVtc_342_079_x3_tcp_fail_during_signalling.W14b
p847
aVtc_12_512_pmm_undefined_attach_when_updating_location_interfered_by_rnc_reset.W14b
p848
aVtc_194_991_downlink_A21_AIS_during_waiting_location_report__idr_flags_ef.L14b
p849
aVtc_225_315_mt_call_active_mode_nas_non_delivery__cs_service_notification_meanwhile_handover_required.L14b
p850
aVtc_285_006_PDN_Connectivity_Pb__Delete_default_bearer_request_while_wf_modify_bearer_response.L14b
p851
aVtc_47_004_mobile_reachble_timer_ap_loss.L14b
p852
aVtc_262_203_guti_attach_when_unauthenticated_attached.L14b
p853
aVtc_262_1031_emergency_imsi_attach_multiple_pgw_try_next_pgw_fqdn_error.L14b
p854
aVtc_44_831_mme_assoc_reestablish__local_ep_restart_sbc.L14b
p855
aVtc_44_871_mme_assoc_reestablish__board_block_sbc.L14b
p856
aVtc_103_1101_resending_AIR_interfering_CLR.L14b
p857
aVtc_51_016_intra_srns_reloc_update_location_failed_service_not_allowed.LWG
p858
aVtc_51_042_reloc_wf_reloc_comp_interrupted_by_target_rnc_reset.LWG
p859
aVtc_51_063_reloc_wf_reloc_request_ack_interrupted_by_target_iu_release.LWG
p860
aVtc_51_090_intra_srns_reloc_wf_rau_req_interrupted_by_instert_subsc.LWG
p861
aVtc_51_014_intra_srns_reloc_t_reloc_rau_timeout.LWG
p862
aVtc_51_015_intra_srns_reloc_rau_request_with_invalid_mandatory_info.LWG
p863
aVtc_183_005_itc_folder_file_names.LWG
p864
aVtc_43_101__removal_of_disconnected_eNodeBs__CLI_removal.LWG
p865
aVtc_103_831_DPR_cause_BUSY.LWG
p866
aVtc_103_1100_resending_AIR_dpl_changed.LWG
p867
aVtc_202_18_downlink_data_after_s1_release.LWG
p868
aVtc_327_113_recovery_intra_TAU__Insert_Subscriber_Data_while_waiting_for_Identity_Response.LWG
p869
aVtc_327_552_Recovery_for_DDN__Service_Request_while_waiting_for_Ue_Backup_Response.LWG
p870
aVtc_73_31_isc_rau_g_to_w.LWG
p871
aVtc_73_33_gn_gsm_payload_97.LWG
p872
aVtc_39_601_mas_unsucc_fwd_reloc_resp_mandatory_ie_missing_stop_source.LWG
p873
aVtc_324_386_ef_mt_sms_wf_frcn_wf_frca_wf_ula.LWG
p874
aVtc_53_19_inter_new_srns_reloc_all_rabs_not_allocated_in_target_rnc.LWG
p875
aVtc_262_1055_imsi_attach_with_csg_id_is_rejected.LWG
p876
aVtc_241_041_israu_new_with_multi_bearer_sgw_change_try_next.LWG
p877
aVtc_241_646_intra_rau_with_bearer_sgw_change_with_3gdt_interfer_by_iu_release_req.LWG
p878
aVtc_244_055_mt_lr_cancel_location_with_update_procedure_received_wf_location_report.LWG
p879
aVtc_54_122_inter_ran_information_g_to_l_through_s3_and_back.LWG
p880
aVtc_267_512_Service_Request_SGW_unavailable__S1_Reset_while_wf_Create_Session_Response.LWG
p881
aVtc_12_512_pmm_undefined_attach_when_updating_location_interfered_by_rnc_reset.LWG
p882
aVtc_205_71_03_ss7_M3UA_ASP_counters.LWG
p883
aVtc_17_78_intra_same_hz.LWG
p884
aVtc_666_06_block_rt_board.LWG
p885
aVtc_159_200_check_ctum_log.LWG
p886
aVtc_23_09_transfer_to_primary_and_change_vip_addr.LWG
p887
aVtc_256_175_mme_eps_srvcc_ho_source_cs_only_ue_release_request_wf_srvcc_ps_to_cs_response.LWG
p888
aVtc_220_411_csfb_to_1xrtt_in_ecm_connected_path_switch_request_subscription_cancelled.LWG
p889
aVtc_210_041_attach_detach_msisdn.LWG
p890
aVtc_96_002_intra_sgsn_intra_ra_psho_optimized_main_flow.LWG
p891
aVtc_194_505_Notification_during_Intra_TAU_without_SGW_Relocation_HSS_Reset_Before_TAU.LWG
p892
aVtc_219_131_s3_handover_w_to_l_with_cl_two_pdns_one_failed_sgw_relocation.LWG
p893
aVtc_33_17_isc_rau_authenticating_interrupted_by_subscription_withdrawn.LWG
p894
aVtc_11_076_deactivate_sgsn_initiated_delete_subscriber_data_pmm_idle_no_response.LWG
p895
aVtc_11_117_sgsn_init_modification_rnc_not_supporting_modify_timeout.LWG
p896
aVtc_11_157_deactivate_error_indication_from_ggsn.LWG
p897
aVtc_11_213_israu_old_is_v97_one_extended_one_short_ti.LWG
p898
aVtc_324_006_mf_ser_req_signaling_after_ack_3gdt.LW
p899
aVtc_241_153_israu_old_wait_for_context_ack_interfere_by_normal_detach.LW
p900
aVtc_241_801_israu_interfering_context_request_no_cancel_location_s4.LW
p901
aVtc_44_057_sctp_s1ap_mdholpap_emergency.LW
p902
aVtc_44_850_mme_assoc_reestablish__board_restart_s1_mme.LW
p903
aVtc_322_173_smooth_move_ef_cli_s6d_delete_subscriber_data_wf_ptmsi_relocation_complete.LW
p904
aVtc_202_41_type_a_emergency_pdn_ecm_idle.LW
p905
aVtc_236_115_s4_3gdt_based_on_sr_dt_to_non_dt_selective_service_request.LW
p906
aVtc_237_060_mme_eps_irat_ho_source__equipement_blacklisted_wwf_FR_Response.LW
p907
aVtc_11_265_apnresolving_vplmn_allowed_subscribed_apn_hplmn_apn_criteria_cc.LW
p908
aVtc_51_013_intra_srns_reloc_t_reloc_complete_intra_timeout.LW
p909
aVtc_51_019_intra_srns_reloc_no_rau_complete.LW
p910
aVtc_51_035_reloc_wf_reloc_comp_interrupted_by_normal_detach_on_target_iu.LW
p911
aVtc_51_044_reloc_wf_rau_compl_interrupted_by_target_rnc_reset.LW
p912
aVtc_51_054_reloc_wf_reloc_complete_interrupted_by_attach_on_new_iu.LW
p913
aVtc_51_069_reloc_wf_reloc_complete_interfered_by_rau_from_target.LW
p914
aVtc_51_015_intra_srns_reloc_rau_request_with_invalid_mandatory_info.LW
p915
aVtc_166_154_israu_rau_new_rnc_non_3gdt_compliant.WG14a
p916
aVtc_97_035_inter_sgsn_psho_mf_with_lawful_intercept.G14b
p917
aVtc_202_02_ecm_idle_s1_release.L14b
p918
aVtc_202_467_af_seamless_move_source_no_FRCN_with_s1_recovery.L14b
p919
aVtc_238_177_mme_eps_irat_Gn_ho_target__type_d_emc_cancel_using_IMEISV.L14b
p920
aVtc_295_124_tau_after_ho_tz_change_emm_information_meanwhile_handover_required_HO_success.L14b
p921
aVtc_43_040_eNB_configuration_update_mf.L14b
p922
aVtc_304_114_initial_ue_intra_tau_control_mode_threshold_exceeded_usc_ignore_replace_s1.L14b
p923
aVtc_304_236_isc_active_flag_on_control_mode_threshold_exceeded_ignore_replace_s1_wf_initial_context_setup_response.L14b
p924
aVtc_44_831_mme_assoc_reestablish__local_ep_restart_sbc.L14b
p925
aVtc_44_871_mme_assoc_reestablish__board_block_sbc.L14b
p926
aVtc_44_897_mme_assoc_reestablish__emergency_attach.L14b
p927
aVtc_44_895_mme_assoc_reestablish__s1_setup_when_iterator_started_finished.L14b
p928
aVtc_262_203_guti_attach_when_unauthenticated_attached.L14b
p929
aVtc_274_281_Intra_and_pTAU__Context_Request_while_wating_for_Initial_Context_Setup_Response.L14b
p930
aVtc_273_201_tau_intra_roaming_restricted_plmn.L14b
p931
aVtc_329_003_attach_rs_allowed_emergency_plmn_change_ula_fails.L14b
p932
aVtc_256_175_mme_eps_srvcc_ho_source_cs_only_ue_release_request_wf_srvcc_ps_to_cs_response.L14b
p933
aVtc_103_1101_resending_AIR_interfering_CLR.L14b
p934
aVtc_263_240_Attach_Flow__Attach_Request_with_same_IE_while_waiting_for_identification_response.L14b
p935
aVtc_263_241_Attach_Flow__Attach_Request_with_diff_IE_while_waiting_for_identification_response.L14b
p936
aVtc_329_203_inter_tau_new_rs_restricted_emergency.LW
p937
aVtc_52_15_inter_old_canc_loc_timeout.LW
p938
aVtc_52_52_reloc_wf_forw_rel_resp_interrupted_by_rnc_reset.LW
p939
aVtc_52_37_reloc_wf_forw_rel_compl_interrupted_by_rau_on_new_iu_wrong_rai.LW
p940
aVtc_298_678_pgw_init_modification_with_iu_wf_rab_assignment_ef_dbr_ef_cancel_location.LW
p941
aVtc_324_386_ef_mt_sms_wf_frcn_wf_frca_wf_ula.LW
p942
aVtc_327_552_Recovery_for_DDN__Service_Request_while_waiting_for_Ue_Backup_Response.LW
p943
aVtc_263_240_Attach_Flow__Attach_Request_with_same_IE_while_waiting_for_identification_response.LW
p944
aVtc_51_090_intra_srns_reloc_wf_rau_req_interrupted_by_instert_subsc.LW
p945
aVtc_23_09_transfer_to_primary_and_change_vip_addr.LW
p946
aVtc_326_203_Intra_TAU_after_node_restart_with_two_retrieval_responses_with_SGW_change_with_emergency_PDN.LW
p947
aVtc_326_371_Service_Request_with_unknown_STMSI_Restriction_2_pdn_lte_access_restriction_emergency_pdn_reject.LW
p948
aVtc_202_01_ecm_connected_s1_release.LW
p949
aVtc_276_045_Inter_TAU_New_MME__S1_Reset_while_waiting_for_Identity_Response__enhanced_imei_check.LW
p950
aVtc_53_30_inter_new_srns_reloc_wf_rau_req_interrupted_by_sm_status.LW
p951
aVtc_53_125_inter_new_srns_reloc_interfere_identification_response_same_iu.LW
p952
aVtc_53_40_inter_new_srns_reloc_ggsn_update_timeout.LW
p953
aVtc_241_801_israu_interfering_context_request_no_cancel_location_s4.LW
p954
aVtc_289_070_GW_Init_Bearer_Modification_Flow_two_CBR_one_UBR_while_wf_modify_eps_bearer_context_accept.LW
p955
aVtc_289_101_multi_pdn_pgw_init_bearer_mod_wf_service_interrupted_by_dbr_with_lbi.LW
p956
aVtc_289_103_multi_pdns_pgw_init_bearer_mod_ecm_idle_interrupted_by_dbr_with_lbi.LW
p957
aVtc_76_021_deactivate_ggsn_initiated_error_indication.LW
p958
aVtc_284_351_pdn_connectivity_pb_activate_1_dedicated_bearer_interrupted_by_path_switch_request.LW
p959
aVtc_257_22_pws_etws_stop_warning_request_with_unknown_tai.LWG
p960
aVtc_38_11_israu_new_sgsn_old_rai_not_defined.LWG
p961
aVtc_23_09_transfer_to_primary_and_change_vip_addr.LWG
p962
aVtc_666_06_block_rt_board.LWG
p963
aVtc_231_173_ms_init_detach_interfered_by_cancel_location_withdraw.LWG
p964
aVtc_298_702_pgw_init_modification_ef_ms_deact_req_tdi_false_ti_default_wf_modify_accept.LWG
p965
aVtc_183_005_itc_folder_file_names.LWG
p966
aVtc_159_200_check_ctum_log.LWG
p967
aVtc_219_131_s3_handover_w_to_l_with_cl_two_pdns_one_failed_sgw_relocation.LWG
p968
aVtc_25_17_activate_ms99_MBR_0.LWG
p969
aVtc_179_318_Ccheck_TraceCollectionIpv6server.LWG
p970
aVtc_230_075_activation_wait_bss_pfc_ack_interrupted_by_sgsn_context_req.LWG
p971
aVtc_225_312_mt_call_active_mode_nas_non_delivery__s1_intra_system_handover_triggered_resend_2_times.LWG
p972
aVtc_324_426_ef_payload_buffered_wf_security_mode_complete_payload_different_pdn_non_3gdt.LWG
p973
aVtc_243_753_tau_from_sgsn_s3_change_sgw_emergency_type_a_not_allowed_in_csg.LWG
p974
aVtc_57_1_nonindexed_counter.LWG
p975
aVtc_205_71_03_ss7_M3UA_ASP_counters.LWG
p976
aVtc_318_201_idle_deactivate_dedicated_bearers_one_by_one_reactivate_req.LWG
p977
aVtc_53_24_inter_new_srns_reloc_dp_release.LWG
p978
aVtc_53_139_inter_new_ggsn_decrease_qos_rab_setup_qos_related_reject.LWG
p979
aVtc_53_301_inter_new_srns_reloc_with_mbr_84m.LWG
p980
aVtc_53_23_inter_new_srns_reloc_update_location_failed.LWG
p981
aVtc_53_29_inter_new_srns_reloc_wf_rau_req_interrupted_by_activate_req.LWG
p982
aVtc_101_003_single_mbms_session_small_restart.LWG
p983
aVtc_73_21_itc_gtpu_s4_sgsn_send_echo_request_w.LWG
p984
aVtc_73_40_gtpu_sgsn_send_gpu_echo_request_w.LWG
p985
aVtc_263_240_Attach_Flow__Attach_Request_with_same_IE_while_waiting_for_identification_response.LWG
p986
aVtc_263_241_Attach_Flow__Attach_Request_with_diff_IE_while_waiting_for_identification_response.LWG
p987
aVtc_76_014_ms_initiated_modification_interrupted_by_delete_two_contexts.LWG
p988
aVtc_52_23_reloc_wf_forw_rel_resp_interrupted_by_attach_on_new_iu_wrong_rai.LWG
p989
aVtc_202_01_ecm_connected_s1_release.LWG
p990
aVtc_39_187_detach_trigger_re_attach_new_iu.W14b
p991
aVtc_38_121_intra_rau_multiple_pdp_contexts_one_inactive.W14b
p992
aVtc_322_161_smooth_move_ef_nas_after_paging_response_ignore.W14b
p993
aVtc_28_023_mt_sms_rp_error_from_ms.W14b
p994
aVtc_203_004_mme_eps_handover_source_inter__no_cancel_location.L14b
p995
aVtc_103_011_disconnect_peer.L14b
p996
aVtc_273_242_tau_intra__sgw_relocation_mult_pdn_connections_and_failures.L14b
p997
aVtc_273_085_tau_intra_normal_connected_active_one_default_bearer_status_inactive.L14b
p998
aVtc_257_11_pws_etws_stop_warning_request_feature_off.L14b
p999
aVtc_263_240_Attach_Flow__Attach_Request_with_same_IE_while_waiting_for_identification_response.L14b
p1000
aVtc_263_241_Attach_Flow__Attach_Request_with_diff_IE_while_waiting_for_identification_response.L14b
p1001
aVtc_268_059_Timer_Based_GBR_Deact__Attach_Request_before_Timer_Expires.L14b
p1002
aVtc_578_02_check_parse_ebm_and_ci_eci_l.L14b
p1003
aVtc_578_33_check_ebm_para_statistics_enb_sn.L14b
p1004
aVtc_44_831_mme_assoc_reestablish__local_ep_restart_sbc.L14b
p1005
aVtc_44_860_mme_assoc_reestablish__sctp_fe_restart_s1_mme.L14b
p1006
aVtc_44_890_mme_assoc_reestablish__service_request_on_reestablished_sctp_association.L14b
p1007
aVtc_44_871_mme_assoc_reestablish__board_block_sbc.L14b
p1008
aVtc_44_881_mme_assoc_reestablish_unsuccessful__abort_sbc.L14b
p1009
aVtc_43_040_eNB_configuration_update_mf.L14b
p1010
aVtc_277_009_tau_inter_old_no_context_ack.L14b
p1011
aVtc_47_001_imsi_attach_ap_loss.L14b
p1012
aVtc_47_004_mobile_reachble_timer_ap_loss.L14b
p1013
aVtc_220_587_csfb_to_1xrtt_in_extended_service_request_during_attach_waiting_for_modify_bearer_response.L14b
p1014
aVtc_220_607_csfb_to_1xrtt_in_ecm_connected_extended_service_request_during_extended_service_request.L14b
p1015
aVtc_276_045_Inter_TAU_New_MME__S1_Reset_while_waiting_for_Identity_Response__enhanced_imei_check.L14b
p1016
aVtc_266_011_DownlinkDataNotification_interfering_ISD_sgsn00026976.L14b
p1017
aVtc_214_1126_la_selection_mf_oldlapreferred_combined_intra_tau_after_imsi_detach_triggered_by_sgs_paging.L14b
p1018
aVtc_262_063_attach_tai_not_supported.L14b
p1019
aVtc_304_121_initial_ue_intra_tau_control_mode_threshold_exceeded_usc_detach_wf_release_request_response.LW
p1020
aVtc_44_004_small_restart__sctp_fe_restart.LW
p1021
aVtc_44_850_mme_assoc_reestablish__board_restart_s1_mme.LW
p1022
aVtc_202_18_downlink_data_after_s1_release.LW
p1023
aVtc_51_054_reloc_wf_reloc_complete_interrupted_by_attach_on_new_iu.LW
p1024
aVtc_51_108_intra_srns_reloc_with_ran_cause_44.LW
p1025
aVtc_79_026_sgsn_init_modification_rnc_not_supporting_modify_II.LW
p1026
aVtc_250_105_ignore_IDR_when_EPS_sub_downgrade_GPRS_sub.LW
p1027
aVtc_218_311_tau_from_sgsn_preserved_gbr_bearer_buffer_1_ubr_1_cbr.LW
p1028
aVtc_23_09_transfer_to_primary_and_change_vip_addr.LW
p1029
aVtc_23_13_israu_out.LW
p1030
aVtc_53_06_inter_new_srns_reloc_max_sau.LW
p1031
aVtc_263_240_Attach_Flow__Attach_Request_with_same_IE_while_waiting_for_identification_response.LW
p1032
aVtc_263_241_Attach_Flow__Attach_Request_with_diff_IE_while_waiting_for_identification_response.LW
p1033
aVtc_298_317_EF_SIBD_S4_Create_Bearer_Request.LW
p1034
aVtc_194_991_downlink_A21_AIS_during_waiting_location_report__idr_flags_ef.LW
p1035
aVtc_297_407_move_at_periodic_rau.G14b
p1036
aVtc_53_33_inter_new_srns_reloc_rau_req_at_wf_relocation_complete.LWG
p1037
aVtc_53_143_inter_new_srns_reloc_background_rab_not_allocated_in_target_rnc.LWG
p1038
aVtc_53_23_inter_new_srns_reloc_update_location_failed.LWG
p1039
aVtc_53_54_inter_new_srns_reloc_ef_reset_1_pdp_wf_rab_delete_response.LWG
p1040
aVtc_263_240_Attach_Flow__Attach_Request_with_same_IE_while_waiting_for_identification_response.LWG
p1041
aVtc_263_241_Attach_Flow__Attach_Request_with_diff_IE_while_waiting_for_identification_response.LWG
p1042
aVtc_666_02_reboot_ss7_board.LWG
p1043
aVtc_666_06_block_rt_board.LWG
p1044
aVtc_69_010_bssgp_pm_counters_flow_control.LWG
p1045
aVtc_273_505_TAU_intra_SGW_unavailable__initial_context_setup_failure.LWG
p1046
aVtc_324_114_af_all_gbr_dedicated_bearer_fail_3gdt.LWG
p1047
aVtc_205_71_03_ss7_M3UA_ASP_counters.LWG
p1048
aVtc_52_48_inter_old_srns_reloc_main_flow_interfered_by_ms_deactivate.LWG
p1049
aVtc_183_005_itc_folder_file_names.LWG
p1050
aVtc_260_271_receive_sm_start_req_while_wf_setup_iteration.LWG
p1051
aVtc_77_5_attach_activate2_g_crash.LWG
p1052
aVtc_267_509_Service_Request_SGW_unavailable__Context_Request_while_wf_Create_Session_Response.LWG
p1053
aVtc_180_04_test_multiple_ip_w_2contexts.LWG
p1054
aVtc_180_03_test_multiple_ip_g_2contexts.LWG
p1055
aVtc_180_02_test_multiple_ip_w.LWG
p1056
aVtc_298_145_EF_NRSPCA_interfere_Activation.LWG
p1057
aVtc_181_04_multiple_ip_deconf_iugtp_w.LWG
p1058
aVtc_181_02_multiple_ip_deconf_iuandgngtp_traffic_w.LWG
p1059
aVtc_244_051_mt_lr_delete_bearer_request_received_wf_location_report.LWG
p1060
aVtc_326_226_Intra_TAU_Recovery_fail_Authentication_Reject_from_HSS.LWG
p1061
aVtc_326_204_Intra_TAU_combined_type_with_LA_served_by_old_msc_after_large_restart_after_combined_attach.LWG
p1062
aVtc_231_113_rnc_reset_during_ms_act_si_ms_deact_rnc_contact.LWG
p1063
aVtc_159_200_check_ctum_log.LWG
p1064
aVtc_73_43_gtpu_sgsn_turn_off_gnu_echo_request_w.LWG
p1065
aVtc_31_023_rau_ul_fails_plmn_not_allowed.W14b
p1066
aVtc_236_027_s4_3gdt_rnc_reset_resource.W14b
p1067
aVtc_12_134_attach_with_extended_mmumoc_iu_inactivity_timer.W14b
p1068
aVtc_96_012_intra_sgsn_intra_ra_psho_llc_pdu_arrives_before_psho_complete.G14b
p1069
aVtc_322_161_smooth_move_ef_nas_after_paging_response_ignore.WG14a
p1070
aVtc_11_033_activate_pdp_context_ggsn_initiated_reject_199.LW
p1071
aVtc_276_045_Inter_TAU_New_MME__S1_Reset_while_waiting_for_Identity_Response__enhanced_imei_check.LW
p1072
aVtc_85_12_mo_sms.LW
p1073
aVtc_324_006_mf_ser_req_signaling_after_ack_3gdt.LW
p1074
aVtc_334_311_pgw_restart_after_s4_move_3gdt.LW
p1075
aVtc_285_006_PDN_Connectivity_Pb__Delete_default_bearer_request_while_wf_modify_bearer_response.LW
p1076
aVtc_266_106_service_request_wrong_ta.LW
p1077
aVtc_39_771_mas_rnc_reset_when_wf_ptmsi_realloc_cmpl_source.LW
p1078
aVtc_78_036_imsi_attach_redirection_cause_14_from_hlr.LW
p1079
aVtc_78_055_intra_rau_forced_csps_coord_accept_home_ms.LW
p1080
aVtc_194_140_cl_subscription_withdraw_idle_paging_ue_not_responding_with_gbr_bearers.LW
p1081
aVtc_53_136_inter_new_ggsn_decrease_qos.LW
p1082
aVtc_241_646_intra_rau_with_bearer_sgw_change_with_3gdt_interfer_by_iu_release_req.LW
p1083
aVtc_263_240_Attach_Flow__Attach_Request_with_same_IE_while_waiting_for_identification_response.LW
p1084
aVtc_263_241_Attach_Flow__Attach_Request_with_diff_IE_while_waiting_for_identification_response.LW
p1085
aVtc_31_002_attach_new_subscriber_segmented_isd.LW
p1086
aVtc_203_431_mme_eps_ho_home_enodeb_id_with_csg_reject.LW
p1087
aVtc_294_371_s1_intra_handover_emc_type_b_hss_reset_update_loc_fail.LW
p1088
aVtc_273_167_tau_intra_periodic_connected.LW
p1089
aVtc_69_002_bvc_reset_ptp_bvc.LWG
p1090
aVtc_64_6_connection_release.LWG
p1091
aVtc_76_023_deactivate_ms_ggsn_simultanously.LWG
p1092
aVtc_76_014_ms_initiated_modification_interrupted_by_delete_two_contexts.LWG
p1093
aVtc_180_01_test_multiple_ip_g.LWG
p1094
aVtc_180_02_test_multiple_ip_w.LWG
p1095
aVtc_180_03_test_multiple_ip_g_2contexts.LWG
p1096
aVtc_218_218_1_TAU_from_SGSN__delete_bearer_request_while_waiting_for_TAU_Complete.LWG
p1097
aVtc_181_02_multiple_ip_deconf_iuandgngtp_traffic_w.LWG
p1098
aVtc_181_01_multiple_ip_deconf_gngtp_traffic_g.LWG
p1099
aVtc_284_351_pdn_connectivity_pb_activate_1_dedicated_bearer_interrupted_by_path_switch_request.LWG
p1100
aVtc_250_105_ignore_IDR_when_EPS_sub_downgrade_GPRS_sub.LWG
p1101
aVtc_262_755_attach_handover_indication_override_when_ue_already_attached.LWG
p1102
aVtc_23_09_transfer_to_primary_and_change_vip_addr.LWG
p1103
aVtc_263_240_Attach_Flow__Attach_Request_with_same_IE_while_waiting_for_identification_response.LWG
p1104
aVtc_263_241_Attach_Flow__Attach_Request_with_diff_IE_while_waiting_for_identification_response.LWG
p1105
aVtc_346_205_RFSP__last_sx_session_delete_remove_RFSP_from_SAPC.LWG
p1106
aVtc_346_582_sx_feature_off_service_request.LWG
p1107
aVtc_220_411_csfb_to_1xrtt_in_ecm_connected_path_switch_request_subscription_cancelled.LWG
p1108
aVtc_80_010_israu_conversational.LWG
p1109
aVtc_80_075_ggsn_modify_upgrade_to_conv_no_resources.LWG
p1110
aVtc_208_43_interception_after_small_restart.LWG
p1111
aVtc_205_71_03_ss7_M3UA_ASP_counters.LWG
p1112
aVtc_260_249_receive_sm_stop_req_while_wf_m3_stop_resp_2_session.LWG
p1113
aVtc_78_080_imsi_attach_accept_home_ms_no_redirect_attempt_flag.LWG
p1114
aVtc_183_005_itc_folder_file_names.LWG
p1115
aVtc_275_310_tau_inter_new_active_flag_keep_two_pdns_one_default_bearer_fail_in_eNB.LWG
p1116
aVtc_73_05_insert_max_pdp_contexts_for_one_ms.LWG
p1117
aVtc_73_41_gtpu_sgsn_dont_send_gpu_echo_request_w.LWG
p1118
aVtc_285_016_PDN_Connectivity__Handover_Required_while_pdn_disconnectivity.LWG
p1119
aVtc_326_236_Intra_TAU_Recovery_fail_SGW_Change_Create_Session_fail.LWG
p1120
aVtc_289_101_multi_pdn_pgw_init_bearer_mod_wf_service_interrupted_by_dbr_with_lbi.LWG
p1121
aVtc_67_006_ms_initiated_xid_negotiation_of_ack_mode_parameters.LWG
p1122
aVtc_67_008_erroneous_xid_commands.LWG
p1123
aVtc_324_006_mf_ser_req_signaling_after_ack_3gdt.LWG
p1124
aVtc_316_234_MME_Pool_Link_to_BMME_Fail_Select_New_BMME_Delete_Old_Backup.LWG
p1125
aVtc_101_029_mbms_session_mbr_not_supported.LWG
p1126
aVtc_313_013_inter_new_srns_reloc_s16_with_sgw_change_two_pdns_with_dedicate_bearer_create_session_one_pdn_failed.LWG
p1127
aVtc_11_305_iu_release_with_aace_mtz_gmm_info.LWG
p1128
aVtc_666_02_reboot_ss7_board.LWG
p1129
aVtc_666_06_block_rt_board.LWG
p1130
aVtc_159_200_check_ctum_log.LWG
p1131
aVtc_44_071_attach_long_imsi.L14b
p1132
aVtc_44_831_mme_assoc_reestablish__local_ep_restart_sbc.L14b
p1133
aVtc_43_040_eNB_configuration_update_mf.L14b
p1134
aVtc_43_101__removal_of_disconnected_eNodeBs__CLI_removal.L14b
p1135
aVtc_257_10_pws_etws_write_replace_warning_request_feature_off.L14b
p1136
aVtc_257_37_pws_etws_write_replace_warning_request_feature_off_when_olp_rshl_false.L14b
p1137
aVtc_103_205_app_specific_realm_routing.L14b
p1138
aVtc_103_501_outbound_olp_eutran.L14b
p1139
aVtc_266_011_DownlinkDataNotification_interfering_ISD_sgsn00026976.L14b
p1140
aVtc_293_241_X2_Based_HO__location_report_while_wf_update_location_wf_location_update.L14b
p1141
aVtc_276_045_Inter_TAU_New_MME__S1_Reset_while_waiting_for_Identity_Response__enhanced_imei_check.L14b
p1142
aVtc_304_263_tau_from_gnsgsn_when_wf_tau_complete_control_mode_reject_congestion.L14b
p1143
aVtc_47_004_mobile_reachble_timer_ap_loss.L14b
p1144
aVtc_318_150_sgw_restart_af_invalid_restart_counter.L14b
p1145
aVtc_263_240_Attach_Flow__Attach_Request_with_same_IE_while_waiting_for_identification_response.L14b
p1146
aVtc_263_241_Attach_Flow__Attach_Request_with_diff_IE_while_waiting_for_identification_response.L14b
p1147
aVtc_263_320_Attach_Flow__Attach_Request_Different_IEs_IP_OK_while_waiting_for_Update_Location_Answer.L14b
p1148
aVtc_327_322_recovery_service_request__initial_Imsi_Attach_Request_while_waiting_for_Ue_Backup_Response.L14b
p1149
aVtc_26_063_israu_mbr_set_to_zero_background.W14b
p1150
aVtc_39_187_detach_trigger_re_attach_new_iu.W14b
p1151
aVtc_231_113_rnc_reset_during_ms_act_si_ms_deact_rnc_contact.W14b
p1152
aVtc_340_20_validation_move_w_af_no_forward_relocation_response.WG14a
p1153
aVtc_322_161_smooth_move_ef_nas_after_paging_response_ignore.WG14a
p1154
aVtc_208_43_interception_after_small_restart.G14b
p1155
aVtc_44_871_mme_assoc_reestablish__board_block_sbc.LW
p1156
aVtc_202_40_emergency_pdn_ecm_connected.LW
p1157
aVtc_247_121_inter_w_to_l_old_wf_fwd_reloc_complete_interrupted_by_transfered_attach.LW
p1158
aVtc_298_145_EF_NRSPCA_interfere_Activation.LW
p1159
aVtc_241_646_intra_rau_with_bearer_sgw_change_with_3gdt_interfer_by_iu_release_req.LW
p1160
aVtc_78_001_imsi_attach_accept_home_ms.LW
p1161
aVtc_78_101_imsi_attach_with_selected_plmn_mocn_disable.LW
p1162
aVtc_78_061_intra_rau_redirection_cause_11.LW
p1163
aVtc_78_258_israu_new_sgsn_accept_home_ms_imsi_get_from_ms.LW
p1164
aVtc_52_52_reloc_wf_forw_rel_resp_interrupted_by_rnc_reset.LW
p1165
aVtc_310_119_af__HO_Cancel_after_HO_Command_before_Complete_from_MSC_after_Complete_from_SGSN.LW
p1166
aVtc_53_301_inter_new_srns_reloc_with_mbr_84m.LW
p1167
aVtc_53_109_inter_new_srns_reloc_interfere_service_request_signalling_same_iu.LW
p1168
aVtc_338_001_mf__OLP_Priority_after_context_change_gn.LW
p1169
aVtc_39_771_mas_rnc_reset_when_wf_ptmsi_realloc_cmpl_source.LW
p1170
aVtc_194_991_downlink_A21_AIS_during_waiting_location_report__idr_flags_ef.LW
p1171
aVtc_231_113_rnc_reset_during_ms_act_si_ms_deact_rnc_contact.LW
p1172
aVtc_220_023_csfb_to_1xrtt_ue_suspended_cancel_location_subscription_withdrawal.LW
p1173
aVtc_195_208_mme_logging_maximum_modify_eps_bearer_context.LW
p1174
aVtc_214_1126_la_selection_mf_oldlapreferred_combined_intra_tau_after_imsi_detach_triggered_by_sgs_paging.LW
p1175
aVtc_196_172_nrspca_during_t3385_when_receive_sgsn_context_ack_not_accepted.LW
p1176
aVtc_44_831_mme_assoc_reestablish__local_ep_restart_sbc.L14b
p1177
aVtc_273_167_tau_intra_periodic_connected.L14b
p1178
aVtc_293_241_X2_Based_HO__location_report_while_wf_update_location_wf_location_update.L14b
p1179
aVtc_257_03_pws_etws_main_flow_stop_warning_request_with_ta_list.L14b
p1180
aVtc_257_30_pws_sctp_device_failure.L14b
p1181
aVtc_46_102_diameter_peer_check_s6a_associated_2.L14b
p1182
aVtc_276_045_Inter_TAU_New_MME__S1_Reset_while_waiting_for_Identity_Response__enhanced_imei_check.L14b
p1183
aVtc_214_1028_la_selection_af_oldlapreferred_combined_intra_tau_without_old_la.L14b
p1184
aVtc_214_1084_la_selection_mf_oldlapreferred_combined_attach_dyn_tailist.L14b
p1185
aVtc_347_001_Inter_TAU_New_MME__Attach_Req_while_waiting_for_CCA_initial.L14b
p1186
aVtc_327_322_recovery_service_request__initial_Imsi_Attach_Request_while_waiting_for_Ue_Backup_Response.L14b
p1187
aVtc_194_991_downlink_A21_AIS_during_waiting_location_report__idr_flags_ef.L14b
p1188
aVtc_262_1055_imsi_attach_with_csg_id_is_rejected.LWG
p1189
aVtc_23_09_transfer_to_primary_and_change_vip_addr.LWG
p1190
aVtc_241_801_israu_interfering_context_request_no_cancel_location_s4.LWG
p1191
aVtc_319_073_path_management_configured_timer_expired.LWG
p1192
aVtc_181_02_multiple_ip_deconf_iuandgngtp_traffic_w.LWG
p1193
aVtc_103_1155_sx_retransmit__Small_restart_terminate_request.LWG
p1194
aVtc_57_6_reg_nonIndx_cntr_in_start_phase_LR.LWG
p1195
aVtc_205_71_03_ss7_M3UA_ASP_counters.LWG
p1196
aVtc_205_40_ss7_M3ua.LWG
p1197
aVtc_205_71_05_ss7_TCAP_TC.LWG
p1198
aVtc_180_03_test_multiple_ip_g_2contexts.LWG
p1199
aVtc_180_02_test_multiple_ip_w.LWG
p1200
aVtc_53_10_inter_new_srns_reloc_reloc_cancel_req1.LWG
p1201
aVtc_53_153_inter_new_srns_reloc_mocn_enabled_mocn_relocation_allowed_enabled.LWG
p1202
aVtc_666_06_block_rt_board.LWG
p1203
aVtc_342_864_online_change_LI_U.LWG
p1204
aVtc_196_172_nrspca_during_t3385_when_receive_sgsn_context_ack_not_accepted.LWG
p1205
aVtc_311_204_intra_srns_reloc_s4_sgw_change_wf_reloc_req_ack_interrupted_by_cancel_loc_subscrip_withdrawn.LWG
p1206
aVtc_05_110_inter_rau_new_identical_ptmsi_intruder_check.LWG
p1207
aVtc_257_14_pws_etws_stop_warning_request_license_off.LWG
p1208
aVtc_257_36_pws_etws_stop_warning_request_when_olp_rshl_false.LWG
p1209
aVtc_159_200_check_ctum_log.LWG
p1210
aVtc_44_871_mme_assoc_reestablish__board_block_sbc.LWG
p1211
aVtc_51_046_reloc_wf_rau_comp_interrupted_by_service_request_old_rai.LWG
p1212
aVtc_51_078_intra_srns_reloc_wf_reloc_req_ack_interrupted_by_update_req.LWG
p1213
aVtc_51_079_intra_srns_reloc_wf_reloc_req_ack_interrupted_by_delete_req.LWG
p1214
aVtc_51_084_intra_srns_reloc_wf_rau_req_interrupted_by_delete_req.LWG
p1215
aVtc_51_082_intra_srns_reloc_wf_rau_req_interrupted_by_deactivate_req.LWG
p1216
aVtc_347_335_Intra_TAU_With_Active_Flag__MS_Network_Cap_Set_RAR_while_waiting_for_Modify_Eps_Bearer_Context_Accept.LWG
p1217
aVtc_12_512_pmm_undefined_attach_when_updating_location_interfered_by_rnc_reset.LW
p1218
aVtc_324_042_af_gbr_higher_than_policymap.LW
p1219
aVtc_52_21_reloc_wf_forw_rel_compl_interrupted_by_attach_on_new_iu.LW
p1220
aVtc_225_616_exp_flow_handover_required_intra_while_wf_modification_context_response.LW
p1221
aVtc_220_413_csfb_to_1xrtt_in_ecm_connected_handover_required_meanwhile_CBR_received.LW
p1222
aVtc_298_145_EF_NRSPCA_interfere_Activation.LW
p1223
aVtc_298_783_S4_3GDT_downlink_data_notification_wait_MBR_ef_detach.LW
p1224
aVtc_342_079_x3_tcp_fail_during_signalling.LW
p1225
aVtc_219_131_s3_handover_w_to_l_with_cl_two_pdns_one_failed_sgw_relocation.LW
p1226
aVtc_218_311_tau_from_sgsn_preserved_gbr_bearer_buffer_1_ubr_1_cbr.LW
p1227
aVtc_276_045_Inter_TAU_New_MME__S1_Reset_while_waiting_for_Identity_Response__enhanced_imei_check.LW
p1228
aVtc_53_11_inter_new_srns_reloc_t_reloc_complete_timeout.LW
p1229
aVtc_326_246_Intra_TAU_Recovery_fail_Modify_Bearer_fail_active_flag_SGW_Change.LW
p1230
aVtc_244_522_SLg_Location_Request__Delete_Bearer_Request_wwf_Location_Response_from_ESMLC.L14b
p1231
aVtc_273_254_tau_intra__sgw_relocation_no_resp_delete_bearer_command_mult_pdn.L14b
p1232
aVtc_44_601_udp_on_same_board.L14b
p1233
aVtc_44_840_mme_assoc_reestablish__device_restart_s1_mme.L14b
p1234
aVtc_44_850_mme_assoc_reestablish__board_restart_s1_mme.L14b
p1235
aVtc_44_870_mme_assoc_reestablish__board_block_s1_mme.L14b
p1236
aVtc_276_045_Inter_TAU_New_MME__S1_Reset_while_waiting_for_Identity_Response__enhanced_imei_check.L14b
p1237
aVtc_194_505_Notification_during_Intra_TAU_without_SGW_Relocation_HSS_Reset_Before_TAU.L14b
p1238
aVtc_327_316_recovery_service_request__initial_Attach_Request_while_waiting_for_Sub_Procedure__Create_Session_Response_Old_Sgw_Unavailable.L14b
p1239
aVtc_262_751_attach_handover_indication_no_override_after_timeout.L14b
p1240
aVtc_329_310_s1_inter_ho_target_rs_restricted.L14b
p1241
aVtc_293_241_X2_Based_HO__location_report_while_wf_update_location_wf_location_update.L14b
p1242
aVtc_225_206_mo_call_emergency_idle_mode.L14b
p1243
aVtc_43_040_eNB_configuration_update_mf.L14b
p1244
aVtc_208_43_interception_after_small_restart.G14b
p1245
aVtc_297_407_move_at_periodic_rau.G14b
p1246
aVtc_298_317_EF_SIBD_S4_Create_Bearer_Request.LWG
p1247
aVtc_316_224_PGW_Initiated_Bearer_Mod_Wo_QOS_Change_UE_AMBR_Change__Backup_UE.LWG
p1248
aVtc_78_030_israu_default_sgsn_context_request_relay.LWG
p1249
aVtc_241_432_intra_rau_with_bearer_sgw_unchange_2_pdns_3gdt.LWG
p1250
aVtc_241_1636_israu_new_modify_bearer_response_timeout_followed_by_ms_init_deac.LWG
p1251
aVtc_181_04_multiple_ip_deconf_iugtp_w.LWG
p1252
aVtc_181_01_multiple_ip_deconf_gngtp_traffic_g.LWG
p1253
aVtc_181_02_multiple_ip_deconf_iuandgngtp_traffic_w.LWG
p1254
aVtc_159_200_check_ctum_log.LWG
p1255
aVtc_166_428_rnc_initiated_rab_release_interfered_by_rnc_initiated_iu_release_request.LWG
p1256
aVtc_259_92_ef_provide_subscriber_information_psho_intra_g_to_w.LWG
p1257
aVtc_267_215_Service_Request__PDN_Connectivity_Request_while_waiting_for_Modify_Bearer_Response.LWG
p1258
aVtc_205_71_03_ss7_M3UA_ASP_counters.LWG
p1259
aVtc_268_082_Timer_Based_GBR_Deact__receive_DDN_only_GBR_bearer_set_to_allbearers.LWG
p1260
aVtc_53_301_inter_new_srns_reloc_with_mbr_84m.LWG
p1261
aVtc_53_145_ms_not_reachable_during_relocation.LWG
p1262
aVtc_53_143_inter_new_srns_reloc_background_rab_not_allocated_in_target_rnc.LWG
p1263
aVtc_53_156_inter_new_srns_reloc_all_ipv4v6_daf_off.LWG
p1264
aVtc_180_03_test_multiple_ip_g_2contexts.LWG
p1265
aVtc_180_02_test_multiple_ip_w.LWG
p1266
aVtc_180_04_test_multiple_ip_w_2contexts.LWG
p1267
aVtc_69_010_bssgp_pm_counters_flow_control.LWG
p1268
aVtc_79_026_sgsn_init_modification_rnc_not_supporting_modify_II.LWG
p1269
aVtc_665_24_sr_then_loss.LWG
p1270
aVtc_318_186_sgw_restart_ef_relocate_interrupt_by_DeleteBearerReq.LWG
p1271
aVtc_297_401_move_at_attach_home_with_imsi_accept.LWG
p1272
aVtc_257_13_pws_etws_write_replace_warning_request_license_off.LWG
p1273
aVtc_219_131_s3_handover_w_to_l_with_cl_two_pdns_one_failed_sgw_relocation.LWG
p1274
aVtc_238_052_mme_eps_irat_ho_target__tau_request_during_wf_handover_notify.LWG
p1275
aVtc_179_318_Ccheck_TraceCollectionIpv6server.LWG
p1276
aVtc_250_67_s6d_activation_with_EPS_data_s4_license_off.LWG
p1277
aVtc_61_4_two_following_static_worker_crashes.LWG
p1278
aVtc_666_06_block_rt_board.LWG
p1279
aVtc_250_154_attach_eps_sub_no_odb_activation_insert_gprs_sub_with_odb_deact.W14b
p1280
aVtc_31_017_attach_ul_fails_network_failure_timeout.W14b
p1281
aVtc_12_512_pmm_undefined_attach_when_updating_location_interfered_by_rnc_reset.W14b
p1282
aVtc_236_049_s4_3gdt_rnc_reset_during_waiting_for_modify_beaer_rsp_in_service_request_procedure.W14b
p1283
aVtc_52_45_inter_old_srns_reloc_main_flow_interfered_by_delete_subscr.W14b
p1284
aVtc_298_103_EF_NRSPCA_S4_another_NRSPCA.W14b
p1285
aVtc_39_187_detach_trigger_re_attach_new_iu.W14b
p1286
aVtc_39_433_mas_one_pdp_downlink_data_3gdt_upd_loc_ack_b4_upd_pdp_ctx_resp_target.W14b
p1287
aVtc_205_71_01_ss7_SCCP_CR_DT1_RLSD.LWG
p1288
aVtc_205_71_03_ss7_M3UA_ASP_counters.LWG
p1289
aVtc_220_583_csfb_to_1xrtt_in_ecm_idle_extended_service_request_as_paging_response_create_bearer.LWG
p1290
aVtc_53_140_inter_new_invalid_qos_profile.LWG
p1291
aVtc_53_141_inter_new_subscription_data_changes.LWG
p1292
aVtc_53_148_inter_new_srns_reloc_move_job_ongoing.LWG
p1293
aVtc_39_601_mas_unsucc_fwd_reloc_resp_mandatory_ie_missing_stop_source.LWG
p1294
aVtc_298_073_s4_nrspca_activate_same_nsapi_of_dedicated_bearer_rab_released.LWG
p1295
aVtc_327_225_recovery_service_request__Delete_Subscriber_Data_while_waiting_for_Create_Session_Response.LWG
p1296
aVtc_324_113_af_no_frca_service_request_data_rab_partially_setup_3gdt.LWG
p1297
aVtc_316_206_TAU_From_S4_SGSN_Multiple_PDN_Connections_With_Max_Dedicated_Bearers__Backup_UE.LWG
p1298
aVtc_90_025_israu_req99_sub97.LWG
p1299
aVtc_23_13_israu_out.LWG
p1300
aVtc_63_4_stop_timer.LWG
p1301
aVtc_238_190_mme_eps_irat_Gn_ho_target__handover_from_gn_sgsn_to_mme_to_gn_sgsn.LWG
p1302
aVtc_196_172_nrspca_during_t3385_when_receive_sgsn_context_ack_not_accepted.LWG
p1303
aVtc_181_04_multiple_ip_deconf_iugtp_w.LWG
p1304
aVtc_181_01_multiple_ip_deconf_gngtp_traffic_g.LWG
p1305
aVtc_277_103_tau_inter_old_plmn_change_unauthenticated_emergency_ongoing_implicit_detach.LWG
p1306
aVtc_60_6_attach_detach_hlr_reset.LWG
p1307
aVtc_60_2_hlr_reset_during_activate.LWG
p1308
aVtc_318_132_sgw_restart_mf_relocation_triggered_by_service_request_multi_pdn.LWG
p1309
aVtc_183_005_itc_folder_file_names.LWG
p1310
aVtc_289_070_GW_Init_Bearer_Modification_Flow_two_CBR_one_UBR_while_wf_modify_eps_bearer_context_accept.LWG
p1311
aVtc_289_101_multi_pdn_pgw_init_bearer_mod_wf_service_interrupted_by_dbr_with_lbi.LWG
p1312
aVtc_199_04_incoming_request_w_faulty_length.LWG
p1313
aVtc_44_871_mme_assoc_reestablish__board_block_sbc.LWG
p1314
aVtc_73_21_itc_gtpu_s4_sgsn_send_echo_request_w.LWG
p1315
aVtc_73_06_insert_multiple_pdp_contexts_and_remove_some_of_them.LWG
p1316
aVtc_159_200_check_ctum_log.LWG
p1317
aVtc_180_03_test_multiple_ip_g_2contexts.LWG
p1318
aVtc_180_01_test_multiple_ip_g.LWG
p1319
aVtc_180_02_test_multiple_ip_w.LWG
p1320
aVtc_180_04_test_multiple_ip_w_2contexts.LWG
p1321
aVtc_326_244_Intra_TAU_Recovery_fail_default_bearer_fail_to_setup.LW
p1322
aVtc_28_050_mo_sms_homer_no_block_redirection.LW
p1323
aVtc_103_850_error_code_DIAMETER_REALM_NOT_SERVED.LW
p1324
aVtc_103_831_DPR_cause_BUSY.LW
p1325
aVtc_103_1130_sx_resend__CCR_I_timeout_another_pdn_diameter_unable_to_deliver_only_realm.LW
p1326
aVtc_332_010_mf__paging_due_to_downlink_data_notification.LW
p1327
aVtc_51_041_reloc_wf_reloc_comp_interrupted_by_source_rnc_reset.LW
p1328
aVtc_51_073_reloc_wf_rau_complete_interrupted_by_rau_on_new_iu.LW
p1329
aVtc_51_101_intra_ra_intra_srns_reloc_main_flow.LW
p1330
aVtc_51_083_intra_srns_reloc_wf_rau_req_interrupted_by_update_req.LW
p1331
aVtc_329_203_inter_tau_new_rs_restricted_emergency.LW
p1332
aVtc_231_113_rnc_reset_during_ms_act_si_ms_deact_rnc_contact.LW
p1333
aVtc_202_40_emergency_pdn_ecm_connected.LW
p1334
aVtc_265_102_Detach_Flow_NW_init__Reattach_Required_Attach_Request_while_waiting_for_Context_Release_Complete.LW
p1335
aVtc_316_710_SubRAN_create_GaTaRange.LW
p1336
aVtc_347_231_Extended_Service_Request__Location_Report_while_waiting_ES_Request_and_RAR_while_waiting_for_UCR_Complete.LW
p1337
aVtc_266_106_service_request_wrong_ta.LW
p1338
aVtc_53_138_inter_new_ggsn_decrease_qos_rab_setup_fault.LW
p1339
aVtc_218_311_tau_from_sgsn_preserved_gbr_bearer_buffer_1_ubr_1_cbr.LW
p1340
aVtc_52_11_inter_old_neg_forwSRNScont_ack.LW
p1341
aVtc_52_28_inter_old_srns_reloc_main_flow_canc_loc_sub_withd.LW
p1342
aVtc_297_407_move_at_periodic_rau.G14b
p1343
aVtc_295_137_mt_call_during_s1_ho_tau_request_when_wf_handover_notify.L14b
p1344
aVtc_293_241_X2_Based_HO__location_report_while_wf_update_location_wf_location_update.L14b
p1345
aVtc_43_040_eNB_configuration_update_mf.L14b
p1346
aVtc_276_045_Inter_TAU_New_MME__S1_Reset_while_waiting_for_Identity_Response__enhanced_imei_check.L14b
p1347
aVtc_578_32_check_ebm_para_statistics_ue_return_duration.L14b
p1348
aVtc_304_114_initial_ue_intra_tau_control_mode_threshold_exceeded_usc_ignore_replace_s1.L14b
p1349
aVtc_262_1031_emergency_imsi_attach_multiple_pgw_try_next_pgw_fqdn_error.L14b
p1350
aVtc_202_42_type_c_emergency_pdn_ecm_idle.L14b
p1351
aVtc_202_40_emergency_pdn_ecm_connected.L14b
p1352
aVtc_202_421_af_seamless_move_target_initialCtxSetupResponse_noSuccDefaultBearer_implicit_detach.L14b
p1353
aVtc_103_202_realm_routing_wrong_app.L14b
p1354
aVtc_103_007_delete_diameter_peer.L14b
p1355
aVtc_289_060_Modify_bearer__UE_context_modification_request_meanwhile_handover_required_HO_all_bearers_fail.L14b
p1356
aVtc_261_64_isd_ef_mme_interfere_x2_handover_with_sgw_change.L14b
p1357
aVtc_322_161_smooth_move_ef_nas_after_paging_response_ignore.WG14a
p1358
aVtc_33_4_isc_attach_g_to_w_with_no_vectors_left.WG14a
p1359
aVtc_33_14_isc_rau_g_to_w_with_no_vectors_left.WG14a
p1360
aVtc_33_17_isc_rau_authenticating_interrupted_by_subscription_withdrawn.WG14a
p1361
aVtc_33_32_isc_g_to_w_then_israu_old.WG14a
p1362
aVtc_33_50_isc_rau_g_to_w_selective_authentication_4_own_plmn_not_trusted.WG14a
p1363
aVtc_12_4_attach_ptmsi_signalling_connection_release.W14b
p1364
aVtc_31_008_cl_update_procedure_detached_unknown_sgsn.W14b
p1365
aVtc_231_113_rnc_reset_during_ms_act_si_ms_deact_rnc_contact.W14b
p1366
aVtc_248_09_inter_l_to_w_new_3gdt.W14b
p1367
aVtc_236_039_s4_3gdt_detach_during_waiting_for_modify_bearer_rsp_in_active_procedure.W14b
p1368
aVtc_324_043_af_mbr_higher_than_policymap.W14b
p1369
aVtc_324_455_ef_detach_request_poweroff_abort_wf_rab_assignment_response_wf_update_location_hss_service_req_data.W14b
p1370
aVtc_298_208_SIBD_S4_Service_Request_PDP_Context_Status_Connect.W14b
p1371
a.